((lp0
I4723129
aI4849774
aI4860026
aI4965594
aI4982199
aI4994825
aI5040000
aI5132711
aI5138344
aI5155502
aI5162817
aI5175565
aI5179389
aI5180065
aI5208604
aI5218376
aI5262802
aI5275787
aI5359355
aI5367324
aI5370842
aI5381172
aI5389957
aI5444468
aI5477246
aI5479197
aI5485187
aI5489995
aI5506611
aI5509140
aI5528271
aI5589858
aI5619238
aI5784088
aI5818474
aI5821962
aI5841452
aI5861897
aI5896143
aI5946012
aI6007187
aI6019457
aI6050669
aI6062667
aI6151049
aI6172688
aI6174050
aI6476926
aI5375979
aI5555461
aI5142374
aI6543879
aI5731828
aI5412411
aI5534897
aI5717446
aI6726306
aI5788388
aI5802420
aI5812156
aI5860363
aI6019449
aI6116715
aI6158837
aI5266968
aI5414452
aI5455617
aI5619239
aI5699091
aI6039430
aI6089687
aI6113208
aI6130695
aI6371586
aI6386772
aI6502917
aI6631967
aI6694884
aI5359357
aI5619237
aI6149256
aI5289211
aI6022102
aI6241350
aI6290334
aI6248590
aI6589792
aI5350616
aI5478606
aI6229114
aI5741462
aI6048734
aI6130098
aI6352854
aI6977722
aI7118351
aI6003977
aI5835817
aI5949459
aI6019461
aI6065824
aI6074042
aI6126265
aI6151041
aI6155664
aI6196670
aI6378997
aI6416152
aI6460984
aI6238044
aI6302535
aI6079821
aI6183067
aI6019466
aI6341845
aI6543880
aI6557976
aI6062681
aI6247790
aI7637594
aI6405055
aI6628430
aI8015234
aI5856174
aI5922591
aI5942443
aI6043080
aI6046056
aI6132685
aI6150180
aI6168948
aI6197595
aI6267858
aI6274337
aI6306659
aI6326211
aI6408878
aI6429025
aI6793753
aI6818395
aI6830936
aI6899137
aI6911345
aI6929030
aI6951632
aI6960437
aI7097809
aI7118910
aI7144616
aI7169560
aI7258774
aI7279146
aI7294503
aI7297518
aI7476363
aI7526741
aI6215969
aI6652082
aI5579445
aI6318920
aI6796731
aI6302527
aI6390590
aI6742887
aI6798997
aI6227643
aI5995774
aI6312106
aI6802659
aI5610635
aI5997121
aI6000773
aI6099178
aI5926666
aI5997124
aI6011937
aI7124097
aI5552816
aI6585358
aI6155678
aI6481829
aI6375314
aI6626529
aI6652089
aI6652090
aI5367328
aI6390611
aI6592822
aI6116718
aI5804083
aI6482574
aI6319668
aI6340588
aI6372428
aI6867051
aI6942771
aI6375901
aI6575188
aI6524456
aI6632656
aI6911132
aI7059352
aI7156117
aI7665303
aI7291497
aI7297151
aI7316700
aI7344507
aI7374544
aI7410468
aI7481776
aI7491178
aI7524293
aI7537571
aI7547287
aI7563232
aI7582063
aI7582099
aI7604592
aI7648468
aI7674232
aI7682318
aI7713214
aI6491362
aI6505921
aI6554410
aI6575566
aI6588888
aI6793328
aI6851796
aI6270182
aI6554398
aI5993611
aI6054277
aI6080295
aI6126804
aI6221654
aI6284465
aI6296020
aI6344325
aI6355491
aI6391541
aI6440725
aI6540895
aI6544734
aI6589626
aI6602702
aI6613513
aI6618679
aI6632655
aI6649403
aI6653124
aI6654505
aI6664104
aI6831994
aI6881541
aI6893879
aI6969488
aI7105300
aI6440645
aI6499499
aI6521188
aI6572830
aI7033764
aI7052847
aI7056661
aI7056676
aI7170050
aI7338639
aI7948015
aI6068752
aI6153073
aI6156181
aI6235471
aI6238538
aI6274089
aI6280967
aI6322683
aI6358387
aI6361958
aI6399025
aI6403338
aI6406921
aI6444461
aI6454924
aI6495104
aI6500323
aI6506609
aI6508988
aI6592821
aI6596545
aI6613581
aI6632619
aI6749814
aI6939451
aI7129554
aI7238323
aI7254151
aI6767706
aI6334960
aI6696220
aI6719915
aI6873087
aI6916584
aI6921615
aI6932934
aI7077992
aI7390458
aI6368871
aI6829753
aI6885982
aI6884628
aI6949176
aI6752922
aI7888013
aI6934485
aI6185320
aI6466618
aI7508535
aI6554381
aI6367903
aI6361136
aI6351620
aI6681088
aI5852459
aI6676987
aI6995622
aI7157723
a(lp1
(lp2
I4723129
aa(lp3
I4849774
aI4860026
aI4965594
aI4982199
aI4994825
aI5040000
aI5132711
aI5138344
aI5155502
aI5162817
aI5175565
aI5179389
aI5180065
aI5208604
aI5218376
aI5262802
aI5275787
aI5359355
aI5367324
aI5370842
aI5381172
aI5389957
aI5444468
aI5477246
aI5479197
aI5485187
aI5489995
aI5506611
aI5509140
aI5528271
aI5589858
aI5619238
aI5784088
aI5818474
aI5821962
aI5841452
aI5861897
aI5896143
aI5946012
aI6007187
aI6019457
aI6050669
aI6062667
aI6151049
aI6172688
aI6174050
aI6476926
aa(lp4
I5375979
aI5555461
aI5142374
aI6543879
aI5731828
aI5412411
aI5534897
aI5717446
aI6726306
aI5788388
aI5802420
aI5812156
aI5860363
aI6019449
aI6116715
aI6158837
aI5266968
aI5414452
aI5455617
aI5619239
aI5699091
aI6039430
aI6089687
aI6113208
aI6130695
aI6371586
aI6386772
aI6502917
aI6631967
aI6694884
aI5359357
aI5619237
aI6149256
aI5289211
aI6022102
aI6241350
aI6290334
aI6248590
aI6589792
aI5350616
aI5478606
aI6229114
aI5741462
aI6048734
aI6130098
aI6352854
aI6977722
aI7118351
aI6003977
aI5835817
aI5949459
aI6019461
aI6065824
aI6074042
aI6126265
aI6151041
aI6155664
aI6196670
aI6378997
aI6416152
aI6460984
aI6238044
aI6302535
aI6079821
aI6183067
aI6019466
aI6341845
aI6543880
aI6557976
aI6062681
aI6247790
aI7637594
aI6405055
aI6628430
aI8015234
aa(lp5
I5856174
aI5922591
aI5942443
aI6043080
aI6046056
aI6132685
aI6150180
aI6168948
aI6197595
aI6267858
aI6274337
aI6306659
aI6326211
aI6408878
aI6429025
aI6793753
aI6818395
aI6830936
aI6899137
aI6911345
aI6929030
aI6951632
aI6960437
aI7097809
aI7118910
aI7144616
aI7169560
aI7258774
aI7279146
aI7294503
aI7297518
aI7476363
aI7526741
aI6215969
aI6652082
aI5579445
aI6318920
aI6796731
aI6302527
aI6390590
aI6742887
aI6798997
aI6227643
aI5995774
aI6312106
aI6802659
aI5610635
aI5997121
aI6000773
aI6099178
aI5926666
aI5997124
aI6011937
aI7124097
aI5552816
aI6585358
aI6155678
aI6481829
aI6375314
aI6626529
aI6652089
aI6652090
aI5367328
aI6390611
aI6592822
aI6116718
aI5804083
aI6482574
aI6319668
aI6340588
aI6372428
aI6867051
aI6942771
aI6375901
aI6575188
aI6524456
aI6632656
aI6911132
aI7059352
aI7156117
aI7665303
aI7291497
aI7297151
aI7316700
aI7344507
aI7374544
aI7410468
aI7481776
aI7491178
aI7524293
aI7537571
aI7547287
aI7563232
aI7582063
aI7582099
aI7604592
aI7648468
aI7674232
aI7682318
aI7713214
aI6491362
aI6505921
aI6554410
aI6575566
aI6588888
aI6793328
aI6851796
aI6270182
aI6554398
aa(lp6
I5993611
aI6054277
aI6080295
aI6126804
aI6221654
aI6284465
aI6296020
aI6344325
aI6355491
aI6391541
aI6440725
aI6540895
aI6544734
aI6589626
aI6602702
aI6613513
aI6618679
aI6632655
aI6649403
aI6653124
aI6654505
aI6664104
aI6831994
aI6881541
aI6893879
aI6969488
aI7105300
aI6440645
aI6499499
aI6521188
aI6572830
aI7033764
aI7052847
aI7056661
aI7056676
aI7170050
aI7338639
aI7948015
aI6068752
aI6153073
aI6156181
aI6235471
aI6238538
aI6274089
aI6280967
aI6322683
aI6358387
aI6361958
aI6399025
aI6403338
aI6406921
aI6444461
aI6454924
aI6495104
aI6500323
aI6506609
aI6508988
aI6592821
aI6596545
aI6613581
aI6632619
aI6749814
aI6939451
aI7129554
aI7238323
aI7254151
aI6767706
aI6334960
aI6696220
aI6719915
aI6873087
aI6916584
aI6921615
aI6932934
aI7077992
aI7390458
aI6368871
aI6829753
aI6885982
aI6884628
aI6949176
aI6752922
aI7888013
aI6934485
aI6185320
aI6466618
aI7508535
aI6554381
aI6367903
aI6361136
aI6351620
aI6681088
aI5852459
aI6676987
aI6995622
aI7157723
aa(lp7
(I4723129
I4849774
tp8
a(I4723129
I4860026
tp9
a(I4723129
I4965594
tp10
a(I4723129
I4982199
tp11
a(I4723129
I4994825
tp12
a(I4723129
I5040000
tp13
a(I4723129
I5132711
tp14
a(I4723129
I5138344
tp15
a(I4723129
I5155502
tp16
a(I4723129
I5162817
tp17
a(I4723129
I5175565
tp18
a(I4723129
I5179389
tp19
a(I4723129
I5180065
tp20
a(I4723129
I5208604
tp21
a(I4723129
I5218376
tp22
a(I4723129
I5262802
tp23
a(I4723129
I5275787
tp24
a(I4723129
I5359355
tp25
a(I4723129
I5367324
tp26
a(I4723129
I5370842
tp27
a(I4723129
I5381172
tp28
a(I4723129
I5389957
tp29
a(I4723129
I5444468
tp30
a(I4723129
I5477246
tp31
a(I4723129
I5479197
tp32
a(I4723129
I5485187
tp33
a(I4723129
I5489995
tp34
a(I4723129
I5506611
tp35
a(I4723129
I5509140
tp36
a(I4723129
I5528271
tp37
a(I4723129
I5589858
tp38
a(I4723129
I5619238
tp39
a(I4723129
I5784088
tp40
a(I4723129
I5818474
tp41
a(I4723129
I5821962
tp42
a(I4723129
I5841452
tp43
a(I4723129
I5861897
tp44
a(I4723129
I5896143
tp45
a(I4723129
I5946012
tp46
a(I4723129
I6007187
tp47
a(I4723129
I6019457
tp48
a(I4723129
I6050669
tp49
a(I4723129
I6062667
tp50
a(I4723129
I6151049
tp51
a(I4723129
I6172688
tp52
a(I4723129
I6174050
tp53
a(I4723129
I6476926
tp54
a(I4849774
I5375979
tp55
a(I4849774
I5555461
tp56
a(I4860026
I5142374
tp57
a(I4860026
I5359355
tp58
a(I4982199
I6543879
tp59
a(I4994825
I5731828
tp60
a(I4994825
I6007187
tp61
a(I4994825
I6151049
tp62
a(I4994825
I6174050
tp63
a(I5040000
I5412411
tp64
a(I5040000
I5534897
tp65
a(I5040000
I5717446
tp66
a(I5040000
I5896143
tp67
a(I5040000
I6726306
tp68
a(I5132711
I5788388
tp69
a(I5132711
I5802420
tp70
a(I5132711
I5812156
tp71
a(I5132711
I5860363
tp72
a(I5132711
I6019449
tp73
a(I5132711
I6116715
tp74
a(I5132711
I6158837
tp75
a(I5138344
I5266968
tp76
a(I5138344
I5414452
tp77
a(I5138344
I5455617
tp78
a(I5138344
I5619239
tp79
a(I5138344
I5699091
tp80
a(I5138344
I5812156
tp81
a(I5138344
I5860363
tp82
a(I5138344
I6019449
tp83
a(I5138344
I6039430
tp84
a(I5138344
I6089687
tp85
a(I5138344
I6113208
tp86
a(I5138344
I6130695
tp87
a(I5138344
I6371586
tp88
a(I5138344
I6386772
tp89
a(I5138344
I6502917
tp90
a(I5138344
I6631967
tp91
a(I5138344
I6694884
tp92
a(I5155502
I5359357
tp93
a(I5155502
I5509140
tp94
a(I5155502
I5619237
tp95
a(I5155502
I5619238
tp96
a(I5155502
I5619239
tp97
a(I5155502
I5784088
tp98
a(I5155502
I5788388
tp99
a(I5155502
I5860363
tp100
a(I5155502
I5861897
tp101
a(I5155502
I6149256
tp102
a(I5162817
I5289211
tp103
a(I5162817
I5509140
tp104
a(I5162817
I5619238
tp105
a(I5162817
I5788388
tp106
a(I5162817
I6022102
tp107
a(I5162817
I6050669
tp108
a(I5162817
I6062667
tp109
a(I5162817
I6241350
tp110
a(I5162817
I6476926
tp111
a(I5175565
I6290334
tp112
a(I5180065
I6248590
tp113
a(I5180065
I6589792
tp114
a(I5208604
I5350616
tp115
a(I5208604
I5478606
tp116
a(I5208604
I5731828
tp117
a(I5208604
I6007187
tp118
a(I5208604
I6151049
tp119
a(I5208604
I6174050
tp120
a(I5208604
I6229114
tp121
a(I5262802
I5509140
tp122
a(I5262802
I5619238
tp123
a(I5262802
I5896143
tp124
a(I5262802
I6151049
tp125
a(I5275787
I5741462
tp126
a(I5275787
I6048734
tp127
a(I5275787
I6130098
tp128
a(I5275787
I6352854
tp129
a(I5370842
I6248590
tp130
a(I5370842
I6589792
tp131
a(I5370842
I6977722
tp132
a(I5370842
I7118351
tp133
a(I5389957
I6003977
tp134
a(I5389957
I6007187
tp135
a(I5389957
I6151049
tp136
a(I5389957
I6174050
tp137
a(I5477246
I5818474
tp138
a(I5485187
I6022102
tp139
a(I5506611
I5699091
tp140
a(I5506611
I5788388
tp141
a(I5506611
I5812156
tp142
a(I5506611
I5835817
tp143
a(I5506611
I5860363
tp144
a(I5506611
I5949459
tp145
a(I5506611
I6019449
tp146
a(I5506611
I6019461
tp147
a(I5506611
I6062667
tp148
a(I5506611
I6065824
tp149
a(I5506611
I6074042
tp150
a(I5506611
I6113208
tp151
a(I5506611
I6126265
tp152
a(I5506611
I6130695
tp153
a(I5506611
I6151041
tp154
a(I5506611
I6155664
tp155
a(I5506611
I6196670
tp156
a(I5506611
I6378997
tp157
a(I5506611
I6416152
tp158
a(I5506611
I6502917
tp159
a(I5509140
I6022102
tp160
a(I5509140
I6460984
tp161
a(I5619238
I6022102
tp162
a(I5619238
I6460984
tp163
a(I5784088
I6238044
tp164
a(I5784088
I6302535
tp165
a(I5784088
I6460984
tp166
a(I5821962
I6151049
tp167
a(I5841452
I6079821
tp168
a(I5841452
I6183067
tp169
a(I5861897
I6039430
tp170
a(I5861897
I6371586
tp171
a(I5861897
I6502917
tp172
a(I5861897
I6631967
tp173
a(I5896143
I6019466
tp174
a(I5946012
I6341845
tp175
a(I5946012
I6543879
tp176
a(I5946012
I6543880
tp177
a(I5946012
I6557976
tp178
a(I6007187
I6062681
tp179
a(I6007187
I6247790
tp180
a(I6007187
I7637594
tp181
a(I6151049
I7637594
tp182
a(I6172688
I6405055
tp183
a(I6172688
I6628430
tp184
a(I6476926
I8015234
tp185
a(I5375979
I5856174
tp186
a(I5375979
I5922591
tp187
a(I5375979
I5942443
tp188
a(I5375979
I6043080
tp189
a(I5375979
I6046056
tp190
a(I5375979
I6132685
tp191
a(I5375979
I6150180
tp192
a(I5375979
I6168948
tp193
a(I5375979
I6197595
tp194
a(I5375979
I6267858
tp195
a(I5375979
I6274337
tp196
a(I5375979
I6306659
tp197
a(I5375979
I6326211
tp198
a(I5375979
I6408878
tp199
a(I5375979
I6429025
tp200
a(I5375979
I6793753
tp201
a(I5375979
I6818395
tp202
a(I5375979
I6830936
tp203
a(I5375979
I6899137
tp204
a(I5375979
I6911345
tp205
a(I5375979
I6929030
tp206
a(I5375979
I6951632
tp207
a(I5375979
I6960437
tp208
a(I5375979
I7097809
tp209
a(I5375979
I7118351
tp210
a(I5375979
I7118910
tp211
a(I5375979
I7144616
tp212
a(I5375979
I7169560
tp213
a(I5375979
I7258774
tp214
a(I5375979
I7279146
tp215
a(I5375979
I7294503
tp216
a(I5375979
I7297518
tp217
a(I5375979
I7476363
tp218
a(I5375979
I7526741
tp219
a(I5555461
I6215969
tp220
a(I5555461
I6652082
tp221
a(I5142374
I5579445
tp222
a(I5412411
I6318920
tp223
a(I5412411
I6796731
tp224
a(I5788388
I6039430
tp225
a(I5788388
I6155664
tp226
a(I5788388
I6302527
tp227
a(I5788388
I6371586
tp228
a(I5788388
I6390590
tp229
a(I5788388
I6502917
tp230
a(I5788388
I6631967
tp231
a(I5802420
I6742887
tp232
a(I5802420
I6798997
tp233
a(I5812156
I6126265
tp234
a(I5812156
I6227643
tp235
a(I5812156
I6302535
tp236
a(I5812156
I6390590
tp237
a(I5812156
I6502917
tp238
a(I6116715
I6405055
tp239
a(I6116715
I6628430
tp240
a(I6158837
I6798997
tp241
a(I5266968
I5455617
tp242
a(I5266968
I5995774
tp243
a(I5266968
I6065824
tp244
a(I5266968
I6302527
tp245
a(I5266968
I6312106
tp246
a(I5266968
I6386772
tp247
a(I5266968
I6694884
tp248
a(I5266968
I6802659
tp249
a(I5414452
I5610635
tp250
a(I5414452
I5699091
tp251
a(I5414452
I5788388
tp252
a(I5414452
I5860363
tp253
a(I5414452
I5997121
tp254
a(I5414452
I6000773
tp255
a(I5414452
I6116715
tp256
a(I5414452
I6130695
tp257
a(I5414452
I6227643
tp258
a(I5414452
I6502917
tp259
a(I5455617
I6099178
tp260
a(I5455617
I6386772
tp261
a(I5455617
I6694884
tp262
a(I5455617
I6802659
tp263
a(I5619239
I6302535
tp264
a(I5699091
I5926666
tp265
a(I5699091
I5997124
tp266
a(I5699091
I6011937
tp267
a(I5699091
I6039430
tp268
a(I5699091
I6089687
tp269
a(I5699091
I6155664
tp270
a(I5699091
I6302527
tp271
a(I5699091
I6312106
tp272
a(I5699091
I6502917
tp273
a(I6039430
I6302527
tp274
a(I6039430
I6312106
tp275
a(I6039430
I6386772
tp276
a(I6039430
I6502917
tp277
a(I6039430
I6694884
tp278
a(I6039430
I6802659
tp279
a(I6113208
I6694884
tp280
a(I6113208
I7124097
tp281
a(I6130695
I6502917
tp282
a(I6371586
I6502917
tp283
a(I6371586
I6694884
tp284
a(I6386772
I6694884
tp285
a(I5359357
I5552816
tp286
a(I5359357
I6585358
tp287
a(I5619237
I6149256
tp288
a(I5619237
I6155678
tp289
a(I5619237
I6302535
tp290
a(I5619237
I6481829
tp291
a(I6149256
I6375314
tp292
a(I6149256
I6626529
tp293
a(I6149256
I6652089
tp294
a(I6149256
I6652090
tp295
a(I5289211
I5367328
tp296
a(I5289211
I5997121
tp297
a(I6022102
I6390611
tp298
a(I6022102
I6460984
tp299
a(I6241350
I6405055
tp300
a(I6241350
I6628430
tp301
a(I6248590
I6589792
tp302
a(I6248590
I6592822
tp303
a(I5350616
I6062681
tp304
a(I5350616
I6116718
tp305
a(I5478606
I5804083
tp306
a(I5478606
I6482574
tp307
a(I5741462
I6319668
tp308
a(I5741462
I6340588
tp309
a(I5741462
I6352854
tp310
a(I5741462
I6372428
tp311
a(I5741462
I6867051
tp312
a(I5741462
I6942771
tp313
a(I6048734
I6375901
tp314
a(I6048734
I6575188
tp315
a(I6130098
I6326211
tp316
a(I6130098
I6524456
tp317
a(I6130098
I6575188
tp318
a(I6130098
I6632656
tp319
a(I6130098
I6830936
tp320
a(I6130098
I6911132
tp321
a(I6130098
I7059352
tp322
a(I6130098
I7156117
tp323
a(I6130098
I7665303
tp324
a(I6352854
I7291497
tp325
a(I7118351
I7297151
tp326
a(I7118351
I7316700
tp327
a(I7118351
I7344507
tp328
a(I7118351
I7374544
tp329
a(I7118351
I7410468
tp330
a(I7118351
I7481776
tp331
a(I7118351
I7491178
tp332
a(I7118351
I7524293
tp333
a(I7118351
I7537571
tp334
a(I7118351
I7547287
tp335
a(I7118351
I7563232
tp336
a(I7118351
I7582063
tp337
a(I7118351
I7582099
tp338
a(I7118351
I7604592
tp339
a(I7118351
I7648468
tp340
a(I7118351
I7674232
tp341
a(I7118351
I7682318
tp342
a(I7118351
I7713214
tp343
a(I6003977
I6062681
tp344
a(I5835817
I5995774
tp345
a(I5835817
I6011937
tp346
a(I5835817
I6065824
tp347
a(I5835817
I6302535
tp348
a(I5835817
I6371586
tp349
a(I5835817
I6502917
tp350
a(I5835817
I6631967
tp351
a(I5835817
I6798997
tp352
a(I5949459
I6502917
tp353
a(I6019461
I6151041
tp354
a(I6019461
I6196670
tp355
a(I6019461
I6502917
tp356
a(I6019461
I6802659
tp357
a(I6065824
I6502917
tp358
a(I6065824
I6631967
tp359
a(I6065824
I6798997
tp360
a(I6074042
I6502917
tp361
a(I6126265
I6371586
tp362
a(I6126265
I6502917
tp363
a(I6126265
I6631967
tp364
a(I6196670
I6502917
tp365
a(I6079821
I6491362
tp366
a(I6079821
I6505921
tp367
a(I6079821
I6554410
tp368
a(I6079821
I6575566
tp369
a(I6079821
I6588888
tp370
a(I6079821
I6793328
tp371
a(I6079821
I6851796
tp372
a(I6019466
I6270182
tp373
a(I6019466
I6554398
tp374
a(I6062681
I7156117
tp375
a(I6247790
I7637594
tp376
a(I6405055
I6628430
tp377
a(I6405055
I6694884
tp378
a(I6405055
I6742887
tp379
a(I6628430
I6742887
tp380
a(I5856174
I5993611
tp381
a(I5856174
I6054277
tp382
a(I5856174
I6080295
tp383
a(I5856174
I6126804
tp384
a(I5856174
I6221654
tp385
a(I5856174
I6284465
tp386
a(I5856174
I6296020
tp387
a(I5856174
I6344325
tp388
a(I5856174
I6355491
tp389
a(I5856174
I6391541
tp390
a(I5856174
I6440725
tp391
a(I5856174
I6540895
tp392
a(I5856174
I6544734
tp393
a(I5856174
I6575188
tp394
a(I5856174
I6589626
tp395
a(I5856174
I6602702
tp396
a(I5856174
I6613513
tp397
a(I5856174
I6618679
tp398
a(I5856174
I6632655
tp399
a(I5856174
I6649403
tp400
a(I5856174
I6653124
tp401
a(I5856174
I6654505
tp402
a(I5856174
I6664104
tp403
a(I5856174
I6831994
tp404
a(I5856174
I6881541
tp405
a(I5856174
I6893879
tp406
a(I5856174
I6942771
tp407
a(I5856174
I6969488
tp408
a(I5856174
I7105300
tp409
a(I5856174
I7118910
tp410
a(I5856174
I7476363
tp411
a(I5856174
I7526741
tp412
a(I5922591
I6221654
tp413
a(I5922591
I6296020
tp414
a(I5922591
I6344325
tp415
a(I5922591
I6391541
tp416
a(I5922591
I6440645
tp417
a(I5922591
I6440725
tp418
a(I5922591
I6499499
tp419
a(I5922591
I6521188
tp420
a(I5922591
I6540895
tp421
a(I5922591
I6544734
tp422
a(I5922591
I6572830
tp423
a(I5922591
I6575188
tp424
a(I5922591
I6589626
tp425
a(I5922591
I6664104
tp426
a(I5922591
I6830936
tp427
a(I5922591
I6881541
tp428
a(I5922591
I6893879
tp429
a(I5922591
I6911345
tp430
a(I5922591
I6960437
tp431
a(I5922591
I7033764
tp432
a(I5922591
I7052847
tp433
a(I5922591
I7056661
tp434
a(I5922591
I7056676
tp435
a(I5922591
I7059352
tp436
a(I5922591
I7097809
tp437
a(I5922591
I7118910
tp438
a(I5922591
I7156117
tp439
a(I5922591
I7169560
tp440
a(I5922591
I7170050
tp441
a(I5922591
I7297518
tp442
a(I5922591
I7338639
tp443
a(I5922591
I7665303
tp444
a(I5922591
I7948015
tp445
a(I5942443
I6068752
tp446
a(I5942443
I6153073
tp447
a(I5942443
I6156181
tp448
a(I5942443
I6235471
tp449
a(I5942443
I6238538
tp450
a(I5942443
I6274089
tp451
a(I5942443
I6274337
tp452
a(I5942443
I6280967
tp453
a(I5942443
I6322683
tp454
a(I5942443
I6358387
tp455
a(I5942443
I6361958
tp456
a(I5942443
I6399025
tp457
a(I5942443
I6403338
tp458
a(I5942443
I6406921
tp459
a(I5942443
I6429025
tp460
a(I5942443
I6444461
tp461
a(I5942443
I6454924
tp462
a(I5942443
I6495104
tp463
a(I5942443
I6500323
tp464
a(I5942443
I6506609
tp465
a(I5942443
I6508988
tp466
a(I5942443
I6575188
tp467
a(I5942443
I6592821
tp468
a(I5942443
I6596545
tp469
a(I5942443
I6602702
tp470
a(I5942443
I6613513
tp471
a(I5942443
I6613581
tp472
a(I5942443
I6632619
tp473
a(I5942443
I6632655
tp474
a(I5942443
I6749814
tp475
a(I5942443
I6793753
tp476
a(I5942443
I6899137
tp477
a(I5942443
I6929030
tp478
a(I5942443
I6939451
tp479
a(I5942443
I6951632
tp480
a(I5942443
I6960437
tp481
a(I5942443
I7097809
tp482
a(I5942443
I7105300
tp483
a(I5942443
I7118910
tp484
a(I5942443
I7129554
tp485
a(I5942443
I7144616
tp486
a(I5942443
I7238323
tp487
a(I5942443
I7254151
tp488
a(I5942443
I7258774
tp489
a(I5942443
I7279146
tp490
a(I5942443
I7294503
tp491
a(I5942443
I7476363
tp492
a(I5942443
I7526741
tp493
a(I6043080
I6296020
tp494
a(I6043080
I6440725
tp495
a(I6043080
I6499499
tp496
a(I6043080
I6544734
tp497
a(I6043080
I6575188
tp498
a(I6043080
I6664104
tp499
a(I6043080
I6767706
tp500
a(I6043080
I6793753
tp501
a(I6043080
I6818395
tp502
a(I6043080
I6881541
tp503
a(I6043080
I6893879
tp504
a(I6043080
I6899137
tp505
a(I6043080
I6911345
tp506
a(I6043080
I6929030
tp507
a(I6043080
I6951632
tp508
a(I6043080
I6960437
tp509
a(I6043080
I7097809
tp510
a(I6043080
I7118910
tp511
a(I6043080
I7144616
tp512
a(I6043080
I7169560
tp513
a(I6043080
I7258774
tp514
a(I6043080
I7279146
tp515
a(I6043080
I7294503
tp516
a(I6043080
I7297518
tp517
a(I6043080
I7476363
tp518
a(I6043080
I7526741
tp519
a(I6046056
I6296020
tp520
a(I6046056
I6334960
tp521
a(I6046056
I6403338
tp522
a(I6046056
I6444461
tp523
a(I6046056
I6454924
tp524
a(I6046056
I6506609
tp525
a(I6046056
I6575188
tp526
a(I6046056
I6592821
tp527
a(I6046056
I6596545
tp528
a(I6046056
I6613513
tp529
a(I6046056
I6613581
tp530
a(I6046056
I6632655
tp531
a(I6046056
I6696220
tp532
a(I6046056
I6719915
tp533
a(I6046056
I6749814
tp534
a(I6046056
I6873087
tp535
a(I6046056
I6916584
tp536
a(I6046056
I6921615
tp537
a(I6046056
I6932934
tp538
a(I6046056
I6960437
tp539
a(I6046056
I7077992
tp540
a(I6046056
I7105300
tp541
a(I6046056
I7118910
tp542
a(I6046056
I7238323
tp543
a(I6132685
I6429025
tp544
a(I6132685
I6544734
tp545
a(I6132685
I6618679
tp546
a(I6132685
I6749814
tp547
a(I6132685
I6960437
tp548
a(I6132685
I7118910
tp549
a(I6132685
I7390458
tp550
a(I6132685
I7476363
tp551
a(I6132685
I7526741
tp552
a(I6150180
I6960437
tp553
a(I6150180
I7118910
tp554
a(I6168948
I6368871
tp555
a(I6168948
I6440725
tp556
a(I6168948
I6544734
tp557
a(I6168948
I6575188
tp558
a(I6168948
I6664104
tp559
a(I6168948
I6881541
tp560
a(I6168948
I6893879
tp561
a(I6197595
I6440725
tp562
a(I6197595
I6544734
tp563
a(I6197595
I6664104
tp564
a(I6197595
I6830936
tp565
a(I6197595
I6881541
tp566
a(I6197595
I6893879
tp567
a(I6197595
I6911345
tp568
a(I6197595
I6960437
tp569
a(I6197595
I7118910
tp570
a(I6197595
I7169560
tp571
a(I6197595
I7297518
tp572
a(I6267858
I6506609
tp573
a(I6267858
I6632655
tp574
a(I6274337
I6632655
tp575
a(I6274337
I6829753
tp576
a(I6274337
I6885982
tp577
a(I6274337
I7476363
tp578
a(I6274337
I7526741
tp579
a(I6306659
I6632655
tp580
a(I6306659
I6884628
tp581
a(I6306659
I6949176
tp582
a(I6306659
I6960437
tp583
a(I6306659
I7118910
tp584
a(I6326211
I6942771
tp585
a(I6326211
I7059352
tp586
a(I6326211
I7156117
tp587
a(I6326211
I7665303
tp588
a(I6408878
I6752922
tp589
a(I6408878
I6951632
tp590
a(I6408878
I6960437
tp591
a(I6408878
I7097809
tp592
a(I6408878
I7118910
tp593
a(I6408878
I7476363
tp594
a(I6408878
I7526741
tp595
a(I6793753
I7144616
tp596
a(I6818395
I7297518
tp597
a(I6899137
I7144616
tp598
a(I6929030
I7144616
tp599
a(I6929030
I7476363
tp600
a(I6960437
I7118910
tp601
a(I6960437
I7476363
tp602
a(I6960437
I7526741
tp603
a(I7169560
I7888013
tp604
a(I7297518
I7888013
tp605
a(I6215969
I6934485
tp606
a(I5579445
I6185320
tp607
a(I5579445
I6466618
tp608
a(I6318920
I6796731
tp609
a(I6302527
I6694884
tp610
a(I6302527
I6798997
tp611
a(I6302527
I7508535
tp612
a(I6390590
I6554381
tp613
a(I6798997
I7124097
tp614
a(I6227643
I6416152
tp615
a(I6227643
I6502917
tp616
a(I5995774
I6694884
tp617
a(I6312106
I6694884
tp618
a(I6312106
I6798997
tp619
a(I5610635
I5699091
tp620
a(I5610635
I5788388
tp621
a(I5610635
I5812156
tp622
a(I5610635
I5835817
tp623
a(I5610635
I5860363
tp624
a(I5610635
I5995774
tp625
a(I5610635
I6000773
tp626
a(I5610635
I6019449
tp627
a(I5610635
I6065824
tp628
a(I5610635
I6074042
tp629
a(I5610635
I6113208
tp630
a(I5610635
I6126265
tp631
a(I5610635
I6155664
tp632
a(I5610635
I6196670
tp633
a(I5610635
I6227643
tp634
a(I5610635
I6367903
tp635
a(I5610635
I6371586
tp636
a(I5610635
I6390590
tp637
a(I5610635
I6502917
tp638
a(I5610635
I6543879
tp639
a(I5610635
I6631967
tp640
a(I5997121
I6361136
tp641
a(I6000773
I6227643
tp642
a(I6000773
I6798997
tp643
a(I6099178
I6386772
tp644
a(I6099178
I6694884
tp645
a(I6099178
I6802659
tp646
a(I5926666
I6351620
tp647
a(I5926666
I6681088
tp648
a(I5926666
I6934485
tp649
a(I6011937
I6502917
tp650
a(I7124097
I8015234
tp651
a(I5552816
I5860363
tp652
a(I5552816
I5949459
tp653
a(I5552816
I6155678
tp654
a(I5552816
I6302535
tp655
a(I6155678
I6481829
tp656
a(I5367328
I5788388
tp657
a(I5367328
I5852459
tp658
a(I5367328
I6155664
tp659
a(I5367328
I6390611
tp660
a(I5804083
I6676987
tp661
a(I5804083
I6995622
tp662
a(I6319668
I7291497
tp663
a(I6340588
I7291497
tp664
a(I6372428
I7291497
tp665
a(I6867051
I7157723
tp666
a(I7059352
I7665303
tp667
a(I6554410
I6851796
tp668
a(I6575566
I6851796
tp669
a(dp670
I7508535
(lp671
Vprinter
p672
aVmedia
p673
aVextern
p674
aVinterfac
p675
aVservic
p676
aVuser
p677
aValon
p678
aVprocess
p679
aVstand
p680
aVmultimedia
p681
asI6681088
(lp682
Vdevelop
p683
aVframe
p684
aVphotosensit
p685
aVdrum
p686
aVcartridg
p687
aVimag
p688
aVmain
p689
aVelectrophotograph
p690
aVlatent
p691
aVmember
p692
asI6942771
(lp693
Vmicrofluid
p694
aVanalyt
p695
aVtarget
p696
aVanalys
p697
aVelectrochem
p698
aVdetect
p699
aVgeneral
p700
aVconduct
p701
aVparticular
p702
aVrelat
p703
asI6499499
(lp704
Vmicrofluid
p705
aVflow
p706
aVresist
p707
aVchannel
p708
aVdownstream
p709
aVelev
p710
aVsplit
p711
aVregion
p712
aVestablish
p713
aVfluidic
p714
asI6502917
(lp715
Vink
p716
aVcartridg
p717
aVjet
p718
aVboard
p719
aVprint
p720
aVsuppli
p721
aVcarriag
p722
aVvicin
p723
aVneedl
p724
aVreciproc
p725
asI7169560
(lp726
Vpolynucleotid
p727
aVsequenc
p728
aVcycl
p729
aVreaction
p730
aVsynthesi
p731
aVfull
p732
aVextens
p733
aVshort
p734
aVrun
p735
aVnear
p736
asI6543879
(lp737
Vink
p738
aVnozzl
p739
aVslot
p740
aVdrop
p741
aVfeed
p742
aVcolumn
p743
aVinkjet
p744
aVprinthead
p745
aVpack
p746
aVside
p747
asI6543880
(lp748
Vplanar
p749
aVprinthead
p750
aVlayer
p751
aVinkjet
p752
aVsubstrat
p753
aVsurfac
p754
aVface
p755
aVassembl
p756
aVmount
p757
aVfirst
p758
asI5861897
(lp759
Vrecord
p760
aVhead
p761
aVmemori
p762
aVink
p763
aVjoin
p764
aVunit
p765
aVcut
p766
aVtank
p767
aVplate
p768
aVout
p769
asI5821962
(lp770
Veject
p771
aVbubbl
p772
aVliquid
p773
aVoutlet
p774
aVgenerat
p775
aVregion
p776
aVmovabl
p777
aVportion
p778
aVinflect
p779
aVoppos
p780
asI5860363
(lp781
Vink
p782
aVreservoir
p783
aVcartridg
p784
aVchassi
p785
aVconnector
p786
aVreplac
p787
aVelectr
p788
aVprinter
p789
aVjet
p790
aVannunci
p791
asI6632656
(lp792
Vcell
p793
aVgrowth
p794
aVchannel
p795
aVassay
p796
aVmicrofabr
p797
aVplate
p798
aVmicro
p799
aVbase
p800
aVchamber
p801
aVliquid
p802
asI7170050
(lp803
Vmolecul
p804
aVanalysi
p805
aVoptic
p806
aVconfin
p807
aVthroughout
p808
aVmolecular
p809
aVanalyz
p810
aVcost
p811
aVpresent
p812
aVchemic
p813
asI6585358
(lp814
Vink
p815
aVrecord
p816
aVsuppli
p817
aVhead
p818
aVreserv
p819
aVport
p820
aVpressur
p821
aVcartridg
p822
aVjet
p823
aVdifferenti
p824
asI7118351
(lp825
Vmicropump
p826
aVpuls
p827
aVheat
p828
aVrate
p829
aVelement
p830
aVflow
p831
aVday
p832
aVexact
p833
aVoper
p834
aVcontrol
p835
asI6172688
(lp836
Vink
p837
aVlabel
p838
aVprinter
p839
aVprint
p840
aVjet
p841
aVconvey
p842
aVhead
p843
aVroll
p844
aVrecoveri
p845
aVsection
p846
asI5699091
(lp847
Vconnector
p848
aVcartridg
p849
aVcopier
p850
aVreplac
p851
aVusag
p852
aVcalibr
p853
aVprinter
p854
aVmemori
p855
aVink
p856
aVapparatus
p857
asI5509140
(lp858
Vazatetracycl
p859
aV5ht
p860
aVtetracycl
p861
aVantagonist
p862
aVmoieti
p863
aVstr2
p864
aVcartridg
p865
aVaromat
p866
aVink
p867
aVwherein
p868
asI6408878
(lp869
Velastomer
p870
aVmicromachin
p871
aVlayer
p872
aVfirst
p873
aVrecess
p874
aVmold
p875
aVsecond
p876
aVtop
p877
aVprotrus
p878
aVbottom
p879
asI6589626
(lp880
Vcopi
p881
aVread
p882
aVoptic
p883
aVmedium
p884
aVprotect
p885
aValter
p886
aVdata
p887
aVmedia
p888
aVsensit
p889
aVfabric
p890
asI5266968
(lp891
Vprinter
p892
aVvolatil
p893
aVcartridg
p894
aVthermal
p895
aVmemori
p896
aVnon
p897
aVdefect
p898
aVcolor
p899
aVcorrect
p900
aVcarrier
p901
asI6793753
(lp902
Velastomer
p903
aVmicromachin
p904
aVlayer
p905
aVfirst
p906
aVrecess
p907
aVmold
p908
aVsecond
p909
aVtop
p910
aVprotrus
p911
aVbottom
p912
asI5208604
(lp913
Vink
p914
aVdischarg
p915
aVopen
p916
aVjet
p917
aVpath
p918
aVplate
p919
aVexcim
p920
aVhead
p921
aVmanufactur
p922
aVattach
p923
asI6274089
(lp924
Vreactant
p925
aVregion
p926
aVsepar
p927
aVreaction
p928
aVmicrofluid
p929
aVintegr
p930
aVnetwork
p931
aVchannel
p932
aVmicroscal
p933
aVproduct
p934
asI6631967
(lp935
Vink
p936
aVcartridg
p937
aVprinter
p938
aVstorag
p939
aVelement
p940
aVinform
p941
aVpiec
p942
aVeeprom
p943
aVadopt
p944
aVpow
p945
asI6000773
(lp946
Vink
p947
aVcartridg
p948
aVmemori
p949
aVprinter
p950
aVjet
p951
aVstorag
p952
aVadvis
p953
aVinform
p954
aVelement
p955
aVexpel
p956
asI6011937
(lp957
sI6355491
(lp958
Velectromagnet
p959
aVmicro
p960
aVchip
p961
aVbiomolecul
p962
aVbiochip
p963
aVaddress
p964
aVindividu
p965
aVassay
p966
aVarray
p967
aVmanipul
p968
asI6150180
(lp969
Vscreen
p970
aVthroughput
p971
aVassay
p972
aVmicroscal
p973
aVbiochem
p974
aVmicrofluid
p975
aVfluidic
p976
aVhigh
p977
aVvarieti
p978
aVdevic
p979
asI5619237
(lp980
Vink
p981
aVcartridg
p982
aVwall
p983
aVcontain
p984
aVtank
p985
aVside
p986
aVtap
p987
aVbottom
p988
aVholder
p989
aVsuppli
p990
asI5619238
(lp991
Vcartridg
p992
aVwall
p993
aVbottom
p994
aVpartit
p995
aVopen
p996
aVcompart
p997
aVink
p998
aVreplac
p999
aVspong
p1000
aVtop
p1001
asI5619239
(lp1002
Vink
p1003
aVcartridg
p1004
aVwall
p1005
aVcontain
p1006
aVback
p1007
aVtap
p1008
aVbottom
p1009
aVtop
p1010
aVtank
p1011
aVsuppli
p1012
asI6524456
(lp1013
Vsubnanolit
p1014
aVmanipul
p1015
aVbiochem
p1016
aVvolum
p1017
aVanalys
p1018
aVsingl
p1019
aVscreen
p1020
aVthroughput
p1021
aVreaction
p1022
aVnanolit
p1023
asI5835817
(lp1024
Vconnector
p1025
aVcartridg
p1026
aVcopier
p1027
aVreplac
p1028
aVusag
p1029
aVcalibr
p1030
aVprinter
p1031
aVmemori
p1032
aVink
p1033
aVapparatus
p1034
asI7279146
(lp1035
Vmicrofabr
p1036
aVcrystal
p1037
aVfluidic
p1038
aVvolum
p1039
aVsolut
p1040
aVagent
p1041
aVchamber
p1042
aVsimultan
p1043
aVtarget
p1044
aVentrap
p1045
asI6130695
(lp1046
Vink
p1047
aVprint
p1048
aVdeliveri
p1049
aVsystem
p1050
aVreservoir
p1051
aVadapt
p1052
aVinform
p1053
aVstorag
p1054
aVlieu
p1055
aVconnector
p1056
asI5841452
(lp1057
Vbubblejet
p1058
aVheater
p1059
aVfabric
p1060
aVpassageway
p1061
aVgiven
p1062
aVmean
p1063
aVprint
p1064
aVsemiconductor
p1065
aVsubstrat
p1066
aVeject
p1067
asI7052847
(lp1068
Vnucleic
p1069
aVnucleotid
p1070
aVacid
p1071
aVanalog
p1072
aVstrand
p1073
aVmolecul
p1074
aVtarget
p1075
aVsequenc
p1076
aVpolymer
p1077
aVsite
p1078
asI6361136
(lp1079
Vexist
p1080
aVphotoreceptor
p1081
aVdetect
p1082
aVink
p1083
aVprism
p1084
aVliquid
p1085
aVoptic
p1086
aVeven
p1087
aVreflect
p1088
aVlight
p1089
asI6399025
(lp1090
Vanalyt
p1091
aVpreparatori
p1092
aVadapt
p1093
aVattach
p1094
aVinterfac
p1095
aVsubstrat
p1096
aVelectr
p1097
aVmicrofluid
p1098
aVunit
p1099
aVarray
p1100
asI5506611
(lp1101
Vink
p1102
aVcartridg
p1103
aVwast
p1104
aVprinter
p1105
aVcontain
p1106
aVlabel
p1107
aVneedl
p1108
aVhead
p1109
aVreceptacl
p1110
aVreservoir
p1111
asI5414452
(lp1112
Vink
p1113
aVexpiri
p1114
aVreservoir
p1115
aVprint
p1116
aVteleprint
p1117
aVhead
p1118
aVforese
p1119
aVjet
p1120
aVdrop
p1121
aVnecessari
p1122
asI6544734
(lp1123
Vdna
p1124
aVamplif
p1125
aVmicrofluid
p1126
aVchamber
p1127
aVmultilay
p1128
aVanalysi
p1129
aVmonolith
p1130
aVmean
p1131
aVlysi
p1132
aVcool
p1133
asI6003977
(lp1134
Vink
p1135
aVbubbl
p1136
aVchamber
p1137
aVinlet
p1138
aVthermal
p1139
aVchannel
p1140
aVexpand
p1141
aVexpuls
p1142
aVocclud
p1143
aVblown
p1144
asI6460984
(lp1145
Vliquid
p1146
aVcapillari
p1147
aVsuppli
p1148
aVcontain
p1149
aVgenerat
p1150
aVforc
p1151
aVcommunic
p1152
aVunit
p1153
aVmateri
p1154
aVcartridg
p1155
asI6466618
(lp1156
Vresolut
p1157
aVimag
p1158
aVlow
p1159
aVmotion
p1160
aVcolor
p1161
aVplane
p1162
aVcoincid
p1163
aVplural
p1164
aVconstruct
p1165
aVnon
p1166
asI5412411
(lp1167
Vprinthead
p1168
aVink
p1169
aVimmers
p1170
aVprinter
p1171
aVjet
p1172
aVcap
p1173
aVstation
p1174
aVprime
p1175
aVmainten
p1176
aVdri
p1177
asI6403338
(lp1178
Vmicrofluid
p1179
aVfluid
p1180
aVmicroscal
p1181
aVscreen
p1182
aVgenotyp
p1183
aVperform
p1184
aVbiochem
p1185
aVsystem
p1186
aVgenom
p1187
aViter
p1188
asI7118910
(lp1189
Vanalys
p1190
aVreaction
p1191
aVmicrofluid
p1192
aVsite
p1193
aVvarieti
p1194
aVreagent
p1195
aVthermocycl
p1196
aVdevic
p1197
aVgenotyp
p1198
aVblind
p1199
asI6592821
(lp1200
Vparticl
p1201
aVmicrofluid
p1202
aVfocus
p1203
aVsort
p1204
aVsubcellular
p1205
aVmicroscal
p1206
aVmicroparticl
p1207
aVpopul
p1208
aVthroughput
p1209
aVsystem
p1210
asI5997121
(lp1211
Vink
p1212
aVcartridg
p1213
aVphotosensor
p1214
aVlight
p1215
aVfacet
p1216
aVprism
p1217
aVroof
p1218
aVsens
p1219
aVmirror
p1220
aVprinthead
p1221
asI5997124
(lp1222
Vink
p1223
aVjet
p1224
aVnozzl
p1225
aVdrop
p1226
aVvolum
p1227
aVprint
p1228
aVoffset
p1229
aVcontrol
p1230
aVexemplari
p1231
aVveloc
p1232
asI6241350
(lp1233
Vink
p1234
aVeject
p1235
aVchamber
p1236
aVbuffer
p1237
aVpassag
p1238
aVenergi
p1239
aVprint
p1240
aVjet
p1241
aVwave
p1242
aVsuppli
p1243
asI5218376
(lp1244
Vliquid
p1245
aVrecord
p1246
aVjet
p1247
aVpassag
p1248
aVhead
p1249
aVbubbl
p1250
aVheat
p1251
aVflux
p1252
aVeject
p1253
aVnot
p1254
asI6062667
(lp1255
Vink
p1256
aVflag
p1257
aVcarriag
p1258
aVmount
p1259
aVrecord
p1260
aVcartridg
p1261
aVjet
p1262
aVprotrud
p1263
aVphotosensor
p1264
aVmember
p1265
asI6372428
(lp1266
Vmemori
p1267
aVmatrix
p1268
aVmacromolecul
p1269
aVbiolog
p1270
aVcombin
p1271
aVimmunoassay
p1272
aVmolecul
p1273
aVmatric
p1274
aVremot
p1275
aVparticl
p1276
asI5589858
(lp1277
Vrecord
p1278
aVspeed
p1279
aVmeter
p1280
aVmedium
p1281
aVdroplet
p1282
aVvelocimet
p1283
aVjet
p1284
aVconvey
p1285
aVdoppler
p1286
aVliquid
p1287
asI6628430
(lp1288
Vprint
p1289
aVphone
p1290
aVmedia
p1291
aVprinthead
p1292
aVprinter
p1293
aVdispens
p1294
aVmobil
p1295
aVoutlet
p1296
aVfeed
p1297
aVprocess
p1298
asI6554381
(lp1299
Vreceptacl
p1300
aVfluid
p1301
aVregistr
p1302
aVlight
p1303
aVchamber
p1304
aVink
p1305
aVlevel
p1306
aVdepend
p1307
aVreflect
p1308
aVvariabl
p1309
asI6386772
(lp1310
Vprinter
p1311
aVprint
p1312
aVtransceiv
p1313
aVsubstrat
p1314
aVphysic
p1315
aVconfigur
p1316
aVlink
p1317
aVcircuit
p1318
aVnon
p1319
aVsuppli
p1320
asI6652089
(lp1321
Vpaper
p1322
aVprinthead
p1323
aVrecess
p1324
aVmountabl
p1325
aVhous
p1326
aVeject
p1327
aVprinter
p1328
aVink
p1329
aVadapt
p1330
aVvcr
p1331
asI6062681
(lp1332
Vconstrict
p1333
aVbubbl
p1334
aVliquid
p1335
aVupstream
p1336
aVheat
p1337
aVdeliveri
p1338
aVlocal
p1339
aVchannel
p1340
aVoutlet
p1341
aVarrang
p1342
asI7637594
(lp1343
Vnozzl
p1344
aVink
p1345
aVchamber
p1346
aVrim
p1347
aVcover
p1348
aVbend
p1349
aVactuat
p1350
aVeject
p1351
aVbridg
p1352
aVdefin
p1353
asI6818395
(lp1354
Vpolynucleotid
p1355
aVsequenc
p1356
aVthroughput
p1357
aVhigh
p1358
aVanalysi
p1359
aVanalyz
p1360
aVspeed
p1361
aVapparatus
p1362
aVcarri
p1363
aVmethod
p1364
asI6074042
(lp1365
Vink
p1366
aVprint
p1367
aVcontain
p1368
aVelectr
p1369
aVcontact
p1370
aVcomplementari
p1371
aVneedl
p1372
aVguid
p1373
aVreplac
p1374
aVhollow
p1375
asI6613581
(lp1376
Vmicrofluid
p1377
aVinterest
p1378
aVassay
p1379
aVcompon
p1380
aVdetect
p1381
aVflowabl
p1382
aVintegr
p1383
aVanalyt
p1384
aVmoieti
p1385
aVantibodi
p1386
asI6540895
(lp1387
Vmicrofabr
p1388
aVbranch
p1389
aVchannel
p1390
aVcell
p1391
aVsort
p1392
aVdetect
p1393
aVregion
p1394
aVanalysi
p1395
aVreport
p1396
aVpoint
p1397
asI7056661
(lp1398
Vnucleic
p1399
aVnucleotid
p1400
aVacid
p1401
aVanalog
p1402
aVstrand
p1403
aVmolecul
p1404
aVtarget
p1405
aVsequenc
p1406
aVpolymer
p1407
aVsite
p1408
asI6054277
(lp1409
sI6613513
(lp1410
Vnucleotid
p1411
aVsequenc
p1412
aVsynthesi
p1413
aVintercal
p1414
aVgroup
p1415
aVincorpor
p1416
aVfluoresc
p1417
aVlabel
p1418
aVphotobleach
p1419
aVanalog
p1420
asI6361958
(lp1421
Vmicrochannel
p1422
aVbiochannel
p1423
aVbiomateri
p1424
aVmicrofluid
p1425
aVfabric
p1426
aVrna
p1427
aVbead
p1428
aVassay
p1429
aVdna
p1430
aVpropel
p1431
asI6368871
(lp1432
Vmicrostructur
p1433
aVintern
p1434
aVchannel
p1435
aVmultipl
p1436
aVreactiv
p1437
aVstructur
p1438
aVmanipul
p1439
aVbranch
p1440
aVchip
p1441
aVmacromolecul
p1442
asI7077992
(lp1443
Vimprint
p1444
aVlithographi
p1445
aVtemplat
p1446
aVliquid
p1447
aVsubstrat
p1448
aVcure
p1449
aVrepeat
p1450
aVprocess
p1451
aVpattern
p1452
aVremaind
p1453
asI7291497
(lp1454
Vmicroarray
p1455
aVanalyt
p1456
aVagent
p1457
aVbioactiv
p1458
aVcapabl
p1459
aVtherapeut
p1460
aVmicrochannel
p1461
aVmedic
p1462
aVbodili
p1463
aVdevic
p1464
asI5818474
(lp1465
Vrecord
p1466
aVmask
p1467
aVrandom
p1468
aVpixel
p1469
aVnonuniform
p1470
aVthin
p1471
aVlose
p1472
aVperiod
p1473
aVplace
p1474
aVinher
p1475
asI6867051
(lp1476
Vcare
p1477
aVrisk
p1478
aVdiagnost
p1479
aVassess
p1480
aVtest
p1481
aVroom
p1482
aVpoint
p1483
aVmedic
p1484
aVdata
p1485
aVelectrocardiogram
p1486
asI6596545
(lp1487
Vbiomolecul
p1488
aVphospolipid
p1489
aVscreen
p1490
aVmicrodevic
p1491
aVproteom
p1492
aVbiomolecular
p1493
aVunnatur
p1494
aVprotein
p1495
aVmicrofabr
p1496
aVpolysaccharid
p1497
asI4849774
(lp1498
Vliquid
p1499
aVheat
p1500
aVbubbl
p1501
aVorific
p1502
aVpath
p1503
aVdroplet
p1504
aVflow
p1505
aVrecord
p1506
aVelement
p1507
aVjet
p1508
asI6793328
(lp1509
Vdroplet
p1510
aVink
p1511
aVprint
p1512
aVstream
p1513
aVplacement
p1514
aVdrop
p1515
aVapparatus
p1516
aVvolum
p1517
aVgas
p1518
aVdeflector
p1519
asI6506609
(lp1520
Vparticl
p1521
aVmicrofluid
p1522
aVfocus
p1523
aVsort
p1524
aVsubcellular
p1525
aVmicroscal
p1526
aVmicroparticl
p1527
aVpopul
p1528
aVthroughput
p1529
aVsystem
p1530
asI5949459
(lp1531
Vink
p1532
aVengag
p1533
aVprint
p1534
aVfeatur
p1535
aVcontain
p1536
aVfluid
p1537
aVtrail
p1538
aVdevic
p1539
aVedg
p1540
aVinsert
p1541
asI7713214
(lp1542
Vpenetr
p1543
aVcartridg
p1544
aVtissu
p1545
aVmember
p1546
aVanalyt
p1547
aVdriver
p1548
aVcouplabl
p1549
aVsingl
p1550
aVfluid
p1551
aVoptic
p1552
asI6749814
(lp1553
Vmicrosystem
p1554
aVmicroreactor
p1555
aVchemic
p1556
aVmicrosepar
p1557
aVcandid
p1558
aVadsorb
p1559
aVlamina
p1560
aVmodular
p1561
aVmateri
p1562
aVarray
p1563
asI6618679
(lp1564
Vgene
p1565
aVexpress
p1566
aVanalysi
p1567
aVkit
p1568
aVthroughput
p1569
aVinexpens
p1570
aVinvent
p1571
aVcomposit
p1572
aVhigh
p1573
aVdata
p1574
asI6884628
(lp1575
Vanalyt
p1576
aVmultifunct
p1577
aVcopolym
p1578
aVpolyion
p1579
aVspecif
p1580
aVcoat
p1581
aVchain
p1582
aVinteract
p1583
aVadhes
p1584
aVpoli
p1585
asI4860026
(lp1586
Vink
p1587
aVdiffer
p1588
aVdot
p1589
aVdensiti
p1590
aVconcentr
p1591
aVhalfton
p1592
aVrecord
p1593
aVexpress
p1594
aVimag
p1595
aVpattern
p1596
asI6405055
(lp1597
Vprint
p1598
aVmedia
p1599
aVprinthead
p1600
aVmobil
p1601
aVphone
p1602
aVsignal
p1603
aVintern
p1604
aVhand
p1605
aVinform
p1606
aVheld
p1607
asI7491178
(lp1608
Vpenetr
p1609
aVsampl
p1610
aVtissu
p1611
aVchamber
p1612
aVmember
p1613
aVhous
p1614
aVfluid
p1615
aVoccupi
p1616
aVanalyt
p1617
aVassoci
p1618
asI6476926
(lp1619
Vink
p1620
aVjet
p1621
aVrecord
p1622
aVhost
p1623
aVhead
p1624
aVstore
p1625
aVline
p1626
aVeject
p1627
aVtransfer
p1628
aVamount
p1629
asI7297151
(lp1630
Vcartridg
p1631
aVanalyt
p1632
aVfluid
p1633
aVpenetr
p1634
aVmember
p1635
aVchamber
p1636
aVcaviti
p1637
aVdetect
p1638
aVplural
p1639
aVdevic
p1640
asI7124097
(lp1641
Vconsum
p1642
aVorder
p1643
aVdevic
p1644
aVsubmit
p1645
aVmore
p1646
aVselect
p1647
aVsupplier
p1648
aVsystem
p1649
aVmenu
p1650
aVone
p1651
asI5485187
(lp1652
Vink
p1653
aVtank
p1654
aVpressur
p1655
aVair
p1656
aVauxiliari
p1657
aVpump
p1658
aVhead
p1659
aVrecoveri
p1660
aVmain
p1661
aVcompriss
p1662
asI6344325
(lp1663
Vpolynucleotid
p1664
aVsort
p1665
aVmolecul
p1666
aVmicrofabr
p1667
aVsize
p1668
aVoptic
p1669
aVdevic
p1670
aVfluoresc
p1671
aVreport
p1672
aVbranch
p1673
asI5389957
(lp1674
Vink
p1675
aVmember
p1676
aVjet
p1677
aVrecess
p1678
aVoutlet
p1679
aVpassag
p1680
aVhead
p1681
aVcontour
p1682
aVeject
p1683
aVfirst
p1684
asI6929030
(lp1685
Velastomer
p1686
aVmicromachin
p1687
aVlayer
p1688
aVfirst
p1689
aVrecess
p1690
aVmold
p1691
aVsecond
p1692
aVtop
p1693
aVprotrus
p1694
aVbottom
p1695
asI6505921
(lp1696
Vink
p1697
aVdrop
p1698
aVstream
p1699
aVbore
p1700
aVnozzl
p1701
aVdeliveri
p1702
aVdeflector
p1703
aVasymmetr
p1704
aVperimet
p1705
aVheater
p1706
asI6149256
(lp1707
Vink
p1708
aVprinter
p1709
aVjet
p1710
aVcartridg
p1711
aVinsert
p1712
aVhous
p1713
aVadapt
p1714
aVreservoir
p1715
aVcamera
p1716
aVreceiv
p1717
asI5275787
(lp1718
Vparticl
p1719
aVexamin
p1720
aVdischarg
p1721
aVreceptacl
p1722
aVdrop
p1723
aVenergi
p1724
aVliquid
p1725
aVbubbl
p1726
aVsepar
p1727
aVsuspend
p1728
asI6454924
(lp1729
Vmicrofluid
p1730
aVmicroanalysi
p1731
aVchannel
p1732
aVbottom
p1733
aVtransfer
p1734
aVsepar
p1735
aVembodi
p1736
aVchip
p1737
aVapertur
p1738
aVdischarg
p1739
asI6280967
(lp1740
V349
p1741
aV355
p1742
aVtest
p1743
aVreal
p1744
aV303
p1745
aVcellular
p1746
aVcell
p1747
aVcompound
p1748
aVtime
p1749
aVrespons
p1750
asI6248590
(lp1751
Vcytomet
p1752
aVstream
p1753
aVdroplet
p1754
aVsort
p1755
aVcytometri
p1756
aVcan
p1757
aVflow
p1758
aVimag
p1759
aVallow
p1760
aVcharg
p1761
asI7338639
(lp1762
Vanalyt
p1763
aVrespons
p1764
aVmeasur
p1765
aVcorrect
p1766
aVcompon
p1767
aVexcit
p1768
aVbiolog
p1769
aVdetermin
p1770
aVconcentr
p1771
aVfluid
p1772
asI6969488
(lp1773
Vmicroparticl
p1774
aVanalyt
p1775
aVplanar
p1776
aVprocess
p1777
aVreagent
p1778
aVarray
p1779
aVoptic
p1780
aVanalyz
p1781
aVdeliv
p1782
aVsimultan
p1783
asI5784088
(lp1784
Vink
p1785
aVreservoir
p1786
aVinduc
p1787
aVsuppli
p1788
aVportion
p1789
aVcartridg
p1790
aVporous
p1791
aVfiber
p1792
aVelement
p1793
aVrecord
p1794
asI6652090
(lp1795
Vpaper
p1796
aVmountabl
p1797
aVrecess
p1798
aVprinthead
p1799
aVhous
p1800
aVeject
p1801
aVprinter
p1802
aVink
p1803
aVadapt
p1804
aVvcr
p1805
asI6798997
(lp1806
Vreplac
p1807
aVelectron
p1808
aVorder
p1809
aVidentif
p1810
aVautomat
p1811
aVcondit
p1812
aVpurchas
p1813
aVsuppli
p1814
aVoffer
p1815
aVcompon
p1816
asI7258774
(lp1817
Ventiti
p1818
aVmicrofluid
p1819
aVpump
p1820
aVdamper
p1821
aVjunction
p1822
aVflow
p1823
aVoscil
p1824
aVchannel
p1825
aVpool
p1826
aVsort
p1827
asI7665303
(lp1828
Vbolus
p1829
aVfluid
p1830
aVpneumat
p1831
aVsegreg
p1832
aVhandl
p1833
aVactuat
p1834
aVdescrib
p1835
aVcircuit
p1836
aVanalyt
p1837
aVpocket
p1838
asI6352854
(lp1839
Vmatrix
p1840
aVmacromolecul
p1841
aVmemori
p1842
aVcombin
p1843
aVmatric
p1844
aVremot
p1845
aVbiolog
p1846
aVprogramm
p1847
aVmolecul
p1848
aVphage
p1849
asI6653124
(lp1850
Vmicrochamb
p1851
aVcultur
p1852
aVmicroenviron
p1853
aVcell
p1854
aVreagent
p1855
aVreservoir
p1856
aVconduit
p1857
aVarray
p1858
aVmonitor
p1859
aVvalv
p1860
asI6752922
(lp1861
Vferrit
p1862
aVmol
p1863
aVcore
p1864
aVterm
p1865
aVoxid
p1866
aVcalcul
p1867
aVhigh
p1868
aVloss
p1869
aVnio
p1870
aVtemperatur
p1871
asI6183067
(lp1872
Vfire
p1873
aVactuat
p1874
aVinkjet
p1875
aVprinthead
p1876
aVintegr
p1877
aVsubstrat
p1878
aVmanifold
p1879
aVchamber
p1880
aVink
p1881
aVfabric
p1882
asI5946012
(lp1883
Vink
p1884
aValcohol
p1885
aVdrop
p1886
aVprinthead
p1887
aVhigh
p1888
aVshelf
p1889
aVmicron
p1890
aVabout
p1891
aVviscos
p1892
aViso
p1893
asI6367903
(lp1894
Vprimit
p1895
aVprint
p1896
aVprinter
p1897
aVdot
p1898
aValign
p1899
aVcartridg
p1900
aVerror
p1901
aVtechniqu
p1902
aVcorrect
p1903
aVtime
p1904
asI6065824
(lp1905
Vink
p1906
aVprinter
p1907
aVtermin
p1908
aVreplac
p1909
aVjet
p1910
aVdata
p1911
aVrefer
p1912
aVcartridg
p1913
aVsingl
p1914
aVmemori
p1915
asI5180065
(lp1916
Vparticl
p1917
aVdroplet
p1918
aVfall
p1919
aVsuspend
p1920
aVliquid
p1921
aVfraction
p1922
aVproperti
p1923
aVindividu
p1924
aVcollid
p1925
aVdirect
p1926
asI6726306
(lp1927
Vprint
p1928
aVcartridg
p1929
aVshutter
p1930
aVcover
p1931
aVattach
p1932
aVhead
p1933
aVmovabl
p1934
aVbias
p1935
aVarm
p1936
aVclose
p1937
asI6881541
(lp1938
Vlyse
p1939
aVsampl
p1940
aVnucleic
p1941
aVvirus
p1942
aVchamber
p1943
aVacid
p1944
aVflow
p1945
aVcartridg
p1946
aVcell
p1947
aVfluid
p1948
asI6932934
(lp1949
Vcurabl
p1950
aVtemplat
p1951
aVimprint
p1952
aVlithographi
p1953
aVliquid
p1954
aVsubstrat
p1955
aVpattern
p1956
aVshallow
p1957
aVgather
p1958
aVdiscontinu
p1959
asI6995622
(lp1960
Vmicroelectromechan
p1961
aVfrequenc
p1962
aVreson
p1963
aVflls
p1964
aVcircuitri
p1965
aVdlls
p1966
aVpermut
p1967
aVsynthes
p1968
aVexampl
p1969
aVoutput
p1970
asI6153073
(lp1971
Vmicrofluid
p1972
aVgeometri
p1973
aVincorpor
p1974
aVborn
p1975
aVmateri
p1976
aVchannel
p1977
aVthese
p1978
aVthroughput
p1979
aVdevic
p1980
aVimprov
p1981
asI7144616
(lp1982
Velastomer
p1983
aVmicromachin
p1984
aVlayer
p1985
aVfirst
p1986
aVrecess
p1987
aVmold
p1988
aVsecond
p1989
aVtop
p1990
aVprotrus
p1991
aVbottom
p1992
asI5367324
(lp1993
Vink
p1994
aVnozzl
p1995
aVcolor
p1996
aVgroup
p1997
aVrow
p1998
aVheat
p1999
aVsubstrat
p2000
aVleast
p2001
aVelement
p2002
aVjet
p2003
asI6312106
(lp2004
Vmark
p2005
aVradio
p2006
aVengin
p2007
aVdock
p2008
aVlink
p2009
aVfrequenc
p2010
aVhous
p2011
aVmachin
p2012
aVundock
p2013
aVassoci
p2014
asI5942443
(lp2015
Vscreen
p2016
aVthroughput
p2017
aVassay
p2018
aVmicroscal
p2019
aVbiochem
p2020
aVmicrofluid
p2021
aVfluidic
p2022
aVhigh
p2023
aVvarieti
p2024
aVdevic
p2025
asI5155502
(lp2026
Vink
p2027
aVjet
p2028
aVhead
p2029
aVabsorb
p2030
aVbodi
p2031
aVcartridg
p2032
aVstorag
p2033
aVmember
p2034
aVportion
p2035
aVassur
p2036
asI5552816
(lp2037
Vink
p2038
aVtank
p2039
aVjet
p2040
aVresidu
p2041
aVquantiti
p2042
aVrecord
p2043
aVtip
p2044
aVpressur
p2045
aVinsid
p2046
aVhead
p2047
asI5534897
(lp2048
Vprintbar
p2049
aVmainten
p2050
aVfwa
p2051
aVtranslat
p2052
aVjet
p2053
aVink
p2054
aVnozzl
p2055
aVstation
p2056
aVarticul
p2057
aVcarriag
p2058
asI6652082
(lp2059
Vink
p2060
aVprinthead
p2061
aVmanifold
p2062
aVsuppli
p2063
aVpagewidth
p2064
aVprinter
p2065
aVunit
p2066
aVjet
p2067
aVnozzl
p2068
aVdefin
p2069
asI6358387
(lp2070
Vanalyt
p2071
aVmicrochannel
p2072
aVinterfac
p2073
aVmultipl
p2074
aVthroughput
p2075
aVsimultan
p2076
aVsubstrat
p2077
aVdetect
p2078
aVmodular
p2079
aVexcit
p2080
asI6767706
(lp2081
Vmolecul
p2082
aVhybrid
p2083
aVpolynucleotid
p2084
aVprotein
p2085
aVmicrofabr
p2086
aVdna
p2087
aVdetect
p2088
aVantibodi
p2089
aVantigen
p2090
aVreport
p2091
asI5579445
(lp2092
Vstatist
p2093
aVresolut
p2094
aVfilter
p2095
aVimag
p2096
aVautom
p2097
aVsubsampl
p2098
aVconvers
p2099
aVbitmap
p2100
aVenhanc
p2101
aVemploy
p2102
asI6068752
(lp2103
Vmicrofluid
p2104
aVgeometri
p2105
aVincorpor
p2106
aVborn
p2107
aVmateri
p2108
aVchannel
p2109
aVthese
p2110
aVthroughput
p2111
aVdevic
p2112
aVimprov
p2113
asI6126265
(lp2114
Vstation
p2115
aVservic
p2116
aVcartridg
p2117
aVink
p2118
aVprinthead
p2119
aVmemori
p2120
aVcontrol
p2121
aVdata
p2122
aVnozzl
p2123
aVsubroutin
p2124
asI6977722
(lp2125
Vluminesc
p2126
aVassay
p2127
aVinduc
p2128
aVreader
p2129
aVmodul
p2130
aVmeasur
p2131
aVtest
p2132
aVelectrod
p2133
aVwell
p2134
aVconduct
p2135
asI6227643
(lp2136
Vprinter
p2137
aVintellig
p2138
aVenvironment
p2139
aVsensor
p2140
aVjet
p2141
aVink
p2142
aVprint
p2143
aVhumid
p2144
aVmemori
p2145
aVcompon
p2146
asI5367328
(lp2147
Vink
p2148
aVjet
p2149
aVrefil
p2150
aVprint
p2151
aVcarriag
p2152
aVcartridg
p2153
aVquantiti
p2154
aVsuppli
p2155
aVtravers
p2156
aVprinter
p2157
asI6126804
(lp2158
Vpcr
p2159
aVinstrument
p2160
aVreaction
p2161
aVdna
p2162
aVpolymeras
p2163
aVelectrophoresi
p2164
aVchannel
p2165
aVband
p2166
aVfragment
p2167
aVwell
p2168
asI6440645
(lp2169
Vmicrostructur
p2170
aVdepolymeriz
p2171
aVunpolymer
p2172
aVirradi
p2173
aVdepolymer
p2174
aVmateri
p2175
aVonto
p2176
aVpolymeriz
p2177
aVphotoresist
p2178
aVcurabl
p2179
asI6215969
(lp2180
Vtoner
p2181
aVstir
p2182
aVdevelop
p2183
aVcontain
p2184
aVframe
p2185
aVcartridg
p2186
aVelectrophotograph
p2187
aVphotosensit
p2188
aVmember
p2189
aVmountabl
p2190
asI5478606
(lp2191
Vink
p2192
aVresin
p2193
aVpath
p2194
aVeject
p2195
aVflow
p2196
aVcoat
p2197
aVpattern
p2198
aVdissolubl
p2199
aVdissolv
p2200
aVjet
p2201
asI5528271
(lp2202
Vrecord
p2203
aVink
p2204
aVblower
p2205
aVdroplet
p2206
aVjet
p2207
aVmedium
p2208
aVhead
p2209
aVveloc
p2210
aVmean
p2211
aVdischarg
p2212
asI6951632
(lp2213
Vmicrofluid
p2214
aVfluid
p2215
aVintroduct
p2216
aVdevic
p2217
aVdispens
p2218
aVintroduc
p2219
aVfacilit
p2220
aVchannel
p2221
aVsystem
p2222
aVlocat
p2223
asI7648468
(lp2224
Vpenetr
p2225
aVtissu
p2226
aVsite
p2227
aVmember
p2228
aVcartridg
p2229
aVforc
p2230
aVgenerat
p2231
aVhous
p2232
aVsteril
p2233
aVout
p2234
asI6341845
(lp2235
Vprinthead
p2236
aVsubstrat
p2237
aVelectr
p2238
aVside
p2239
aVinkjet
p2240
aVdie
p2241
aVwide
p2242
aVcarrier
p2243
aVarray
p2244
aVcircuit
p2245
asI6168948
(lp2246
Vnucleic
p2247
aVminiatur
p2248
aVacid
p2249
aVgenet
p2250
aVdiagnost
p2251
aVbind
p2252
aVsite
p2253
aVanalysi
p2254
aVzone
p2255
aVextract
p2256
asI6676987
(lp2257
Vapplianc
p2258
aVmedic
p2259
aVbubbl
p2260
aVcoat
p2261
aVjet
p2262
aVprint
p2263
aVpattern
p2264
aVhead
p2265
aVaccess
p2266
aVprocessor
p2267
asI5350616
(lp2268
Vorific
p2269
aVlayer
p2270
aVwettabl
p2271
aVprinter
p2272
aVink
p2273
aVplate
p2274
aVfirst
p2275
aVaway
p2276
aVsecond
p2277
aVface
p2278
asI7056676
(lp2279
Vnucleic
p2280
aVnucleotid
p2281
aVacid
p2282
aVanalog
p2283
aVstrand
p2284
aVmolecul
p2285
aVtarget
p2286
aVsequenc
p2287
aVpolymer
p2288
aVsite
p2289
asI4965594
(lp2290
Vliquid
p2291
aVelectro
p2292
aVthermal
p2293
aVheat
p2294
aVlamin
p2295
aVresist
p2296
aVdischar
p2297
aVlayer
p2298
aVdischarg
p2299
aVconvert
p2300
asI6632655
(lp2301
Vmicrofluid
p2302
aVflowabl
p2303
aVassay
p2304
aVarray
p2305
aVmicroparticl
p2306
aVparticl
p2307
aVhydrodynam
p2308
aVfix
p2309
aVsystem
p2310
aVset
p2311
asI7316700
(lp2312
Vlancet
p2313
aVlanc
p2314
aVcutan
p2315
aVtempor
p2316
aVconjunct
p2317
aVretract
p2318
aVfeedback
p2319
aVadvanc
p2320
aVvariat
p2321
aVtissu
p2322
asI6229114
(lp2323
Vstock
p2324
aVadhes
p2325
aVcut
p2326
aVprecis
p2327
aVsheet
p2328
aVirradi
p2329
aVpattern
p2330
aVinkjet
p2331
aVcartridg
p2332
aVtape
p2333
asI6626529
(lp2334
Vprint
p2335
aVmedia
p2336
aVtransport
p2337
aVmechan
p2338
aVcase
p2339
aVcartridg
p2340
aVexit
p2341
aVinop
p2342
aVportion
p2343
aVdevic
p2344
asI6491362
(lp2345
Vdroplet
p2346
aVink
p2347
aVprint
p2348
aVdrop
p2349
aVstream
p2350
aVplacement
p2351
aVapparatus
p2352
aVimag
p2353
aVgas
p2354
aVdeflector
p2355
asI6802659
(lp2356
Vrfid
p2357
aVreprogram
p2358
aVproduct
p2359
aVprogramm
p2360
aVsoftwar
p2361
aVconfigur
p2362
aVdata
p2363
aVkiosk
p2364
aVstore
p2365
aVpackag
p2366
asI5788388
(lp2367
Vink
p2368
aVcartridg
p2369
aVconnector
p2370
aVmatabl
p2371
aVelectr
p2372
aVprinter
p2373
aVhous
p2374
aVsuppli
p2375
aVreceptacl
p2376
aVjet
p2377
asI6270182
(lp2378
Vprint
p2379
aVhead
p2380
aVrecap
p2381
aVarm
p2382
aVmembran
p2383
aVstructur
p2384
aVink
p2385
aVsolenoid
p2386
aVmoveabl
p2387
aVjet
p2388
asI6099178
(lp2389
Velectromagnet
p2390
aVmedia
p2391
aVchip
p2392
aVprinter
p2393
aVfield
p2394
aVspool
p2395
aVsens
p2396
aVtransceiv
p2397
aVribbon
p2398
aVsuppli
p2399
asI7294503
(lp2400
Vdroplet
p2401
aVbiolog
p2402
aVsort
p2403
aVmicrofluid
p2404
aVmain
p2405
aVchannel
p2406
aVextrus
p2407
aVmateri
p2408
aVcrossflow
p2409
aVvirion
p2410
asI6921615
(lp2411
Vimprint
p2412
aValign
p2413
aVlithographi
p2414
aVtemplat
p2415
aVcorrect
p2416
aVlithograph
p2417
aVoverlay
p2418
aVprocess
p2419
aVsubstrat
p2420
aVdure
p2421
asI6267858
(lp2422
Vscreen
p2423
aVthroughput
p2424
aVassay
p2425
aVmicroscal
p2426
aVbiochem
p2427
aVmicrofluid
p2428
aVfluidic
p2429
aVhigh
p2430
aVvarieti
p2431
aVdevic
p2432
asI7948015
(lp2433
Varray
p2434
aVanalyt
p2435
aVchemfet
p2436
aVfet
p2437
aVdens
p2438
aVtechniqu
p2439
aVlarg
p2440
aVconcentr
p2441
aVdna
p2442
aVisfet
p2443
asI7129554
(lp2444
Vnanoscop
p2445
aVnanotub
p2446
aVchemic
p2447
aVnanosensor
p2448
aVvapor
p2449
aVdeposit
p2450
aVbistabl
p2451
aVmonolay
p2452
aVcrossbar
p2453
aVwire
p2454
asI6391541
(lp2455
Vlyse
p2456
aVanalyt
p2457
aVsampl
p2458
aVchamber
p2459
aVflow
p2460
aVpath
p2461
aVvirus
p2462
aVcartridg
p2463
aVruptur
p2464
aVcell
p2465
asI6654505
(lp2466
Vmicroparticl
p2467
aVanalyt
p2468
aVplanar
p2469
aVprocess
p2470
aVreagent
p2471
aVarray
p2472
aVoptic
p2473
aVanalyz
p2474
aVdeliv
p2475
aVsimultan
p2476
asI6156181
(lp2477
Vmicrofabr
p2478
aVbiochemistri
p2479
aVbiotechnolog
p2480
aVpolymer
p2481
aVbiochem
p2482
aVmicrofluid
p2483
aVchemistri
p2484
aVanalys
p2485
aVfield
p2486
aVfluidic
p2487
asI6851796
(lp2488
Vdroplet
p2489
aVink
p2490
aVdeflector
p2491
aVcatcher
p2492
aVpath
p2493
aVtravel
p2494
aVvolum
p2495
aVstream
p2496
aVbegin
p2497
aValong
p2498
asI7390458
(lp2499
Vperimet
p2500
aVstation
p2501
aVwork
p2502
aVthroughput
p2503
aVrobot
p2504
aVlocat
p2505
aVtypic
p2506
aVholder
p2507
aVarea
p2508
aVsampl
p2509
asI5289211
(lp2510
Vink
p2511
aVspongi
p2512
aVelectrod
p2513
aVreservoir
p2514
aVcapillar
p2515
aVfeed
p2516
aVsoak
p2517
aVprint
p2518
aVregion
p2519
aVwarn
p2520
asI5359357
(lp2521
Vhead
p2522
aV55c
p2523
aVunloosen
p2524
aVcartridg
p2525
aVcarriag
p2526
aVdepress
p2527
aVjet
p2528
aVink
p2529
aVmember
p2530
aVrecord
p2531
asI5995774
(lp2532
Vtoner
p2533
aVcartridg
p2534
aVeprom
p2535
aVgaug
p2536
aVprinter
p2537
aVbucket
p2538
aVreservoir
p2539
aVburn
p2540
aVgas
p2541
aVprocess
p2542
asI5455617
(lp2543
Vprinter
p2544
aVvolatil
p2545
aVthermal
p2546
aVmemori
p2547
aVnon
p2548
aVsuppli
p2549
aVdefect
p2550
aVcolor
p2551
aVcorrect
p2552
aVcarrier
p2553
asI6371586
(lp2554
Vink
p2555
aVcartridg
p2556
aVdata
p2557
aVstorag
p2558
aVbit
p2559
aVprinter
p2560
aVeeprom
p2561
aVcapac
p2562
aVquantiti
p2563
aVreplac
p2564
asI5852459
(lp2565
Vcartridg
p2566
aVprint
p2567
aVink
p2568
aVcarriag
p2569
aVprinter
p2570
aVregul
p2571
aVfluid
p2572
aVscan
p2573
aVinterconnect
p2574
aVsuppli
p2575
asI6351620
(lp2576
Vproject
p2577
aVelectrophotograph
p2578
aVcartridg
p2579
aVphotosensit
p2580
aVtoner
p2581
aVmember
p2582
aVoutward
p2583
aVdemount
p2584
aVcoaxial
p2585
aVfeed
p2586
asI5555461
(lp2587
Vwiper
p2588
aVblade
p2589
aVclean
p2590
aVprinthead
p2591
aVink
p2592
aVnozzl
p2593
aVgroov
p2594
aVwipe
p2595
aVface
p2596
aVedg
p2597
asI6151041
(lp2598
Vprint
p2599
aVcartridg
p2600
aVhead
p2601
aVprinter
p2602
aVcarrier
p2603
aVtype
p2604
aVdesir
p2605
aVinstal
p2606
aVjet
p2607
aVink
p2608
asI4994825
(lp2609
Vhead
p2610
aVink
p2611
aVdischarg
p2612
aVbond
p2613
aVmain
p2614
aVrecord
p2615
aVjet
p2616
aVplate
p2617
aVbodi
p2618
aVopen
p2619
asI5926666
(lp2620
Velectrophotograph
p2621
aVphotosensit
p2622
aVdrum
p2623
aVcartridg
p2624
aVmain
p2625
aVcontact
p2626
aVactabl
p2627
aVassembl
p2628
aVmemori
p2629
aVprocess
p2630
asI5175565
(lp2631
Vbuilt
p2632
aVarray
p2633
aVsubstrat
p2634
aVenergi
p2635
aVheater
p2636
aVjet
p2637
aVtemperatur
p2638
aVoutsid
p2639
aVsensor
p2640
aVopposit
p2641
asI7682318
(lp2642
Vsampl
p2643
aVblood
p2644
aVlanc
p2645
aVminiatur
p2646
aVacquisit
p2647
aVcompon
p2648
aVgaseous
p2649
aVdioxid
p2650
aVembodi
p2651
aVambient
p2652
asI7105300
(lp2653
Vnucleotid
p2654
aVsequenc
p2655
aVsynthesi
p2656
aVintercal
p2657
aVgroup
p2658
aVincorpor
p2659
aVfluoresc
p2660
aVlabel
p2661
aVphotobleach
p2662
aVanalog
p2663
asI6440725
(lp2664
Velut
p2665
aVsampl
p2666
aVcartridg
p2667
aV122
p2668
aVanalyt
p2669
aVflow
p2670
aVfluid
p2671
aVpath
p2672
aVcompon
p2673
aVthrough
p2674
asI6416152
(lp2675
Vink
p2676
aVcartridg
p2677
aVcontain
p2678
aVbodi
p2679
aVprint
p2680
aVlid
p2681
aVjet
p2682
aVcap
p2683
aVcompos
p2684
aVport
p2685
asI6696220
(lp2686
Vreconvers
p2687
aVcolor
p2688
aVviewabl
p2689
aVimprint
p2690
aVnano
p2691
aVtemplat
p2692
aVmicro
p2693
aVsuit
p2694
aVroom
p2695
aVphotograph
p2696
asI5479197
(lp2697
Vlayer
p2698
aVconduct
p2699
aVthermal
p2700
aVelectro
p2701
aVinsul
p2702
aVtransduc
p2703
aVink
p2704
aVrecord
p2705
aVhead
p2706
aVportion
p2707
asI6554398
(lp2708
Vprinthead
p2709
aVprinter
p2710
aValign
p2711
aVjet
p2712
aVink
p2713
aVpagewidth
p2714
aVrespect
p2715
aVmisalign
p2716
aVcoupl
p2717
aVequip
p2718
asI5922591
(lp2719
Vsampl
p2720
aVnucleic
p2721
aVdiagnost
p2722
aVintegr
p2723
aVacquisit
p2724
aVnovo
p2725
aVacid
p2726
aVapplic
p2727
aVanalysi
p2728
aVdevic
p2729
asI6274337
(lp2730
Vscreen
p2731
aVthroughput
p2732
aVassay
p2733
aVmicroscal
p2734
aVbiochem
p2735
aVmicrofluid
p2736
aVfluidic
p2737
aVhigh
p2738
aVvarieti
p2739
aVdevic
p2740
asI7410468
(lp2741
Vpenetr
p2742
aVanalyt
p2743
aVsampl
p2744
aVmember
p2745
aVchamber
p2746
aVfluid
p2747
aVhous
p2748
aVbodi
p2749
aVconfigur
p2750
aVdetect
p2751
asI6080295
(lp2752
Vmicrofluid
p2753
aVelectropipettor
p2754
aVtransport
p2755
aVmateri
p2756
aVionic
p2757
aVelectrophoret
p2758
aVchannel
p2759
aVconcentr
p2760
aVelectrophores
p2761
aVspacer
p2762
asI6554410
(lp2763
Vdroplet
p2764
aVink
p2765
aVstream
p2766
aVvolum
p2767
aVheater
p2768
aVgas
p2769
aVsourc
p2770
aVplural
p2771
aVnozzl
p2772
aVposit
p2773
asI7254151
(lp2774
Vnanoscal
p2775
aVlaser
p2776
aVinject
p2777
aVwire
p2778
aVnanoelectron
p2779
aVdevic
p2780
aVnanotechnolog
p2781
aVoptic
p2782
aVcompon
p2783
aVperot
p2784
asI6406921
(lp2785
Vprotein
p2786
aVarray
p2787
aVcoat
p2788
aVscreen
p2789
aVthroughput
p2790
aVsubstrat
p2791
aVbiomolecular
p2792
aVclinic
p2793
aVvitro
p2794
aVfamili
p2795
asI7374544
(lp2796
Vtissu
p2797
aVpenetr
p2798
aVsite
p2799
aVmember
p2800
aVfluid
p2801
aVanalyt
p2802
aVforc
p2803
aVsampl
p2804
aVgenerat
p2805
aVout
p2806
asI5804083
(lp2807
Vtemporari
p2808
aVlayer
p2809
aVdimension
p2810
aVamphoter
p2811
aVmicromachin
p2812
aVthree
p2813
aVmicrostructur
p2814
aVsacrifici
p2815
aVmade
p2816
aVphotoresist
p2817
asI5610635
(lp2818
Vink
p2819
aVcartridg
p2820
aVmemori
p2821
aVstorag
p2822
aVelement
p2823
aVprinter
p2824
aVdriver
p2825
aVstore
p2826
aVenerg
p2827
aVamount
p2828
asI6960437
(lp2829
Vmicrofluid
p2830
aVreaction
p2831
aVtemperatur
p2832
aVcertaom
p2833
aVamplif
p2834
aVnucleic
p2835
aVchannel
p2836
aVrotari
p2837
aVregul
p2838
aVdiffer
p2839
asI6592822
(lp2840
Vdiagnost
p2841
aVanalyt
p2842
aVcomput
p2843
aVanalyz
p2844
aVcommunicat
p2845
aVbiolog
p2846
aVinstruct
p2847
aVrun
p2848
aVflow
p2849
aVsampl
p2850
asI6893879
(lp2851
Vanalyt
p2852
aVcaptur
p2853
aVchamber
p2854
aVelut
p2855
aVextract
p2856
aVsampl
p2857
aVlyse
p2858
aVwast
p2859
aVcartridg
p2860
aVfluid
p2861
asI6949176
(lp2862
Vdielectr
p2863
aVpump
p2864
aVmicrochannel
p2865
aVfluid
p2866
aVmove
p2867
aVvariabl
p2868
aVmicrofluid
p2869
aVdissimilar
p2870
aVgravit
p2871
aVinterfac
p2872
asI5381172
(lp2873
Vink
p2874
aVtank
p2875
aVdegrad
p2876
aVcartridg
p2877
aVplastic
p2878
aVbag
p2879
aVjet
p2880
aVcontain
p2881
aVcase
p2882
aVhead
p2883
asI6939451
(lp2884
Vmicrofluid
p2885
aVcompon
p2886
aVfilm
p2887
aVconduct
p2888
aVelectrokinet
p2889
aVintegr
p2890
aVnorbornen
p2891
aVdevic
p2892
aVelectrod
p2893
aVbubbl
p2894
asI6390590
(lp2895
Vcartridg
p2896
aVink
p2897
aVinform
p2898
aVabout
p2899
aVrecord
p2900
aVsensor
p2901
aVindic
p2902
aVapparatus
p2903
aVreceiv
p2904
aVinstal
p2905
asI6302527
(lp2906
Vprint
p2907
aVreplac
p2908
aVcompon
p2909
aVsensor
p2910
aVbroadcast
p2911
aVmateri
p2912
aVsignal
p2913
aVlink
p2914
aVindic
p2915
aVinkjet
p2916
asI5162817
(lp2917
Vink
p2918
aVresidu
p2919
aVvalu
p2920
aVresist
p2921
aVjet
p2922
aVcorrect
p2923
aVsaid
p2924
aVdetect
p2925
aVdiffer
p2926
aVpath
p2927
asI7476363
(lp2928
Velastomer
p2929
aVmicrofluid
p2930
aVreagent
p2931
aVblock
p2932
aVetch
p2933
aVmatrix
p2934
aVinlet
p2935
aVreaction
p2936
aVdevic
p2937
aVvia
p2938
asI6302535
(lp2939
Vink
p2940
aVreplac
p2941
aVinkjet
p2942
aVpivot
p2943
aVcontain
p2944
aVelectr
p2945
aVprint
p2946
aVfeatur
p2947
aVengag
p2948
aVcontact
p2949
asI6318920
(lp2950
Vprinthead
p2951
aVplaten
p2952
aVtherealong
p2953
aVchassi
p2954
aVbodi
p2955
aVbear
p2956
aVrotat
p2957
aVblot
p2958
aVcap
p2959
aVaway
p2960
asI6238538
(lp2961
Vmicrofabr
p2962
aVbiochemistri
p2963
aVbiotechnolog
p2964
aVpolymer
p2965
aVbiochem
p2966
aVmicrofluid
p2967
aVchemistri
p2968
aVanalys
p2969
aVfield
p2970
aVfluidic
p2971
asI5489995
(lp2972
Vlight
p2973
aVtranspar
p2974
aVsensor
p2975
aVimag
p2976
aVorigin
p2977
aVmember
p2978
aVsupport
p2979
aVsourc
p2980
aVcontact
p2981
aVreflect
p2982
asI6079821
(lp2983
Vink
p2984
aVbore
p2985
aVnozzl
p2986
aVstream
p2987
aVheater
p2988
aVdeliveri
p2989
aVasymmetr
p2990
aVperimet
p2991
aVcontinu
p2992
aVprinter
p2993
asI6235471
(lp2994
Vbiochem
p2995
aVfluid
p2996
aVmicroscal
p2997
aVscreen
p2998
aVperform
p2999
aVmicrofluid
p3000
aVgenom
p3001
aViter
p3002
aVsystem
p3003
aVpurif
p3004
asI6390611
(lp3005
Vink
p3006
aVtank
p3007
aVsub
p3008
aVunit
p3009
aVrecord
p3010
aVport
p3011
aVjet
p3012
aVreplenish
p3013
aVexhaust
p3014
aVdroplet
p3015
asI7526741
(lp3016
Vmicrofluid
p3017
aVlayout
p3018
aVsynthesiz
p3019
aVschemat
p3020
aVphysic
p3021
aVdesign
p3022
aVsimul
p3023
aVcomput
p3024
aVcompon
p3025
aVcode
p3026
asI6221654
(lp3027
Vpolynucleotid
p3028
aVsort
p3029
aVmolecul
p3030
aVmicrofabr
p3031
aVsize
p3032
aVoptic
p3033
aVdevic
p3034
aVfluoresc
p3035
aVreport
p3036
aVbranch
p3037
asI6830936
(lp3038
Vsampl
p3039
aVnucleic
p3040
aVdiagnost
p3041
aVintegr
p3042
aVacquisit
p3043
aVnovo
p3044
aVacid
p3045
aVapplic
p3046
aVanalysi
p3047
aVnotabl
p3048
asI7888013
(lp3049
Vdna
p3050
aVanalyz
p3051
aVsequenc
p3052
aVinduc
p3053
aVexpens
p3054
aVreaction
p3055
aVstrand
p3056
aVgate
p3057
aVelong
p3058
aVfield
p3059
asI6649403
(lp3060
Vanalyt
p3061
aVparticl
p3062
aVarray
p3063
aVsensor
p3064
aVcharacter
p3065
aVcaviti
p3066
aVmulti
p3067
aVfluid
p3068
aVmay
p3069
aVrecognit
p3070
asI6197595
(lp3071
Vsampl
p3072
aVnucleic
p3073
aVdiagnost
p3074
aVintegr
p3075
aVacquisit
p3076
aVnovo
p3077
aVacid
p3078
aVapplic
p3079
aVanalysi
p3080
aVdevic
p3081
asI6238044
(lp3082
Vcartridg
p3083
aVprint
p3084
aVarrang
p3085
aVsuppli
p3086
aVfilter
p3087
aVsupport
p3088
aVprinthead
p3089
aVink
p3090
aVmedia
p3091
aVinstal
p3092
asI6557976
(lp3093
Vprinthead
p3094
aVside
p3095
aVinkjet
p3096
aVelectr
p3097
aVcarrier
p3098
aVdie
p3099
aVwide
p3100
aVarray
p3101
aVcircuit
p3102
aVfirst
p3103
asI6589792
(lp3104
Vcytomet
p3105
aVstream
p3106
aVdroplet
p3107
aVsort
p3108
aVcytometri
p3109
aVcan
p3110
aV154
p3111
aVflow
p3112
aVimag
p3113
aVallow
p3114
asI6429025
(lp3115
Vscreen
p3116
aVthroughput
p3117
aVassay
p3118
aVmicroscal
p3119
aVbiochem
p3120
aVmicrofluid
p3121
aVfluidic
p3122
aVhigh
p3123
aVvarieti
p3124
aVdevic
p3125
asI6174050
(lp3126
Veject
p3127
aVheat
p3128
aVgenerat
p3129
aVbubbl
p3130
aVsurfac
p3131
aVmovabl
p3132
aVoutlet
p3133
aVupstream
p3134
aVmember
p3135
aVliquid
p3136
asI6306659
(lp3137
Vmicrofluid
p3138
aVscreen
p3139
aVthroughput
p3140
aVcompound
p3141
aVassay
p3142
aVmicroscal
p3143
aVbiochem
p3144
aVfluidic
p3145
aVlibrari
p3146
aVconjunct
p3147
asI6521188
(lp3148
Vmicrofluid
p3149
aVactuat
p3150
aVdiaphragm
p3151
aVvacuum
p3152
aVchamber
p3153
aVheater
p3154
aVfilm
p3155
aVnetwork
p3156
aVdifferenti
p3157
aVglass
p3158
asI5142374
(lp3159
Vink
p3160
aVbinari
p3161
aVimag
p3162
aVdark
p3163
aVgradient
p3164
aVrecord
p3165
aVdata
p3166
aVsuitabl
p3167
aVconvert
p3168
aVsignal
p3169
asI6742887
(lp3170
Vprint
p3171
aVink
p3172
aVportabl
p3173
aVmechan
p3174
aVincorpor
p3175
aVtherein
p3176
aVsimpli
p3177
aVcommunic
p3178
aVwast
p3179
aVtank
p3180
asI6046056
(lp3181
Vscreen
p3182
aVthroughput
p3183
aVassay
p3184
aVmicroscal
p3185
aVbiochem
p3186
aVmicrofluid
p3187
aVfluidic
p3188
aVhigh
p3189
aVvarieti
p3190
aVdevic
p3191
asI6829753
(lp3192
Vmicrofluid
p3193
aVlayout
p3194
aVsynthesiz
p3195
aVschemat
p3196
aVphysic
p3197
aVdesign
p3198
aVsimul
p3199
aVcomput
p3200
aVcompon
p3201
aVcode
p3202
asI6116715
(lp3203
sI6050669
(lp3204
sI6247790
(lp3205
Vnozzl
p3206
aVink
p3207
aVeject
p3208
aVactuat
p3209
aVrim
p3210
aVradial
p3211
aVchamber
p3212
aVport
p3213
aVthermoelast
p3214
aVjet
p3215
asI7582063
(lp3216
Vprick
p3217
aVtest
p3218
aVblood
p3219
aVelement
p3220
aVwithdraw
p3221
aVskin
p3222
aVmultipl
p3223
aVlanc
p3224
aVapparatus
p3225
aVdevic
p3226
asI7604592
(lp3227
Vtest
p3228
aVcartridg
p3229
aVcare
p3230
aVnonsequenti
p3231
aVreport
p3232
aVpoc
p3233
aVinterrog
p3234
aVsingl
p3235
aVpoint
p3236
aVthough
p3237
asI6911345
(lp3238
Vport
p3239
aVpolynucleotid
p3240
aVflow
p3241
aVcell
p3242
aVanalyz
p3243
aVmicrofabr
p3244
aVinlet
p3245
aVoutlet
p3246
aVsequenc
p3247
aVfluid
p3248
asI7582099
(lp3249
Vpenetr
p3250
aVmember
p3251
aVskin
p3252
aVtip
p3253
aVtissu
p3254
aVdriver
p3255
aVuncov
p3256
aVlaunch
p3257
aVplural
p3258
aVrelay
p3259
asI5444468
(lp3260
Vrecord
p3261
aVimag
p3262
aVscan
p3263
aVhead
p3264
aVrecod
p3265
aVdensiti
p3266
aVcorrect
p3267
aVmain
p3268
aVmedium
p3269
aVapparatus
p3270
asI7674232
(lp3271
Vtissu
p3272
aVsite
p3273
aVpenetr
p3274
aVforc
p3275
aVmember
p3276
aVgenerat
p3277
aVout
p3278
aVtrajectori
p3279
aVdrive
p3280
aVwithdraw
p3281
asI6019449
(lp3282
sI6831994
(lp3283
Vmicroparticl
p3284
aVanalyt
p3285
aVplanar
p3286
aVprocess
p3287
aVreagent
p3288
aVarray
p3289
aVoptic
p3290
aVanalyz
p3291
aVdeliv
p3292
aVsimultan
p3293
asI7344507
(lp3294
Vlancet
p3295
aVdriver
p3296
aVlanc
p3297
aVforc
p3298
aVexert
p3299
aVdrive
p3300
aVcycl
p3301
aVdure
p3302
aVmagnitud
p3303
aVsite
p3304
asI5477246
(lp3305
Vrecord
p3306
aVink
p3307
aVeject
p3308
aVprint
p3309
aVquantiti
p3310
aVmode
p3311
aVhead
p3312
aVpass
p3313
aVjet
p3314
aVtotal
p3315
asI7156117
(lp3316
Vmicrofluid
p3317
aVtrigger
p3318
aVvalv
p3319
aVcircuit
p3320
aVpassiv
p3321
aVfluid
p3322
aVthrough
p3323
aVcontrol
p3324
aVflow
p3325
aVpresent
p3326
asI5040000
(lp3327
Vrecord
p3328
aVink
p3329
aVhead
p3330
aVdischarg
p3331
aVrecoveri
p3332
aVconvey
p3333
aVjet
p3334
aVbelt
p3335
aVport
p3336
aVdroplet
p3337
asI6019457
(lp3338
Vpassageway
p3339
aVink
p3340
aVprint
p3341
aVeject
p3342
aVjet
p3343
aVdimens
p3344
aVoutlet
p3345
aVcross
p3346
aVchang
p3347
aVwhere
p3348
asI8015234
(lp3349
Vnotif
p3350
aVevent
p3351
aVaspect
p3352
aVcredenti
p3353
aVsubscript
p3354
aVsome
p3355
aVoccurr
p3356
aVimag
p3357
aVspecif
p3358
aVdevic
p3359
asI6019461
(lp3360
sI6039430
(lp3361
sI6151049
(lp3362
Vliquid
p3363
aVbubbl
p3364
aVdischarg
p3365
aVpath
p3366
aVflow
p3367
aVfirst
p3368
aVgenerat
p3369
aVregion
p3370
aVsuppli
p3371
aVcommunic
p3372
asI6019466
(lp3373
sI6319668
(lp3374
Vmatrix
p3375
aVmolecul
p3376
aVmemori
p3377
aVassay
p3378
aVmacromolecul
p3379
aVbiolog
p3380
aVcombin
p3381
aVimmunoassay
p3382
aVmatric
p3383
aVmateri
p3384
asI6155664
(lp3385
Vink
p3386
aVcartridg
p3387
aVprinthead
p3388
aVremot
p3389
aVstore
p3390
aVcompat
p3391
aVmemori
p3392
aVreservoir
p3393
aVcharacterist
p3394
aVinkjet
p3395
asI6375314
(lp3396
Vphotoprint
p3397
aVconsum
p3398
aVink
p3399
aVprintabl
p3400
aVcassett
p3401
aVsourc
p3402
aVmedia
p3403
aVsheet
p3404
aVremov
p3405
aVprint
p3406
asI6007187
(lp3407
Veject
p3408
aVliquid
p3409
aVbubbl
p3410
aVoutlet
p3411
aVmovabl
p3412
aVfree
p3413
aVmember
p3414
aVgenerat
p3415
aVend
p3416
aVgrow
p3417
asI6116718
(lp3418
sI5741462
(lp3419
Vmatrix
p3420
aVmacromolecul
p3421
aVmemori
p3422
aVcombin
p3423
aVmatric
p3424
aVremot
p3425
aVbiolog
p3426
aVprogramm
p3427
aVmolecul
p3428
aVphage
p3429
asI7547287
(lp3430
Vpenetr
p3431
aVmember
p3432
aVtissu
p3433
aVhous
p3434
aVsensor
p3435
aVcoupl
p3436
aVskin
p3437
aVdepth
p3438
aVplural
p3439
aVstabil
p3440
asI7059352
(lp3441
Vpassiv
p3442
aVvalv
p3443
aVfluid
p3444
aVrestrictor
p3445
aVflow
p3446
aVchannel
p3447
aVtrigger
p3448
aVdeliveri
p3449
aVactuat
p3450
aVburst
p3451
asI6885982
(lp3452
Vmicrofluid
p3453
aVobject
p3454
aVchannel
p3455
aVfluid
p3456
aVcompon
p3457
aVrepres
p3458
aVorient
p3459
aVsymbol
p3460
aVdesign
p3461
aVconnect
p3462
asI6290334
(lp3463
Vrecord
p3464
aVelectr
p3465
aVelement
p3466
aVsignal
p3467
aVsuppli
p3468
aVsubstrat
p3469
aVcontact
p3470
aVserial
p3471
aVrecept
p3472
aVlead
p3473
asI6495104
(lp3474
Vindic
p3475
aVmicrofluid
p3476
aVelement
p3477
aVfunction
p3478
aVregistr
p3479
aVdiffer
p3480
aVconjunct
p3481
aVinstrument
p3482
aVdevic
p3483
aVkey
p3484
asI7537571
(lp3485
Vsampl
p3486
aVblood
p3487
aVmodul
p3488
aVdispos
p3489
aVtest
p3490
aVglucos
p3491
aVsingl
p3492
aVminiatur
p3493
aVeas
p3494
aVanalyt
p3495
asI7033764
(lp3496
Vnucleic
p3497
aVnucleotid
p3498
aVacid
p3499
aVanalog
p3500
aVstrand
p3501
aVmolecul
p3502
aVtarget
p3503
aVsequenc
p3504
aVpolymer
p3505
aVsite
p3506
asI6481829
(lp3507
Vprinthead
p3508
aVlatch
p3509
aVactuat
p3510
aVcartridg
p3511
aVmanual
p3512
aVcarrier
p3513
aVspring
p3514
aVreleas
p3515
aVcover
p3516
aVsecur
p3517
asI5132711
(lp3518
Vrecord
p3519
aVunit
p3520
aVmemori
p3521
aVink
p3522
aVdata
p3523
aVdetect
p3524
aVstore
p3525
aVcontrol
p3526
aVoutput
p3527
aVindic
p3528
asI5138344
(lp3529
Vink
p3530
aVcartridg
p3531
aVjet
p3532
aVrecord
p3533
aVdetach
p3534
aVcontain
p3535
aVinform
p3536
aVadaptor
p3537
aVmountabl
p3538
aVreceptor
p3539
asI6911132
(lp3540
Vdroplet
p3541
aVmanipul
p3542
aVelectrowet
p3543
aVmix
p3544
aVenerg
p3545
aVtechniqu
p3546
aVsurfac
p3547
aVapparatus
p3548
aVelectrod
p3549
aVcontain
p3550
asI6719915
(lp3551
Vpolymeriz
p3552
aVrelief
p3553
aVpolymer
p3554
aVsolidifi
p3555
aVtransfer
p3556
aVfluid
p3557
aVmold
p3558
aVlayer
p3559
aVcomposit
p3560
aVmateri
p3561
asI6444461
(lp3562
Vmicrofluid
p3563
aVfluid
p3564
aVmicroscal
p3565
aVscreen
p3566
aVperform
p3567
aVbiochem
p3568
aVgenom
p3569
aViter
p3570
aVdevic
p3571
aVsystem
p3572
asI5856174
(lp3573
Vsampl
p3574
aVnucleic
p3575
aVdiagnost
p3576
aVintegr
p3577
aVacquisit
p3578
aVnovo
p3579
aVacid
p3580
aVapplic
p3581
aVanalysi
p3582
aVdevic
p3583
asI7481776
(lp3584
Vpenetr
p3585
aVanalyt
p3586
aVmember
p3587
aVskin
p3588
aVsampl
p3589
aVchamber
p3590
aVhous
p3591
aVdetect
p3592
aVdispos
p3593
aVeach
p3594
asI6130098
(lp3595
Vmicrodroplet
p3596
aVmicroscal
p3597
aVmicrochannel
p3598
aVelectrophoresi
p3599
aVchannel
p3600
aVdroplet
p3601
aVpropel
p3602
aVdiscret
p3603
aVsame
p3604
aVetch
p3605
asI5802420
(lp3606
Vtoner
p3607
aVpage
p3608
aVprint
p3609
aVprinter
p3610
aVgradat
p3611
aVcartridg
p3612
aVpredict
p3613
aVremain
p3614
aVjob
p3615
aVtalli
p3616
asI6155678
(lp3617
Vcartridg
p3618
aVink
p3619
aVpen
p3620
aVbodi
p3621
aVjet
p3622
aVguidabl
p3623
aVreplac
p3624
aVrecess
p3625
aVproject
p3626
aVprinthead
p3627
asI4982199
(lp3628
Vink
p3629
aVfire
p3630
aVprewarm
p3631
aVpuls
p3632
aVtailor
p3633
aVgray
p3634
aVpen
p3635
aVwarm
p3636
aVdroplet
p3637
aVbubbl
p3638
asI6113208
(lp3639
sI4723129
(lp3640
Vliquid
p3641
aVorific
p3642
aVpassageway
p3643
aVdroplet
p3644
aVchamber
p3645
aVthermal
p3646
aVoutlet
p3647
aVportion
p3648
aVjet
p3649
aVheat
p3650
asI6796731
(lp3651
Vink
p3652
aVlamin
p3653
aVdistribut
p3654
aVlayer
p3655
aVprinter
p3656
aVtransvers
p3657
aVstructur
p3658
aVhole
p3659
aVprinthead
p3660
aVnumber
p3661
asI5812156
(lp3662
Vparamet
p3663
aVprinthead
p3664
aVmemori
p3665
aVcartridg
p3666
aVmedia
p3667
aVprint
p3668
aVmark
p3669
aVink
p3670
aVconsum
p3671
aVjet
p3672
asI6196670
(lp3673
Vink
p3674
aVcartridg
p3675
aVeeprom
p3676
aVprinter
p3677
aVrewrit
p3678
aVstorag
p3679
aVwrite
p3680
aVfrequenc
p3681
aVprint
p3682
aVquantiti
p3683
asI6378997
(lp3684
Vink
p3685
aVjet
p3686
aVrecord
p3687
aVcartridg
p3688
aVmedium
p3689
aVhead
p3690
aVtank
p3691
aVconvey
p3692
aVmedia
p3693
aVexecut
p3694
asI6899137
(lp3695
Velastomer
p3696
aVmicromachin
p3697
aVlayer
p3698
aVfirst
p3699
aVrecess
p3700
aVmold
p3701
aVsecond
p3702
aVtop
p3703
aVprotrus
p3704
aVbottom
p3705
asI6326211
(lp3706
Vsampl
p3707
aVacquisit
p3708
aVnucleic
p3709
aVdiagnost
p3710
aVnovo
p3711
aVapplic
p3712
aVanalysi
p3713
aVintegr
p3714
aVdevic
p3715
aVmicrofluid
p3716
asI7238323
(lp3717
Vmicrofluid
p3718
aVfluid
p3719
aVmicroscal
p3720
aVscreen
p3721
aVperform
p3722
aVsequenc
p3723
aVbiochem
p3724
aVsystem
p3725
aVgenom
p3726
aViter
p3727
asI7524293
(lp3728
Vpenetr
p3729
aVtissu
p3730
aVsite
p3731
aVmember
p3732
aVforc
p3733
aVgenerat
p3734
aVlaunch
p3735
aVout
p3736
aVwithdraw
p3737
aVmove
p3738
asI5717446
(lp3739
Vink
p3740
aVbelt
p3741
aVvacuum
p3742
aVprinthead
p3743
aVholddown
p3744
aVplaten
p3745
aVapertur
p3746
aVtransport
p3747
aVliquid
p3748
aVgutter
p3749
asI6043080
(lp3750
sI6500323
(lp3751
Vfluidic
p3752
aVdesign
p3753
aVchannel
p3754
aVmicroscal
p3755
aVoptim
p3756
aVreaction
p3757
aVmicrofluid
p3758
aVnetwork
p3759
aVforc
p3760
aVanalyt
p3761
asI6132685
(lp3762
Vmicrofluid
p3763
aVmultiwel
p3764
aVconveyor
p3765
aVplate
p3766
aVstation
p3767
aVtest
p3768
aVsampl
p3769
aVsystem
p3770
aVmicrotit
p3771
aVclamshel
p3772
asI6575566
(lp3773
Vdroplet
p3774
aVink
p3775
aVinkjet
p3776
aVprinthead
p3777
aVstream
p3778
aVdeflector
p3779
aVvolum
p3780
aVgutter
p3781
aVsecond
p3782
aVselect
p3783
asI5896143
(lp3784
Vprinthead
p3785
aVcap
p3786
aVsuction
p3787
aVjet
p3788
aVink
p3789
aVspeedili
p3790
aVmechan
p3791
aVdevis
p3792
aVprint
p3793
aVscheme
p3794
asI7097809
(lp3795
Vmicrofluid
p3796
aVchannel
p3797
aVsolid
p3798
aVflow
p3799
aVelastomer
p3800
aVsupport
p3801
aVpresent
p3802
aVplural
p3803
aVcombinatori
p3804
aVdevic
p3805
asI5262802
(lp3806
Veject
p3807
aVoutlet
p3808
aVvent
p3809
aVrecord
p3810
aVseal
p3811
aVair
p3812
aVink
p3813
aVunseal
p3814
aVmember
p3815
aVhead
p3816
asI6296020
(lp3817
Vsister
p3818
aVmicrochannel
p3819
aVpassiv
p3820
aVfluid
p3821
aVwell
p3822
aVflow
p3823
aVchamber
p3824
aVstop
p3825
aVallow
p3826
aVvalv
p3827
asI6934485
(lp3828
Vdevelop
p3829
aVdrum
p3830
aVaccomod
p3831
aVcharg
p3832
aVframe
p3833
aVcartridg
p3834
aVelectrophotograph
p3835
aVmain
p3836
aVbias
p3837
aVdeveloplng
p3838
asI6022102
(lp3839
sI6089687
(lp3840
Vink
p3841
aVprinter
p3842
aVparamet
p3843
aVvolum
p3844
aVcontain
p3845
aVproport
p3846
aVfill
p3847
aVrang
p3848
aVstorag
p3849
aVreplac
p3850
asI6588888
(lp3851
Vdroplet
p3852
aVtravel
p3853
aVpath
p3854
aVvolum
p3855
aValong
p3856
aVdiverg
p3857
aVgutter
p3858
aVprint
p3859
aVstate
p3860
aVforc
p3861
asI5370842
(lp3862
Vsampl
p3863
aVaccumul
p3864
aVinject
p3865
aVmeasur
p3866
aVpassag
p3867
aVreagent
p3868
aVportion
p3869
aVhalfway
p3870
aVflow
p3871
aVfluid
p3872
asI7157723
(lp3873
Vambient
p3874
aVattenu
p3875
aVlight
p3876
aVsensor
p3877
aVquantit
p3878
aVoptic
p3879
aVeffect
p3880
aVcompens
p3881
aVmeasur
p3882
aVsystem
p3883
asI6508988
(lp3884
Vchannel
p3885
aVelast
p3886
aVflow
p3887
aVchemic
p3888
aVreaction
p3889
aVsolid
p3890
aVplural
p3891
aVfirst
p3892
aVmember
p3893
aVsupport
p3894
asI6375901
(lp3895
Vmicrovalv
p3896
aVmicro
p3897
aVstimulus
p3898
aVrevers
p3899
aVchemico
p3900
aVsubject
p3901
aVgel
p3902
aVthermorevers
p3903
aVdevic
p3904
aVfluid
p3905
asI6048734
(lp3906
Vmicrodroplet
p3907
aVmicrovalv
p3908
aVmicroscal
p3909
aVmicrochannel
p3910
aVelectrophoresi
p3911
aVchannel
p3912
aVdroplet
p3913
aVpropel
p3914
aVdiscret
p3915
aVsame
p3916
asI7563232
(lp3917
Vpenetr
p3918
aVtissu
p3919
aVmember
p3920
aVsite
p3921
aVfluid
p3922
aVanalyt
p3923
aVforc
p3924
aVsampl
p3925
aVgenerat
p3926
aVout
p3927
asI5993611
(lp3928
Vdenatur
p3929
aVnucleic
p3930
aVacid
p3931
aVcapacit
p3932
aVmicrofluid
p3933
aVcontext
p3934
aVamplif
p3935
aVmanipul
p3936
aVautom
p3937
aVanalysi
p3938
asI6572830
(lp3939
Vmonolith
p3940
aVgreen
p3941
aVport
p3942
aVfluid
p3943
aVmicroflud
p3944
aVsinter
p3945
aVmultilay
p3946
aVsubstanti
p3947
aVsheet
p3948
aVstructur
p3949
asI5359355
(lp3950
Vrecord
p3951
aVmode
p3952
aVscan
p3953
aVdot
p3954
aVimag
p3955
aVspeed
p3956
aVplural
p3957
aVoper
p3958
aVtime
p3959
aVsecond
p3960
asI6694884
(lp3961
Vcard
p3962
aVhopper
p3963
aVsuppli
p3964
aVprinter
p3965
aVcircuit
p3966
aVidentif
p3967
aVstack
p3968
aVcontain
p3969
aVparamet
p3970
aVprint
p3971
asI6916584
(lp3972
Vtemplat
p3973
aVimprint
p3974
aVlithographi
p3975
aVliquid
p3976
aVcure
p3977
aValign
p3978
aVsubstrat
p3979
aVpattern
p3980
aVbrought
p3981
aVdispens
p3982
asI6284465
(lp3983
Vnucleotid
p3984
aVfeatur
p3985
aVhybrid
p3986
aVnucleic
p3987
aVlocat
p3988
aVacid
p3989
aVindepend
p3990
aVbound
p3991
aVoptic
p3992
aVsignal
p3993
asI5375979
(lp3994
Vmicropump
p3995
aVoverpressur
p3996
aVwork
p3997
aVchamber
p3998
aVvalv
p3999
aVvacuum
p4000
aVsilicon
p4001
aVpartial
p4002
aVgas
p4003
aVheat
p4004
asI6340588
(lp4005
Vmatrix
p4006
aVmemori
p4007
aVmatric
p4008
aVcombin
p4009
aVassay
p4010
aVmacromolecul
p4011
aVbiolog
p4012
aVimmunoassay
p4013
aVmolecul
p4014
aVmateri
p4015
asI7297518
(lp4016
Vpolynucleotid
p4017
aVasynchron
p4018
aVmolecul
p4019
aVextens
p4020
aVanalyz
p4021
aVmicroscopi
p4022
aVsequenc
p4023
aVfluoresc
p4024
aVresolut
p4025
aVtotal
p4026
asI6334960
(lp4027
Vpolymeriz
p4028
aVrelief
p4029
aVpolymer
p4030
aVsolidifi
p4031
aVtransfer
p4032
aVfluid
p4033
aVmold
p4034
aVlayer
p4035
aVcomposit
p4036
aVmateri
p4037
asI6664104
(lp4038
Vmicrofluid
p4039
aVanalyt
p4040
aVlyse
p4041
aVchip
p4042
aVcartridg
p4043
aVelut
p4044
aVmicrostructur
p4045
aVfluid
p4046
aVsampl
p4047
aVwast
p4048
asI6632619
(lp4049
Vmicrofluid
p4050
aVstudi
p4051
aVvitro
p4052
aVcell
p4053
aVcompound
p4054
aVeffect
p4055
aVthis
p4056
aVstop
p4057
aVreaction
p4058
aVrelat
p4059
asI5731828
(lp4060
Vink
p4061
aVjet
p4062
aVresistor
p4063
aVhead
p4064
aVheat
p4065
aVdrivabl
p4066
aVgenerat
p4067
aVpath
p4068
aVliquid
p4069
aVmicron
p4070
asI6158837
(lp4071
Vink
p4072
aVqualifi
p4073
aVprint
p4074
aVprinter
p4075
aVnon
p4076
aVcustom
p4077
aVcartridg
p4078
aVnormal
p4079
aVmode
p4080
aVdetect
p4081
asI6602702
(lp4082
Vanalyt
p4083
aVparticl
p4084
aVcharacter
p4085
aVcaviti
p4086
aVarray
p4087
aVmulti
p4088
aVsensor
p4089
aVfluid
p4090
aVmay
p4091
aVrecognit
p4092
asI6575188
(lp4093
Vtrs
p4094
aVpassag
p4095
aVmicrofluid
p4096
aVobstruct
p4097
aVupstream
p4098
aVchannel
p4099
aVoppos
p4100
aVthermal
p4101
aVvalv
p4102
aVwall
p4103
asI6185320
(lp4104
Vlesion
p4105
aVmedic
p4106
aVdetect
p4107
aVmodifi
p4108
aVfilter
p4109
aVmammogram
p4110
aVresolut
p4111
aVsuspici
p4112
aVmatch
p4113
aVimag
p4114
asI6322683
(lp4115
Valign
p4116
aVfabric
p4117
aVstructur
p4118
aVelement
p4119
aVmicrofabr
p4120
aVmulticompon
p4121
aVtool
p4122
aVmicrofluid
p4123
aVcapillari
p4124
aVstep
p4125
asI5179389
(lp4126
Vink
p4127
aVhead
p4128
aVdischarg
p4129
aVjet
p4130
aVenergi
p4131
aVrecord
p4132
aVtank
p4133
aVregul
p4134
aVpressur
p4135
aVport
p4136
asI6482574
(lp4137
Vdroplet
p4138
aVprinthead
p4139
aVjet
p4140
aVink
p4141
aVplate
p4142
aVfabric
p4143
aVrobust
p4144
aVprocess
p4145
aVarchitectur
p4146
aVprinter
p4147
asI6873087
(lp4148
Vimprint
p4149
aVflexur
p4150
aVtemplat
p4151
aVstage
p4152
aVorient
p4153
aVlithographi
p4154
aVcalibr
p4155
aVfine
p4156
aVprecis
p4157
aVgap
p4158
astp4159
.