((lp0
I4723129
aI4965594
aI4982199
aI4994825
aI5132711
aI5138344
aI5155502
aI5208604
aI5262802
aI5367324
aI5370842
aI5477246
aI5479197
aI5506611
aI5509140
aI5821962
aI5841452
aI5861897
aI6007187
aI6019457
aI6062667
aI6151049
aI6172688
aI6174050
aI6543879
aI5788388
aI5812156
aI5860363
aI6019449
aI6116715
aI5414452
aI5699091
aI6039430
aI6130695
aI6386772
aI6502917
aI6631967
aI5359357
aI5619237
aI6149256
aI5478606
aI6248590
aI6977722
aI7118351
aI5835817
aI5949459
aI6019461
aI6065824
aI6074042
aI6155664
aI6196670
aI6416152
aI6022102
aI6460984
aI6079821
aI6183067
aI6062681
aI6247790
aI6405055
aI6628430
aI6302527
aI6227643
aI5610635
aI5997121
aI6000773
aI5926666
aI6312106
aI5552816
aI6155678
aI6481829
aI6652090
aI6592822
aI7297151
aI7316700
aI7344507
aI7374544
aI7410468
aI7481776
aI7491178
aI7524293
aI7547287
aI7563232
aI7582063
aI7604592
aI7648468
aI6798997
aI6491362
aI6505921
aI6554410
aI6575566
aI6588888
aI6851796
aI6742887
aI6367903
a(lp1
(lp2
I4723129
aa(lp3
I4965594
aI4982199
aI4994825
aI5132711
aI5138344
aI5155502
aI5208604
aI5262802
aI5367324
aI5370842
aI5477246
aI5479197
aI5506611
aI5509140
aI5821962
aI5841452
aI5861897
aI6007187
aI6019457
aI6062667
aI6151049
aI6172688
aI6174050
aa(lp4
I6543879
aI5788388
aI5812156
aI5860363
aI6019449
aI6116715
aI5414452
aI5699091
aI6039430
aI6130695
aI6386772
aI6502917
aI6631967
aI5359357
aI5619237
aI6149256
aI5478606
aI6248590
aI6977722
aI7118351
aI5835817
aI5949459
aI6019461
aI6065824
aI6074042
aI6155664
aI6196670
aI6416152
aI6022102
aI6460984
aI6079821
aI6183067
aI6062681
aI6247790
aI6405055
aI6628430
aa(lp5
I6302527
aI6227643
aI5610635
aI5997121
aI6000773
aI5926666
aI6312106
aI5552816
aI6155678
aI6481829
aI6652090
aI6592822
aI7297151
aI7316700
aI7344507
aI7374544
aI7410468
aI7481776
aI7491178
aI7524293
aI7547287
aI7563232
aI7582063
aI7604592
aI7648468
aI6798997
aI6491362
aI6505921
aI6554410
aI6575566
aI6588888
aI6851796
aI6742887
aa(lp6
I6367903
aa(lp7
(I4723129
I4965594
tp8
a(I4723129
I4982199
tp9
a(I4723129
I4994825
tp10
a(I4723129
I5132711
tp11
a(I4723129
I5138344
tp12
a(I4723129
I5155502
tp13
a(I4723129
I5208604
tp14
a(I4723129
I5262802
tp15
a(I4723129
I5367324
tp16
a(I4723129
I5370842
tp17
a(I4723129
I5477246
tp18
a(I4723129
I5479197
tp19
a(I4723129
I5506611
tp20
a(I4723129
I5509140
tp21
a(I4723129
I5821962
tp22
a(I4723129
I5841452
tp23
a(I4723129
I5861897
tp24
a(I4723129
I6007187
tp25
a(I4723129
I6019457
tp26
a(I4723129
I6062667
tp27
a(I4723129
I6151049
tp28
a(I4723129
I6172688
tp29
a(I4723129
I6174050
tp30
a(I4982199
I6543879
tp31
a(I4994825
I6007187
tp32
a(I4994825
I6151049
tp33
a(I4994825
I6174050
tp34
a(I5132711
I5788388
tp35
a(I5132711
I5812156
tp36
a(I5132711
I5860363
tp37
a(I5132711
I6019449
tp38
a(I5132711
I6116715
tp39
a(I5138344
I5414452
tp40
a(I5138344
I5699091
tp41
a(I5138344
I5812156
tp42
a(I5138344
I5860363
tp43
a(I5138344
I6019449
tp44
a(I5138344
I6039430
tp45
a(I5138344
I6130695
tp46
a(I5138344
I6386772
tp47
a(I5138344
I6502917
tp48
a(I5138344
I6631967
tp49
a(I5155502
I5359357
tp50
a(I5155502
I5509140
tp51
a(I5155502
I5619237
tp52
a(I5155502
I5788388
tp53
a(I5155502
I5860363
tp54
a(I5155502
I5861897
tp55
a(I5155502
I6149256
tp56
a(I5208604
I5478606
tp57
a(I5208604
I6007187
tp58
a(I5208604
I6151049
tp59
a(I5208604
I6174050
tp60
a(I5262802
I5509140
tp61
a(I5262802
I6151049
tp62
a(I5370842
I6248590
tp63
a(I5370842
I6977722
tp64
a(I5370842
I7118351
tp65
a(I5506611
I5699091
tp66
a(I5506611
I5788388
tp67
a(I5506611
I5812156
tp68
a(I5506611
I5835817
tp69
a(I5506611
I5860363
tp70
a(I5506611
I5949459
tp71
a(I5506611
I6019449
tp72
a(I5506611
I6019461
tp73
a(I5506611
I6062667
tp74
a(I5506611
I6065824
tp75
a(I5506611
I6074042
tp76
a(I5506611
I6130695
tp77
a(I5506611
I6155664
tp78
a(I5506611
I6196670
tp79
a(I5506611
I6416152
tp80
a(I5506611
I6502917
tp81
a(I5509140
I6022102
tp82
a(I5509140
I6460984
tp83
a(I5821962
I6151049
tp84
a(I5841452
I6079821
tp85
a(I5841452
I6183067
tp86
a(I5861897
I6039430
tp87
a(I5861897
I6502917
tp88
a(I5861897
I6631967
tp89
a(I6007187
I6062681
tp90
a(I6007187
I6247790
tp91
a(I6172688
I6405055
tp92
a(I6172688
I6628430
tp93
a(I5788388
I6039430
tp94
a(I5788388
I6155664
tp95
a(I5788388
I6302527
tp96
a(I5788388
I6502917
tp97
a(I5788388
I6631967
tp98
a(I5812156
I6227643
tp99
a(I5812156
I6502917
tp100
a(I6116715
I6405055
tp101
a(I6116715
I6628430
tp102
a(I5414452
I5610635
tp103
a(I5414452
I5699091
tp104
a(I5414452
I5788388
tp105
a(I5414452
I5860363
tp106
a(I5414452
I5997121
tp107
a(I5414452
I6000773
tp108
a(I5414452
I6116715
tp109
a(I5414452
I6130695
tp110
a(I5414452
I6227643
tp111
a(I5414452
I6502917
tp112
a(I5699091
I5926666
tp113
a(I5699091
I6039430
tp114
a(I5699091
I6155664
tp115
a(I5699091
I6302527
tp116
a(I5699091
I6312106
tp117
a(I5699091
I6502917
tp118
a(I6039430
I6302527
tp119
a(I6039430
I6312106
tp120
a(I6039430
I6386772
tp121
a(I6039430
I6502917
tp122
a(I6130695
I6502917
tp123
a(I5359357
I5552816
tp124
a(I5619237
I6149256
tp125
a(I5619237
I6155678
tp126
a(I5619237
I6481829
tp127
a(I6149256
I6652090
tp128
a(I6248590
I6592822
tp129
a(I7118351
I7297151
tp130
a(I7118351
I7316700
tp131
a(I7118351
I7344507
tp132
a(I7118351
I7374544
tp133
a(I7118351
I7410468
tp134
a(I7118351
I7481776
tp135
a(I7118351
I7491178
tp136
a(I7118351
I7524293
tp137
a(I7118351
I7547287
tp138
a(I7118351
I7563232
tp139
a(I7118351
I7582063
tp140
a(I7118351
I7604592
tp141
a(I7118351
I7648468
tp142
a(I5835817
I6065824
tp143
a(I5835817
I6502917
tp144
a(I5835817
I6631967
tp145
a(I5835817
I6798997
tp146
a(I5949459
I6502917
tp147
a(I6019461
I6196670
tp148
a(I6019461
I6502917
tp149
a(I6065824
I6502917
tp150
a(I6065824
I6631967
tp151
a(I6065824
I6798997
tp152
a(I6074042
I6502917
tp153
a(I6196670
I6502917
tp154
a(I6022102
I6460984
tp155
a(I6079821
I6491362
tp156
a(I6079821
I6505921
tp157
a(I6079821
I6554410
tp158
a(I6079821
I6575566
tp159
a(I6079821
I6588888
tp160
a(I6079821
I6851796
tp161
a(I6405055
I6628430
tp162
a(I6405055
I6742887
tp163
a(I6628430
I6742887
tp164
a(I6302527
I6798997
tp165
a(I6227643
I6416152
tp166
a(I6227643
I6502917
tp167
a(I5610635
I5699091
tp168
a(I5610635
I5788388
tp169
a(I5610635
I5812156
tp170
a(I5610635
I5835817
tp171
a(I5610635
I5860363
tp172
a(I5610635
I6000773
tp173
a(I5610635
I6019449
tp174
a(I5610635
I6065824
tp175
a(I5610635
I6074042
tp176
a(I5610635
I6155664
tp177
a(I5610635
I6196670
tp178
a(I5610635
I6227643
tp179
a(I5610635
I6367903
tp180
a(I5610635
I6502917
tp181
a(I5610635
I6543879
tp182
a(I5610635
I6631967
tp183
a(I6000773
I6227643
tp184
a(I6000773
I6798997
tp185
a(I6312106
I6798997
tp186
a(I5552816
I5860363
tp187
a(I5552816
I5949459
tp188
a(I5552816
I6155678
tp189
a(I6155678
I6481829
tp190
a(I6554410
I6851796
tp191
a(I6575566
I6851796
tp192
a(dp193
I6502917
(lp194
Vink
p195
aVcartridg
p196
aVjet
p197
aVboard
p198
aVprint
p199
aVsuppli
p200
aVcarriag
p201
aVvicin
p202
aVneedl
p203
aVreciproc
p204
asI6543879
(lp205
Vink
p206
aVnozzl
p207
aVslot
p208
aVdrop
p209
aVfeed
p210
aVcolumn
p211
aVinkjet
p212
aVprinthead
p213
aVpack
p214
aVside
p215
asI5861897
(lp216
Vrecord
p217
aVhead
p218
aVmemori
p219
aVink
p220
aVjoin
p221
aVunit
p222
aVcut
p223
aVtank
p224
aVplate
p225
aVout
p226
asI5821962
(lp227
Veject
p228
aVbubbl
p229
aVliquid
p230
aVoutlet
p231
aVgenerat
p232
aVregion
p233
aVmovabl
p234
aVportion
p235
aVinflect
p236
aVoppos
p237
asI5860363
(lp238
Vink
p239
aVreservoir
p240
aVcartridg
p241
aVchassi
p242
aVconnector
p243
aVreplac
p244
aVelectr
p245
aVprinter
p246
aVjet
p247
aVannunci
p248
asI7118351
(lp249
Vmicropump
p250
aVpuls
p251
aVheat
p252
aVrate
p253
aVelement
p254
aVflow
p255
aVday
p256
aVexact
p257
aVoper
p258
aVcontrol
p259
asI6172688
(lp260
Vink
p261
aVlabel
p262
aVprinter
p263
aVprint
p264
aVjet
p265
aVconvey
p266
aVhead
p267
aVroll
p268
aVrecoveri
p269
aVsection
p270
asI5949459
(lp271
Vink
p272
aVengag
p273
aVprint
p274
aVfeatur
p275
aVcontain
p276
aVfluid
p277
aVtrail
p278
aVdevic
p279
aVedg
p280
aVinsert
p281
asI5509140
(lp282
Vazatetracycl
p283
aV5ht
p284
aVtetracycl
p285
aVantagonist
p286
aVmoieti
p287
aVstr2
p288
aVcartridg
p289
aVaromat
p290
aVink
p291
aVwherein
p292
asI5208604
(lp293
Vink
p294
aVdischarg
p295
aVopen
p296
aVjet
p297
aVpath
p298
aVplate
p299
aVexcim
p300
aVhead
p301
aVmanufactur
p302
aVattach
p303
asI6631967
(lp304
Vink
p305
aVcartridg
p306
aVprinter
p307
aVstorag
p308
aVelement
p309
aVinform
p310
aVpiec
p311
aVeeprom
p312
aVadopt
p313
aVpow
p314
asI5619237
(lp315
Vink
p316
aVcartridg
p317
aVwall
p318
aVcontain
p319
aVtank
p320
aVside
p321
aVtap
p322
aVbottom
p323
aVholder
p324
aVsuppli
p325
asI5835817
(lp326
Vconnector
p327
aVcartridg
p328
aVcopier
p329
aVreplac
p330
aVusag
p331
aVcalibr
p332
aVprinter
p333
aVmemori
p334
aVink
p335
aVapparatus
p336
asI6130695
(lp337
Vink
p338
aVprint
p339
aVdeliveri
p340
aVsystem
p341
aVreservoir
p342
aVadapt
p343
aVinform
p344
aVstorag
p345
aVlieu
p346
aVconnector
p347
asI5841452
(lp348
Vbubblejet
p349
aVheater
p350
aVfabric
p351
aVpassageway
p352
aVgiven
p353
aVmean
p354
aVprint
p355
aVsemiconductor
p356
aVsubstrat
p357
aVeject
p358
asI5506611
(lp359
Vink
p360
aVcartridg
p361
aVwast
p362
aVprinter
p363
aVcontain
p364
aVlabel
p365
aVneedl
p366
aVhead
p367
aVreceptacl
p368
aVreservoir
p369
asI5414452
(lp370
Vink
p371
aVexpiri
p372
aVreservoir
p373
aVprint
p374
aVteleprint
p375
aVhead
p376
aVforese
p377
aVjet
p378
aVdrop
p379
aVnecessari
p380
asI6460984
(lp381
Vliquid
p382
aVcapillari
p383
aVsuppli
p384
aVcontain
p385
aVgenerat
p386
aVforc
p387
aVcommunic
p388
aVunit
p389
aVmateri
p390
aVcartridg
p391
asI5997121
(lp392
Vink
p393
aVcartridg
p394
aVphotosensor
p395
aVlight
p396
aVfacet
p397
aVprism
p398
aVroof
p399
aVsens
p400
aVmirror
p401
aVprinthead
p402
asI6062667
(lp403
Vink
p404
aVflag
p405
aVcarriag
p406
aVmount
p407
aVrecord
p408
aVcartridg
p409
aVjet
p410
aVprotrud
p411
aVphotosensor
p412
aVmember
p413
asI6628430
(lp414
Vprint
p415
aVphone
p416
aVmedia
p417
aVprinthead
p418
aVprinter
p419
aVdispens
p420
aVmobil
p421
aVoutlet
p422
aVfeed
p423
aVprocess
p424
asI6386772
(lp425
Vprinter
p426
aVprint
p427
aVtransceiv
p428
aVsubstrat
p429
aVphysic
p430
aVconfigur
p431
aVlink
p432
aVcircuit
p433
aVnon
p434
aVsuppli
p435
asI6062681
(lp436
Vconstrict
p437
aVbubbl
p438
aVliquid
p439
aVupstream
p440
aVheat
p441
aVdeliveri
p442
aVlocal
p443
aVchannel
p444
aVoutlet
p445
aVarrang
p446
asI6652090
(lp447
Vpaper
p448
aVmountabl
p449
aVrecess
p450
aVprinthead
p451
aVhous
p452
aVeject
p453
aVprinter
p454
aVink
p455
aVadapt
p456
aVvcr
p457
asI7491178
(lp458
Vpenetr
p459
aVsampl
p460
aVtissu
p461
aVchamber
p462
aVmember
p463
aVhous
p464
aVfluid
p465
aVoccupi
p466
aVanalyt
p467
aVassoci
p468
asI5699091
(lp469
Vconnector
p470
aVcartridg
p471
aVcopier
p472
aVreplac
p473
aVusag
p474
aVcalibr
p475
aVprinter
p476
aVmemori
p477
aVink
p478
aVapparatus
p479
asI7297151
(lp480
Vcartridg
p481
aVanalyt
p482
aVfluid
p483
aVpenetr
p484
aVmember
p485
aVchamber
p486
aVcaviti
p487
aVdetect
p488
aVplural
p489
aVdevic
p490
asI6000773
(lp491
Vink
p492
aVcartridg
p493
aVmemori
p494
aVprinter
p495
aVjet
p496
aVstorag
p497
aVadvis
p498
aVinform
p499
aVelement
p500
aVexpel
p501
asI6149256
(lp502
Vink
p503
aVprinter
p504
aVjet
p505
aVcartridg
p506
aVinsert
p507
aVhous
p508
aVadapt
p509
aVreservoir
p510
aVcamera
p511
aVreceiv
p512
asI5610635
(lp513
Vink
p514
aVcartridg
p515
aVmemori
p516
aVstorag
p517
aVelement
p518
aVprinter
p519
aVdriver
p520
aVstore
p521
aVenerg
p522
aVamount
p523
asI6248590
(lp524
Vcytomet
p525
aVstream
p526
aVdroplet
p527
aVsort
p528
aVcytometri
p529
aVcan
p530
aVflow
p531
aVimag
p532
aVallow
p533
aVcharg
p534
asI6798997
(lp535
Vreplac
p536
aVelectron
p537
aVorder
p538
aVidentif
p539
aVautomat
p540
aVcondit
p541
aVpurchas
p542
aVsuppli
p543
aVoffer
p544
aVcompon
p545
asI6183067
(lp546
Vfire
p547
aVactuat
p548
aVinkjet
p549
aVprinthead
p550
aVintegr
p551
aVsubstrat
p552
aVmanifold
p553
aVchamber
p554
aVink
p555
aVfabric
p556
asI6367903
(lp557
Vprimit
p558
aVprint
p559
aVprinter
p560
aVdot
p561
aValign
p562
aVcartridg
p563
aVerror
p564
aVtechniqu
p565
aVcorrect
p566
aVtime
p567
asI6065824
(lp568
Vink
p569
aVprinter
p570
aVtermin
p571
aVreplac
p572
aVjet
p573
aVdata
p574
aVrefer
p575
aVcartridg
p576
aVsingl
p577
aVmemori
p578
asI5367324
(lp579
Vink
p580
aVnozzl
p581
aVcolor
p582
aVgroup
p583
aVrow
p584
aVheat
p585
aVsubstrat
p586
aVleast
p587
aVelement
p588
aVjet
p589
asI6312106
(lp590
Vmark
p591
aVradio
p592
aVengin
p593
aVdock
p594
aVlink
p595
aVfrequenc
p596
aVhous
p597
aVmachin
p598
aVundock
p599
aVassoci
p600
asI5155502
(lp601
Vink
p602
aVjet
p603
aVhead
p604
aVabsorb
p605
aVbodi
p606
aVcartridg
p607
aVstorag
p608
aVmember
p609
aVportion
p610
aVassur
p611
asI5552816
(lp612
Vink
p613
aVtank
p614
aVjet
p615
aVresidu
p616
aVquantiti
p617
aVrecord
p618
aVtip
p619
aVpressur
p620
aVinsid
p621
aVhead
p622
asI6977722
(lp623
Vluminesc
p624
aVassay
p625
aVinduc
p626
aVreader
p627
aVmodul
p628
aVmeasur
p629
aVtest
p630
aVelectrod
p631
aVwell
p632
aVconduct
p633
asI6227643
(lp634
Vprinter
p635
aVintellig
p636
aVenvironment
p637
aVsensor
p638
aVjet
p639
aVink
p640
aVprint
p641
aVhumid
p642
aVmemori
p643
aVcompon
p644
asI5478606
(lp645
Vink
p646
aVresin
p647
aVpath
p648
aVeject
p649
aVflow
p650
aVcoat
p651
aVpattern
p652
aVdissolubl
p653
aVdissolv
p654
aVjet
p655
asI7374544
(lp656
Vtissu
p657
aVpenetr
p658
aVsite
p659
aVmember
p660
aVfluid
p661
aVanalyt
p662
aVforc
p663
aVsampl
p664
aVgenerat
p665
aVout
p666
asI7648468
(lp667
Vpenetr
p668
aVtissu
p669
aVsite
p670
aVmember
p671
aVcartridg
p672
aVforc
p673
aVgenerat
p674
aVhous
p675
aVsteril
p676
aVout
p677
asI4965594
(lp678
Vliquid
p679
aVelectro
p680
aVthermal
p681
aVheat
p682
aVlamin
p683
aVresist
p684
aVdischar
p685
aVlayer
p686
aVdischarg
p687
aVconvert
p688
asI7316700
(lp689
Vlancet
p690
aVlanc
p691
aVcutan
p692
aVtempor
p693
aVconjunct
p694
aVretract
p695
aVfeedback
p696
aVadvanc
p697
aVvariat
p698
aVtissu
p699
asI6491362
(lp700
Vdroplet
p701
aVink
p702
aVprint
p703
aVdrop
p704
aVstream
p705
aVplacement
p706
aVapparatus
p707
aVimag
p708
aVgas
p709
aVdeflector
p710
asI5788388
(lp711
Vink
p712
aVcartridg
p713
aVconnector
p714
aVmatabl
p715
aVelectr
p716
aVprinter
p717
aVhous
p718
aVsuppli
p719
aVreceptacl
p720
aVjet
p721
asI6851796
(lp722
Vdroplet
p723
aVink
p724
aVdeflector
p725
aVcatcher
p726
aVpath
p727
aVtravel
p728
aVvolum
p729
aVstream
p730
aVbegin
p731
aValong
p732
asI5359357
(lp733
Vhead
p734
aV55c
p735
aVunloosen
p736
aVcartridg
p737
aVcarriag
p738
aVdepress
p739
aVjet
p740
aVink
p741
aVmember
p742
aVrecord
p743
asI4994825
(lp744
Vhead
p745
aVink
p746
aVdischarg
p747
aVbond
p748
aVmain
p749
aVrecord
p750
aVjet
p751
aVplate
p752
aVbodi
p753
aVopen
p754
asI5926666
(lp755
Velectrophotograph
p756
aVphotosensit
p757
aVdrum
p758
aVcartridg
p759
aVmain
p760
aVcontact
p761
aVactabl
p762
aVassembl
p763
aVmemori
p764
aVprocess
p765
asI6416152
(lp766
Vink
p767
aVcartridg
p768
aVcontain
p769
aVbodi
p770
aVprint
p771
aVlid
p772
aVjet
p773
aVcap
p774
aVcompos
p775
aVport
p776
asI5479197
(lp777
Vlayer
p778
aVconduct
p779
aVthermal
p780
aVelectro
p781
aVinsul
p782
aVtransduc
p783
aVink
p784
aVrecord
p785
aVhead
p786
aVportion
p787
asI7410468
(lp788
Vpenetr
p789
aVanalyt
p790
aVsampl
p791
aVmember
p792
aVchamber
p793
aVfluid
p794
aVhous
p795
aVbodi
p796
aVconfigur
p797
aVdetect
p798
asI6554410
(lp799
Vdroplet
p800
aVink
p801
aVstream
p802
aVvolum
p803
aVheater
p804
aVgas
p805
aVsourc
p806
aVplural
p807
aVnozzl
p808
aVposit
p809
asI6592822
(lp810
Vdiagnost
p811
aVanalyt
p812
aVcomput
p813
aVanalyz
p814
aVcommunicat
p815
aVbiolog
p816
aVinstruct
p817
aVrun
p818
aVflow
p819
aVsampl
p820
asI6302527
(lp821
Vprint
p822
aVreplac
p823
aVcompon
p824
aVsensor
p825
aVbroadcast
p826
aVmateri
p827
aVsignal
p828
aVlink
p829
aVindic
p830
aVinkjet
p831
asI6074042
(lp832
Vink
p833
aVprint
p834
aVcontain
p835
aVelectr
p836
aVcontact
p837
aVcomplementari
p838
aVneedl
p839
aVguid
p840
aVreplac
p841
aVhollow
p842
asI6079821
(lp843
Vink
p844
aVbore
p845
aVnozzl
p846
aVstream
p847
aVheater
p848
aVdeliveri
p849
aVasymmetr
p850
aVperimet
p851
aVcontinu
p852
aVprinter
p853
asI6174050
(lp854
Veject
p855
aVheat
p856
aVgenerat
p857
aVbubbl
p858
aVsurfac
p859
aVmovabl
p860
aVoutlet
p861
aVupstream
p862
aVmember
p863
aVliquid
p864
asI6742887
(lp865
Vprint
p866
aVink
p867
aVportabl
p868
aVmechan
p869
aVincorpor
p870
aVtherein
p871
aVsimpli
p872
aVcommunic
p873
aVwast
p874
aVtank
p875
asI6116715
(lp876
sI6247790
(lp877
Vnozzl
p878
aVink
p879
aVeject
p880
aVactuat
p881
aVrim
p882
aVradial
p883
aVchamber
p884
aVport
p885
aVthermoelast
p886
aVjet
p887
asI7582063
(lp888
Vprick
p889
aVtest
p890
aVblood
p891
aVelement
p892
aVwithdraw
p893
aVskin
p894
aVmultipl
p895
aVlanc
p896
aVapparatus
p897
aVdevic
p898
asI7604592
(lp899
Vtest
p900
aVcartridg
p901
aVcare
p902
aVnonsequenti
p903
aVreport
p904
aVpoc
p905
aVinterrog
p906
aVsingl
p907
aVpoint
p908
aVthough
p909
asI6019449
(lp910
sI7344507
(lp911
Vlancet
p912
aVdriver
p913
aVlanc
p914
aVforc
p915
aVexert
p916
aVdrive
p917
aVcycl
p918
aVdure
p919
aVmagnitud
p920
aVsite
p921
asI5477246
(lp922
Vrecord
p923
aVink
p924
aVeject
p925
aVprint
p926
aVquantiti
p927
aVmode
p928
aVhead
p929
aVpass
p930
aVjet
p931
aVtotal
p932
asI6019457
(lp933
Vpassageway
p934
aVink
p935
aVprint
p936
aVeject
p937
aVjet
p938
aVdimens
p939
aVoutlet
p940
aVcross
p941
aVchang
p942
aVwhere
p943
asI6019461
(lp944
sI6039430
(lp945
sI6151049
(lp946
Vliquid
p947
aVbubbl
p948
aVdischarg
p949
aVpath
p950
aVflow
p951
aVfirst
p952
aVgenerat
p953
aVregion
p954
aVsuppli
p955
aVcommunic
p956
asI6155664
(lp957
Vink
p958
aVcartridg
p959
aVprinthead
p960
aVremot
p961
aVstore
p962
aVcompat
p963
aVmemori
p964
aVreservoir
p965
aVcharacterist
p966
aVinkjet
p967
asI6007187
(lp968
Veject
p969
aVliquid
p970
aVbubbl
p971
aVoutlet
p972
aVmovabl
p973
aVfree
p974
aVmember
p975
aVgenerat
p976
aVend
p977
aVgrow
p978
asI7547287
(lp979
Vpenetr
p980
aVmember
p981
aVtissu
p982
aVhous
p983
aVsensor
p984
aVcoupl
p985
aVskin
p986
aVdepth
p987
aVplural
p988
aVstabil
p989
asI6155678
(lp990
Vcartridg
p991
aVink
p992
aVpen
p993
aVbodi
p994
aVjet
p995
aVguidabl
p996
aVreplac
p997
aVrecess
p998
aVproject
p999
aVprinthead
p1000
asI6481829
(lp1001
Vprinthead
p1002
aVlatch
p1003
aVactuat
p1004
aVcartridg
p1005
aVmanual
p1006
aVcarrier
p1007
aVspring
p1008
aVreleas
p1009
aVcover
p1010
aVsecur
p1011
asI5132711
(lp1012
Vrecord
p1013
aVunit
p1014
aVmemori
p1015
aVink
p1016
aVdata
p1017
aVdetect
p1018
aVstore
p1019
aVcontrol
p1020
aVoutput
p1021
aVindic
p1022
asI5138344
(lp1023
Vink
p1024
aVcartridg
p1025
aVjet
p1026
aVrecord
p1027
aVdetach
p1028
aVcontain
p1029
aVinform
p1030
aVadaptor
p1031
aVmountabl
p1032
aVreceptor
p1033
asI7481776
(lp1034
Vpenetr
p1035
aVanalyt
p1036
aVmember
p1037
aVskin
p1038
aVsampl
p1039
aVchamber
p1040
aVhous
p1041
aVdetect
p1042
aVdispos
p1043
aVeach
p1044
asI4982199
(lp1045
Vink
p1046
aVfire
p1047
aVprewarm
p1048
aVpuls
p1049
aVtailor
p1050
aVgray
p1051
aVpen
p1052
aVwarm
p1053
aVdroplet
p1054
aVbubbl
p1055
asI4723129
(lp1056
Vliquid
p1057
aVorific
p1058
aVpassageway
p1059
aVdroplet
p1060
aVchamber
p1061
aVthermal
p1062
aVoutlet
p1063
aVportion
p1064
aVjet
p1065
aVheat
p1066
asI5812156
(lp1067
Vparamet
p1068
aVprinthead
p1069
aVmemori
p1070
aVcartridg
p1071
aVmedia
p1072
aVprint
p1073
aVmark
p1074
aVink
p1075
aVconsum
p1076
aVjet
p1077
asI6196670
(lp1078
Vink
p1079
aVcartridg
p1080
aVeeprom
p1081
aVprinter
p1082
aVrewrit
p1083
aVstorag
p1084
aVwrite
p1085
aVfrequenc
p1086
aVprint
p1087
aVquantiti
p1088
asI6405055
(lp1089
Vprint
p1090
aVmedia
p1091
aVprinthead
p1092
aVmobil
p1093
aVphone
p1094
aVsignal
p1095
aVintern
p1096
aVhand
p1097
aVinform
p1098
aVheld
p1099
asI6505921
(lp1100
Vink
p1101
aVdrop
p1102
aVstream
p1103
aVbore
p1104
aVnozzl
p1105
aVdeliveri
p1106
aVdeflector
p1107
aVasymmetr
p1108
aVperimet
p1109
aVheater
p1110
asI7524293
(lp1111
Vpenetr
p1112
aVtissu
p1113
aVsite
p1114
aVmember
p1115
aVforc
p1116
aVgenerat
p1117
aVlaunch
p1118
aVout
p1119
aVwithdraw
p1120
aVmove
p1121
asI6575566
(lp1122
Vdroplet
p1123
aVink
p1124
aVinkjet
p1125
aVprinthead
p1126
aVstream
p1127
aVdeflector
p1128
aVvolum
p1129
aVgutter
p1130
aVsecond
p1131
aVselect
p1132
asI5262802
(lp1133
Veject
p1134
aVoutlet
p1135
aVvent
p1136
aVrecord
p1137
aVseal
p1138
aVair
p1139
aVink
p1140
aVunseal
p1141
aVmember
p1142
aVhead
p1143
asI6022102
(lp1144
sI6588888
(lp1145
Vdroplet
p1146
aVtravel
p1147
aVpath
p1148
aVvolum
p1149
aValong
p1150
aVdiverg
p1151
aVgutter
p1152
aVprint
p1153
aVstate
p1154
aVforc
p1155
asI5370842
(lp1156
Vsampl
p1157
aVaccumul
p1158
aVinject
p1159
aVmeasur
p1160
aVpassag
p1161
aVreagent
p1162
aVportion
p1163
aVhalfway
p1164
aVflow
p1165
aVfluid
p1166
asI7563232
(lp1167
Vpenetr
p1168
aVtissu
p1169
aVmember
p1170
aVsite
p1171
aVfluid
p1172
aVanalyt
p1173
aVforc
p1174
aVsampl
p1175
aVgenerat
p1176
aVout
p1177
astp1178
.