((lp0
I4340563
aI4436780
aI4627811
aI4652487
aI4655760
aI4657802
aI4668566
aI4720415
aI4789699
aI4863779
aI5073436
aI5145727
aI5149576
aI5169712
aI5178931
aI5188625
aI5188885
aI5208098
aI5213881
aI5336552
aI5374262
aI5382400
aI5405342
aI5486166
aI5490846
aI5503076
aI5509913
aI5533991
aI5536555
aI5540976
aI5649914
aI5695868
aI5759926
aI5804021
aI5820973
aI5883028
aI5902540
aI5916678
aI5932299
aI5997981
aI6015764
aI6362389
aI4618524
aI4741944
aI4798603
aI4863785
aI5037409
aI5192606
aI5364382
aI5429629
aI5509915
aI5672399
aI4781966
aI4857067
aI4965122
aI4981747
aI5114781
aI5116662
aI5143679
aI5156793
aI5167897
aI5226992
aI5336545
aI5385775
aI5472775
aI5514470
aI4847134
aI4891258
aI4938753
aI4938757
aI4940464
aI4990147
aI5037416
aI5151092
aI5171239
aI5269775
aI5527302
aI5611790
aI6645190
aI6383431
aI5200248
aI5277976
aI4861652
aI4883549
aI4939016
aI6096668
aI6225243
aI5032120
aI5938648
aI6677258
aI5334446
aI5393599
aI5298694
aI5562646
aI5599335
aI5669894
aI5908598
aI5843056
aI5990377
aI5698322
aI6135987
aI6036805
aI6432098
aI6436234
aI5935883
aI6379383
aI6537310
aI6544249
aI6695865
aI6733513
aI6746773
aI6849085
aI6955656
aI7008979
aI7108701
aI7195641
aI7792562
aI5871763
aI5147343
aI5147345
aI5149335
aI5217445
aI5304161
aI5342338
aI5360420
aI5387207
aI5387209
aI5439458
aI5496298
aI5531728
aI5562650
aI5601542
aI5624428
aI5911222
aI5941864
aI6107537
aI6149934
aI5294482
aI5620785
aI5300054
aI5399219
aI5540796
aI5595618
aI5846232
aI6179890
aI6673136
aI6743273
aI5681302
aI5236430
aI5242436
aI5246433
aI5318555
aI5354400
aI5368584
aI5591152
aI5669897
aI6004306
aI5645542
aI5580411
aI5904675
aI6297424
aI6120487
aI5554145
aI5957908
aI5531732
aI5897545
aI6120489
aI5370634
aI5458590
aI5569234
aI5711832
aI5766389
aI5818719
aI5171236
aI5306266
aI5397318
aI5514121
aI5554142
aI5637175
aI5358500
aI5624427
aI6039302
aI5865823
aI6167948
aI6290685
aI6375871
aI6420622
aI5108827
aI5284703
aI5389202
aI6156842
aI6200669
aI7665646
aI7744627
aI7823592
aI7845533
aI7845536
aI7938307
aI8011555
aI8028883
aI8256654
aI6759431
aI6610173
aI7066258
aI7093664
aI7186265
aI7544206
aI6865810
aI6638239
aI6666841
aI6736791
aI7135009
aI7613491
aI7506791
aI7588175
aI7588176
aI7604151
aI7607557
aI7669746
aI7669747
aI7673781
aI7673782
aI7731072
aI7735703
aI7794475
aI7934630
aI5460622
aI5770086
aI6261679
aI6271278
aI5268224
aI5397316
aI5520674
aI5650222
aI5840403
aI6685681
aI6752794
aI6800074
aI6855135
aI6936037
aI6951553
aI6979324
aI7018366
aI7022113
aI7195624
aI7276051
aI5624420
aI5595567
aI6165406
aI6701922
aI6939451
aI6315864
aI6664335
aI6758863
aI7793812
aI7798386
aI7810692
aI7810693
aI7819296
aI7819297
aI7819298
aI7819299
aI7832408
aI7832612
aI7837080
aI7845537
aI7857185
aI7857186
aI7861906
aI7866527
aI7900805
aI7905380
aI7905381
aI7913891
aI7922061
aI7942890
aI7954684
aI7954686
aI7959051
aI7980443
aI8157145
aI7597229
aI7604150
aI7658311
aI7673780
aI7721931
aI7721934
aI7721936
aI7738971
aI7753245
aI7753904
aI7799039
aI7918377
a(lp1
(lp2
I4340563
aa(lp3
I4436780
aI4627811
aI4652487
aI4655760
aI4657802
aI4668566
aI4720415
aI4789699
aI4863779
aI5073436
aI5145727
aI5149576
aI5169712
aI5178931
aI5188625
aI5188885
aI5208098
aI5213881
aI5336552
aI5374262
aI5382400
aI5405342
aI5486166
aI5490846
aI5503076
aI5509913
aI5533991
aI5536555
aI5540976
aI5649914
aI5695868
aI5759926
aI5804021
aI5820973
aI5883028
aI5902540
aI5916678
aI5932299
aI5997981
aI6015764
aI6362389
aa(lp4
I4618524
aI4741944
aI4798603
aI4863785
aI5037409
aI5192606
aI5364382
aI5429629
aI5509915
aI5672399
aI4781966
aI4857067
aI4965122
aI4981747
aI5114781
aI5116662
aI5143679
aI5156793
aI5167897
aI5226992
aI5336545
aI5385775
aI5472775
aI5514470
aI4847134
aI4891258
aI4938753
aI4938757
aI4940464
aI4990147
aI5037416
aI5151092
aI5171239
aI5269775
aI5527302
aI5611790
aI6645190
aI6383431
aI5200248
aI5277976
aI4861652
aI4883549
aI4939016
aI6096668
aI6225243
aI5032120
aI5938648
aI6677258
aI5334446
aI5393599
aI5298694
aI5562646
aI5599335
aI5669894
aI5908598
aI5843056
aI5990377
aI5698322
aI6135987
aI6036805
aI6432098
aI6436234
aI5935883
aI6379383
aI6537310
aI6544249
aI6695865
aI6733513
aI6746773
aI6849085
aI6955656
aI7008979
aI7108701
aI7195641
aI7792562
aa(lp5
I5871763
aI5147343
aI5147345
aI5149335
aI5217445
aI5304161
aI5342338
aI5360420
aI5387207
aI5387209
aI5439458
aI5496298
aI5531728
aI5562650
aI5601542
aI5624428
aI5911222
aI5941864
aI6107537
aI6149934
aI5294482
aI5620785
aI5300054
aI5399219
aI5540796
aI5595618
aI5846232
aI6179890
aI6673136
aI6743273
aI5681302
aI5236430
aI5242436
aI5246433
aI5318555
aI5354400
aI5368584
aI5591152
aI5669897
aI6004306
aI5645542
aI5580411
aI5904675
aI6297424
aI6120487
aI5554145
aI5957908
aI5531732
aI5897545
aI6120489
aI5370634
aI5458590
aI5569234
aI5711832
aI5766389
aI5818719
aI5171236
aI5306266
aI5397318
aI5514121
aI5554142
aI5637175
aI5358500
aI5624427
aI6039302
aI5865823
aI6167948
aI6290685
aI6375871
aI6420622
aI5108827
aI5284703
aI5389202
aI6156842
aI6200669
aI7665646
aI7744627
aI7823592
aI7845533
aI7845536
aI7938307
aI8011555
aI8028883
aI8256654
aI6759431
aI6610173
aI7066258
aI7093664
aI7186265
aI7544206
aI6865810
aI6638239
aI6666841
aI6736791
aI7135009
aI7613491
aI7506791
aI7588175
aI7588176
aI7604151
aI7607557
aI7669746
aI7669747
aI7673781
aI7673782
aI7731072
aI7735703
aI7794475
aI7934630
aa(lp6
I5460622
aI5770086
aI6261679
aI6271278
aI5268224
aI5397316
aI5520674
aI5650222
aI5840403
aI6685681
aI6752794
aI6800074
aI6855135
aI6936037
aI6951553
aI6979324
aI7018366
aI7022113
aI7195624
aI7276051
aI5624420
aI5595567
aI6165406
aI6701922
aI6939451
aI6315864
aI6664335
aI6758863
aI7793812
aI7798386
aI7810692
aI7810693
aI7819296
aI7819297
aI7819298
aI7819299
aI7832408
aI7832612
aI7837080
aI7845537
aI7857185
aI7857186
aI7861906
aI7866527
aI7900805
aI7905380
aI7905381
aI7913891
aI7922061
aI7942890
aI7954684
aI7954686
aI7959051
aI7980443
aI8157145
aI7597229
aI7604150
aI7658311
aI7673780
aI7721931
aI7721934
aI7721936
aI7738971
aI7753245
aI7753904
aI7799039
aI7918377
aa(lp7
(I4340563
I4436780
tp8
a(I4340563
I4627811
tp9
a(I4340563
I4652487
tp10
a(I4340563
I4655760
tp11
a(I4340563
I4657802
tp12
a(I4340563
I4668566
tp13
a(I4340563
I4720415
tp14
a(I4340563
I4789699
tp15
a(I4340563
I4863779
tp16
a(I4340563
I5073436
tp17
a(I4340563
I5145727
tp18
a(I4340563
I5149576
tp19
a(I4340563
I5169712
tp20
a(I4340563
I5178931
tp21
a(I4340563
I5188625
tp22
a(I4340563
I5188885
tp23
a(I4340563
I5208098
tp24
a(I4340563
I5213881
tp25
a(I4340563
I5336552
tp26
a(I4340563
I5374262
tp27
a(I4340563
I5382400
tp28
a(I4340563
I5405342
tp29
a(I4340563
I5486166
tp30
a(I4340563
I5490846
tp31
a(I4340563
I5503076
tp32
a(I4340563
I5509913
tp33
a(I4340563
I5533991
tp34
a(I4340563
I5536555
tp35
a(I4340563
I5540976
tp36
a(I4340563
I5649914
tp37
a(I4340563
I5695868
tp38
a(I4340563
I5759926
tp39
a(I4340563
I5804021
tp40
a(I4340563
I5820973
tp41
a(I4340563
I5883028
tp42
a(I4340563
I5902540
tp43
a(I4340563
I5916678
tp44
a(I4340563
I5932299
tp45
a(I4340563
I5997981
tp46
a(I4340563
I6015764
tp47
a(I4340563
I6362389
tp48
a(I4436780
I4618524
tp49
a(I4436780
I4668566
tp50
a(I4436780
I4741944
tp51
a(I4436780
I4798603
tp52
a(I4436780
I4863785
tp53
a(I4436780
I5037409
tp54
a(I4436780
I5073436
tp55
a(I4436780
I5145727
tp56
a(I4436780
I5149576
tp57
a(I4436780
I5178931
tp58
a(I4436780
I5192606
tp59
a(I4436780
I5364382
tp60
a(I4436780
I5429629
tp61
a(I4436780
I5509915
tp62
a(I4436780
I5672399
tp63
a(I4436780
I6015764
tp64
a(I4627811
I5145727
tp65
a(I4627811
I5149576
tp66
a(I4627811
I5178931
tp67
a(I4627811
I5932299
tp68
a(I4652487
I4781966
tp69
a(I4652487
I4857067
tp70
a(I4652487
I4965122
tp71
a(I4652487
I4981747
tp72
a(I4652487
I5114781
tp73
a(I4652487
I5116662
tp74
a(I4652487
I5143679
tp75
a(I4652487
I5156793
tp76
a(I4652487
I5167897
tp77
a(I4652487
I5226992
tp78
a(I4652487
I5336545
tp79
a(I4652487
I5385775
tp80
a(I4652487
I5472775
tp81
a(I4652487
I5514470
tp82
a(I4652487
I5536555
tp83
a(I4652487
I5695868
tp84
a(I4652487
I6015764
tp85
a(I4655760
I4847134
tp86
a(I4655760
I4891258
tp87
a(I4655760
I4938753
tp88
a(I4655760
I4938757
tp89
a(I4655760
I4940464
tp90
a(I4655760
I4990147
tp91
a(I4655760
I5037416
tp92
a(I4655760
I5151092
tp93
a(I4655760
I5171239
tp94
a(I4655760
I5269775
tp95
a(I4655760
I5472775
tp96
a(I4655760
I5527302
tp97
a(I4655760
I5611790
tp98
a(I4655760
I6645190
tp99
a(I4657802
I4741944
tp100
a(I4657802
I4781966
tp101
a(I4657802
I4857067
tp102
a(I4657802
I4965122
tp103
a(I4657802
I4981747
tp104
a(I4657802
I5114781
tp105
a(I4657802
I5116662
tp106
a(I4657802
I5143679
tp107
a(I4657802
I5156793
tp108
a(I4657802
I5167897
tp109
a(I4657802
I5226992
tp110
a(I4657802
I5336545
tp111
a(I4657802
I5385775
tp112
a(I4657802
I5405342
tp113
a(I4657802
I5472775
tp114
a(I4657802
I5514470
tp115
a(I4657802
I5536555
tp116
a(I4657802
I5540976
tp117
a(I4657802
I5611790
tp118
a(I4657802
I5695868
tp119
a(I4657802
I5883028
tp120
a(I4657802
I6383431
tp121
a(I4657802
I6645190
tp122
a(I4668566
I4981747
tp123
a(I4668566
I5114781
tp124
a(I4668566
I5116662
tp125
a(I4668566
I5145727
tp126
a(I4668566
I5149576
tp127
a(I4668566
I5178931
tp128
a(I4668566
I5200248
tp129
a(I4668566
I5226992
tp130
a(I4668566
I5277976
tp131
a(I4668566
I5336545
tp132
a(I4668566
I5514470
tp133
a(I4668566
I5536555
tp134
a(I4668566
I6015764
tp135
a(I4720415
I4781966
tp136
a(I4720415
I4847134
tp137
a(I4720415
I4861652
tp138
a(I4720415
I4863779
tp139
a(I4720415
I4883549
tp140
a(I4720415
I4891258
tp141
a(I4720415
I4939016
tp142
a(I4720415
I4965122
tp143
a(I4720415
I4981747
tp144
a(I4720415
I5114781
tp145
a(I4720415
I5116662
tp146
a(I4720415
I5143679
tp147
a(I4720415
I5156793
tp148
a(I4720415
I5167897
tp149
a(I4720415
I5226992
tp150
a(I4720415
I5336545
tp151
a(I4720415
I5385775
tp152
a(I4720415
I5472775
tp153
a(I4720415
I5514470
tp154
a(I4720415
I5536555
tp155
a(I4720415
I5540976
tp156
a(I4720415
I5695868
tp157
a(I4720415
I5804021
tp158
a(I4720415
I5883028
tp159
a(I4720415
I6015764
tp160
a(I4720415
I6096668
tp161
a(I4720415
I6225243
tp162
a(I4720415
I6645190
tp163
a(I4789699
I5032120
tp164
a(I4789699
I5037416
tp165
a(I4789699
I5114781
tp166
a(I4789699
I5116662
tp167
a(I4789699
I5226992
tp168
a(I4789699
I5336545
tp169
a(I4789699
I5336552
tp170
a(I4789699
I5382400
tp171
a(I4789699
I5514470
tp172
a(I4789699
I5938648
tp173
a(I4789699
I6096668
tp174
a(I4789699
I6383431
tp175
a(I4789699
I6645190
tp176
a(I4789699
I6677258
tp177
a(I4863779
I5334446
tp178
a(I4863779
I5385775
tp179
a(I4863779
I5393599
tp180
a(I4863779
I5472775
tp181
a(I4863779
I6015764
tp182
a(I5073436
I5208098
tp183
a(I5073436
I5298694
tp184
a(I5145727
I5562646
tp185
a(I5145727
I5599335
tp186
a(I5145727
I5669894
tp187
a(I5145727
I5908598
tp188
a(I5149576
I5178931
tp189
a(I5169712
I5695868
tp190
a(I5169712
I5843056
tp191
a(I5169712
I6015764
tp192
a(I5178931
I5514470
tp193
a(I5188625
I5536555
tp194
a(I5188625
I5990377
tp195
a(I5188885
I5540976
tp196
a(I5188885
I5804021
tp197
a(I5188885
I6015764
tp198
a(I5188885
I6096668
tp199
a(I5208098
I5514470
tp200
a(I5208098
I5536555
tp201
a(I5208098
I5695868
tp202
a(I5208098
I5843056
tp203
a(I5208098
I6015764
tp204
a(I5336552
I5540976
tp205
a(I5336552
I5698322
tp206
a(I5336552
I5820973
tp207
a(I5336552
I5916678
tp208
a(I5336552
I6135987
tp209
a(I5336552
I6225243
tp210
a(I5336552
I6362389
tp211
a(I5374262
I6036805
tp212
a(I5374262
I6432098
tp213
a(I5382400
I5540976
tp214
a(I5382400
I5698322
tp215
a(I5382400
I5759926
tp216
a(I5382400
I5820973
tp217
a(I5382400
I5916678
tp218
a(I5382400
I6015764
tp219
a(I5382400
I6096668
tp220
a(I5382400
I6225243
tp221
a(I5382400
I6362389
tp222
a(I5486166
I5820973
tp223
a(I5486166
I6436234
tp224
a(I5490846
I5820973
tp225
a(I5490846
I6436234
tp226
a(I5536555
I5804021
tp227
a(I5536555
I5990377
tp228
a(I5536555
I6015764
tp229
a(I5540976
I6015764
tp230
a(I5540976
I6096668
tp231
a(I5695868
I5997981
tp232
a(I5695868
I6383431
tp233
a(I5759926
I5935883
tp234
a(I5759926
I6362389
tp235
a(I5883028
I6383431
tp236
a(I5916678
I6225243
tp237
a(I5932299
I6379383
tp238
a(I5932299
I6537310
tp239
a(I5932299
I6544249
tp240
a(I5932299
I6695865
tp241
a(I5932299
I6733513
tp242
a(I5932299
I6746773
tp243
a(I5932299
I6849085
tp244
a(I5932299
I6955656
tp245
a(I5932299
I7008979
tp246
a(I5932299
I7108701
tp247
a(I5932299
I7195641
tp248
a(I5932299
I7792562
tp249
a(I5997981
I6645190
tp250
a(I4618524
I5145727
tp251
a(I4618524
I5149576
tp252
a(I4618524
I5178931
tp253
a(I4741944
I5073436
tp254
a(I4741944
I5143679
tp255
a(I4741944
I5156793
tp256
a(I4741944
I5167897
tp257
a(I4741944
I5871763
tp258
a(I4798603
I5037409
tp259
a(I4798603
I5147343
tp260
a(I4798603
I5147345
tp261
a(I4798603
I5149335
tp262
a(I4798603
I5217445
tp263
a(I4798603
I5304161
tp264
a(I4798603
I5342338
tp265
a(I4798603
I5360420
tp266
a(I4798603
I5364382
tp267
a(I4798603
I5374262
tp268
a(I4798603
I5387207
tp269
a(I4798603
I5387209
tp270
a(I4798603
I5405342
tp271
a(I4798603
I5429629
tp272
a(I4798603
I5439458
tp273
a(I4798603
I5486166
tp274
a(I4798603
I5490846
tp275
a(I4798603
I5496298
tp276
a(I4798603
I5509913
tp277
a(I4798603
I5509915
tp278
a(I4798603
I5531728
tp279
a(I4798603
I5533991
tp280
a(I4798603
I5562650
tp281
a(I4798603
I5601542
tp282
a(I4798603
I5624428
tp283
a(I4798603
I5698322
tp284
a(I4798603
I5820973
tp285
a(I4798603
I5843056
tp286
a(I4798603
I5911222
tp287
a(I4798603
I5941864
tp288
a(I4798603
I6036805
tp289
a(I4798603
I6096668
tp290
a(I4798603
I6107537
tp291
a(I4798603
I6135987
tp292
a(I4798603
I6149934
tp293
a(I4863785
I5073436
tp294
a(I4863785
I5208098
tp295
a(I4863785
I5294482
tp296
a(I4863785
I5620785
tp297
a(I4863785
I6645190
tp298
a(I5037409
I5304161
tp299
a(I5037409
I5342338
tp300
a(I5037409
I5439458
tp301
a(I5037409
I5509915
tp302
a(I5037409
I5562650
tp303
a(I5037409
I5599335
tp304
a(I5037409
I5669894
tp305
a(I5037409
I5820973
tp306
a(I5037409
I5941864
tp307
a(I5192606
I5300054
tp308
a(I5192606
I5304161
tp309
a(I5192606
I5342338
tp310
a(I5192606
I5399219
tp311
a(I5192606
I5439458
tp312
a(I5192606
I5486166
tp313
a(I5192606
I5490846
tp314
a(I5192606
I5509913
tp315
a(I5192606
I5540796
tp316
a(I5192606
I5562650
tp317
a(I5192606
I5595618
tp318
a(I5192606
I5601542
tp319
a(I5192606
I5624428
tp320
a(I5192606
I5649914
tp321
a(I5192606
I5820973
tp322
a(I5192606
I5843056
tp323
a(I5192606
I5941864
tp324
a(I5192606
I6036805
tp325
a(I5192606
I6149934
tp326
a(I5192606
I6436234
tp327
a(I5364382
I5531728
tp328
a(I5364382
I5601542
tp329
a(I5364382
I5820973
tp330
a(I5364382
I6436234
tp331
a(I5429629
I5531728
tp332
a(I5429629
I5820973
tp333
a(I5429629
I5846232
tp334
a(I5429629
I6096668
tp335
a(I5509915
I5820973
tp336
a(I5509915
I5843056
tp337
a(I5509915
I6036805
tp338
a(I5509915
I6149934
tp339
a(I5509915
I6436234
tp340
a(I5672399
I6179890
tp341
a(I5672399
I6673136
tp342
a(I5672399
I6743273
tp343
a(I4781966
I4883549
tp344
a(I4781966
I4965122
tp345
a(I4781966
I5374262
tp346
a(I4781966
I5385775
tp347
a(I4781966
I5472775
tp348
a(I4781966
I5514470
tp349
a(I4781966
I5536555
tp350
a(I4781966
I5540976
tp351
a(I4781966
I5681302
tp352
a(I4857067
I5143679
tp353
a(I4857067
I5151092
tp354
a(I4857067
I5156793
tp355
a(I4857067
I5167897
tp356
a(I4857067
I5236430
tp357
a(I4857067
I5242436
tp358
a(I4857067
I5246433
tp359
a(I4857067
I5318555
tp360
a(I4857067
I5354400
tp361
a(I4857067
I5368584
tp362
a(I4857067
I5399219
tp363
a(I4857067
I5527302
tp364
a(I4857067
I5591152
tp365
a(I4857067
I5595618
tp366
a(I4857067
I5611790
tp367
a(I4857067
I5669897
tp368
a(I4857067
I5846232
tp369
a(I4857067
I5938648
tp370
a(I4857067
I6004306
tp371
a(I4857067
I6036805
tp372
a(I4857067
I6677258
tp373
a(I4965122
I5472775
tp374
a(I4965122
I5540976
tp375
a(I4965122
I5611790
tp376
a(I4965122
I5883028
tp377
a(I4965122
I6096668
tp378
a(I4965122
I6383431
tp379
a(I4981747
I5114781
tp380
a(I4981747
I5116662
tp381
a(I4981747
I5143679
tp382
a(I4981747
I5156793
tp383
a(I4981747
I5167897
tp384
a(I4981747
I5226992
tp385
a(I4981747
I5336545
tp386
a(I4981747
I5385775
tp387
a(I4981747
I5472775
tp388
a(I4981747
I5514470
tp389
a(I4981747
I5536555
tp390
a(I4981747
I5540976
tp391
a(I4981747
I5695868
tp392
a(I4981747
I5804021
tp393
a(I4981747
I5883028
tp394
a(I4981747
I6015764
tp395
a(I4981747
I6383431
tp396
a(I5114781
I5536555
tp397
a(I5114781
I5611790
tp398
a(I5114781
I5645542
tp399
a(I5114781
I5804021
tp400
a(I5114781
I5883028
tp401
a(I5114781
I6096668
tp402
a(I5114781
I6383431
tp403
a(I5114781
I6645190
tp404
a(I5116662
I5472775
tp405
a(I5116662
I5540976
tp406
a(I5116662
I5611790
tp407
a(I5116662
I5695868
tp408
a(I5116662
I5883028
tp409
a(I5116662
I6383431
tp410
a(I5116662
I6645190
tp411
a(I5143679
I5368584
tp412
a(I5143679
I5536555
tp413
a(I5143679
I5611790
tp414
a(I5143679
I5669897
tp415
a(I5143679
I5695868
tp416
a(I5143679
I5846232
tp417
a(I5143679
I6004306
tp418
a(I5143679
I6015764
tp419
a(I5143679
I6383431
tp420
a(I5156793
I5580411
tp421
a(I5156793
I5611790
tp422
a(I5156793
I5846232
tp423
a(I5156793
I6383431
tp424
a(I5167897
I5580411
tp425
a(I5167897
I5669897
tp426
a(I5167897
I5846232
tp427
a(I5167897
I6004306
tp428
a(I5167897
I6383431
tp429
a(I5226992
I5399219
tp430
a(I5226992
I5496298
tp431
a(I5226992
I5514470
tp432
a(I5226992
I5540796
tp433
a(I5226992
I5595618
tp434
a(I5226992
I5624428
tp435
a(I5226992
I5804021
tp436
a(I5226992
I5846232
tp437
a(I5226992
I5883028
tp438
a(I5226992
I5904675
tp439
a(I5226992
I6036805
tp440
a(I5226992
I6297424
tp441
a(I5226992
I6383431
tp442
a(I5226992
I6645190
tp443
a(I5336545
I5514470
tp444
a(I5336545
I5883028
tp445
a(I5336545
I6015764
tp446
a(I5336545
I6383431
tp447
a(I5385775
I6096668
tp448
a(I5385775
I6645190
tp449
a(I5472775
I6015764
tp450
a(I5472775
I6096668
tp451
a(I5472775
I6120487
tp452
a(I5514470
I5938648
tp453
a(I5514470
I6383431
tp454
a(I5514470
I6677258
tp455
a(I4847134
I5151092
tp456
a(I4847134
I5242436
tp457
a(I4847134
I5318555
tp458
a(I4847134
I5334446
tp459
a(I4847134
I5374262
tp460
a(I4847134
I5393599
tp461
a(I4847134
I5536555
tp462
a(I4847134
I5554145
tp463
a(I4847134
I5591152
tp464
a(I4847134
I5611790
tp465
a(I4847134
I5957908
tp466
a(I4847134
I6015764
tp467
a(I4847134
I6096668
tp468
a(I4847134
I6645190
tp469
a(I4891258
I5536555
tp470
a(I4891258
I5611790
tp471
a(I4891258
I5681302
tp472
a(I4891258
I6096668
tp473
a(I4938753
I5151092
tp474
a(I4938753
I5236430
tp475
a(I4938753
I5242436
tp476
a(I4938753
I5246433
tp477
a(I4938753
I5318555
tp478
a(I4938753
I5368584
tp479
a(I4938753
I5387209
tp480
a(I4938753
I5399219
tp481
a(I4938753
I5472775
tp482
a(I4938753
I5527302
tp483
a(I4938753
I5531732
tp484
a(I4938753
I5580411
tp485
a(I4938753
I5595618
tp486
a(I4938753
I5649914
tp487
a(I4938753
I5669897
tp488
a(I4938753
I5897545
tp489
a(I4938753
I5938648
tp490
a(I4938753
I6004306
tp491
a(I4938753
I6036805
tp492
a(I4938753
I6120489
tp493
a(I4938753
I6677258
tp494
a(I4938757
I5032120
tp495
a(I4938757
I5151092
tp496
a(I4938757
I5236430
tp497
a(I4938757
I5242436
tp498
a(I4938757
I5246433
tp499
a(I4938757
I5318555
tp500
a(I4938757
I5368584
tp501
a(I4938757
I5472775
tp502
a(I4938757
I5509913
tp503
a(I4938757
I5527302
tp504
a(I4938757
I5531732
tp505
a(I4938757
I5669897
tp506
a(I4938757
I5897545
tp507
a(I4938757
I6004306
tp508
a(I4938757
I6120487
tp509
a(I4938757
I6120489
tp510
a(I4938757
I6645190
tp511
a(I4938757
I6677258
tp512
a(I4940464
I5037416
tp513
a(I4940464
I5151092
tp514
a(I4940464
I5236430
tp515
a(I4940464
I5242436
tp516
a(I4940464
I5246433
tp517
a(I4940464
I5318555
tp518
a(I4940464
I5368584
tp519
a(I4940464
I5370634
tp520
a(I4940464
I5458590
tp521
a(I4940464
I5472775
tp522
a(I4940464
I5509913
tp523
a(I4940464
I5527302
tp524
a(I4940464
I5531732
tp525
a(I4940464
I5569234
tp526
a(I4940464
I5580411
tp527
a(I4940464
I5591152
tp528
a(I4940464
I5649914
tp529
a(I4940464
I5669897
tp530
a(I4940464
I5711832
tp531
a(I4940464
I5766389
tp532
a(I4940464
I5818719
tp533
a(I4940464
I5897545
tp534
a(I4940464
I6004306
tp535
a(I4940464
I6297424
tp536
a(I4940464
I6436234
tp537
a(I4940464
I6645190
tp538
a(I4990147
I5171236
tp539
a(I4990147
I5269775
tp540
a(I4990147
I5304161
tp541
a(I4990147
I5306266
tp542
a(I4990147
I5342338
tp543
a(I4990147
I5397318
tp544
a(I4990147
I5439458
tp545
a(I4990147
I5514121
tp546
a(I4990147
I5527302
tp547
a(I4990147
I5554142
tp548
a(I4990147
I5941864
tp549
a(I5037416
I5171236
tp550
a(I5037416
I5269775
tp551
a(I5037416
I5306266
tp552
a(I5037416
I5342338
tp553
a(I5037416
I5397318
tp554
a(I5037416
I5472775
tp555
a(I5037416
I5514121
tp556
a(I5037416
I5527302
tp557
a(I5037416
I5611790
tp558
a(I5037416
I5637175
tp559
a(I5037416
I5846232
tp560
a(I5037416
I5941864
tp561
a(I5151092
I5358500
tp562
a(I5151092
I5368584
tp563
a(I5151092
I5397318
tp564
a(I5151092
I5554145
tp565
a(I5151092
I5591152
tp566
a(I5151092
I5624427
tp567
a(I5151092
I5669897
tp568
a(I5151092
I5846232
tp569
a(I5151092
I5938648
tp570
a(I5151092
I6004306
tp571
a(I5151092
I6383431
tp572
a(I5151092
I6645190
tp573
a(I5151092
I6677258
tp574
a(I5171239
I5368584
tp575
a(I5171239
I5611790
tp576
a(I5171239
I5843056
tp577
a(I5171239
I6039302
tp578
a(I5269775
I5514121
tp579
a(I5269775
I5611790
tp580
a(I5269775
I5941864
tp581
a(I5527302
I5865823
tp582
a(I5527302
I5897545
tp583
a(I5527302
I5957908
tp584
a(I5527302
I6036805
tp585
a(I5527302
I6645190
tp586
a(I5611790
I5846232
tp587
a(I5200248
I5277976
tp588
a(I5200248
I5820973
tp589
a(I5200248
I6167948
tp590
a(I5200248
I6290685
tp591
a(I5200248
I6375871
tp592
a(I5200248
I6420622
tp593
a(I5277976
I5698322
tp594
a(I5277976
I5820973
tp595
a(I5277976
I5916678
tp596
a(I4861652
I5108827
tp597
a(I4861652
I5151092
tp598
a(I4861652
I5242436
tp599
a(I4861652
I5318555
tp600
a(I4861652
I5368584
tp601
a(I4861652
I5405342
tp602
a(I4861652
I5472775
tp603
a(I4861652
I5527302
tp604
a(I4861652
I5540796
tp605
a(I4861652
I5904675
tp606
a(I4861652
I6004306
tp607
a(I4861652
I6120487
tp608
a(I4883549
I5472775
tp609
a(I4883549
I5695868
tp610
a(I4883549
I5766389
tp611
a(I4883549
I5804021
tp612
a(I4883549
I5818719
tp613
a(I4939016
I5073436
tp614
a(I4939016
I5284703
tp615
a(I4939016
I5385775
tp616
a(I4939016
I5389202
tp617
a(I4939016
I5393599
tp618
a(I4939016
I5514470
tp619
a(I4939016
I5540976
tp620
a(I4939016
I5804021
tp621
a(I4939016
I6156842
tp622
a(I4939016
I6200669
tp623
a(I5032120
I5611790
tp624
a(I5032120
I5904675
tp625
a(I6677258
I7665646
tp626
a(I6677258
I7744627
tp627
a(I6677258
I7823592
tp628
a(I6677258
I7845533
tp629
a(I6677258
I7845536
tp630
a(I6677258
I7938307
tp631
a(I6677258
I8011555
tp632
a(I6677258
I8028883
tp633
a(I6677258
I8256654
tp634
a(I5334446
I5591152
tp635
a(I5334446
I6015764
tp636
a(I5393599
I5804021
tp637
a(I5393599
I5883028
tp638
a(I5393599
I6015764
tp639
a(I5393599
I6677258
tp640
a(I5562646
I5820973
tp641
a(I5599335
I5820973
tp642
a(I5599335
I6759431
tp643
a(I5908598
I6673136
tp644
a(I5908598
I6743273
tp645
a(I5843056
I6149934
tp646
a(I5843056
I6383431
tp647
a(I5990377
I6149934
tp648
a(I5990377
I6610173
tp649
a(I5698322
I7066258
tp650
a(I5698322
I7093664
tp651
a(I6135987
I7066258
tp652
a(I6135987
I7093664
tp653
a(I6379383
I7186265
tp654
a(I6379383
I7544206
tp655
a(I6537310
I6865810
tp656
a(I6544249
I6638239
tp657
a(I6544249
I6666841
tp658
a(I6544249
I6736791
tp659
a(I6544249
I6955656
tp660
a(I6544249
I7135009
tp661
a(I7008979
I7613491
tp662
a(I7008979
I7792562
tp663
a(I7108701
I7506791
tp664
a(I7108701
I7588175
tp665
a(I7108701
I7588176
tp666
a(I7108701
I7604151
tp667
a(I7108701
I7607557
tp668
a(I7108701
I7669746
tp669
a(I7108701
I7669747
tp670
a(I7108701
I7673781
tp671
a(I7108701
I7673782
tp672
a(I7108701
I7731072
tp673
a(I7108701
I7735703
tp674
a(I7108701
I7794475
tp675
a(I7108701
I7934630
tp676
a(I5147343
I5304161
tp677
a(I5147343
I5342338
tp678
a(I5147343
I5439458
tp679
a(I5147343
I5460622
tp680
a(I5147343
I5540796
tp681
a(I5147343
I5562650
tp682
a(I5147343
I5599335
tp683
a(I5147343
I5601542
tp684
a(I5147343
I5649914
tp685
a(I5147343
I5669894
tp686
a(I5147343
I5770086
tp687
a(I5147343
I5904675
tp688
a(I5147343
I5941864
tp689
a(I5147343
I6261679
tp690
a(I5147343
I6271278
tp691
a(I5147343
I6436234
tp692
a(I5147345
I5268224
tp693
a(I5147345
I5300054
tp694
a(I5147345
I5304161
tp695
a(I5147345
I5387207
tp696
a(I5147345
I5397316
tp697
a(I5147345
I5429629
tp698
a(I5147345
I5439458
tp699
a(I5147345
I5460622
tp700
a(I5147345
I5520674
tp701
a(I5147345
I5562650
tp702
a(I5147345
I5649914
tp703
a(I5147345
I5650222
tp704
a(I5147345
I5820973
tp705
a(I5147345
I5938648
tp706
a(I5147345
I6261679
tp707
a(I5147345
I6677258
tp708
a(I5149335
I5300054
tp709
a(I5149335
I5304161
tp710
a(I5149335
I5439458
tp711
a(I5149335
I5460622
tp712
a(I5149335
I5496298
tp713
a(I5149335
I5562646
tp714
a(I5149335
I5599335
tp715
a(I5149335
I5601542
tp716
a(I5149335
I5645542
tp717
a(I5149335
I5669894
tp718
a(I5149335
I5840403
tp719
a(I5149335
I5941864
tp720
a(I5149335
I6271278
tp721
a(I5217445
I5429629
tp722
a(I5217445
I5439458
tp723
a(I5217445
I5460622
tp724
a(I5217445
I5531728
tp725
a(I5217445
I5820973
tp726
a(I5217445
I6436234
tp727
a(I5304161
I5439458
tp728
a(I5304161
I5531728
tp729
a(I5304161
I5820973
tp730
a(I5304161
I5865823
tp731
a(I5304161
I6096668
tp732
a(I5342338
I5941864
tp733
a(I5360420
I5531728
tp734
a(I5360420
I5820973
tp735
a(I5360420
I6436234
tp736
a(I5387207
I5650222
tp737
a(I5387209
I5941864
tp738
a(I5439458
I5820973
tp739
a(I5439458
I5941864
tp740
a(I5496298
I5897545
tp741
a(I5496298
I5957908
tp742
a(I5496298
I6645190
tp743
a(I5531728
I5820973
tp744
a(I5562650
I5820973
tp745
a(I5562650
I5904675
tp746
a(I5562650
I6036805
tp747
a(I5601542
I6096668
tp748
a(I5624428
I6036805
tp749
a(I5911222
I6685681
tp750
a(I5911222
I6752794
tp751
a(I5911222
I6800074
tp752
a(I5911222
I6855135
tp753
a(I5911222
I6936037
tp754
a(I5911222
I6951553
tp755
a(I5911222
I6979324
tp756
a(I5911222
I7018366
tp757
a(I5911222
I7022113
tp758
a(I5911222
I7195624
tp759
a(I5911222
I7276051
tp760
a(I5294482
I5540976
tp761
a(I5620785
I5935883
tp762
a(I5300054
I5439458
tp763
a(I5300054
I5460622
tp764
a(I5300054
I5531728
tp765
a(I5300054
I5820973
tp766
a(I5399219
I5540796
tp767
a(I5399219
I5580411
tp768
a(I5399219
I5595618
tp769
a(I5399219
I5904675
tp770
a(I5399219
I6036805
tp771
a(I5399219
I6645190
tp772
a(I5540796
I6036805
tp773
a(I5681302
I6120487
tp774
a(I5681302
I6645190
tp775
a(I5236430
I5370634
tp776
a(I5236430
I5569234
tp777
a(I5236430
I5624420
tp778
a(I5236430
I6120489
tp779
a(I5242436
I5531732
tp780
a(I5242436
I5554145
tp781
a(I5242436
I5624427
tp782
a(I5242436
I5669897
tp783
a(I5242436
I6004306
tp784
a(I5242436
I6036805
tp785
a(I5242436
I6645190
tp786
a(I5246433
I5370634
tp787
a(I5246433
I5531732
tp788
a(I5246433
I5569234
tp789
a(I5246433
I5669897
tp790
a(I5246433
I5897545
tp791
a(I5246433
I6004306
tp792
a(I5246433
I6120487
tp793
a(I5246433
I6120489
tp794
a(I5318555
I5595567
tp795
a(I5318555
I6645190
tp796
a(I5354400
I5580411
tp797
a(I5368584
I5624428
tp798
a(I5368584
I5669897
tp799
a(I5368584
I5904675
tp800
a(I5368584
I6004306
tp801
a(I5368584
I6036805
tp802
a(I5591152
I5766389
tp803
a(I5591152
I5818719
tp804
a(I5591152
I6036805
tp805
a(I5669897
I6004306
tp806
a(I5669897
I6036805
tp807
a(I5669897
I6645190
tp808
a(I5645542
I6362389
tp809
a(I5580411
I6015764
tp810
a(I5554145
I6004306
tp811
a(I5957908
I6645190
tp812
a(I5531732
I6036805
tp813
a(I5531732
I6645190
tp814
a(I5897545
I6036805
tp815
a(I5897545
I6645190
tp816
a(I5370634
I5531732
tp817
a(I5370634
I5554145
tp818
a(I5370634
I5591152
tp819
a(I5370634
I5595618
tp820
a(I5370634
I5624428
tp821
a(I5370634
I5669897
tp822
a(I5370634
I5897545
tp823
a(I5370634
I6004306
tp824
a(I5370634
I6036805
tp825
a(I5370634
I6645190
tp826
a(I5458590
I6297424
tp827
a(I5569234
I6036805
tp828
a(I5569234
I6120489
tp829
a(I5569234
I6383431
tp830
a(I5711832
I6036805
tp831
a(I5766389
I6297424
tp832
a(I5766389
I6645190
tp833
a(I5171236
I5342338
tp834
a(I5171236
I5514121
tp835
a(I5171236
I5520674
tp836
a(I5171236
I5846232
tp837
a(I5171236
I5941864
tp838
a(I5306266
I5514121
tp839
a(I5306266
I5941864
tp840
a(I5397318
I5904675
tp841
a(I5637175
I6165406
tp842
a(I5358500
I5540796
tp843
a(I5358500
I5554145
tp844
a(I5358500
I5569234
tp845
a(I5358500
I5595618
tp846
a(I5358500
I5669897
tp847
a(I5358500
I5938648
tp848
a(I5358500
I6004306
tp849
a(I5358500
I6036805
tp850
a(I5358500
I6677258
tp851
a(I5624427
I6645190
tp852
a(I5865823
I5938648
tp853
a(I5865823
I6383431
tp854
a(I5865823
I6677258
tp855
a(I6290685
I6685681
tp856
a(I6290685
I6701922
tp857
a(I6290685
I6752794
tp858
a(I6290685
I6800074
tp859
a(I6290685
I6855135
tp860
a(I6290685
I6979324
tp861
a(I6290685
I7022113
tp862
a(I6290685
I7195624
tp863
a(I6290685
I7276051
tp864
a(I6375871
I6939451
tp865
a(I6420622
I6979324
tp866
a(I5108827
I5336552
tp867
a(I5108827
I5382400
tp868
a(I5108827
I5540976
tp869
a(I5108827
I5759926
tp870
a(I5108827
I5820973
tp871
a(I5284703
I5804021
tp872
a(I5284703
I6200669
tp873
a(I5389202
I5990377
tp874
a(I5389202
I6315864
tp875
a(I5389202
I6610173
tp876
a(I6156842
I6664335
tp877
a(I6156842
I6758863
tp878
a(I7665646
I7793812
tp879
a(I7665646
I7798386
tp880
a(I7665646
I7810692
tp881
a(I7665646
I7810693
tp882
a(I7665646
I7819296
tp883
a(I7665646
I7819297
tp884
a(I7665646
I7819298
tp885
a(I7665646
I7819299
tp886
a(I7665646
I7832408
tp887
a(I7665646
I7832612
tp888
a(I7665646
I7837080
tp889
a(I7665646
I7845537
tp890
a(I7665646
I7857185
tp891
a(I7665646
I7857186
tp892
a(I7665646
I7861906
tp893
a(I7665646
I7866527
tp894
a(I7665646
I7900805
tp895
a(I7665646
I7905380
tp896
a(I7665646
I7905381
tp897
a(I7665646
I7913891
tp898
a(I7665646
I7922061
tp899
a(I7665646
I7938307
tp900
a(I7665646
I7942890
tp901
a(I7665646
I7954684
tp902
a(I7665646
I7954686
tp903
a(I7665646
I7959051
tp904
a(I7665646
I7980443
tp905
a(I7665646
I8011555
tp906
a(I7665646
I8028883
tp907
a(I7665646
I8157145
tp908
a(I7665646
I8256654
tp909
a(I7744627
I8011555
tp910
a(I7744627
I8028883
tp911
a(I7744627
I8256654
tp912
a(I7823592
I8011555
tp913
a(I7823592
I8028883
tp914
a(I7823592
I8256654
tp915
a(I7845533
I8011555
tp916
a(I7845533
I8028883
tp917
a(I7845533
I8157145
tp918
a(I7845533
I8256654
tp919
a(I7845536
I8011555
tp920
a(I7845536
I8028883
tp921
a(I7845536
I8256654
tp922
a(I7938307
I8256654
tp923
a(I6736791
I7135009
tp924
a(I7506791
I7597229
tp925
a(I7506791
I7604150
tp926
a(I7506791
I7658311
tp927
a(I7506791
I7673780
tp928
a(I7506791
I7721931
tp929
a(I7506791
I7721934
tp930
a(I7506791
I7721936
tp931
a(I7506791
I7731072
tp932
a(I7506791
I7738971
tp933
a(I7506791
I7753245
tp934
a(I7506791
I7753904
tp935
a(I7506791
I7794475
tp936
a(I7506791
I7799039
tp937
a(I7506791
I7810693
tp938
a(I7506791
I7819299
tp939
a(I7506791
I7832408
tp940
a(I7506791
I7845537
tp941
a(I7506791
I7900805
tp942
a(I7506791
I7905380
tp943
a(I7506791
I7918377
tp944
a(I7506791
I7954684
tp945
a(I7506791
I8157145
tp946
a(I7588175
I7819296
tp947
a(I7588175
I7819297
tp948
a(I7588175
I7819298
tp949
a(I7588175
I7832612
tp950
a(I7588175
I7837080
tp951
a(I7588175
I7857186
tp952
a(I7588175
I7861906
tp953
a(I7588175
I7866527
tp954
a(I7588175
I7905380
tp955
a(I7588175
I7905381
tp956
a(I7588175
I7922061
tp957
a(I7588175
I7934630
tp958
a(I7588175
I7954686
tp959
a(I7588175
I7959051
tp960
a(I7588175
I7980443
tp961
a(I7588175
I8157145
tp962
a(I7588176
I7819296
tp963
a(I7588176
I7819297
tp964
a(I7588176
I7819298
tp965
a(I7588176
I7832612
tp966
a(I7588176
I7837080
tp967
a(I7588176
I7857186
tp968
a(I7588176
I7861906
tp969
a(I7588176
I7866527
tp970
a(I7588176
I7905380
tp971
a(I7588176
I7905381
tp972
a(I7588176
I7922061
tp973
a(I7588176
I7934630
tp974
a(I7588176
I7954686
tp975
a(I7588176
I7959051
tp976
a(I7588176
I7980443
tp977
a(I7588176
I8157145
tp978
a(I7604151
I7819296
tp979
a(I7604151
I7819297
tp980
a(I7604151
I7819298
tp981
a(I7604151
I7832612
tp982
a(I7604151
I7837080
tp983
a(I7604151
I7857186
tp984
a(I7604151
I7861906
tp985
a(I7604151
I7866527
tp986
a(I7604151
I7905380
tp987
a(I7604151
I7905381
tp988
a(I7604151
I7922061
tp989
a(I7604151
I7934630
tp990
a(I7604151
I7954686
tp991
a(I7604151
I7959051
tp992
a(I7604151
I7980443
tp993
a(I7604151
I8011555
tp994
a(I7604151
I8028883
tp995
a(I7604151
I8157145
tp996
a(I7604151
I8256654
tp997
a(I7607557
I8157145
tp998
a(I7669746
I8157145
tp999
a(I7669747
I7819296
tp1000
a(I7669747
I7819297
tp1001
a(I7669747
I7819298
tp1002
a(I7669747
I7832612
tp1003
a(I7669747
I7837080
tp1004
a(I7669747
I7857186
tp1005
a(I7669747
I7861906
tp1006
a(I7669747
I7866527
tp1007
a(I7669747
I7905380
tp1008
a(I7669747
I7905381
tp1009
a(I7669747
I7954686
tp1010
a(I7669747
I7980443
tp1011
a(I7669747
I8157145
tp1012
a(I7669747
I8256654
tp1013
a(I7673781
I8157145
tp1014
a(I7673782
I7819296
tp1015
a(I7673782
I7819297
tp1016
a(I7673782
I7819298
tp1017
a(I7673782
I7832612
tp1018
a(I7673782
I7837080
tp1019
a(I7673782
I7857186
tp1020
a(I7673782
I7861906
tp1021
a(I7673782
I7866527
tp1022
a(I7673782
I7905380
tp1023
a(I7673782
I7905381
tp1024
a(I7673782
I7954686
tp1025
a(I7673782
I7980443
tp1026
a(I7673782
I8157145
tp1027
a(I7731072
I7832612
tp1028
a(I7731072
I7857186
tp1029
a(I7731072
I7861906
tp1030
a(I7731072
I7866527
tp1031
a(I7731072
I7905380
tp1032
a(I7731072
I7905381
tp1033
a(I7731072
I7954686
tp1034
a(I7731072
I7980443
tp1035
a(I7731072
I8157145
tp1036
a(I7735703
I7832612
tp1037
a(I7735703
I7857186
tp1038
a(I7735703
I7861906
tp1039
a(I7735703
I7866527
tp1040
a(I7735703
I7905380
tp1041
a(I7735703
I7905381
tp1042
a(I7735703
I7954686
tp1043
a(I7735703
I7980443
tp1044
a(I7735703
I8157145
tp1045
a(I7794475
I7905380
tp1046
a(I7794475
I8157145
tp1047
a(I7934630
I8157145
tp1048
a(dp1049
I4938753
(lp1050
Vstretchabl
p1051
aVseam
p1052
aVliner
p1053
aVabsorb
p1054
aVportion
p1055
aVconstruct
p1056
aVcomposit
p1057
aVlayer
p1058
aVmember
p1059
aVcover
p1060
asI7735703
(lp1061
Vstapl
p1062
aVanvil
p1063
aVcartridg
p1064
aVsurgic
p1065
aVshaft
p1066
aVembodi
p1067
aVactuat
p1068
aVloadabl
p1069
aVstapler
p1070
aVelong
p1071
asI4938757
(lp1072
Vstretchabl
p1073
aVabsorb
p1074
aVgarment
p1075
aVpant
p1076
aVsnug
p1077
aVwearer
p1078
aVpanel
p1079
aVagainst
p1080
aVleg
p1081
aVpervious
p1082
asI5916678
(lp1083
Vfiber
p1084
aVmulticompon
p1085
aVnonwoven
p1086
aVcare
p1087
aVdegrad
p1088
aVcompon
p1089
aVwipe
p1090
aVhealth
p1091
aVthemselv
p1092
aVfibrous
p1093
asI5472775
(lp1094
sI5669897
(lp1095
Vwearer
p1096
aVabsorb
p1097
aVarticl
p1098
aVfit
p1099
aVsustain
p1100
aVelast
p1101
aVdynam
p1102
aVdiaper
p1103
aVdesign
p1104
aVfeatur
p1105
asI7959051
(lp1106
Vanvil
p1107
aVstapl
p1108
aVsurgic
p1109
aVinstrument
p1110
aVload
p1111
aVdispos
p1112
aVsoft
p1113
aVunit
p1114
aVcam
p1115
aVdistal
p1116
asI7900805
(lp1117
Vinstrument
p1118
aVsurgic
p1119
aVpackag
p1120
aVsourc
p1121
aVpower
p1122
aVauxiliari
p1123
aVcompon
p1124
aVlaparoscop
p1125
aVassembl
p1126
aVwithin
p1127
asI5188625
(lp1128
Vweb
p1129
aVnapkin
p1130
aVsanitari
p1131
aVnonwoven
p1132
aVcover
p1133
aVabsorb
p1134
aVapertur
p1135
aVarea
p1136
aVthermoplast
p1137
aVunbroken
p1138
asI5840403
(lp1139
Vpaper
p1140
aVchemic
p1141
aVelev
p1142
aVtissu
p1143
aVcellulos
p1144
aVcomposit
p1145
aVsubstrat
p1146
aVtopographi
p1147
aVstructur
p1148
aVfacial
p1149
asI5399219
(lp1150
Vweb
p1151
aVsubstrat
p1152
aV140
p1153
aVstiffen
p1154
aVlongitudin
p1155
aV144
p1156
aVfasten
p1157
aV142
p1158
aVmajor
p1159
aVregion
p1160
asI5904675
(lp1161
Vbacksheet
p1162
aVwaistband
p1163
aVmargin
p1164
aVarticl
p1165
aVleg
p1166
aVappoint
p1167
aVtopsheet
p1168
aVcontour
p1169
aVconcav
p1170
aVgusset
p1171
asI6752794
(lp1172
Vwound
p1173
aVvacuum
p1174
aVmember
p1175
aVbandag
p1176
aVcontact
p1177
aVport
p1178
aVsurfac
p1179
aVhole
p1180
aVcleans
p1181
aVdress
p1182
asI6261679
(lp1183
Vfibrous
p1184
aVabsorb
p1185
aVfoam
p1186
aVcell
p1187
aVvoid
p1188
aVwet
p1189
aVstructur
p1190
aVstabl
p1191
aVdensiti
p1192
aVvolum
p1193
asI5073436
(lp1194
Vnonwoven
p1195
aVmicrofibr
p1196
aVlayer
p1197
aVweb
p1198
aVapparel
p1199
aVbond
p1200
aVmulti
p1201
aVfabric
p1202
aVrepel
p1203
aVwater
p1204
asI7753245
(lp1205
Veffector
p1206
aVfire
p1207
aVpawl
p1208
aVinstrument
p1209
aVreel
p1210
aVtrigger
p1211
aVshaft
p1212
aVmember
p1213
aVsurgic
p1214
aVend
p1215
asI4847134
(lp1216
Vstretchabl
p1217
aVlayer
p1218
aVbodysid
p1219
aVundergar
p1220
aVabsorb
p1221
aVabout
p1222
aVrear
p1223
aVbond
p1224
aVrugos
p1225
aVend
p1226
asI7819296
(lp1227
Vretract
p1228
aVstapl
p1229
aVfulli
p1230
aVsurgic
p1231
aVhandl
p1232
aVfire
p1233
aVshaft
p1234
aVactuat
p1235
aVhous
p1236
aVposit
p1237
asI7022113
(lp1238
Vwound
p1239
aVbandag
p1240
aVvacuum
p1241
aVnegat
p1242
aVchang
p1243
aVpressur
p1244
aVcontrol
p1245
aVrate
p1246
aVcaregiv
p1247
aVpatient
p1248
asI5208098
(lp1249
Vnonwoven
p1250
aVporous
p1251
aVweb
p1252
aVself
p1253
aVbond
p1254
aVfilm
p1255
aVimperm
p1256
aVfibrous
p1257
aVfilament
p1258
aVcomposit
p1259
asI5246433
(lp1260
Vchassi
p1261
aVgarment
p1262
aVelastic
p1263
aVear
p1264
aVunitari
p1265
aVflap
p1266
aVdispos
p1267
aVstretch
p1268
aVpant
p1269
aVseam
p1270
asI5171236
(lp1271
Vtopsheet
p1272
aVforeshorten
p1273
aVbacksheet
p1274
aVabsorb
p1275
aVarticl
p1276
aVvoid
p1277
aVfecal
p1278
aVdispos
p1279
aVdiaper
p1280
aVspace
p1281
asI5298694
(lp1282
Vweb
p1283
aVabout
p1284
aVacoust
p1285
aVnonwoven
p1286
aVfiber
p1287
aVarea
p1288
aVliter
p1289
aVlamin
p1290
aVinsul
p1291
aVmin
p1292
asI5171239
(lp1293
Vtopsheet
p1294
aVbacksheet
p1295
aVunderp
p1296
aVelast
p1297
aVdiaper
p1298
aVgarment
p1299
aVpermeabl
p1300
aVzone
p1301
aVcrotch
p1302
aVbrief
p1303
asI6120489
(lp1304
Vdistal
p1305
aVseam
p1306
aVportion
p1307
aVproxim
p1308
aVfirst
p1309
aVmelt
p1310
aVflangeless
p1311
aVpoint
p1312
aVprefer
p1313
aVarticl
p1314
asI6156842
(lp1315
Varticl
p1316
aVreshap
p1317
aVfabric
p1318
aVpertain
p1319
aVbehavior
p1320
aVshape
p1321
aVstructur
p1322
aVtheir
p1323
aVmemori
p1324
aVprepar
p1325
asI6759431
(lp1326
Vagent
p1327
aVanti
p1328
aVpassageway
p1329
aVtherapeut
p1330
aVdiseas
p1331
aVangiogen
p1332
aVbodi
p1333
aVprolif
p1334
aVtreat
p1335
aVantibiot
p1336
asI5820973
(lp1337
Vpermeabl
p1338
aVdarci
p1339
aVsurg
p1340
aVlayer
p1341
aVinsult
p1342
aVshould
p1343
aVcapillari
p1344
aV1000
p1345
aVcare
p1346
aVproduct
p1347
asI5385775
(lp1348
Vfibrous
p1349
aVelast
p1350
aVanisotrop
p1351
aVweb
p1352
aVelastomer
p1353
aVmeltblown
p1354
aVgather
p1355
aVabout
p1356
aVfilament
p1357
aVleast
p1358
asI5169712
(lp1359
Vethylen
p1360
aVporous
p1361
aVfabric
p1362
aVnonwoven
p1363
aVpolypropylen
p1364
aVpropylen
p1365
aVspherulit
p1366
aVfilm
p1367
aVcopolym
p1368
aVmeltblown
p1369
asI5620785
(lp1370
Vmeltblown
p1371
aVfiltrat
p1372
aVmicrofin
p1373
aVbarrier
p1374
aVmask
p1375
aVmicrofib
p1376
aVnonwoven
p1377
aVless
p1378
aVten
p1379
aVgram
p1380
asI6179890
(lp1381
Vmedia
p1382
aVpack
p1383
aVconstruct
p1384
aVcleaner
p1385
aVhous
p1386
aVfilter
p1387
aVair
p1388
aVseal
p1389
aVarrang
p1390
aVflow
p1391
asI5178931
(lp1392
Vnonwoven
p1393
aVweb
p1394
aVlaminifer
p1395
aVmicrofib
p1396
aVtopic
p1397
aVfilament
p1398
aVmicromet
p1399
aVlayer
p1400
aVadjac
p1401
aVthird
p1402
asI5637175
(lp1403
Vobject
p1404
aVlamin
p1405
aVphysicochem
p1406
aVdimension
p1407
aVsuccess
p1408
aVlamina
p1409
aVbuildup
p1410
aVthree
p1411
aVlaminar
p1412
aVwise
p1413
asI5601542
(lp1414
Vsuperabsorb
p1415
aVabsorb
p1416
aVabout
p1417
aVindex
p1418
aV100
p1419
aVgarment
p1420
aVmateri
p1421
aVcomposit
p1422
aVcontain
p1423
aVpercent
p1424
asI7857186
(lp1425
Vjaw
p1426
aVmember
p1427
aVsecond
p1428
aVfirst
p1429
aVsurgic
p1430
aVlatch
p1431
aVanoth
p1432
aVstapler
p1433
aVposit
p1434
aVcircumst
p1435
asI5865823
(lp1436
Vbacksheet
p1437
aVbreathabl
p1438
aVimpervi
p1439
aVtopsheet
p1440
aVfluid
p1441
aVabsorb
p1442
aVarticl
p1443
aVexhibit
p1444
aVsup
p1445
aVjoul
p1446
asI6849085
(lp1447
Vlamin
p1448
aVstent
p1449
aVendolumin
p1450
aVstructur
p1451
aVmetal
p1452
aVgraft
p1453
aVmateri
p1454
aVfilm
p1455
aVdeposit
p1456
aVmade
p1457
asI7673781
(lp1458
Vstapl
p1459
aVdriver
p1460
aVanvil
p1461
aVsupport
p1462
aVsurgic
p1463
aVactuat
p1464
aVcartridg
p1465
aVdiamet
p1466
aVwire
p1467
aVupper
p1468
asI5284703
(lp1469
Vpulp
p1470
aVnonwoven
p1471
aVfabric
p1472
aVcontent
p1473
aVcomposit
p1474
aVhigh
p1475
aVabsorb
p1476
aVentangl
p1477
aVwiper
p1478
aVmateri
p1479
asI5935883
(lp1480
Vmicrofib
p1481
aVsuperfin
p1482
aVweb
p1483
aVgroup
p1484
aVfiber
p1485
aVpolym
p1486
aVsplit
p1487
aVmeltblown
p1488
aVcompon
p1489
aVcontain
p1490
asI5242436
(lp1491
Velastic
p1492
aVwaistband
p1493
aVwaist
p1494
aVdiaper
p1495
aVabsorb
p1496
aVarticl
p1497
aVfasten
p1498
aVclosur
p1499
aVtension
p1500
aVdynam
p1501
asI7673782
(lp1502
Vbuttress
p1503
aVstapl
p1504
aVanvil
p1505
aVcartridg
p1506
aVsurgic
p1507
aVmateri
p1508
aVremov
p1509
aVstapler
p1510
aVretain
p1511
aVlip
p1512
asI5304161
(lp1513
Vabsorb
p1514
aVlayer
p1515
aVacquisit
p1516
aVarticl
p1517
aVcore
p1518
aVtopsheet
p1519
aVbacksheet
p1520
aVmultipl
p1521
aVcentimet
p1522
aVacquir
p1523
asI6701922
(lp1524
Vaerosol
p1525
aVmouthpiec
p1526
aVambient
p1527
aVair
p1528
aVairflow
p1529
aVentrain
p1530
aVdroplet
p1531
aVfunnel
p1532
aVdesir
p1533
aVpassageway
p1534
asI5368584
(lp1535
Velastic
p1536
aVleg
p1537
aVelast
p1538
aVthigh
p1539
aVcuff
p1540
aVabsorb
p1541
aVtopsheet
p1542
aVbacksheet
p1543
aVarticl
p1544
aVfeatur
p1545
asI5531728
(lp1546
Vabout
p1547
aVacquisit
p1548
aVaverag
p1549
aVstiffen
p1550
aVdistribut
p1551
aVlayer
p1552
aVfluid
p1553
aVnacl
p1554
aVdri
p1555
aVdensiti
p1556
asI5624420
(lp1557
Vpant
p1558
aVtear
p1559
aVelast
p1560
aVwearer
p1561
aVwaistband
p1562
aVperfor
p1563
aVnonelastic
p1564
aVline
p1565
aVsite
p1566
aVleg
p1567
asI6004306
(lp1568
Vwaist
p1569
aVpanel
p1570
aVthigh
p1571
aVwearer
p1572
aVdiaper
p1573
aVextens
p1574
aVabsorb
p1575
aVtopsheet
p1576
aVbacksheet
p1577
aVarticl
p1578
asI5531732
(lp1579
Vfibrous
p1580
aVfasten
p1581
aVpant
p1582
aVtab
p1583
aVweb
p1584
aVmechan
p1585
aVtrain
p1586
aVdispos
p1587
aVincontin
p1588
aVfit
p1589
asI5486166
(lp1590
Vnonwoven
p1591
aVabout
p1592
aVcentimet
p1593
aVweb
p1594
aVper
p1595
aVgram
p1596
aVfibrous
p1597
aVlofti
p1598
aVpercent
p1599
aVsquar
p1600
asI6695865
(lp1601
Vgraft
p1602
aVmember
p1603
aVembol
p1604
aVguidewir
p1605
aVdiametr
p1606
aVlumen
p1607
aVcathet
p1608
aVfrustrocon
p1609
aVdeploy
p1610
aVundeploy
p1611
asI6666841
(lp1612
Vtrabecular
p1613
aVbifurcat
p1614
aVshunt
p1615
aVschlemm
p1616
aVglaucoma
p1617
aVcanal
p1618
aVmeshwork
p1619
aVsection
p1620
aVoutlet
p1621
aVanterior
p1622
asI5108827
(lp1623
Vnoncontinu
p1624
aVphase
p1625
aVnonwoven
p1626
aVfiber
p1627
aVfabric
p1628
aVmulticonstitu
p1629
aVpolym
p1630
aVpmt
p1631
aVmulticonstitut
p1632
aVcsr
p1633
asI7980443
(lp1634
Vstapl
p1635
aVanvil
p1636
aVmember
p1637
aVfirst
p1638
aVcover
p1639
aVplate
p1640
aVsurgic
p1641
aVcartridg
p1642
aVinstrument
p1643
aVdeform
p1644
asI4883549
(lp1645
Velast
p1646
aVcomposit
p1647
aVmateri
p1648
aVstretch
p1649
aVtemporarili
p1650
aVinhibit
p1651
aVgather
p1652
aVarticl
p1653
aVrecoveri
p1654
aVattach
p1655
asI6537310
(lp1656
Vendolumin
p1657
aVstent
p1658
aVgraft
p1659
aVheterogen
p1660
aVmateri
p1661
aVblood
p1662
aVregion
p1663
aVimplant
p1664
aVweb
p1665
aVsubtend
p1666
asI7832612
(lp1667
Vlatch
p1668
aVjaw
p1669
aVmember
p1670
aVcut
p1671
aVlock
p1672
aVsurgic
p1673
aVfulli
p1674
aVadvanc
p1675
aVlockout
p1676
aVstapler
p1677
asI7832408
(lp1678
Vratchet
p1679
aVpawl
p1680
aVsurgic
p1681
aVtrigger
p1682
aVeffector
p1683
aVinstrument
p1684
aVstapl
p1685
aVassembl
p1686
aVcut
p1687
aVconfigur
p1688
asI5554145
(lp1689
Vextens
p1690
aVwaist
p1691
aVpanel
p1692
aVabsorb
p1693
aVfeatur
p1694
aVelast
p1695
aVdiaper
p1696
aVarticl
p1697
aVfit
p1698
aVweb
p1699
asI5503076
(lp1700
Vlamin
p1701
aVnonwoven
p1702
aVink
p1703
aVlayer
p1704
aVface
p1705
aVoutercov
p1706
aVcolor
p1707
aVmust
p1708
aVprint
p1709
aVarticl
p1710
asI7905381
(lp1711
Vjaw
p1712
aVmember
p1713
aVstapl
p1714
aVcut
p1715
aVsurgic
p1716
aVinstrument
p1717
aVpartial
p1718
aVhous
p1719
aVyet
p1720
aVcan
p1721
asI5599335
(lp1722
Vhydrogel
p1723
aVabsorb
p1724
aVgel
p1725
aVzone
p1726
aVfluid
p1727
aVabout
p1728
aVpolym
p1729
aVpup
p1730
aVsfc
p1731
aVwet
p1732
asI5941864
(lp1733
Vfecal
p1734
aVabsorb
p1735
aVarticl
p1736
aVmateri
p1737
aVdispos
p1738
aVstorag
p1739
aVtopsheet
p1740
aVcompon
p1741
aVdewat
p1742
aVdiaper
p1743
asI5624427
(lp1744
Vweb
p1745
aVrefasten
p1746
aVelong
p1747
aVundergo
p1748
aVfemal
p1749
aVsubstanti
p1750
aVregion
p1751
aVnonwoven
p1752
aVdeform
p1753
aVelast
p1754
asI5624428
(lp1755
Varticl
p1756
aVabsorb
p1757
aVfasten
p1758
aVwaist
p1759
aVwearer
p1760
aVportion
p1761
aVprimari
p1762
aVpantlik
p1763
aVrear
p1764
aVfront
p1765
asI5540976
(lp1766
Vnonwoven
p1767
aVlamin
p1768
aVlayer
p1769
aVstretch
p1770
aVhydroentangl
p1771
aVcrimpabl
p1772
aVspunbond
p1773
aVthem
p1774
aVfiber
p1775
aVcross
p1776
asI7798386
(lp1777
Vjoint
p1778
aVeffector
p1779
aVshaft
p1780
aVsurgic
p1781
aVcover
p1782
aVinstrument
p1783
aVend
p1784
aVcan
p1785
aVpinch
p1786
aVarticul
p1787
asI7744627
(lp1788
Vstapl
p1789
aVlumen
p1790
aVdiamet
p1791
aVcartridg
p1792
aVring
p1793
aVreinforc
p1794
aVtermin
p1795
aVedg
p1796
aVendoscop
p1797
aVassembl
p1798
asI5908598
(lp1799
Velectret
p1800
aVweb
p1801
aVfibrous
p1802
aVtriazin
p1803
aVnonconduct
p1804
aVoligom
p1805
aVthermoplast
p1806
aVstabl
p1807
aVperfluorin
p1808
aVthermal
p1809
asI5957908
(lp1810
Vdiaper
p1811
aVwearer
p1812
aVabsorb
p1813
aVear
p1814
aVarticl
p1815
aVpull
p1816
aVpant
p1817
aVfasten
p1818
aVenough
p1819
aVpanel
p1820
asI4891258
(lp1821
Vstretchabl
p1822
aVlayer
p1823
aVpervious
p1824
aVimpervi
p1825
aVabsorb
p1826
aVliquid
p1827
aVrugos
p1828
aVstretch
p1829
aVcomposit
p1830
aVrelax
p1831
asI5580411
(lp1832
Vpanel
p1833
aVinward
p1834
aVscrap
p1835
aVdistal
p1836
aVmachin
p1837
aVweb
p1838
aVabsorb
p1839
aVarticl
p1840
aVelement
p1841
aVfirst
p1842
asI6362389
(lp1843
Vnonwoven
p1844
aVabsorb
p1845
aVelast
p1846
aVmateri
p1847
aVconform
p1848
aVmatrix
p1849
aVsuperabsorb
p1850
aVweight
p1851
aVcare
p1852
aVimport
p1853
asI6951553
(lp1854
Vftc
p1855
aVunderdrap
p1856
aVpatient
p1857
aVsuction
p1858
aVclosur
p1859
aVmanual
p1860
aVtissu
p1861
aVplace
p1862
aVfluid
p1863
aVinterfac
p1864
asI5342338
(lp1865
Vfecal
p1866
aVtopsheet
p1867
aVabsorb
p1868
aVarticl
p1869
aVmateri
p1870
aVviscos
p1871
aVdispos
p1872
aVsecondari
p1873
aVcompon
p1874
aVdewat
p1875
asI7810692
(lp1876
Vstapl
p1877
aVassembl
p1878
aVaxial
p1879
aVdrive
p1880
aVanvil
p1881
aVsurgic
p1882
aVcartridg
p1883
aVload
p1884
aVfire
p1885
aVindic
p1886
asI7810693
(lp1887
Veffector
p1888
aVarticulat
p1889
aVinstrument
p1890
aVsurgic
p1891
aVend
p1892
aVproxim
p1893
aVstapl
p1894
aVframe
p1895
aVarticul
p1896
aVpassiv
p1897
asI6955656
(lp1898
Vtrabecular
p1899
aVmeshwork
p1900
aVseton
p1901
aVglaucoma
p1902
aVimplant
p1903
aVbypass
p1904
aVsurgic
p1905
aVoutflow
p1906
aVdiseas
p1907
aVvein
p1908
asI7794475
(lp1909
Vstapl
p1910
aVcrown
p1911
aVcrushabl
p1912
aVdeform
p1913
aVtissu
p1914
aVcompress
p1915
aVmember
p1916
aVspring
p1917
aVsurgic
p1918
aVwide
p1919
asI4657802
(lp1920
sI4798603
(lp1921
Vabsorb
p1922
aVtopsheet
p1923
aVpore
p1924
aVcompos
p1925
aVlayer
p1926
aVhydrophob
p1927
aVhydrophil
p1928
aVbodi
p1929
aVpermeabl
p1930
aVsize
p1931
asI6420622
(lp1932
Vdress
p1933
aVtympanostomi
p1934
aVfluid
p1935
aVarticl
p1936
aVfilm
p1937
aVwound
p1938
aVmedic
p1939
aVsweat
p1940
aVmicrochannel
p1941
aVintraven
p1942
asI6664335
(lp1943
Vpolyurethan
p1944
aVarticl
p1945
aVmedic
p1946
aVshape
p1947
aVbiomed
p1948
aVlinker
p1949
aVmemori
p1950
aVelastom
p1951
aVreactiv
p1952
aVirradi
p1953
asI4655760
(lp1954
sI7066258
(lp1955
Vparticul
p1956
aVcoat
p1957
aVproppant
p1958
aVdensiti
p1959
aVfractur
p1960
aVenhanc
p1961
aVreduc
p1962
aVbore
p1963
aVtransport
p1964
aVwell
p1965
asI5871763
(lp1966
Vcalori
p1967
aVgram
p1968
aVabout
p1969
aVlotion
p1970
aVdegre
p1971
aVabov
p1972
aVdelta
p1973
aVmelt
p1974
aVemolli
p1975
aVprefer
p1976
asI5883028
(lp1977
Vbreathabl
p1978
aVlamin
p1979
aVnonwoven
p1980
aVweb
p1981
aVelast
p1982
aVneckabl
p1983
aVneck
p1984
aVfilm
p1985
aVvapor
p1986
aVstretchabl
p1987
asI6746773
(lp1988
Vmoieti
p1989
aVcoat
p1990
aVfilm
p1991
aVmedic
p1992
aVimplant
p1993
aVvinylidenefluorid
p1994
aVmammal
p1995
aVpolyfluoro
p1996
aVmed
p1997
aVresidu
p1998
asI4668566
(lp1999
Vnonwoven
p2000
aVweb
p2001
aVthermoplast
p2002
aVpolyethylen
p2003
aVmultilay
p2004
aVfabric
p2005
aVmonofila
p2006
aVlayer
p2007
aVmateri
p2008
aVpolypropylen
p2009
asI5509913
(lp2010
Vflushabl
p2011
aVsewag
p2012
aVtoilet
p2013
aVmunicip
p2014
aVpresenc
p2015
aVhospit
p2016
aVdisintegr
p2017
aVhygien
p2018
aVhousehold
p2019
aVclog
p2020
asI7276051
(lp2021
Vwound
p2022
aVconduit
p2023
aVbandag
p2024
aVdrainag
p2025
aVfluid
p2026
aVtreatment
p2027
aVsuppli
p2028
aVnebul
p2029
aVcaviti
p2030
aVmedicin
p2031
asI7845533
(lp2032
Vstapl
p2033
aVbuttress
p2034
aVjaw
p2035
aVsurgic
p2036
aVretain
p2037
aVinstrument
p2038
aVtissu
p2039
aVmateri
p2040
aVremain
p2041
aVreleas
p2042
asI5405342
(lp2043
Vbodysid
p2044
aVliner
p2045
aVabsorb
p2046
aVpocket
p2047
aVpad
p2048
aVinsert
p2049
aVarticl
p2050
aVcotermin
p2051
aVflushabl
p2052
aVexud
p2053
asI6638239
(lp2054
Vtrabecular
p2055
aVmeshwork
p2056
aVseton
p2057
aVglaucoma
p2058
aVimplant
p2059
aVbypass
p2060
aVsurgic
p2061
aVoutflow
p2062
aVdiseas
p2063
aVvein
p2064
asI7845536
(lp2065
Vtissu
p2066
aVwound
p2067
aVanvil
p2068
aVtreatment
p2069
aVdispens
p2070
aVsection
p2071
aVanoth
p2072
aVmateri
p2073
aVassembl
p2074
aVapproxim
p2075
asI5843056
(lp2076
Vbacksheet
p2077
aVtopsheet
p2078
aVcomposit
p2079
aVabsorb
p2080
aVclothlik
p2081
aVpermeabl
p2082
aVarticl
p2083
aVbreathabl
p2084
aVnonwoven
p2085
aVface
p2086
asI5217445
(lp2087
Vabout
p2088
aVsuperabsorb
p2089
aVaverag
p2090
aVaquisit
p2091
aVwetlaid
p2092
aVacquisit
p2093
aVdistribut
p2094
aVlayer
p2095
aVfluid
p2096
aVnacl
p2097
asI7934630
(lp2098
Vstapl
p2099
aVcartridg
p2100
aVactuat
p2101
aVanvil
p2102
aVvarious
p2103
aVdriver
p2104
aVheight
p2105
aVclamp
p2106
aVembodi
p2107
aVthereon
p2108
asI6096668
(lp2109
Vlamin
p2110
aVnonwoven
p2111
aVsup
p2112
aVbarrier
p2113
aVspunbond
p2114
aVextens
p2115
aVweb
p2116
aVelast
p2117
aVloft
p2118
aVdensiti
p2119
asI5387207
(lp2120
Vfoam
p2121
aVpolymer
p2122
aVthin
p2123
aVemuls
p2124
aVhipe
p2125
aVcollaps
p2126
aVfluid
p2127
aVunexpand
p2128
aVaqueous
p2129
aVabsorb
p2130
asI6271278
(lp2131
Vsuperpor
p2132
aVhydrogel
p2133
aVcrosslink
p2134
aVdisintegr
p2135
aVblow
p2136
aVagent
p2137
aVcomposit
p2138
aVmultiolefin
p2139
aVsodium
p2140
aVnahco
p2141
asI7597229
(lp2142
Vanvil
p2143
aVsurgic
p2144
aVclosur
p2145
aVinstrument
p2146
aVclose
p2147
aVposit
p2148
aVeffector
p2149
aVlock
p2150
aVpartial
p2151
aVconfigur
p2152
asI7108701
(lp2153
Vmedic
p2154
aVdrug
p2155
aVorgan
p2156
aVbiocompat
p2157
aVdevic
p2158
aVintroduct
p2159
aVcoat
p2160
aVagent
p2161
aVbiolog
p2162
aVmay
p2163
asI4940464
(lp2164
Vabsorb
p2165
aVgarment
p2166
aVpant
p2167
aVstretchabl
p2168
aVsnug
p2169
aVgather
p2170
aVwearer
p2171
aVassembl
p2172
aVagainst
p2173
aVgeneral
p2174
asI6135987
(lp2175
Vmulticarboxyl
p2176
aVcompon
p2177
aVthermoplast
p2178
aVfiber
p2179
aVspecifi
p2180
aVacid
p2181
aVangstrom
p2182
aVsynthet
p2183
aVunreact
p2184
aVcrystal
p2185
asI5911222
(lp2186
Vmembran
p2187
aVvacuum
p2188
aVentranc
p2189
aVinterfac
p2190
aVwet
p2191
aVporous
p2192
aVliquid
p2193
aVzone
p2194
aVsourc
p2195
aVremov
p2196
asI5032120
(lp2197
Vcuff
p2198
aVleg
p2199
aVdiaper
p2200
aVwearer
p2201
aVultim
p2202
aVarticl
p2203
aVmargin
p2204
aVelong
p2205
aVrelat
p2206
aVforc
p2207
asI5213881
(lp2208
Vmicron
p2209
aVpore
p2210
aVweb
p2211
aVdistribut
p2212
aVnonwoven
p2213
aVrang
p2214
aVpih
p2215
aVperoxid
p2216
aVgms
p2217
aVsize
p2218
asI6800074
(lp2219
Vbandag
p2220
aVcanist
p2221
aVvacuum
p2222
aVwound
p2223
aVfluid
p2224
aVcoupl
p2225
aVpump
p2226
aVsourc
p2227
aVappli
p2228
aVwast
p2229
asI5393599
(lp2230
Vfabric
p2231
aVfibrous
p2232
aVelast
p2233
aVmachin
p2234
aVdirect
p2235
aVlayer
p2236
aVcross
p2237
aVnonwoven
p2238
aVfilament
p2239
aVsubstanti
p2240
asI7905380
(lp2241
Vrate
p2242
aVcut
p2243
aVretract
p2244
aVadvanc
p2245
aVdriver
p2246
aVmember
p2247
aVsurgic
p2248
aVowe
p2249
aVinstrument
p2250
aVstapl
p2251
asI7793812
(lp2252
Vstapl
p2253
aVload
p2254
aVsurgic
p2255
aVdispos
p2256
aVunit
p2257
aVindic
p2258
aVcut
p2259
aVmotor
p2260
aVposit
p2261
aVwhen
p2262
asI4990147
(lp2263
Vliner
p2264
aVwast
p2265
aVbacksheet
p2266
aVpassageway
p2267
aVelast
p2268
aVabsorb
p2269
aVskin
p2270
aVanal
p2271
aVarticl
p2272
aVisol
p2273
asI7819297
(lp2274
Vhandl
p2275
aVstapl
p2276
aVsegment
p2277
aVsteril
p2278
aVsurgic
p2279
aVreprocess
p2280
aVvarious
p2281
aVreusabl
p2282
aVhous
p2283
aVremov
p2284
asI6733513
(lp2285
Vballoon
p2286
aVcathet
p2287
aVmetal
p2288
aVtubular
p2289
aVannulus
p2290
aVmain
p2291
aVbodi
p2292
aVinflat
p2293
aVguidewir
p2294
aVcentral
p2295
asI5370634
(lp2296
Vwaist
p2297
aVportion
p2298
aVdiaper
p2299
aVleg
p2300
aVunderp
p2301
aVopen
p2302
aVpair
p2303
aVabsorb
p2304
aVdispos
p2305
aVrear
p2306
asI5902540
(lp2307
Vplural
p2308
aVorific
p2309
aVadhes
p2310
aVflow
p2311
aVmeltblow
p2312
aVveloc
p2313
aVair
p2314
aVattenu
p2315
aVsecond
p2316
aVfirst
p2317
asI7819298
(lp2318
Vstapl
p2319
aVrotat
p2320
aVshroud
p2321
aVsurgic
p2322
aVlockabl
p2323
aVapparatus
p2324
aVdistal
p2325
aVhand
p2326
aVfeatur
p2327
aVhandl
p2328
asI5236430
(lp2329
Vseam
p2330
aVarea
p2331
aVchassi
p2332
aVgarment
p2333
aVfusion
p2334
aVwill
p2335
aVslit
p2336
aVflangeless
p2337
aVportion
p2338
aVprefer
p2339
asI5147343
(lp2340
Vsuperabsorb
p2341
aVabsorb
p2342
aVpore
p2343
aVinterfib
p2344
aVabil
p2345
aVmillilit
p2346
aVdyne
p2347
aVmateri
p2348
aVmatrix
p2349
aVabout
p2350
asI5147345
(lp2351
Vacquisit
p2352
aVabsorb
p2353
aVfluid
p2354
aVredistribut
p2355
aVfoam
p2356
aVcompon
p2357
aVincontin
p2358
aVdistribut
p2359
aVcapac
p2360
aVurin
p2361
asI5569234
(lp2362
Vregion
p2363
aVchassi
p2364
aVbelt
p2365
aVgarment
p2366
aVcrotch
p2367
aVlayer
p2368
aVpull
p2369
aVwaist
p2370
aVfront
p2371
aVback
p2372
asI7008979
(lp2373
Vcoat
p2374
aVhydrophil
p2375
aVsubstrat
p2376
aVshow
p2377
aVaqueous
p2378
aVcomposit
p2379
aVfog
p2380
aVstain
p2381
aVcolloid
p2382
aVmetal
p2383
asI4861652
(lp2384
Vwaistband
p2385
aVbacksheet
p2386
aVtopsheet
p2387
aVlayer
p2388
aVarticl
p2389
aVshirr
p2390
aVelastic
p2391
aVabsorb
p2392
aVdiaper
p2393
aVwaist
p2394
asI7861906
(lp2395
Varticul
p2396
aVsegment
p2397
aVbodi
p2398
aVintermedi
p2399
aVdistal
p2400
aVjoint
p2401
aVstapl
p2402
aVsurgic
p2403
aVassembl
p2404
aVaxi
p2405
asI5846232
(lp2406
Vbodysid
p2407
aVlayer
p2408
aVextens
p2409
aVzone
p2410
aVliner
p2411
aVelast
p2412
aVcover
p2413
aVouter
p2414
aVabsorb
p2415
aVarticl
p2416
asI5145727
(lp2417
Vnonwoven
p2418
aVmultilay
p2419
aVextrud
p2420
aVcomposit
p2421
aVstructur
p2422
aVmelt
p2423
aVlayer
p2424
aVtwo
p2425
aVleast
p2426
aVhas
p2427
asI5669894
(lp2428
Vhydrogel
p2429
aVabsorb
p2430
aVgel
p2431
aVzone
p2432
aVfluid
p2433
aVabout
p2434
aVpolym
p2435
aVpup
p2436
aVsfc
p2437
aVwet
p2438
asI6758863
(lp2439
Vspacer
p2440
aVintervertebr
p2441
aVdeform
p2442
aVconform
p2443
aVvertebra
p2444
aVconfigur
p2445
aVdisc
p2446
aVorigin
p2447
aVrevert
p2448
aVspace
p2449
asI5458590
(lp2450
Vink
p2451
aVnonwoven
p2452
aVweb
p2453
aVcrockfast
p2454
aVfibrous
p2455
aVprint
p2456
aVbasi
p2457
aVweight
p2458
aVcare
p2459
aVlow
p2460
asI5514470
(lp2461
Vneck
p2462
aVmateri
p2463
aVelast
p2464
aVbond
p2465
aVmultilay
p2466
aVelastomer
p2467
aVextrud
p2468
aVcomposit
p2469
aVfilm
p2470
aVdie
p2471
asI7823592
(lp2472
Vanvil
p2473
aVintestin
p2474
aVstapler
p2475
aVtissu
p2476
aVshaft
p2477
aVsurgic
p2478
aVcircular
p2479
aVstructur
p2480
aVsection
p2481
aVannular
p2482
asI6743273
(lp2483
Vnanofib
p2484
aVmicrofib
p2485
aVpolym
p2486
aVmateri
p2487
aVapplic
p2488
aVimprov
p2489
aVstructur
p2490
aVfine
p2491
aVvarieti
p2492
aVdisclos
p2493
asI7942890
(lp2494
Vanastomosi
p2495
aVmateri
p2496
aVgasket
p2497
aVintestin
p2498
aVring
p2499
aVsealant
p2500
aVmedica
p2501
aVpossess
p2502
aVmiddl
p2503
aVsecond
p2504
asI4857067
(lp2505
Vdiaper
p2506
aVshir
p2507
aVelasticiz
p2508
aVear
p2509
aVheat
p2510
aVblank
p2511
aVbuttock
p2512
aVfingertip
p2513
aVinelast
p2514
aVflat
p2515
asI6673136
(lp2516
Vmedia
p2517
aVflute
p2518
aVpack
p2519
aVracetrack
p2520
aV240
p2521
aVarrang
p2522
aVsystem
p2523
aVcross
p2524
aVfilter
p2525
aV140
p2526
asI8028883
(lp2527
Vbuttress
p2528
aVfeatur
p2529
aVsurgic
p2530
aVattach
p2531
aVtissu
p2532
aValloy
p2533
aVstapl
p2534
aVcontact
p2535
aVsurfac
p2536
aVanvil
p2537
asI5766389
(lp2538
Vregist
p2539
aVmark
p2540
aVrefer
p2541
aVcontinu
p2542
aVlayer
p2543
aVgraphic
p2544
aVcompon
p2545
aVmove
p2546
aVarticl
p2547
aVdistanc
p2548
asI5116662
(lp2549
Velast
p2550
aVstretch
p2551
aVmateri
p2552
aVneck
p2553
aVleast
p2554
aVcomposit
p2555
aVsheet
p2556
aVnonlinear
p2557
aVtwo
p2558
aVdirect
p2559
asI7918377
(lp2560
Vanvil
p2561
aVfeedback
p2562
aVstapl
p2563
aVinstrument
p2564
aVsurgic
p2565
aVillumin
p2566
aVvarious
p2567
aVbeen
p2568
aVindic
p2569
aVdevic
p2570
asI7819299
(lp2571
Vtrigger
p2572
aVstapl
p2573
aVsurgic
p2574
aVactuat
p2575
aVinstrument
p2576
aVjaw
p2577
aVsurgeon
p2578
aVincis
p2579
aVclose
p2580
aVmember
p2581
asI5143679
(lp2582
Vstretch
p2583
aVweb
p2584
aVlamin
p2585
aVpli
p2586
aVstrain
p2587
aVzero
p2588
aVsequenti
p2589
aVelastomer
p2590
aViniti
p2591
aVmesh
p2592
asI6979324
(lp2593
Vpouch
p2594
aVwound
p2595
aVdrainag
p2596
aVportabl
p2597
aVtube
p2598
aVexud
p2599
aVlyogel
p2600
aVsuction
p2601
aVseal
p2602
aVskin
p2603
asI6290685
(lp2604
Vchannel
p2605
aVfluid
p2606
aVflow
p2607
aVdiscret
p2608
aVpotenti
p2609
aVmicrochannel
p2610
aVtransport
p2611
aVmicromet
p2612
aVabout
p2613
aV300
p2614
asI7954686
(lp2615
Vstapl
p2616
aVanvil
p2617
aVjaw
p2618
aVsled
p2619
aVcartridg
p2620
aVadjust
p2621
aVsurgic
p2622
aVdeploy
p2623
aVcan
p2624
aVdeform
p2625
asI7799039
(lp2626
Vsurgic
p2627
aVinstrument
p2628
aVeffector
p2629
aVhydraul
p2630
aVshaft
p2631
aVaxi
p2632
aVtransvers
p2633
aVmay
p2634
aVimplement
p2635
aVhandl
p2636
asI5382400
(lp2637
Vmulticompon
p2638
aVfilament
p2639
aVcrimp
p2640
aVnonwoven
p2641
aVfabric
p2642
aVlatent
p2643
aVweb
p2644
aVloft
p2645
aVhelic
p2646
aVcontinu
p2647
asI4965122
(lp2648
Vneck
p2649
aVmateri
p2650
aVrevers
p2651
aVstretch
p2652
aVpercent
p2653
aVabout
p2654
aVheat
p2655
aVonset
p2656
aVfusion
p2657
aVpossess
p2658
asI7938307
(lp2659
Vanastomosi
p2660
aVintestin
p2661
aVanvil
p2662
aVbodi
p2663
aVstructur
p2664
aVsupport
p2665
aVtissu
p2666
aVtubular
p2667
aVshaft
p2668
aVtermin
p2669
asI7607557
(lp2670
Vmedic
p2671
aVagent
p2672
aVstapl
p2673
aVdispens
p2674
aVsurgic
p2675
aVinstrument
p2676
aVpump
p2677
aVstructur
p2678
aVreservoir
p2679
aVdeliveri
p2680
asI5527302
(lp2681
Vtopsheet
p2682
aVwast
p2683
aVbacksheet
p2684
aVbodi
p2685
aVflap
p2686
aVconform
p2687
aVabsorb
p2688
aVcontain
p2689
aVarticl
p2690
aVmanag
p2691
asI4939016
(lp2692
Ventangl
p2693
aVmeltblown
p2694
aVnonwoven
p2695
aVelastomer
p2696
aVweb
p2697
aVfiber
p2698
aVhydraul
p2699
aVmateri
p2700
aVelast
p2701
aVlayer
p2702
asI6677258
(lp2703
Vsheet
p2704
aVbacksheet
p2705
aVabsorb
p2706
aVcopolyeth
p2707
aVcomposit
p2708
aVmateri
p2709
aVtopsheet
p2710
aVarticl
p2711
aVbreathabl
p2712
aVpolymersynthet
p2713
asI5932299
(lp2714
Vmodifi
p2715
aVbiofunct
p2716
aVobject
p2717
aVradiat
p2718
aVsurfac
p2719
aVhydrophob
p2720
aVhydrophil
p2721
aVmicrowav
p2722
aVinfrar
p2723
aVimpart
p2724
asI8011555
(lp2725
Vknife
p2726
aVanvil
p2727
aVblade
p2728
aVassembl
p2729
aVcartridg
p2730
aVtissu
p2731
aVsurgic
p2732
aVstapl
p2733
aVslot
p2734
aVelong
p2735
asI5611790
(lp2736
Vnapkin
p2737
aVstretchabl
p2738
aVsanitari
p2739
aVabsorb
p2740
aVarticl
p2741
aVwomen
p2742
aVworn
p2743
aVespeci
p2744
aVpresent
p2745
aVthin
p2746
asI5269775
(lp2747
Vtrisect
p2748
aVtopsheet
p2749
aVabsorb
p2750
aVarticl
p2751
aVdispos
p2752
aVextens
p2753
aVelast
p2754
aVfecal
p2755
aVlongitudin
p2756
aVvoid
p2757
asI5711832
(lp2758
Vlayer
p2759
aVelast
p2760
aVcontinu
p2761
aVfold
p2762
aVabsorb
p2763
aVbase
p2764
aVelong
p2765
aVsecond
p2766
aVfirst
p2767
aVedg
p2768
asI5698322
(lp2769
sI7857185
(lp2770
Vanvil
p2771
aVstapl
p2772
aVsurgic
p2773
aVassembl
p2774
aVmotion
p2775
aVload
p2776
aVblade
p2777
aVdispos
p2778
aVcarrier
p2779
aVcut
p2780
asI6015764
(lp2781
sI5188885
(lp2782
Vlamin
p2783
aVfabric
p2784
aVolefin
p2785
aVroom
p2786
aVnonwoven
p2787
aVemiss
p2788
aVsteriliz
p2789
aVterpolym
p2790
aVdrape
p2791
aVgreater
p2792
asI5562646
(lp2793
Vhydrogel
p2794
aVabsorb
p2795
aVgel
p2796
aVabout
p2797
aVzone
p2798
aVfluid
p2799
aVpolym
p2800
aVpup
p2801
aVsfc
p2802
aVwet
p2803
asI5277976
(lp2804
Vfiber
p2805
aVdrawdown
p2806
aVshape
p2807
aVspun
p2808
aVreplic
p2809
aVclose
p2810
aVtemperatur
p2811
aVorific
p2812
aVdie
p2813
aVminimum
p2814
asI5167897
(lp2815
Vstretch
p2816
aVlamin
p2817
aVincrement
p2818
aVstrain
p2819
aVweb
p2820
aVpli
p2821
aVzero
p2822
aViniti
p2823
aVdirect
p2824
aVelastomer
p2825
asI5562650
(lp2826
Vsurg
p2827
aVtopsheet
p2828
aVbacksheet
p2829
aVretent
p2830
aVmanag
p2831
aVportion
p2832
aVlayer
p2833
aVedg
p2834
aVmedial
p2835
aVmargin
p2836
asI5509915
(lp2837
Vtopsheet
p2838
aVbacksheet
p2839
aVabsorb
p2840
aVlayer
p2841
aVfiber
p2842
aVarticl
p2843
aVabout
p2844
aVhydrophil
p2845
aVbicompon
p2846
aVdenier
p2847
asI4618524
(lp2848
Vmicrofib
p2849
aVmicropor
p2850
aVmultilay
p2851
aVpast
p2852
aVlayer
p2853
aVrepellent
p2854
aVnonwoven
p2855
aVabout
p2856
aVpenetr
p2857
aVbond
p2858
asI7738971
(lp2859
Vsurgic
p2860
aVinstrument
p2861
aVsteril
p2862
aVprogram
p2863
aVcontain
p2864
aVwhile
p2865
aVprogramm
p2866
aVunit
p2867
aVpost
p2868
aVpackag
p2869
asI5268224
(lp2870
Vabsorb
p2871
aVfoam
p2872
aVmateri
p2873
aVhipe
p2874
aVabout
p2875
aVkpa
p2876
aVaqueous
p2877
aVarticl
p2878
aVcompress
p2879
aVdiaper
p2880
asI4720415
(lp2881
Vweb
p2882
aVelast
p2883
aVgather
p2884
aVbond
p2885
aVcontract
p2886
aVrelax
p2887
aVcomposit
p2888
aVmateri
p2889
aVstretch
p2890
aVelong
p2891
asI7135009
(lp2892
Vglaucoma
p2893
aVstent
p2894
aVtrephin
p2895
aVeye
p2896
aVprocedur
p2897
aVsafer
p2898
aVthereof
p2899
aVintraocular
p2900
aVtreatment
p2901
aVincis
p2902
asI5520674
(lp2903
Vexpand
p2904
aVabsorb
p2905
aVarticl
p2906
aVenvelop
p2907
aVcompon
p2908
aVcompress
p2909
aVdispos
p2910
aVair
p2911
aVfecal
p2912
aVtopsheet
p2913
asI4863779
(lp2914
Vweb
p2915
aVnonwoven
p2916
aVmonocarboxyl
p2917
aVmonom
p2918
aVblown
p2919
aVelast
p2920
aVfiber
p2921
aVvinyl
p2922
aVcomposit
p2923
aVouterwear
p2924
asI5360420
(lp2925
Vabout
p2926
aVacquisit
p2927
aVsuperabsorb
p2928
aVaverag
p2929
aVstiffen
p2930
aVdistribut
p2931
aVlayer
p2932
aVfluid
p2933
aVnacl
p2934
aVdri
p2935
asI6165406
(lp2936
Vdroplet
p2937
aVcolor
p2938
aVdeposit
p2939
aVobject
p2940
aVplatform
p2941
aVgeometri
p2942
aVeject
p2943
aVfreeform
p2944
aVmultipl
p2945
aVbuild
p2946
asI5533991
(lp2947
Vmateri
p2948
aVbodysid
p2949
aVrewet
p2950
aVcover
p2951
aVabsorb
p2952
aVfluid
p2953
aVarticl
p2954
aVprincip
p2955
aVnonperfor
p2956
aVbicompon
p2957
asI4863785
(lp2958
Vnonwoven
p2959
aVprebond
p2960
aVmeltblown
p2961
aVspunbond
p2962
aVthermoplast
p2963
aVtrilamin
p2964
aVbond
p2965
aVpolym
p2966
aVmateri
p2967
aVcomposit
p2968
asI5536555
(lp2969
Vquilt
p2970
aVfilm
p2971
aVundul
p2972
aVlamin
p2973
aVslit
p2974
aVcomposit
p2975
aVpucker
p2976
aVlayer
p2977
aVdue
p2978
aVplane
p2979
asI4436780
(lp2980
Vwiper
p2981
aVmeltblown
p2982
aVmicrofib
p2983
aVfilament
p2984
aVlamin
p2985
aVnonwoven
p2986
aVwipe
p2987
aVpolypropylen
p2988
aVlayer
p2989
aVthermoplast
p2990
asI6149934
(lp2991
Vlotion
p2992
aVformul
p2993
aVbodysid
p2994
aVskin
p2995
aVabout
p2996
aVliner
p2997
aVpercent
p2998
aVbodyfac
p2999
aVweight
p3000
aVemolli
p3001
asI7613491
(lp3002
Vpoli
p3003
aVpolym
p3004
aVmembran
p3005
aVsilicon
p3006
aVanalyt
p3007
aVoxid
p3008
aVblend
p3009
aVethylen
p3010
aVsolubl
p3011
aVtriblock
p3012
asI5374262
(lp3013
Vgarment
p3014
aVreleas
p3015
aVpad
p3016
aVattach
p3017
aVstrap
p3018
aVengag
p3019
aVwaist
p3020
aVsome
p3021
aVturn
p3022
aVfront
p3023
asI4741944
(lp3024
Vweb
p3025
aVwipe
p3026
aVelast
p3027
aVwet
p3028
aVnonwoven
p3029
aVnon
p3030
aVsheet
p3031
aVmeltblown
p3032
aVspunbond
p3033
aVdispens
p3034
asI6939451
(lp3035
Vmicrofluid
p3036
aVcompon
p3037
aVfilm
p3038
aVconduct
p3039
aVelectrokinet
p3040
aVintegr
p3041
aVnorbornen
p3042
aVdevic
p3043
aVelectrod
p3044
aVbubbl
p3045
asI5650222
(lp3046
Vfoam
p3047
aVdensiti
p3048
aVabsorb
p3049
aVabout
p3050
aVhipe
p3051
aVcollaps
p3052
aVphase
p3053
aVthese
p3054
aVfluid
p3055
aVlow
p3056
asI6865810
(lp3057
Vtubular
p3058
aVmember
p3059
aVlayer
p3060
aVstent
p3061
aVmake
p3062
aVremov
p3063
aVfirst
p3064
aVmedic
p3065
aVportion
p3066
aVcomposit
p3067
asI7954684
(lp3068
Vfire
p3069
aVmember
p3070
aVsurgic
p3071
aVeffector
p3072
aVinstrument
p3073
aVportion
p3074
aVdrive
p3075
aVrevers
p3076
aVconfigur
p3077
aVcut
p3078
asI5397316
(lp3079
Vslit
p3080
aVabsorb
p3081
aVfluid
p3082
aVmember
p3083
aVregion
p3084
aVmateri
p3085
aVrunni
p3086
aVacquisit
p3087
aVcup
p3088
aVmens
p3089
asI6036805
(lp3090
sI5397318
(lp3091
Vcuff
p3092
aVpocket
p3093
aVedg
p3094
aVbarrier
p3095
aVdistal
p3096
aVtab
p3097
aVtape
p3098
aVinflect
p3099
aVopen
p3100
aVdiaper
p3101
asI6383431
(lp3102
Vweb
p3103
aVnonwoven
p3104
aVmodifi
p3105
aVyet
p3106
aVbreathabl
p3107
aVimpervi
p3108
aVfibrous
p3109
aVdisclos
p3110
aVstretch
p3111
aVincrement
p3112
asI5897545
(lp3113
Vdiaper
p3114
aVwearer
p3115
aVabsorb
p3116
aVarticl
p3117
aVpull
p3118
aVpant
p3119
aVear
p3120
aVfasten
p3121
aVenough
p3122
aVpanel
p3123
asI5595618
(lp3124
Vweb
p3125
aVlamin
p3126
aVregion
p3127
aVsection
p3128
aVmedial
p3129
aVmechan
p3130
aVfirst
p3131
aVsecond
p3132
aVsecur
p3133
aVcomposit
p3134
asI7588175
(lp3135
Vcabl
p3136
aVassembl
p3137
aVelong
p3138
aVinstrument
p3139
aVdistal
p3140
aVtransit
p3141
aVstapl
p3142
aVchannel
p3143
aVknife
p3144
aVsurgic
p3145
asI6297424
(lp3146
Vgraphic
p3147
aVinteract
p3148
aVstori
p3149
aVwet
p3150
aVtrain
p3151
aVcharact
p3152
aVperman
p3153
aVindic
p3154
aVcaregiv
p3155
aVactiv
p3156
asI4340563
(lp3157
Vfilament
p3158
aVquench
p3159
aVweb
p3160
aVdraw
p3161
aVnonwoven
p3162
aVspin
p3163
aVeduct
p3164
aVfluid
p3165
aVentangl
p3166
aVmotiv
p3167
asI8256654
(lp3168
Vstapl
p3169
aVbuttress
p3170
aVanvil
p3171
aVcartridg
p3172
aVretain
p3173
aVmateri
p3174
aVsurgic
p3175
aVcontain
p3176
aVinstrument
p3177
aVfit
p3178
asI5300054
(lp3179
Vabsorb
p3180
aVlayer
p3181
aVwrap
p3182
aVmultipl
p3183
aVarticl
p3184
aVsubjac
p3185
aVtopsheet
p3186
aVbacksheet
p3187
aVcore
p3188
aVacquir
p3189
asI6315864
(lp3190
Vweb
p3191
aVhydroneedl
p3192
aVcrepe
p3193
aVcloth
p3194
aVbase
p3195
aVlike
p3196
aVabsorb
p3197
aVstretchabl
p3198
aVstapl
p3199
aVpulp
p3200
asI7186265
(lp3201
Vprosthet
p3202
aVimplant
p3203
aVvalv
p3204
aVsite
p3205
aVtarget
p3206
aVcardiac
p3207
aVanchor
p3208
aVsystem
p3209
aVdeliveri
p3210
aVthem
p3211
asI6225243
(lp3212
Vcompon
p3213
aVpolymer
p3214
aVstrand
p3215
aVnonwoven
p3216
aVweb
p3217
aVelast
p3218
aVzone
p3219
aVsticki
p3220
aVsecond
p3221
aVovercom
p3222
asI5460622
(lp3223
Vabsorb
p3224
aVtopsheet
p3225
aVliquid
p3226
aVstabl
p3227
aVbacksheet
p3228
aVcore
p3229
aVfiber
p3230
aVacquisit
p3231
aVlayer
p3232
aVblend
p3233
asI6200669
(lp3234
Vmulticompon
p3235
aVentangl
p3236
aVnonwoven
p3237
aVfiber
p3238
aVweb
p3239
aVmicrofib
p3240
aVbond
p3241
aVunitari
p3242
aVhydroentangl
p3243
aVabout
p3244
asI5364382
(lp3245
Vsurg
p3246
aVmanag
p3247
aVabsorb
p3248
aVretent
p3249
aVportion
p3250
aVliquid
p3251
aVarticl
p3252
aVuptak
p3253
aVdesorb
p3254
aVstore
p3255
asI5818719
(lp3256
Vmark
p3257
aVregist
p3258
aVcontinu
p3259
aVmove
p3260
aVrefer
p3261
aVlayer
p3262
aVcontrol
p3263
aVcompon
p3264
aVdistanc
p3265
aVplural
p3266
asI5037409
(lp3267
Vabsorb
p3268
aVmodul
p3269
aVaverag
p3270
aVabout
p3271
aVpore
p3272
aVflow
p3273
aVliquid
p3274
aVlayer
p3275
aVmicron
p3276
aVhydrophil
p3277
asI6432098
(lp3278
Vslot
p3279
aVtab
p3280
aVinboard
p3281
aVoutboard
p3282
aVmember
p3283
aVportion
p3284
aVfasten
p3285
aVlip
p3286
aVabsorb
p3287
aVarticl
p3288
asI4627811
(lp3289
Vsuperatmospher
p3290
aVspunbond
p3291
aVfilament
p3292
aVconic
p3293
aVspun
p3294
aVmelt
p3295
aVcurtain
p3296
aVchamber
p3297
aVpressur
p3298
aVspin
p3299
asI5645542
(lp3300
Velastomer
p3301
aVabsorb
p3302
aVstructur
p3303
aVfiber
p3304
aVthermoplast
p3305
aVwettabl
p3306
aVstapl
p3307
aVotherwis
p3308
aVident
p3309
aVexhibit
p3310
asI5770086
(lp3311
Vhydrogel
p3312
aVconcentr
p3313
aVpolym
p3314
aVsolut
p3315
aVmembran
p3316
aVform
p3317
aVcan
p3318
aVdecant
p3319
aVcollect
p3320
aVad
p3321
asI7506791
(lp3322
Vanvil
p3323
aVcartridg
p3324
aVassembl
p3325
aVsupport
p3326
aVcompress
p3327
aVclosur
p3328
aVinstrument
p3329
aVstapl
p3330
aVsurgic
p3331
aVfire
p3332
asI5037416
(lp3333
Vtopsheet
p3334
aVdiaper
p3335
aVlamina
p3336
aVwearer
p3337
aVelong
p3338
aVrelat
p3339
aVlamin
p3340
aVextens
p3341
aVlow
p3342
aVelast
p3343
asI7753904
(lp3344
Veffector
p3345
aVtrocar
p3346
aVendoscop
p3347
aVshaft
p3348
aVhandl
p3349
aVelong
p3350
aVportion
p3351
aVdistal
p3352
aVproxim
p3353
aVarticul
p3354
asI5389202
(lp3355
Vpulp
p3356
aVnonwoven
p3357
aVfabric
p3358
aVcontent
p3359
aVcomposit
p3360
aVhigh
p3361
aVabsorb
p3362
aVentangl
p3363
aVwiper
p3364
aVmateri
p3365
asI7195624
(lp3366
Vbandag
p3367
aVwound
p3368
aVvacuum
p3369
aVvent
p3370
aVpassageway
p3371
aVcommunic
p3372
aVcreat
p3373
aVirrig
p3374
aVheal
p3375
aVventil
p3376
asI5151092
(lp3377
Velastic
p3378
aVwaistband
p3379
aVzone
p3380
aVpanel
p3381
aVwaist
p3382
aVflexur
p3383
aVwaistlin
p3384
aVhing
p3385
aVpredispos
p3386
aVdynam
p3387
asI6379383
(lp3388
Vendolumin
p3389
aVstent
p3390
aVheterogen
p3391
aVblood
p3392
aVmateri
p3393
aVendotheli
p3394
aVfabric
p3395
aVimplant
p3396
aVconstitut
p3397
aVvacuum
p3398
asI5200248
(lp3399
Vcapillari
p3400
aVsaid
p3401
aVchannel
p3402
aVabout
p3403
aVstructur
p3404
aVspecif
p3405
aVintrastructur
p3406
aVsup
p3407
aVleast
p3408
aVwall
p3409
asI6544249
(lp3410
Vmicrofistula
p3411
aVtube
p3412
aVinnermost
p3413
aVbasement
p3414
aVinner
p3415
aVbiolog
p3416
aVcanal
p3417
aVimplant
p3418
aVdrainag
p3419
aVrod
p3420
asI5695868
(lp3421
Vbreathabl
p3422
aVnonwoven
p3423
aVfilm
p3424
aVbond
p3425
aVcloth
p3426
aVweb
p3427
aVcomposit
p3428
aVincompat
p3429
aVthermal
p3430
aVexampl
p3431
asI5429629
(lp3432
Vsurg
p3433
aVmanag
p3434
aVabsorb
p3435
aVretent
p3436
aVportion
p3437
aVliquid
p3438
aVarticl
p3439
aVuptak
p3440
aVdesorb
p3441
aVstore
p3442
asI7018366
(lp3443
Vgarment
p3444
aVurin
p3445
aVvar
p3446
aVrelief
p3447
aVpump
p3448
aVbreast
p3449
aVvacuum
p3450
aVmanifold
p3451
aVaircrew
p3452
aVunderwear
p3453
asI7731072
(lp3454
Vanvil
p3455
aVassembl
p3456
aVknife
p3457
aVtrunnion
p3458
aVelong
p3459
aVchannel
p3460
aVdetach
p3461
aVstapl
p3462
aVslot
p3463
aVconfigur
p3464
asI5681302
(lp3465
Vsheet
p3466
aVelast
p3467
aVstrand
p3468
aVlike
p3469
aVcomposit
p3470
aVequip
p3471
aVbond
p3472
aVextrud
p3473
aVpant
p3474
aVnovel
p3475
asI7845537
(lp3476
Veffector
p3477
aVsurgic
p3478
aVinstrument
p3479
aVsensor
p3480
aVtrigger
p3481
aVmemori
p3482
aVfirst
p3483
aVoutput
p3484
aVrecord
p3485
aVend
p3486
asI5149576
(lp3487
Vlaminifer
p3488
aVnonwoven
p3489
aVmultilay
p3490
aVextrud
p3491
aVstructur
p3492
aVmelt
p3493
aVlayer
p3494
aVtwo
p3495
aVleast
p3496
aVhas
p3497
asI5514121
(lp3498
Vdiaper
p3499
aVspacer
p3500
aVfecal
p3501
aVtopsheet
p3502
aVexpuls
p3503
aVbacksheet
p3504
aVsanit
p3505
aVtoilet
p3506
aVexpel
p3507
aVdiscard
p3508
asI6436234
(lp3509
Vwet
p3510
aVpulp
p3511
aVchemithermomechan
p3512
aVuncrep
p3513
aVthroughdri
p3514
aVcrumpl
p3515
aVpaper
p3516
aVresili
p3517
aVnapkin
p3518
aVfiber
p3519
asI5149335
(lp3520
Vsuperabsorb
p3521
aVaul
p3522
aVabsorb
p3523
aVmateri
p3524
aVabout
p3525
aVstructur
p3526
aVswell
p3527
aVweight
p3528
aVgarment
p3529
aVcontain
p3530
asI6167948
(lp3531
Vplanar
p3532
aVcapillari
p3533
aVregion
p3534
aVvoid
p3535
aVbodi
p3536
aVhot
p3537
aVheat
p3538
aVpath
p3539
aVcapillar
p3540
aVfluid
p3541
asI7922061
(lp3542
Varticul
p3543
aVeffector
p3544
aVinstrument
p3545
aVsurgic
p3546
aVarticulat
p3547
aVjoint
p3548
aVunit
p3549
aVend
p3550
aVshaft
p3551
aVsensor
p3552
asI4781966
(lp3553
Vnonelast
p3554
aVspunlac
p3555
aVpolyetherest
p3556
aVnonwoven
p3557
aVweb
p3558
aVelast
p3559
aVpolyest
p3560
aVmeltblown
p3561
aVlamin
p3562
aVrayon
p3563
asI6107537
(lp3564
sI5294482
(lp3565
Vnoncontinu
p3566
aVmulticonstitu
p3567
aVphase
p3568
aVnonwoven
p3569
aVfiber
p3570
aVfabric
p3571
aVpolym
p3572
aVpmt
p3573
aVcsr
p3574
aVdomain
p3575
asI5595567
(lp3576
Vnonwoven
p3577
aVweb
p3578
aVorient
p3579
aVback
p3580
aVbond
p3581
aVrelax
p3582
aVunsecur
p3583
aVpattern
p3584
aVregion
p3585
aVelong
p3586
asI7544206
(lp3587
Vcathet
p3588
aVheart
p3589
aVremain
p3590
aVcarri
p3591
aVdevic
p3592
aVassembl
p3593
aVleft
p3594
aVmitral
p3595
aVatrium
p3596
aVaorta
p3597
asI6736791
(lp3598
Vhumor
p3599
aVglaucoma
p3600
aVsection
p3601
aVaqueous
p3602
aVlumen
p3603
aVmiddl
p3604
aVmeshwork
p3605
aVtrabecular
p3606
aVoutlet
p3607
aVtreatment
p3608
asI7837080
(lp3609
Vstapl
p3610
aVinstrument
p3611
aVtissu
p3612
aVcut
p3613
aVsurgic
p3614
aVfeedback
p3615
aVsurgeon
p3616
aVanvil
p3617
aVknife
p3618
aVcartridg
p3619
asI7604150
(lp3620
Vfire
p3621
aVbrake
p3622
aVband
p3623
aVstapl
p3624
aVreel
p3625
aVmember
p3626
aVsurgic
p3627
aVinstrument
p3628
aVcut
p3629
aVcan
p3630
asI5306266
(lp3631
Vspacer
p3632
aVdiscret
p3633
aVabsorb
p3634
aVarticl
p3635
aVcover
p3636
aVouter
p3637
aVfecal
p3638
aVelement
p3639
aVload
p3640
aVflexur
p3641
asI5318555
(lp3642
Varticl
p3643
aVloop
p3644
aVattach
p3645
aVabsorb
p3646
aVpanel
p3647
aVintermitt
p3648
aVhook
p3649
aVmember
p3650
aVtension
p3651
aVsystem
p3652
asI5997981
(lp3653
Vprebond
p3654
aVfasten
p3655
aVcompon
p3656
aVloop
p3657
aVhydrohead
p3658
aVmvtr
p3659
aVmbar
p3660
aVlamin
p3661
aVcomposit
p3662
aVbreathabl
p3663
asI5192606
(lp3664
Vbodysid
p3665
aVwaistband
p3666
aVbacksheet
p3667
aVliner
p3668
aVabsorb
p3669
aVlayer
p3670
aVtransfer
p3671
aVsection
p3672
aVabout
p3673
aVdpf
p3674
asI5354400
(lp3675
Vflap
p3676
aVzone
p3677
aVundergar
p3678
aVabsorb
p3679
aVarticl
p3680
aVnapkin
p3681
aVcrotch
p3682
aVsanitari
p3683
aVreliev
p3684
aVmake
p3685
asI7913891
(lp3686
Vstapl
p3687
aVload
p3688
aVsurgic
p3689
aVunit
p3690
aVfeedback
p3691
aVblade
p3692
aVdispos
p3693
aVexperienc
p3694
aVspent
p3695
aVindic
p3696
asI5358500
(lp3697
Vwearer
p3698
aVabsorb
p3699
aVarticl
p3700
aVfit
p3701
aVsustain
p3702
aVelast
p3703
aVdynam
p3704
aVdiaper
p3705
aVdesign
p3706
aVfeatur
p3707
asI5591152
(lp3708
Velastic
p3709
aVwaistband
p3710
aVzone
p3711
aVpanel
p3712
aVwaist
p3713
aVflexur
p3714
aVwaistlin
p3715
aVhing
p3716
aVpredispos
p3717
aVdynam
p3718
asI7658311
(lp3719
Vfire
p3720
aVgear
p3721
aVmember
p3722
aVeffector
p3723
aVdrive
p3724
aVpawl
p3725
aVrevers
p3726
aVengag
p3727
aVcut
p3728
aVsurgic
p3729
asI7669746
(lp3730
Vstapl
p3731
aVcartridg
p3732
aVactuat
p3733
aVanvil
p3734
aVdriver
p3735
aVheight
p3736
aVvarious
p3737
aVmovabl
p3738
aVform
p3739
aVembodi
p3740
asI5334446
(lp3741
Vhydroentangl
p3742
aVnet
p3743
aVelastomer
p3744
aVnonwoven
p3745
aVweb
p3746
aVelast
p3747
aVfibrous
p3748
aVfabric
p3749
aVbinder
p3750
aVhydro
p3751
asI5114781
(lp3752
Velast
p3753
aVneck
p3754
aVmateri
p3755
aVrevers
p3756
aVstretch
p3757
aVcomposit
p3758
aVleast
p3759
aVsheet
p3760
aVnonlinear
p3761
aVgather
p3762
asI7588176
(lp3763
Vclosur
p3764
aVsurgic
p3765
aVanvil
p3766
aVinstrument
p3767
aVassembl
p3768
aVmotion
p3769
aVvarious
p3770
aVlockabl
p3771
aVknife
p3772
aVarticul
p3773
asI7792562
(lp3774
Vanalyt
p3775
aVmicroarchitectur
p3776
aVdevic
p3777
aVimplant
p3778
aVmonitor
p3779
aVglucos
p3780
aVlevel
p3781
aVallow
p3782
aVdetermin
p3783
aVblood
p3784
asI7669747
(lp3785
Vstapl
p3786
aVwasher
p3787
aVsurgic
p3788
aVstapler
p3789
aVanvil
p3790
aVcircular
p3791
aVbioabsorb
p3792
aVbreakaway
p3793
aVguid
p3794
aVpunctur
p3795
asI7673780
(lp3796
Varticul
p3797
aVsurgic
p3798
aVinstrument
p3799
aVtrocar
p3800
aVeffector
p3801
aVjoint
p3802
aVendocutt
p3803
aVmoment
p3804
aVarm
p3805
aVmust
p3806
asI5490846
(lp3807
Vnonwoven
p3808
aVabout
p3809
aVcentimet
p3810
aVweb
p3811
aVper
p3812
aVgram
p3813
aVfibrous
p3814
aVpercent
p3815
aVsquar
p3816
aVsurg
p3817
asI5759926
(lp3818
Vfiber
p3819
aVsplittabl
p3820
aVsplit
p3821
aVsegment
p3822
aVconjug
p3823
aVfabric
p3824
aVdenier
p3825
aVincompat
p3826
aVfibril
p3827
aVdissoci
p3828
asI7604151
(lp3829
Vstapl
p3830
aVsurgic
p3831
aVtissu
p3832
aVdeform
p3833
aVproject
p3834
aVpunctur
p3835
aVcompress
p3836
aVdeploy
p3837
aVsoft
p3838
aVmember
p3839
asI5156793
(lp3840
Vstretch
p3841
aVlamin
p3842
aVweb
p3843
aVstrain
p3844
aVpli
p3845
aVzero
p3846
aVelastic
p3847
aVelast
p3848
aVuniform
p3849
aVsaid
p3850
asI7866527
(lp3851
Vhandl
p3852
aVfire
p3853
aVmovabl
p3854
aVlockout
p3855
aVactuat
p3856
aVstapl
p3857
aVsurgic
p3858
aVshaft
p3859
aVassembl
p3860
aVmanipul
p3861
asI5540796
(lp3862
Vweb
p3863
aVpanel
p3864
aVside
p3865
aVbridg
p3866
aVelastic
p3867
aVmateri
p3868
aVsecond
p3869
aVappoint
p3870
aVfirst
p3871
aVlater
p3872
asI6375871
(lp3873
Vmold
p3874
aVmicrofluid
p3875
aVarticl
p3876
aVmoldabl
p3877
aVarchitectur
p3878
aVimprint
p3879
aVprocess
p3880
aVbring
p3881
aVmateri
p3882
aVpolymer
p3883
asI7093664
(lp3884
Vfiber
p3885
aVresin
p3886
aVbiodegrad
p3887
aVdegrad
p3888
aVpolyanhydrid
p3889
aVlactid
p3890
aVform
p3891
aVtool
p3892
aVpolym
p3893
aVcoat
p3894
asI4789699
(lp3895
Vnonwoven
p3896
aVelastomer
p3897
aVsheet
p3898
aVweb
p3899
aVmateri
p3900
aVlamin
p3901
aVgather
p3902
aVbond
p3903
aVmeltblown
p3904
aVtension
p3905
asI6645190
(lp3906
Vrefasten
p3907
aVabsorb
p3908
aVwaist
p3909
aVarticl
p3910
aVattach
p3911
aVfasten
p3912
aVpant
p3913
aVpanel
p3914
aVirrit
p3915
aVhip
p3916
asI4652487
(lp3917
sI5387209
(lp3918
Vtopsheet
p3919
aVabsorb
p3920
aVfibr
p3921
aVmeshi
p3922
aVsaid
p3923
aVarticl
p3924
aVcore
p3925
aVpassag
p3926
aVfig
p3927
aVfluid
p3928
asI7721931
(lp3929
Vtranspond
p3930
aVsurgic
p3931
aVinstrument
p3932
aVwireless
p3933
aVcartridg
p3934
aVstapl
p3935
aVstate
p3936
aVsignal
p3937
aVelectron
p3938
aVreus
p3939
asI7721934
(lp3940
Vinstrument
p3941
aVeffector
p3942
aVtrigger
p3943
aVcut
p3944
aVclosur
p3945
aVdrive
p3946
aVsurgic
p3947
aVshaft
p3948
aVactuat
p3949
aVend
p3950
asI5672399
(lp3951
Vfilter
p3952
aVmedia
p3953
aVfiber
p3954
aVcoars
p3955
aVfine
p3956
aVconstruct
p3957
aVprefer
p3958
aVdisclosur
p3959
aVsupport
p3960
aVadvantag
p3961
asI7721936
(lp3962
Vinstrument
p3963
aVeffector
p3964
aVcut
p3965
aVmotor
p3966
aVinterlock
p3967
aVsurgic
p3968
aVmost
p3969
aVactuat
p3970
aVend
p3971
aVcurrent
p3972
asI5938648
(lp3973
Velastom
p3974
aVfilm
p3975
aVabsorb
p3976
aVhydrophil
p3977
aVbacksheet
p3978
aVsubstanti
p3979
aVarticl
p3980
aVlayer
p3981
aVsheet
p3982
aVfibrous
p3983
asI8157145
(lp3984
Vpneumat
p3985
aVsurgic
p3986
aVinstrument
p3987
aVpower
p3988
aVsensor
p3989
aVleast
p3990
aVcontact
p3991
aVelectr
p3992
aVfluidic
p3993
aVhous
p3994
asI5554142
(lp3995
Vpartit
p3996
aVdiaper
p3997
aVtransvers
p3998
aVheight
p3999
aVfecal
p4000
aVtopsheet
p4001
aVabrupt
p4002
aVlesser
p4003
aVupstand
p4004
aVobstruct
p4005
asI6855135
(lp4006
Vwound
p4007
aVdress
p4008
aVvacuum
p4009
aVface
p4010
aVsurfac
p4011
aVmember
p4012
aVbandag
p4013
aVhole
p4014
aVcleans
p4015
aVsourc
p4016
asI5336545
(lp4017
Vneck
p4018
aVelast
p4019
aVmateri
p4020
aVbond
p4021
aVneckabl
p4022
aVcomposit
p4023
aVjoin
p4024
aVsheet
p4025
aVstretchabl
p4026
aVconstrict
p4027
asI5439458
(lp4028
Vabsorb
p4029
aVlayer
p4030
aVacquisit
p4031
aVarticl
p4032
aVcore
p4033
aVtopsheet
p4034
aVbacksheet
p4035
aVmultipl
p4036
aVcentimet
p4037
aVacquir
p4038
asI6936037
(lp4039
Vftc
p4040
aVunderdrap
p4041
aVpatient
p4042
aVsuction
p4043
aVclosur
p4044
aVmanual
p4045
aVtissu
p4046
aVplace
p4047
aVfluid
p4048
aVinterfac
p4049
asI5336552
(lp4050
Vmulticompon
p4051
aVstrand
p4052
aVnonwoven
p4053
aVpolymer
p4054
aVfabric
p4055
aVmeltblown
p4056
aVtough
p4057
aVpolyolefin
p4058
aVmade
p4059
aVsheath
p4060
asI5990377
(lp4061
Vbasesheet
p4062
aVhydrophob
p4063
aVabsorb
p4064
aVregion
p4065
aVliner
p4066
aVweb
p4067
aVfeel
p4068
aVelev
p4069
aVhydrophil
p4070
aVdepress
p4071
asI5496298
(lp4072
Velastomer
p4073
aVedg
p4074
aVear
p4075
aVdistal
p4076
aVabsorb
p4077
aVproxim
p4078
aVarticl
p4079
aVconnect
p4080
aVdispos
p4081
aVlonger
p4082
asI7665646
(lp4083
Vbuttress
p4084
aVjaw
p4085
aVanvil
p4086
aVstapl
p4087
aVmateri
p4088
aVcartridg
p4089
aVpost
p4090
aVend
p4091
aVstapler
p4092
aVpair
p4093
asI6610173
(lp4094
Vdeflect
p4095
aVimprint
p4096
aVweb
p4097
aVasymmetr
p4098
aVprotrus
p4099
aVimprov
p4100
aVtissu
p4101
aVevent
p4102
aVpress
p4103
aVdensifi
p4104
asI5226992
(lp4105
Vneck
p4106
aVelast
p4107
aVmateri
p4108
aVbond
p4109
aVneckabl
p4110
aVcomposit
p4111
aVjoin
p4112
aVsheet
p4113
aVstretchabl
p4114
aVconstrict
p4115
asI6685681
(lp4116
Vwound
p4117
aVdress
p4118
aVsuction
p4119
aVbandag
p4120
aVmember
p4121
aVvacuum
p4122
aVport
p4123
aVhole
p4124
aVcleans
p4125
aVsurfac
p4126
asI6039302
(lp4127
sI4981747
(lp4128
Vneck
p4129
aVmateri
p4130
aVelast
p4131
aVrevers
p4132
aVneckabl
p4133
aVdimens
p4134
aVjoin
p4135
aVcomposit
p4136
aVsheet
p4137
aVleast
p4138
asI5804021
(lp4139
Vnonwoven
p4140
aVlamin
p4141
aVfibrous
p4142
aVelast
p4143
aVgarment
p4144
aVslit
p4145
aVweb
p4146
aVbandag
p4147
aVnapkin
p4148
aVpant
p4149
asI6120487
(lp4150
Vpanel
p4151
aVwaistband
p4152
aVrash
p4153
aVskin
p4154
aVproblem
p4155
aVleg
p4156
aVvapor
p4157
aVpull
p4158
aVreduc
p4159
aVpant
p4160
asI7195641
(lp4161
Vpseudometal
p4162
aVvenous
p4163
aVprosthet
p4164
aVcardiac
p4165
aVvalv
p4166
aVsepta
p4167
aVvalvular
p4168
aVmetal
p4169
aVprosthes
p4170
aVpercutan
p4171
asI5649914
(lp4172
Vtoilet
p4173
aVsensat
p4174
aVtrain
p4175
aVaid
p4176
aVurin
p4177
aVgarment
p4178
aVconsum
p4179
aVpad
p4180
aVnotic
p4181
aVfeel
p4182
astp4183
.