((lp0
I4340563
aI4436780
aI4652487
aI4655760
aI4657802
aI4668566
aI4720415
aI4789699
aI5145727
aI5169712
aI5178931
aI5188885
aI5213881
aI5336552
aI5382400
aI5486166
aI5490846
aI5509913
aI5536555
aI5695868
aI5759926
aI5820973
aI5883028
aI5932299
aI5997981
aI6015764
aI4798603
aI4863785
aI5192606
aI5364382
aI5429629
aI5509915
aI5672399
aI4781966
aI4857067
aI4965122
aI4981747
aI5114781
aI5116662
aI5143679
aI5156793
aI5167897
aI5226992
aI5336545
aI5385775
aI5472775
aI4847134
aI4891258
aI4938753
aI4938757
aI4940464
aI4990147
aI5037416
aI5151092
aI5171239
aI5269775
aI5527302
aI5611790
aI6645190
aI5200248
aI5277976
aI4861652
aI4939016
aI6096668
aI6225243
aI5938648
aI5562646
aI5599335
aI5669894
aI5843056
aI5698322
aI6135987
aI5990377
aI6379383
aI6537310
aI6695865
aI6746773
aI6849085
aI7108701
aI7195641
aI7792562
aI5147343
aI5147345
aI5149335
aI5217445
aI5342338
aI5360420
aI5387207
aI5439458
aI5496298
aI5562650
aI5601542
aI5911222
aI6036805
aI6107537
aI5294482
aI5300054
aI5399219
aI5540796
aI5595618
aI5846232
aI6179890
aI6673136
aI5242436
aI5246433
aI5591152
aI5669897
aI6004306
aI5645542
aI5580411
aI6120487
aI5334446
aI5393599
aI5554145
aI5957908
aI5897545
aI6120489
aI5370634
aI5458590
aI5569234
aI5766389
aI5171236
aI5306266
aI5358500
aI5624427
aI6039302
aI5865823
aI6420622
aI5108827
aI5284703
aI5389202
aI6156842
aI7186265
aI6865810
aI7506791
aI7588175
aI7588176
aI7604151
aI7607557
aI7669746
aI7669747
aI7673781
aI7673782
aI7731072
aI7735703
aI7794475
aI5770086
aI6271278
aI5397316
aI6685681
aI6752794
aI6800074
aI6855135
aI6936037
aI6951553
aI6979324
aI7022113
aI7195624
aI6758863
aI7597229
aI7604150
aI7658311
aI7673780
aI7721931
aI7721934
aI7721936
aI7738971
aI7753245
aI7753904
aI7799039
aI7810693
aI7819299
aI7832408
aI7845537
aI7905380
aI7918377
aI7819296
aI7819297
aI7819298
aI7832612
aI7837080
aI7857186
aI7861906
aI7866527
aI7905381
aI7922061
a(lp1
(lp2
I4340563
aa(lp3
I4436780
aI4652487
aI4655760
aI4657802
aI4668566
aI4720415
aI4789699
aI5145727
aI5169712
aI5178931
aI5188885
aI5213881
aI5336552
aI5382400
aI5486166
aI5490846
aI5509913
aI5536555
aI5695868
aI5759926
aI5820973
aI5883028
aI5932299
aI5997981
aI6015764
aa(lp4
I4798603
aI4863785
aI5192606
aI5364382
aI5429629
aI5509915
aI5672399
aI4781966
aI4857067
aI4965122
aI4981747
aI5114781
aI5116662
aI5143679
aI5156793
aI5167897
aI5226992
aI5336545
aI5385775
aI5472775
aI4847134
aI4891258
aI4938753
aI4938757
aI4940464
aI4990147
aI5037416
aI5151092
aI5171239
aI5269775
aI5527302
aI5611790
aI6645190
aI5200248
aI5277976
aI4861652
aI4939016
aI6096668
aI6225243
aI5938648
aI5562646
aI5599335
aI5669894
aI5843056
aI5698322
aI6135987
aI5990377
aI6379383
aI6537310
aI6695865
aI6746773
aI6849085
aI7108701
aI7195641
aI7792562
aa(lp5
I5147343
aI5147345
aI5149335
aI5217445
aI5342338
aI5360420
aI5387207
aI5439458
aI5496298
aI5562650
aI5601542
aI5911222
aI6036805
aI6107537
aI5294482
aI5300054
aI5399219
aI5540796
aI5595618
aI5846232
aI6179890
aI6673136
aI5242436
aI5246433
aI5591152
aI5669897
aI6004306
aI5645542
aI5580411
aI6120487
aI5334446
aI5393599
aI5554145
aI5957908
aI5897545
aI6120489
aI5370634
aI5458590
aI5569234
aI5766389
aI5171236
aI5306266
aI5358500
aI5624427
aI6039302
aI5865823
aI6420622
aI5108827
aI5284703
aI5389202
aI6156842
aI7186265
aI6865810
aI7506791
aI7588175
aI7588176
aI7604151
aI7607557
aI7669746
aI7669747
aI7673781
aI7673782
aI7731072
aI7735703
aI7794475
aa(lp6
I5770086
aI6271278
aI5397316
aI6685681
aI6752794
aI6800074
aI6855135
aI6936037
aI6951553
aI6979324
aI7022113
aI7195624
aI6758863
aI7597229
aI7604150
aI7658311
aI7673780
aI7721931
aI7721934
aI7721936
aI7738971
aI7753245
aI7753904
aI7799039
aI7810693
aI7819299
aI7832408
aI7845537
aI7905380
aI7918377
aI7819296
aI7819297
aI7819298
aI7832612
aI7837080
aI7857186
aI7861906
aI7866527
aI7905381
aI7922061
aa(lp7
(I4340563
I4436780
tp8
a(I4340563
I4652487
tp9
a(I4340563
I4655760
tp10
a(I4340563
I4657802
tp11
a(I4340563
I4668566
tp12
a(I4340563
I4720415
tp13
a(I4340563
I4789699
tp14
a(I4340563
I5145727
tp15
a(I4340563
I5169712
tp16
a(I4340563
I5178931
tp17
a(I4340563
I5188885
tp18
a(I4340563
I5213881
tp19
a(I4340563
I5336552
tp20
a(I4340563
I5382400
tp21
a(I4340563
I5486166
tp22
a(I4340563
I5490846
tp23
a(I4340563
I5509913
tp24
a(I4340563
I5536555
tp25
a(I4340563
I5695868
tp26
a(I4340563
I5759926
tp27
a(I4340563
I5820973
tp28
a(I4340563
I5883028
tp29
a(I4340563
I5932299
tp30
a(I4340563
I5997981
tp31
a(I4340563
I6015764
tp32
a(I4436780
I4668566
tp33
a(I4436780
I4798603
tp34
a(I4436780
I4863785
tp35
a(I4436780
I5145727
tp36
a(I4436780
I5178931
tp37
a(I4436780
I5192606
tp38
a(I4436780
I5364382
tp39
a(I4436780
I5429629
tp40
a(I4436780
I5509915
tp41
a(I4436780
I5672399
tp42
a(I4436780
I6015764
tp43
a(I4652487
I4781966
tp44
a(I4652487
I4857067
tp45
a(I4652487
I4965122
tp46
a(I4652487
I4981747
tp47
a(I4652487
I5114781
tp48
a(I4652487
I5116662
tp49
a(I4652487
I5143679
tp50
a(I4652487
I5156793
tp51
a(I4652487
I5167897
tp52
a(I4652487
I5226992
tp53
a(I4652487
I5336545
tp54
a(I4652487
I5385775
tp55
a(I4652487
I5472775
tp56
a(I4652487
I5536555
tp57
a(I4652487
I5695868
tp58
a(I4652487
I6015764
tp59
a(I4655760
I4847134
tp60
a(I4655760
I4891258
tp61
a(I4655760
I4938753
tp62
a(I4655760
I4938757
tp63
a(I4655760
I4940464
tp64
a(I4655760
I4990147
tp65
a(I4655760
I5037416
tp66
a(I4655760
I5151092
tp67
a(I4655760
I5171239
tp68
a(I4655760
I5269775
tp69
a(I4655760
I5472775
tp70
a(I4655760
I5527302
tp71
a(I4655760
I5611790
tp72
a(I4655760
I6645190
tp73
a(I4657802
I4781966
tp74
a(I4657802
I4857067
tp75
a(I4657802
I4965122
tp76
a(I4657802
I4981747
tp77
a(I4657802
I5114781
tp78
a(I4657802
I5116662
tp79
a(I4657802
I5143679
tp80
a(I4657802
I5156793
tp81
a(I4657802
I5167897
tp82
a(I4657802
I5226992
tp83
a(I4657802
I5336545
tp84
a(I4657802
I5385775
tp85
a(I4657802
I5472775
tp86
a(I4657802
I5536555
tp87
a(I4657802
I5611790
tp88
a(I4657802
I5695868
tp89
a(I4657802
I5883028
tp90
a(I4657802
I6645190
tp91
a(I4668566
I4981747
tp92
a(I4668566
I5114781
tp93
a(I4668566
I5116662
tp94
a(I4668566
I5145727
tp95
a(I4668566
I5178931
tp96
a(I4668566
I5200248
tp97
a(I4668566
I5226992
tp98
a(I4668566
I5277976
tp99
a(I4668566
I5336545
tp100
a(I4668566
I5536555
tp101
a(I4668566
I6015764
tp102
a(I4720415
I4781966
tp103
a(I4720415
I4847134
tp104
a(I4720415
I4861652
tp105
a(I4720415
I4891258
tp106
a(I4720415
I4939016
tp107
a(I4720415
I4965122
tp108
a(I4720415
I4981747
tp109
a(I4720415
I5114781
tp110
a(I4720415
I5116662
tp111
a(I4720415
I5143679
tp112
a(I4720415
I5156793
tp113
a(I4720415
I5167897
tp114
a(I4720415
I5226992
tp115
a(I4720415
I5336545
tp116
a(I4720415
I5385775
tp117
a(I4720415
I5472775
tp118
a(I4720415
I5536555
tp119
a(I4720415
I5695868
tp120
a(I4720415
I5883028
tp121
a(I4720415
I6015764
tp122
a(I4720415
I6096668
tp123
a(I4720415
I6225243
tp124
a(I4720415
I6645190
tp125
a(I4789699
I5037416
tp126
a(I4789699
I5114781
tp127
a(I4789699
I5116662
tp128
a(I4789699
I5226992
tp129
a(I4789699
I5336545
tp130
a(I4789699
I5336552
tp131
a(I4789699
I5382400
tp132
a(I4789699
I5938648
tp133
a(I4789699
I6096668
tp134
a(I4789699
I6645190
tp135
a(I5145727
I5562646
tp136
a(I5145727
I5599335
tp137
a(I5145727
I5669894
tp138
a(I5169712
I5695868
tp139
a(I5169712
I5843056
tp140
a(I5169712
I6015764
tp141
a(I5188885
I6015764
tp142
a(I5188885
I6096668
tp143
a(I5336552
I5698322
tp144
a(I5336552
I5820973
tp145
a(I5336552
I6135987
tp146
a(I5336552
I6225243
tp147
a(I5382400
I5698322
tp148
a(I5382400
I5759926
tp149
a(I5382400
I5820973
tp150
a(I5382400
I6015764
tp151
a(I5382400
I6096668
tp152
a(I5382400
I6225243
tp153
a(I5486166
I5820973
tp154
a(I5490846
I5820973
tp155
a(I5536555
I5990377
tp156
a(I5536555
I6015764
tp157
a(I5695868
I5997981
tp158
a(I5932299
I6379383
tp159
a(I5932299
I6537310
tp160
a(I5932299
I6695865
tp161
a(I5932299
I6746773
tp162
a(I5932299
I6849085
tp163
a(I5932299
I7108701
tp164
a(I5932299
I7195641
tp165
a(I5932299
I7792562
tp166
a(I5997981
I6645190
tp167
a(I4798603
I5147343
tp168
a(I4798603
I5147345
tp169
a(I4798603
I5149335
tp170
a(I4798603
I5217445
tp171
a(I4798603
I5342338
tp172
a(I4798603
I5360420
tp173
a(I4798603
I5364382
tp174
a(I4798603
I5387207
tp175
a(I4798603
I5429629
tp176
a(I4798603
I5439458
tp177
a(I4798603
I5486166
tp178
a(I4798603
I5490846
tp179
a(I4798603
I5496298
tp180
a(I4798603
I5509913
tp181
a(I4798603
I5509915
tp182
a(I4798603
I5562650
tp183
a(I4798603
I5601542
tp184
a(I4798603
I5698322
tp185
a(I4798603
I5820973
tp186
a(I4798603
I5843056
tp187
a(I4798603
I5911222
tp188
a(I4798603
I6036805
tp189
a(I4798603
I6096668
tp190
a(I4798603
I6107537
tp191
a(I4798603
I6135987
tp192
a(I4863785
I5294482
tp193
a(I4863785
I6645190
tp194
a(I5192606
I5300054
tp195
a(I5192606
I5342338
tp196
a(I5192606
I5399219
tp197
a(I5192606
I5439458
tp198
a(I5192606
I5486166
tp199
a(I5192606
I5490846
tp200
a(I5192606
I5509913
tp201
a(I5192606
I5540796
tp202
a(I5192606
I5562650
tp203
a(I5192606
I5595618
tp204
a(I5192606
I5601542
tp205
a(I5192606
I5820973
tp206
a(I5192606
I5843056
tp207
a(I5192606
I6036805
tp208
a(I5364382
I5601542
tp209
a(I5364382
I5820973
tp210
a(I5429629
I5820973
tp211
a(I5429629
I5846232
tp212
a(I5429629
I6096668
tp213
a(I5509915
I5820973
tp214
a(I5509915
I5843056
tp215
a(I5509915
I6036805
tp216
a(I5672399
I6179890
tp217
a(I5672399
I6673136
tp218
a(I4781966
I4965122
tp219
a(I4781966
I5385775
tp220
a(I4781966
I5472775
tp221
a(I4781966
I5536555
tp222
a(I4857067
I5143679
tp223
a(I4857067
I5151092
tp224
a(I4857067
I5156793
tp225
a(I4857067
I5167897
tp226
a(I4857067
I5242436
tp227
a(I4857067
I5246433
tp228
a(I4857067
I5399219
tp229
a(I4857067
I5527302
tp230
a(I4857067
I5591152
tp231
a(I4857067
I5595618
tp232
a(I4857067
I5611790
tp233
a(I4857067
I5669897
tp234
a(I4857067
I5846232
tp235
a(I4857067
I5938648
tp236
a(I4857067
I6004306
tp237
a(I4857067
I6036805
tp238
a(I4965122
I5472775
tp239
a(I4965122
I5611790
tp240
a(I4965122
I5883028
tp241
a(I4965122
I6096668
tp242
a(I4981747
I5114781
tp243
a(I4981747
I5116662
tp244
a(I4981747
I5143679
tp245
a(I4981747
I5156793
tp246
a(I4981747
I5167897
tp247
a(I4981747
I5226992
tp248
a(I4981747
I5336545
tp249
a(I4981747
I5385775
tp250
a(I4981747
I5472775
tp251
a(I4981747
I5536555
tp252
a(I4981747
I5695868
tp253
a(I4981747
I5883028
tp254
a(I4981747
I6015764
tp255
a(I5114781
I5536555
tp256
a(I5114781
I5611790
tp257
a(I5114781
I5645542
tp258
a(I5114781
I5883028
tp259
a(I5114781
I6096668
tp260
a(I5114781
I6645190
tp261
a(I5116662
I5472775
tp262
a(I5116662
I5611790
tp263
a(I5116662
I5695868
tp264
a(I5116662
I5883028
tp265
a(I5116662
I6645190
tp266
a(I5143679
I5536555
tp267
a(I5143679
I5611790
tp268
a(I5143679
I5669897
tp269
a(I5143679
I5695868
tp270
a(I5143679
I5846232
tp271
a(I5143679
I6004306
tp272
a(I5143679
I6015764
tp273
a(I5156793
I5580411
tp274
a(I5156793
I5611790
tp275
a(I5156793
I5846232
tp276
a(I5167897
I5580411
tp277
a(I5167897
I5669897
tp278
a(I5167897
I5846232
tp279
a(I5167897
I6004306
tp280
a(I5226992
I5399219
tp281
a(I5226992
I5496298
tp282
a(I5226992
I5540796
tp283
a(I5226992
I5595618
tp284
a(I5226992
I5846232
tp285
a(I5226992
I5883028
tp286
a(I5226992
I6036805
tp287
a(I5226992
I6645190
tp288
a(I5336545
I5883028
tp289
a(I5336545
I6015764
tp290
a(I5385775
I6096668
tp291
a(I5385775
I6645190
tp292
a(I5472775
I6015764
tp293
a(I5472775
I6096668
tp294
a(I5472775
I6120487
tp295
a(I4847134
I5151092
tp296
a(I4847134
I5242436
tp297
a(I4847134
I5334446
tp298
a(I4847134
I5393599
tp299
a(I4847134
I5536555
tp300
a(I4847134
I5554145
tp301
a(I4847134
I5591152
tp302
a(I4847134
I5611790
tp303
a(I4847134
I5957908
tp304
a(I4847134
I6015764
tp305
a(I4847134
I6096668
tp306
a(I4847134
I6645190
tp307
a(I4891258
I5536555
tp308
a(I4891258
I5611790
tp309
a(I4891258
I6096668
tp310
a(I4938753
I5151092
tp311
a(I4938753
I5242436
tp312
a(I4938753
I5246433
tp313
a(I4938753
I5399219
tp314
a(I4938753
I5472775
tp315
a(I4938753
I5527302
tp316
a(I4938753
I5580411
tp317
a(I4938753
I5595618
tp318
a(I4938753
I5669897
tp319
a(I4938753
I5897545
tp320
a(I4938753
I5938648
tp321
a(I4938753
I6004306
tp322
a(I4938753
I6036805
tp323
a(I4938753
I6120489
tp324
a(I4938757
I5151092
tp325
a(I4938757
I5242436
tp326
a(I4938757
I5246433
tp327
a(I4938757
I5472775
tp328
a(I4938757
I5509913
tp329
a(I4938757
I5527302
tp330
a(I4938757
I5669897
tp331
a(I4938757
I5897545
tp332
a(I4938757
I6004306
tp333
a(I4938757
I6120487
tp334
a(I4938757
I6120489
tp335
a(I4938757
I6645190
tp336
a(I4940464
I5037416
tp337
a(I4940464
I5151092
tp338
a(I4940464
I5242436
tp339
a(I4940464
I5246433
tp340
a(I4940464
I5370634
tp341
a(I4940464
I5458590
tp342
a(I4940464
I5472775
tp343
a(I4940464
I5509913
tp344
a(I4940464
I5527302
tp345
a(I4940464
I5569234
tp346
a(I4940464
I5580411
tp347
a(I4940464
I5591152
tp348
a(I4940464
I5669897
tp349
a(I4940464
I5766389
tp350
a(I4940464
I5897545
tp351
a(I4940464
I6004306
tp352
a(I4940464
I6645190
tp353
a(I4990147
I5171236
tp354
a(I4990147
I5269775
tp355
a(I4990147
I5306266
tp356
a(I4990147
I5342338
tp357
a(I4990147
I5439458
tp358
a(I4990147
I5527302
tp359
a(I5037416
I5171236
tp360
a(I5037416
I5269775
tp361
a(I5037416
I5306266
tp362
a(I5037416
I5342338
tp363
a(I5037416
I5472775
tp364
a(I5037416
I5527302
tp365
a(I5037416
I5611790
tp366
a(I5037416
I5846232
tp367
a(I5151092
I5358500
tp368
a(I5151092
I5554145
tp369
a(I5151092
I5591152
tp370
a(I5151092
I5624427
tp371
a(I5151092
I5669897
tp372
a(I5151092
I5846232
tp373
a(I5151092
I5938648
tp374
a(I5151092
I6004306
tp375
a(I5151092
I6645190
tp376
a(I5171239
I5611790
tp377
a(I5171239
I5843056
tp378
a(I5171239
I6039302
tp379
a(I5269775
I5611790
tp380
a(I5527302
I5865823
tp381
a(I5527302
I5897545
tp382
a(I5527302
I5957908
tp383
a(I5527302
I6036805
tp384
a(I5527302
I6645190
tp385
a(I5611790
I5846232
tp386
a(I5200248
I5277976
tp387
a(I5200248
I5820973
tp388
a(I5200248
I6420622
tp389
a(I5277976
I5698322
tp390
a(I5277976
I5820973
tp391
a(I4861652
I5108827
tp392
a(I4861652
I5151092
tp393
a(I4861652
I5242436
tp394
a(I4861652
I5472775
tp395
a(I4861652
I5527302
tp396
a(I4861652
I5540796
tp397
a(I4861652
I6004306
tp398
a(I4861652
I6120487
tp399
a(I4939016
I5284703
tp400
a(I4939016
I5385775
tp401
a(I4939016
I5389202
tp402
a(I4939016
I5393599
tp403
a(I4939016
I6156842
tp404
a(I5562646
I5820973
tp405
a(I5599335
I5820973
tp406
a(I6379383
I7186265
tp407
a(I6537310
I6865810
tp408
a(I7108701
I7506791
tp409
a(I7108701
I7588175
tp410
a(I7108701
I7588176
tp411
a(I7108701
I7604151
tp412
a(I7108701
I7607557
tp413
a(I7108701
I7669746
tp414
a(I7108701
I7669747
tp415
a(I7108701
I7673781
tp416
a(I7108701
I7673782
tp417
a(I7108701
I7731072
tp418
a(I7108701
I7735703
tp419
a(I7108701
I7794475
tp420
a(I5147343
I5342338
tp421
a(I5147343
I5439458
tp422
a(I5147343
I5540796
tp423
a(I5147343
I5562650
tp424
a(I5147343
I5599335
tp425
a(I5147343
I5601542
tp426
a(I5147343
I5669894
tp427
a(I5147343
I5770086
tp428
a(I5147343
I6271278
tp429
a(I5147345
I5300054
tp430
a(I5147345
I5387207
tp431
a(I5147345
I5397316
tp432
a(I5147345
I5429629
tp433
a(I5147345
I5439458
tp434
a(I5147345
I5562650
tp435
a(I5147345
I5820973
tp436
a(I5147345
I5938648
tp437
a(I5149335
I5300054
tp438
a(I5149335
I5439458
tp439
a(I5149335
I5496298
tp440
a(I5149335
I5562646
tp441
a(I5149335
I5599335
tp442
a(I5149335
I5601542
tp443
a(I5149335
I5645542
tp444
a(I5149335
I5669894
tp445
a(I5149335
I6271278
tp446
a(I5217445
I5429629
tp447
a(I5217445
I5439458
tp448
a(I5217445
I5820973
tp449
a(I5360420
I5820973
tp450
a(I5439458
I5820973
tp451
a(I5496298
I5897545
tp452
a(I5496298
I5957908
tp453
a(I5496298
I6645190
tp454
a(I5562650
I5820973
tp455
a(I5562650
I6036805
tp456
a(I5601542
I6096668
tp457
a(I5911222
I6685681
tp458
a(I5911222
I6752794
tp459
a(I5911222
I6800074
tp460
a(I5911222
I6855135
tp461
a(I5911222
I6936037
tp462
a(I5911222
I6951553
tp463
a(I5911222
I6979324
tp464
a(I5911222
I7022113
tp465
a(I5911222
I7195624
tp466
a(I5300054
I5439458
tp467
a(I5300054
I5820973
tp468
a(I5399219
I5540796
tp469
a(I5399219
I5580411
tp470
a(I5399219
I5595618
tp471
a(I5399219
I6036805
tp472
a(I5399219
I6645190
tp473
a(I5540796
I6036805
tp474
a(I5242436
I5554145
tp475
a(I5242436
I5624427
tp476
a(I5242436
I5669897
tp477
a(I5242436
I6004306
tp478
a(I5242436
I6036805
tp479
a(I5242436
I6645190
tp480
a(I5246433
I5370634
tp481
a(I5246433
I5569234
tp482
a(I5246433
I5669897
tp483
a(I5246433
I5897545
tp484
a(I5246433
I6004306
tp485
a(I5246433
I6120487
tp486
a(I5246433
I6120489
tp487
a(I5591152
I5766389
tp488
a(I5591152
I6036805
tp489
a(I5669897
I6004306
tp490
a(I5669897
I6036805
tp491
a(I5669897
I6645190
tp492
a(I5580411
I6015764
tp493
a(I5334446
I5591152
tp494
a(I5334446
I6015764
tp495
a(I5393599
I5883028
tp496
a(I5393599
I6015764
tp497
a(I5554145
I6004306
tp498
a(I5957908
I6645190
tp499
a(I5897545
I6036805
tp500
a(I5897545
I6645190
tp501
a(I5370634
I5554145
tp502
a(I5370634
I5591152
tp503
a(I5370634
I5595618
tp504
a(I5370634
I5669897
tp505
a(I5370634
I5897545
tp506
a(I5370634
I6004306
tp507
a(I5370634
I6036805
tp508
a(I5370634
I6645190
tp509
a(I5569234
I6036805
tp510
a(I5569234
I6120489
tp511
a(I5766389
I6645190
tp512
a(I5171236
I5342338
tp513
a(I5171236
I5846232
tp514
a(I5358500
I5540796
tp515
a(I5358500
I5554145
tp516
a(I5358500
I5569234
tp517
a(I5358500
I5595618
tp518
a(I5358500
I5669897
tp519
a(I5358500
I5938648
tp520
a(I5358500
I6004306
tp521
a(I5358500
I6036805
tp522
a(I5624427
I6645190
tp523
a(I5865823
I5938648
tp524
a(I6420622
I6979324
tp525
a(I5108827
I5336552
tp526
a(I5108827
I5382400
tp527
a(I5108827
I5759926
tp528
a(I5108827
I5820973
tp529
a(I5389202
I5990377
tp530
a(I6156842
I6758863
tp531
a(I7506791
I7597229
tp532
a(I7506791
I7604150
tp533
a(I7506791
I7658311
tp534
a(I7506791
I7673780
tp535
a(I7506791
I7721931
tp536
a(I7506791
I7721934
tp537
a(I7506791
I7721936
tp538
a(I7506791
I7731072
tp539
a(I7506791
I7738971
tp540
a(I7506791
I7753245
tp541
a(I7506791
I7753904
tp542
a(I7506791
I7794475
tp543
a(I7506791
I7799039
tp544
a(I7506791
I7810693
tp545
a(I7506791
I7819299
tp546
a(I7506791
I7832408
tp547
a(I7506791
I7845537
tp548
a(I7506791
I7905380
tp549
a(I7506791
I7918377
tp550
a(I7588175
I7819296
tp551
a(I7588175
I7819297
tp552
a(I7588175
I7819298
tp553
a(I7588175
I7832612
tp554
a(I7588175
I7837080
tp555
a(I7588175
I7857186
tp556
a(I7588175
I7861906
tp557
a(I7588175
I7866527
tp558
a(I7588175
I7905380
tp559
a(I7588175
I7905381
tp560
a(I7588175
I7922061
tp561
a(I7588176
I7819296
tp562
a(I7588176
I7819297
tp563
a(I7588176
I7819298
tp564
a(I7588176
I7832612
tp565
a(I7588176
I7837080
tp566
a(I7588176
I7857186
tp567
a(I7588176
I7861906
tp568
a(I7588176
I7866527
tp569
a(I7588176
I7905380
tp570
a(I7588176
I7905381
tp571
a(I7588176
I7922061
tp572
a(I7604151
I7819296
tp573
a(I7604151
I7819297
tp574
a(I7604151
I7819298
tp575
a(I7604151
I7832612
tp576
a(I7604151
I7837080
tp577
a(I7604151
I7857186
tp578
a(I7604151
I7861906
tp579
a(I7604151
I7866527
tp580
a(I7604151
I7905380
tp581
a(I7604151
I7905381
tp582
a(I7604151
I7922061
tp583
a(I7669747
I7819296
tp584
a(I7669747
I7819297
tp585
a(I7669747
I7819298
tp586
a(I7669747
I7832612
tp587
a(I7669747
I7837080
tp588
a(I7669747
I7857186
tp589
a(I7669747
I7861906
tp590
a(I7669747
I7866527
tp591
a(I7669747
I7905380
tp592
a(I7669747
I7905381
tp593
a(I7673782
I7819296
tp594
a(I7673782
I7819297
tp595
a(I7673782
I7819298
tp596
a(I7673782
I7832612
tp597
a(I7673782
I7837080
tp598
a(I7673782
I7857186
tp599
a(I7673782
I7861906
tp600
a(I7673782
I7866527
tp601
a(I7673782
I7905380
tp602
a(I7673782
I7905381
tp603
a(I7731072
I7832612
tp604
a(I7731072
I7857186
tp605
a(I7731072
I7861906
tp606
a(I7731072
I7866527
tp607
a(I7731072
I7905380
tp608
a(I7731072
I7905381
tp609
a(I7735703
I7832612
tp610
a(I7735703
I7857186
tp611
a(I7735703
I7861906
tp612
a(I7735703
I7866527
tp613
a(I7735703
I7905380
tp614
a(I7735703
I7905381
tp615
a(I7794475
I7905380
tp616
a(dp617
I4938753
(lp618
Vstretchabl
p619
aVseam
p620
aVliner
p621
aVabsorb
p622
aVportion
p623
aVconstruct
p624
aVcomposit
p625
aVlayer
p626
aVmember
p627
aVcover
p628
asI4938757
(lp629
Vstretchabl
p630
aVabsorb
p631
aVgarment
p632
aVpant
p633
aVsnug
p634
aVwearer
p635
aVpanel
p636
aVagainst
p637
aVleg
p638
aVpervious
p639
asI5669894
(lp640
Vhydrogel
p641
aVabsorb
p642
aVgel
p643
aVzone
p644
aVfluid
p645
aVabout
p646
aVpolym
p647
aVpup
p648
aVsfc
p649
aVwet
p650
asI5472775
(lp651
sI5669897
(lp652
Vwearer
p653
aVabsorb
p654
aVarticl
p655
aVfit
p656
aVsustain
p657
aVelast
p658
aVdynam
p659
aVdiaper
p660
aVdesign
p661
aVfeatur
p662
asI5399219
(lp663
Vweb
p664
aVsubstrat
p665
aV140
p666
aVstiffen
p667
aVlongitudin
p668
aV144
p669
aVfasten
p670
aV142
p671
aVmajor
p672
aVregion
p673
asI6752794
(lp674
Vwound
p675
aVvacuum
p676
aVmember
p677
aVbandag
p678
aVcontact
p679
aVport
p680
aVsurfac
p681
aVhole
p682
aVcleans
p683
aVdress
p684
asI7753245
(lp685
Veffector
p686
aVfire
p687
aVpawl
p688
aVinstrument
p689
aVreel
p690
aVtrigger
p691
aVshaft
p692
aVmember
p693
aVsurgic
p694
aVend
p695
asI4847134
(lp696
Vstretchabl
p697
aVlayer
p698
aVbodysid
p699
aVundergar
p700
aVabsorb
p701
aVabout
p702
aVrear
p703
aVbond
p704
aVrugos
p705
aVend
p706
asI7819296
(lp707
Vretract
p708
aVstapl
p709
aVfulli
p710
aVsurgic
p711
aVhandl
p712
aVfire
p713
aVshaft
p714
aVactuat
p715
aVhous
p716
aVposit
p717
asI7022113
(lp718
Vwound
p719
aVbandag
p720
aVvacuum
p721
aVnegat
p722
aVchang
p723
aVpressur
p724
aVcontrol
p725
aVrate
p726
aVcaregiv
p727
aVpatient
p728
asI7819298
(lp729
Vstapl
p730
aVrotat
p731
aVshroud
p732
aVsurgic
p733
aVlockabl
p734
aVapparatus
p735
aVdistal
p736
aVhand
p737
aVfeatur
p738
aVhandl
p739
asI7738971
(lp740
Vsurgic
p741
aVinstrument
p742
aVsteril
p743
aVprogram
p744
aVcontain
p745
aVwhile
p746
aVprogramm
p747
aVunit
p748
aVpost
p749
aVpackag
p750
asI5171236
(lp751
Vtopsheet
p752
aVforeshorten
p753
aVbacksheet
p754
aVabsorb
p755
aVarticl
p756
aVvoid
p757
aVfecal
p758
aVdispos
p759
aVdiaper
p760
aVspace
p761
asI5601542
(lp762
Vsuperabsorb
p763
aVabsorb
p764
aVabout
p765
aVindex
p766
aV100
p767
aVgarment
p768
aVmateri
p769
aVcomposit
p770
aVcontain
p771
aVpercent
p772
asI5171239
(lp773
Vtopsheet
p774
aVbacksheet
p775
aVunderp
p776
aVelast
p777
aVdiaper
p778
aVgarment
p779
aVpermeabl
p780
aVzone
p781
aVcrotch
p782
aVbrief
p783
asI6120489
(lp784
Vdistal
p785
aVseam
p786
aVportion
p787
aVproxim
p788
aVfirst
p789
aVmelt
p790
aVflangeless
p791
aVpoint
p792
aVprefer
p793
aVarticl
p794
asI6156842
(lp795
Varticl
p796
aVreshap
p797
aVfabric
p798
aVpertain
p799
aVbehavior
p800
aVshape
p801
aVstructur
p802
aVtheir
p803
aVmemori
p804
aVprepar
p805
asI5820973
(lp806
Vpermeabl
p807
aVdarci
p808
aVsurg
p809
aVlayer
p810
aVinsult
p811
aVshould
p812
aVcapillari
p813
aV1000
p814
aVcare
p815
aVproduct
p816
asI5385775
(lp817
Vfibrous
p818
aVelast
p819
aVanisotrop
p820
aVweb
p821
aVelastomer
p822
aVmeltblown
p823
aVgather
p824
aVabout
p825
aVfilament
p826
aVleast
p827
asI5169712
(lp828
Vethylen
p829
aVporous
p830
aVfabric
p831
aVnonwoven
p832
aVpolypropylen
p833
aVpropylen
p834
aVspherulit
p835
aVfilm
p836
aVcopolym
p837
aVmeltblown
p838
asI6179890
(lp839
Vmedia
p840
aVpack
p841
aVconstruct
p842
aVcleaner
p843
aVhous
p844
aVfilter
p845
aVair
p846
aVseal
p847
aVarrang
p848
aVflow
p849
asI5178931
(lp850
Vnonwoven
p851
aVweb
p852
aVlaminifer
p853
aVmicrofib
p854
aVtopic
p855
aVfilament
p856
aVmicromet
p857
aVlayer
p858
aVadjac
p859
aVthird
p860
asI5284703
(lp861
Vpulp
p862
aVnonwoven
p863
aVfabric
p864
aVcontent
p865
aVcomposit
p866
aVhigh
p867
aVabsorb
p868
aVentangl
p869
aVwiper
p870
aVmateri
p871
asI6849085
(lp872
Vlamin
p873
aVstent
p874
aVendolumin
p875
aVstructur
p876
aVmetal
p877
aVgraft
p878
aVmateri
p879
aVfilm
p880
aVdeposit
p881
aVmade
p882
asI7673781
(lp883
Vstapl
p884
aVdriver
p885
aVanvil
p886
aVsupport
p887
aVsurgic
p888
aVactuat
p889
aVcartridg
p890
aVdiamet
p891
aVwire
p892
aVupper
p893
asI5242436
(lp894
Velastic
p895
aVwaistband
p896
aVwaist
p897
aVdiaper
p898
aVabsorb
p899
aVarticl
p900
aVfasten
p901
aVclosur
p902
aVtension
p903
aVdynam
p904
asI7673782
(lp905
Vbuttress
p906
aVstapl
p907
aVanvil
p908
aVcartridg
p909
aVsurgic
p910
aVmateri
p911
aVremov
p912
aVstapler
p913
aVretain
p914
aVlip
p915
asI6004306
(lp916
Vwaist
p917
aVpanel
p918
aVthigh
p919
aVwearer
p920
aVdiaper
p921
aVextens
p922
aVabsorb
p923
aVtopsheet
p924
aVbacksheet
p925
aVarticl
p926
asI5486166
(lp927
Vnonwoven
p928
aVabout
p929
aVcentimet
p930
aVweb
p931
aVper
p932
aVgram
p933
aVfibrous
p934
aVlofti
p935
aVpercent
p936
aVsquar
p937
asI5156793
(lp938
Vstretch
p939
aVlamin
p940
aVweb
p941
aVstrain
p942
aVpli
p943
aVzero
p944
aVelastic
p945
aVelast
p946
aVuniform
p947
aVsaid
p948
asI5108827
(lp949
Vnoncontinu
p950
aVphase
p951
aVnonwoven
p952
aVfiber
p953
aVfabric
p954
aVmulticonstitu
p955
aVpolym
p956
aVpmt
p957
aVmulticonstitut
p958
aVcsr
p959
asI7108701
(lp960
Vmedic
p961
aVdrug
p962
aVorgan
p963
aVbiocompat
p964
aVdevic
p965
aVintroduct
p966
aVcoat
p967
aVagent
p968
aVbiolog
p969
aVmay
p970
asI6537310
(lp971
Vendolumin
p972
aVstent
p973
aVgraft
p974
aVheterogen
p975
aVmateri
p976
aVblood
p977
aVregion
p978
aVimplant
p979
aVweb
p980
aVsubtend
p981
asI5554145
(lp982
Vextens
p983
aVwaist
p984
aVpanel
p985
aVabsorb
p986
aVfeatur
p987
aVelast
p988
aVdiaper
p989
aVarticl
p990
aVfit
p991
aVweb
p992
asI7905380
(lp993
Vrate
p994
aVcut
p995
aVretract
p996
aVadvanc
p997
aVdriver
p998
aVmember
p999
aVsurgic
p1000
aVowe
p1001
aVinstrument
p1002
aVstapl
p1003
asI7905381
(lp1004
Vjaw
p1005
aVmember
p1006
aVstapl
p1007
aVcut
p1008
aVsurgic
p1009
aVinstrument
p1010
aVpartial
p1011
aVhous
p1012
aVyet
p1013
aVcan
p1014
asI5599335
(lp1015
Vhydrogel
p1016
aVabsorb
p1017
aVgel
p1018
aVzone
p1019
aVfluid
p1020
aVabout
p1021
aVpolym
p1022
aVpup
p1023
aVsfc
p1024
aVwet
p1025
asI5624427
(lp1026
Vweb
p1027
aVrefasten
p1028
aVelong
p1029
aVundergo
p1030
aVfemal
p1031
aVsubstanti
p1032
aVregion
p1033
aVnonwoven
p1034
aVdeform
p1035
aVelast
p1036
asI5843056
(lp1037
Vbacksheet
p1038
aVtopsheet
p1039
aVcomposit
p1040
aVabsorb
p1041
aVclothlik
p1042
aVpermeabl
p1043
aVarticl
p1044
aVbreathabl
p1045
aVnonwoven
p1046
aVface
p1047
asI5957908
(lp1048
Vdiaper
p1049
aVwearer
p1050
aVabsorb
p1051
aVear
p1052
aVarticl
p1053
aVpull
p1054
aVpant
p1055
aVfasten
p1056
aVenough
p1057
aVpanel
p1058
asI4891258
(lp1059
Vstretchabl
p1060
aVlayer
p1061
aVpervious
p1062
aVimpervi
p1063
aVabsorb
p1064
aVliquid
p1065
aVrugos
p1066
aVstretch
p1067
aVcomposit
p1068
aVrelax
p1069
asI5580411
(lp1070
Vpanel
p1071
aVinward
p1072
aVscrap
p1073
aVdistal
p1074
aVmachin
p1075
aVweb
p1076
aVabsorb
p1077
aVarticl
p1078
aVelement
p1079
aVfirst
p1080
asI5143679
(lp1081
Vstretch
p1082
aVweb
p1083
aVlamin
p1084
aVpli
p1085
aVstrain
p1086
aVzero
p1087
aVsequenti
p1088
aVelastomer
p1089
aViniti
p1090
aVmesh
p1091
asI6951553
(lp1092
Vftc
p1093
aVunderdrap
p1094
aVpatient
p1095
aVsuction
p1096
aVclosur
p1097
aVmanual
p1098
aVtissu
p1099
aVplace
p1100
aVfluid
p1101
aVinterfac
p1102
asI5342338
(lp1103
Vfecal
p1104
aVtopsheet
p1105
aVabsorb
p1106
aVarticl
p1107
aVmateri
p1108
aVviscos
p1109
aVdispos
p1110
aVsecondari
p1111
aVcompon
p1112
aVdewat
p1113
asI7810693
(lp1114
Veffector
p1115
aVarticulat
p1116
aVinstrument
p1117
aVsurgic
p1118
aVend
p1119
aVproxim
p1120
aVstapl
p1121
aVframe
p1122
aVarticul
p1123
aVpassiv
p1124
asI4657802
(lp1125
sI4798603
(lp1126
Vabsorb
p1127
aVtopsheet
p1128
aVpore
p1129
aVcompos
p1130
aVlayer
p1131
aVhydrophob
p1132
aVhydrophil
p1133
aVbodi
p1134
aVpermeabl
p1135
aVsize
p1136
asI6420622
(lp1137
Vdress
p1138
aVtympanostomi
p1139
aVfluid
p1140
aVarticl
p1141
aVfilm
p1142
aVwound
p1143
aVmedic
p1144
aVsweat
p1145
aVmicrochannel
p1146
aVintraven
p1147
asI4655760
(lp1148
sI7861906
(lp1149
Varticul
p1150
aVsegment
p1151
aVbodi
p1152
aVintermedi
p1153
aVdistal
p1154
aVjoint
p1155
aVstapl
p1156
aVsurgic
p1157
aVassembl
p1158
aVaxi
p1159
asI5883028
(lp1160
Vbreathabl
p1161
aVlamin
p1162
aVnonwoven
p1163
aVweb
p1164
aVelast
p1165
aVneckabl
p1166
aVneck
p1167
aVfilm
p1168
aVvapor
p1169
aVstretchabl
p1170
asI6746773
(lp1171
Vmoieti
p1172
aVcoat
p1173
aVfilm
p1174
aVmedic
p1175
aVimplant
p1176
aVvinylidenefluorid
p1177
aVmammal
p1178
aVpolyfluoro
p1179
aVmed
p1180
aVresidu
p1181
asI4668566
(lp1182
Vnonwoven
p1183
aVweb
p1184
aVthermoplast
p1185
aVpolyethylen
p1186
aVmultilay
p1187
aVfabric
p1188
aVmonofila
p1189
aVlayer
p1190
aVmateri
p1191
aVpolypropylen
p1192
asI5509913
(lp1193
Vflushabl
p1194
aVsewag
p1195
aVtoilet
p1196
aVmunicip
p1197
aVpresenc
p1198
aVhospit
p1199
aVdisintegr
p1200
aVhygien
p1201
aVhousehold
p1202
aVclog
p1203
asI7845537
(lp1204
Veffector
p1205
aVsurgic
p1206
aVinstrument
p1207
aVsensor
p1208
aVtrigger
p1209
aVmemori
p1210
aVfirst
p1211
aVoutput
p1212
aVrecord
p1213
aVend
p1214
asI5490846
(lp1215
Vnonwoven
p1216
aVabout
p1217
aVcentimet
p1218
aVweb
p1219
aVper
p1220
aVgram
p1221
aVfibrous
p1222
aVpercent
p1223
aVsquar
p1224
aVsurg
p1225
asI7866527
(lp1226
Vhandl
p1227
aVfire
p1228
aVmovabl
p1229
aVlockout
p1230
aVactuat
p1231
aVstapl
p1232
aVsurgic
p1233
aVshaft
p1234
aVassembl
p1235
aVmanipul
p1236
asI5591152
(lp1237
Velastic
p1238
aVwaistband
p1239
aVzone
p1240
aVpanel
p1241
aVwaist
p1242
aVflexur
p1243
aVwaistlin
p1244
aVhing
p1245
aVpredispos
p1246
aVdynam
p1247
asI5217445
(lp1248
Vabout
p1249
aVsuperabsorb
p1250
aVaverag
p1251
aVaquisit
p1252
aVwetlaid
p1253
aVacquisit
p1254
aVdistribut
p1255
aVlayer
p1256
aVfluid
p1257
aVnacl
p1258
asI5387207
(lp1259
Vfoam
p1260
aVpolymer
p1261
aVthin
p1262
aVemuls
p1263
aVhipe
p1264
aVcollaps
p1265
aVfluid
p1266
aVunexpand
p1267
aVaqueous
p1268
aVabsorb
p1269
asI7597229
(lp1270
Vanvil
p1271
aVsurgic
p1272
aVclosur
p1273
aVinstrument
p1274
aVclose
p1275
aVposit
p1276
aVeffector
p1277
aVlock
p1278
aVpartial
p1279
aVconfigur
p1280
asI4940464
(lp1281
Vabsorb
p1282
aVgarment
p1283
aVpant
p1284
aVstretchabl
p1285
aVsnug
p1286
aVgather
p1287
aVwearer
p1288
aVassembl
p1289
aVagainst
p1290
aVgeneral
p1291
asI6135987
(lp1292
Vmulticarboxyl
p1293
aVcompon
p1294
aVthermoplast
p1295
aVfiber
p1296
aVspecifi
p1297
aVacid
p1298
aVangstrom
p1299
aVsynthet
p1300
aVunreact
p1301
aVcrystal
p1302
asI5911222
(lp1303
Vmembran
p1304
aVvacuum
p1305
aVentranc
p1306
aVinterfac
p1307
aVwet
p1308
aVporous
p1309
aVliquid
p1310
aVzone
p1311
aVsourc
p1312
aVremov
p1313
asI7604150
(lp1314
Vfire
p1315
aVbrake
p1316
aVband
p1317
aVstapl
p1318
aVreel
p1319
aVmember
p1320
aVsurgic
p1321
aVinstrument
p1322
aVcut
p1323
aVcan
p1324
asI5213881
(lp1325
Vmicron
p1326
aVpore
p1327
aVweb
p1328
aVdistribut
p1329
aVnonwoven
p1330
aVrang
p1331
aVpih
p1332
aVperoxid
p1333
aVgms
p1334
aVsize
p1335
asI5393599
(lp1336
Vfabric
p1337
aVfibrous
p1338
aVelast
p1339
aVmachin
p1340
aVdirect
p1341
aVlayer
p1342
aVcross
p1343
aVnonwoven
p1344
aVfilament
p1345
aVsubstanti
p1346
asI4990147
(lp1347
Vliner
p1348
aVwast
p1349
aVbacksheet
p1350
aVpassageway
p1351
aVelast
p1352
aVabsorb
p1353
aVskin
p1354
aVanal
p1355
aVarticl
p1356
aVisol
p1357
asI7819297
(lp1358
Vhandl
p1359
aVstapl
p1360
aVsegment
p1361
aVsteril
p1362
aVsurgic
p1363
aVreprocess
p1364
aVvarious
p1365
aVreusabl
p1366
aVhous
p1367
aVremov
p1368
asI6800074
(lp1369
Vbandag
p1370
aVcanist
p1371
aVvacuum
p1372
aVwound
p1373
aVfluid
p1374
aVcoupl
p1375
aVpump
p1376
aVsourc
p1377
aVappli
p1378
aVwast
p1379
asI7857186
(lp1380
Vjaw
p1381
aVmember
p1382
aVsecond
p1383
aVfirst
p1384
aVsurgic
p1385
aVlatch
p1386
aVanoth
p1387
aVstapler
p1388
aVposit
p1389
aVcircumst
p1390
asI5147343
(lp1391
Vsuperabsorb
p1392
aVabsorb
p1393
aVpore
p1394
aVinterfib
p1395
aVabil
p1396
aVmillilit
p1397
aVdyne
p1398
aVmateri
p1399
aVmatrix
p1400
aVabout
p1401
asI5147345
(lp1402
Vacquisit
p1403
aVabsorb
p1404
aVfluid
p1405
aVredistribut
p1406
aVfoam
p1407
aVcompon
p1408
aVincontin
p1409
aVdistribut
p1410
aVcapac
p1411
aVurin
p1412
asI5569234
(lp1413
Vregion
p1414
aVchassi
p1415
aVbelt
p1416
aVgarment
p1417
aVcrotch
p1418
aVlayer
p1419
aVpull
p1420
aVwaist
p1421
aVfront
p1422
aVback
p1423
asI7819299
(lp1424
Vtrigger
p1425
aVstapl
p1426
aVsurgic
p1427
aVactuat
p1428
aVinstrument
p1429
aVjaw
p1430
aVsurgeon
p1431
aVincis
p1432
aVclose
p1433
aVmember
p1434
asI4861652
(lp1435
Vwaistband
p1436
aVbacksheet
p1437
aVtopsheet
p1438
aVlayer
p1439
aVarticl
p1440
aVshirr
p1441
aVelastic
p1442
aVabsorb
p1443
aVdiaper
p1444
aVwaist
p1445
asI5846232
(lp1446
Vbodysid
p1447
aVlayer
p1448
aVextens
p1449
aVzone
p1450
aVliner
p1451
aVelast
p1452
aVcover
p1453
aVouter
p1454
aVabsorb
p1455
aVarticl
p1456
asI7832612
(lp1457
Vlatch
p1458
aVjaw
p1459
aVmember
p1460
aVcut
p1461
aVlock
p1462
aVsurgic
p1463
aVfulli
p1464
aVadvanc
p1465
aVlockout
p1466
aVstapler
p1467
asI6758863
(lp1468
Vspacer
p1469
aVintervertebr
p1470
aVdeform
p1471
aVconform
p1472
aVvertebra
p1473
aVconfigur
p1474
aVdisc
p1475
aVorigin
p1476
aVrevert
p1477
aVspace
p1478
asI5458590
(lp1479
Vink
p1480
aVnonwoven
p1481
aVweb
p1482
aVcrockfast
p1483
aVfibrous
p1484
aVprint
p1485
aVbasi
p1486
aVweight
p1487
aVcare
p1488
aVlow
p1489
asI5645542
(lp1490
Velastomer
p1491
aVabsorb
p1492
aVstructur
p1493
aVfiber
p1494
aVthermoplast
p1495
aVwettabl
p1496
aVstapl
p1497
aVotherwis
p1498
aVident
p1499
aVexhibit
p1500
asI4857067
(lp1501
Vdiaper
p1502
aVshir
p1503
aVelasticiz
p1504
aVear
p1505
aVheat
p1506
aVblank
p1507
aVbuttock
p1508
aVfingertip
p1509
aVinelast
p1510
aVflat
p1511
asI6673136
(lp1512
Vmedia
p1513
aVflute
p1514
aVpack
p1515
aVracetrack
p1516
aV240
p1517
aVarrang
p1518
aVsystem
p1519
aVcross
p1520
aVfilter
p1521
aV140
p1522
asI5766389
(lp1523
Vregist
p1524
aVmark
p1525
aVrefer
p1526
aVcontinu
p1527
aVlayer
p1528
aVgraphic
p1529
aVcompon
p1530
aVmove
p1531
aVarticl
p1532
aVdistanc
p1533
asI5116662
(lp1534
Velast
p1535
aVstretch
p1536
aVmateri
p1537
aVneck
p1538
aVleast
p1539
aVcomposit
p1540
aVsheet
p1541
aVnonlinear
p1542
aVtwo
p1543
aVdirect
p1544
asI7918377
(lp1545
Vanvil
p1546
aVfeedback
p1547
aVstapl
p1548
aVinstrument
p1549
aVsurgic
p1550
aVillumin
p1551
aVvarious
p1552
aVbeen
p1553
aVindic
p1554
aVdevic
p1555
asI5145727
(lp1556
Vnonwoven
p1557
aVmultilay
p1558
aVextrud
p1559
aVcomposit
p1560
aVstructur
p1561
aVmelt
p1562
aVlayer
p1563
aVtwo
p1564
aVleast
p1565
aVhas
p1566
asI6979324
(lp1567
Vpouch
p1568
aVwound
p1569
aVdrainag
p1570
aVportabl
p1571
aVtube
p1572
aVexud
p1573
aVlyogel
p1574
aVsuction
p1575
aVseal
p1576
aVskin
p1577
asI7799039
(lp1578
Vsurgic
p1579
aVinstrument
p1580
aVeffector
p1581
aVhydraul
p1582
aVshaft
p1583
aVaxi
p1584
aVtransvers
p1585
aVmay
p1586
aVimplement
p1587
aVhandl
p1588
asI5382400
(lp1589
Vmulticompon
p1590
aVfilament
p1591
aVcrimp
p1592
aVnonwoven
p1593
aVfabric
p1594
aVlatent
p1595
aVweb
p1596
aVloft
p1597
aVhelic
p1598
aVcontinu
p1599
asI4965122
(lp1600
Vneck
p1601
aVmateri
p1602
aVrevers
p1603
aVstretch
p1604
aVpercent
p1605
aVabout
p1606
aVheat
p1607
aVonset
p1608
aVfusion
p1609
aVpossess
p1610
asI7794475
(lp1611
Vstapl
p1612
aVcrown
p1613
aVcrushabl
p1614
aVdeform
p1615
aVtissu
p1616
aVcompress
p1617
aVmember
p1618
aVspring
p1619
aVsurgic
p1620
aVwide
p1621
asI7607557
(lp1622
Vmedic
p1623
aVagent
p1624
aVstapl
p1625
aVdispens
p1626
aVsurgic
p1627
aVinstrument
p1628
aVpump
p1629
aVstructur
p1630
aVreservoir
p1631
aVdeliveri
p1632
asI5527302
(lp1633
Vtopsheet
p1634
aVwast
p1635
aVbacksheet
p1636
aVbodi
p1637
aVflap
p1638
aVconform
p1639
aVabsorb
p1640
aVcontain
p1641
aVarticl
p1642
aVmanag
p1643
asI4939016
(lp1644
Ventangl
p1645
aVmeltblown
p1646
aVnonwoven
p1647
aVelastomer
p1648
aVweb
p1649
aVfiber
p1650
aVhydraul
p1651
aVmateri
p1652
aVelast
p1653
aVlayer
p1654
asI5370634
(lp1655
Vwaist
p1656
aVportion
p1657
aVdiaper
p1658
aVleg
p1659
aVunderp
p1660
aVopen
p1661
aVpair
p1662
aVabsorb
p1663
aVdispos
p1664
aVrear
p1665
asI5932299
(lp1666
Vmodifi
p1667
aVbiofunct
p1668
aVobject
p1669
aVradiat
p1670
aVsurfac
p1671
aVhydrophob
p1672
aVhydrophil
p1673
aVmicrowav
p1674
aVinfrar
p1675
aVimpart
p1676
asI5611790
(lp1677
Vnapkin
p1678
aVstretchabl
p1679
aVsanitari
p1680
aVabsorb
p1681
aVarticl
p1682
aVwomen
p1683
aVworn
p1684
aVespeci
p1685
aVpresent
p1686
aVthin
p1687
asI5269775
(lp1688
Vtrisect
p1689
aVtopsheet
p1690
aVabsorb
p1691
aVarticl
p1692
aVdispos
p1693
aVextens
p1694
aVelast
p1695
aVfecal
p1696
aVlongitudin
p1697
aVvoid
p1698
asI5698322
(lp1699
sI6015764
(lp1700
sI5188885
(lp1701
Vlamin
p1702
aVfabric
p1703
aVolefin
p1704
aVroom
p1705
aVnonwoven
p1706
aVemiss
p1707
aVsteriliz
p1708
aVterpolym
p1709
aVdrape
p1710
aVgreater
p1711
asI5562646
(lp1712
Vhydrogel
p1713
aVabsorb
p1714
aVgel
p1715
aVabout
p1716
aVzone
p1717
aVfluid
p1718
aVpolym
p1719
aVpup
p1720
aVsfc
p1721
aVwet
p1722
asI5277976
(lp1723
Vfiber
p1724
aVdrawdown
p1725
aVshape
p1726
aVspun
p1727
aVreplic
p1728
aVclose
p1729
aVtemperatur
p1730
aVorific
p1731
aVdie
p1732
aVminimum
p1733
asI5167897
(lp1734
Vstretch
p1735
aVlamin
p1736
aVincrement
p1737
aVstrain
p1738
aVweb
p1739
aVpli
p1740
aVzero
p1741
aViniti
p1742
aVdirect
p1743
aVelastomer
p1744
asI5562650
(lp1745
Vsurg
p1746
aVtopsheet
p1747
aVbacksheet
p1748
aVretent
p1749
aVmanag
p1750
aVportion
p1751
aVlayer
p1752
aVedg
p1753
aVmedial
p1754
aVmargin
p1755
asI5509915
(lp1756
Vtopsheet
p1757
aVbacksheet
p1758
aVabsorb
p1759
aVlayer
p1760
aVfiber
p1761
aVarticl
p1762
aVabout
p1763
aVhydrophil
p1764
aVbicompon
p1765
aVdenier
p1766
asI6096668
(lp1767
Vlamin
p1768
aVnonwoven
p1769
aVsup
p1770
aVbarrier
p1771
aVspunbond
p1772
aVextens
p1773
aVweb
p1774
aVelast
p1775
aVloft
p1776
aVdensiti
p1777
asI4720415
(lp1778
Vweb
p1779
aVelast
p1780
aVgather
p1781
aVbond
p1782
aVcontract
p1783
aVrelax
p1784
aVcomposit
p1785
aVmateri
p1786
aVstretch
p1787
aVelong
p1788
asI5360420
(lp1789
Vabout
p1790
aVacquisit
p1791
aVsuperabsorb
p1792
aVaverag
p1793
aVstiffen
p1794
aVdistribut
p1795
aVlayer
p1796
aVfluid
p1797
aVnacl
p1798
aVdri
p1799
asI4863785
(lp1800
Vnonwoven
p1801
aVprebond
p1802
aVmeltblown
p1803
aVspunbond
p1804
aVthermoplast
p1805
aVtrilamin
p1806
aVbond
p1807
aVpolym
p1808
aVmateri
p1809
aVcomposit
p1810
asI5536555
(lp1811
Vquilt
p1812
aVfilm
p1813
aVundul
p1814
aVlamin
p1815
aVslit
p1816
aVcomposit
p1817
aVpucker
p1818
aVlayer
p1819
aVdue
p1820
aVplane
p1821
asI4436780
(lp1822
Vwiper
p1823
aVmeltblown
p1824
aVmicrofib
p1825
aVfilament
p1826
aVlamin
p1827
aVnonwoven
p1828
aVwipe
p1829
aVpolypropylen
p1830
aVlayer
p1831
aVthermoplast
p1832
asI6271278
(lp1833
Vsuperpor
p1834
aVhydrogel
p1835
aVcrosslink
p1836
aVdisintegr
p1837
aVblow
p1838
aVagent
p1839
aVcomposit
p1840
aVmultiolefin
p1841
aVsodium
p1842
aVnahco
p1843
asI6865810
(lp1844
Vtubular
p1845
aVmember
p1846
aVlayer
p1847
aVstent
p1848
aVmake
p1849
aVremov
p1850
aVfirst
p1851
aVmedic
p1852
aVportion
p1853
aVcomposit
p1854
asI5397316
(lp1855
Vslit
p1856
aVabsorb
p1857
aVfluid
p1858
aVmember
p1859
aVregion
p1860
aVmateri
p1861
aVrunni
p1862
aVacquisit
p1863
aVcup
p1864
aVmens
p1865
asI6036805
(lp1866
sI5246433
(lp1867
Vchassi
p1868
aVgarment
p1869
aVelastic
p1870
aVear
p1871
aVunitari
p1872
aVflap
p1873
aVdispos
p1874
aVstretch
p1875
aVpant
p1876
aVseam
p1877
asI5897545
(lp1878
Vdiaper
p1879
aVwearer
p1880
aVabsorb
p1881
aVarticl
p1882
aVpull
p1883
aVpant
p1884
aVear
p1885
aVfasten
p1886
aVenough
p1887
aVpanel
p1888
asI5595618
(lp1889
Vweb
p1890
aVlamin
p1891
aVregion
p1892
aVsection
p1893
aVmedial
p1894
aVmechan
p1895
aVfirst
p1896
aVsecond
p1897
aVsecur
p1898
aVcomposit
p1899
asI7588175
(lp1900
Vcabl
p1901
aVassembl
p1902
aVelong
p1903
aVinstrument
p1904
aVdistal
p1905
aVtransit
p1906
aVstapl
p1907
aVchannel
p1908
aVknife
p1909
aVsurgic
p1910
asI7588176
(lp1911
Vclosur
p1912
aVsurgic
p1913
aVanvil
p1914
aVinstrument
p1915
aVassembl
p1916
aVmotion
p1917
aVvarious
p1918
aVlockabl
p1919
aVknife
p1920
aVarticul
p1921
asI4340563
(lp1922
Vfilament
p1923
aVquench
p1924
aVweb
p1925
aVdraw
p1926
aVnonwoven
p1927
aVspin
p1928
aVeduct
p1929
aVfluid
p1930
aVentangl
p1931
aVmotiv
p1932
asI5300054
(lp1933
Vabsorb
p1934
aVlayer
p1935
aVwrap
p1936
aVmultipl
p1937
aVarticl
p1938
aVsubjac
p1939
aVtopsheet
p1940
aVbacksheet
p1941
aVcore
p1942
aVacquir
p1943
asI7832408
(lp1944
Vratchet
p1945
aVpawl
p1946
aVsurgic
p1947
aVtrigger
p1948
aVeffector
p1949
aVinstrument
p1950
aVstapl
p1951
aVassembl
p1952
aVcut
p1953
aVconfigur
p1954
asI7186265
(lp1955
Vprosthet
p1956
aVimplant
p1957
aVvalv
p1958
aVsite
p1959
aVtarget
p1960
aVcardiac
p1961
aVanchor
p1962
aVsystem
p1963
aVdeliveri
p1964
aVthem
p1965
asI6225243
(lp1966
Vcompon
p1967
aVpolymer
p1968
aVstrand
p1969
aVnonwoven
p1970
aVweb
p1971
aVelast
p1972
aVzone
p1973
aVsticki
p1974
aVsecond
p1975
aVovercom
p1976
asI5865823
(lp1977
Vbacksheet
p1978
aVbreathabl
p1979
aVimpervi
p1980
aVtopsheet
p1981
aVfluid
p1982
aVabsorb
p1983
aVarticl
p1984
aVexhibit
p1985
aVsup
p1986
aVjoul
p1987
asI5770086
(lp1988
Vhydrogel
p1989
aVconcentr
p1990
aVpolym
p1991
aVsolut
p1992
aVmembran
p1993
aVform
p1994
aVcan
p1995
aVdecant
p1996
aVcollect
p1997
aVad
p1998
asI7506791
(lp1999
Vanvil
p2000
aVcartridg
p2001
aVassembl
p2002
aVsupport
p2003
aVcompress
p2004
aVclosur
p2005
aVinstrument
p2006
aVstapl
p2007
aVsurgic
p2008
aVfire
p2009
asI5037416
(lp2010
Vtopsheet
p2011
aVdiaper
p2012
aVlamina
p2013
aVwearer
p2014
aVelong
p2015
aVrelat
p2016
aVlamin
p2017
aVextens
p2018
aVlow
p2019
aVelast
p2020
asI7753904
(lp2021
Veffector
p2022
aVtrocar
p2023
aVendoscop
p2024
aVshaft
p2025
aVhandl
p2026
aVelong
p2027
aVportion
p2028
aVdistal
p2029
aVproxim
p2030
aVarticul
p2031
asI5389202
(lp2032
Vpulp
p2033
aVnonwoven
p2034
aVfabric
p2035
aVcontent
p2036
aVcomposit
p2037
aVhigh
p2038
aVabsorb
p2039
aVentangl
p2040
aVwiper
p2041
aVmateri
p2042
asI7195624
(lp2043
Vbandag
p2044
aVwound
p2045
aVvacuum
p2046
aVvent
p2047
aVpassageway
p2048
aVcommunic
p2049
aVcreat
p2050
aVirrig
p2051
aVheal
p2052
aVventil
p2053
asI5151092
(lp2054
Velastic
p2055
aVwaistband
p2056
aVzone
p2057
aVpanel
p2058
aVwaist
p2059
aVflexur
p2060
aVwaistlin
p2061
aVhing
p2062
aVpredispos
p2063
aVdynam
p2064
asI6379383
(lp2065
Vendolumin
p2066
aVstent
p2067
aVheterogen
p2068
aVblood
p2069
aVmateri
p2070
aVendotheli
p2071
aVfabric
p2072
aVimplant
p2073
aVconstitut
p2074
aVvacuum
p2075
asI5200248
(lp2076
Vcapillari
p2077
aVsaid
p2078
aVchannel
p2079
aVabout
p2080
aVstructur
p2081
aVspecif
p2082
aVintrastructur
p2083
aVsup
p2084
aVleast
p2085
aVwall
p2086
asI5695868
(lp2087
Vbreathabl
p2088
aVnonwoven
p2089
aVfilm
p2090
aVbond
p2091
aVcloth
p2092
aVweb
p2093
aVcomposit
p2094
aVincompat
p2095
aVthermal
p2096
aVexampl
p2097
asI5429629
(lp2098
Vsurg
p2099
aVmanag
p2100
aVabsorb
p2101
aVretent
p2102
aVportion
p2103
aVliquid
p2104
aVarticl
p2105
aVuptak
p2106
aVdesorb
p2107
aVstore
p2108
asI7731072
(lp2109
Vanvil
p2110
aVassembl
p2111
aVknife
p2112
aVtrunnion
p2113
aVelong
p2114
aVchannel
p2115
aVdetach
p2116
aVstapl
p2117
aVslot
p2118
aVconfigur
p2119
asI5149335
(lp2120
Vsuperabsorb
p2121
aVaul
p2122
aVabsorb
p2123
aVmateri
p2124
aVabout
p2125
aVstructur
p2126
aVswell
p2127
aVweight
p2128
aVgarment
p2129
aVcontain
p2130
asI7922061
(lp2131
Varticul
p2132
aVeffector
p2133
aVinstrument
p2134
aVsurgic
p2135
aVarticulat
p2136
aVjoint
p2137
aVunit
p2138
aVend
p2139
aVshaft
p2140
aVsensor
p2141
asI4781966
(lp2142
Vnonelast
p2143
aVspunlac
p2144
aVpolyetherest
p2145
aVnonwoven
p2146
aVweb
p2147
aVelast
p2148
aVpolyest
p2149
aVmeltblown
p2150
aVlamin
p2151
aVrayon
p2152
asI6107537
(lp2153
sI5294482
(lp2154
Vnoncontinu
p2155
aVmulticonstitu
p2156
aVphase
p2157
aVnonwoven
p2158
aVfiber
p2159
aVfabric
p2160
aVpolym
p2161
aVpmt
p2162
aVcsr
p2163
aVdomain
p2164
asI7735703
(lp2165
Vstapl
p2166
aVanvil
p2167
aVcartridg
p2168
aVsurgic
p2169
aVshaft
p2170
aVembodi
p2171
aVactuat
p2172
aVloadabl
p2173
aVstapler
p2174
aVelong
p2175
asI7837080
(lp2176
Vstapl
p2177
aVinstrument
p2178
aVtissu
p2179
aVcut
p2180
aVsurgic
p2181
aVfeedback
p2182
aVsurgeon
p2183
aVanvil
p2184
aVknife
p2185
aVcartridg
p2186
asI5306266
(lp2187
Vspacer
p2188
aVdiscret
p2189
aVabsorb
p2190
aVarticl
p2191
aVcover
p2192
aVouter
p2193
aVfecal
p2194
aVelement
p2195
aVload
p2196
aVflexur
p2197
asI5997981
(lp2198
Vprebond
p2199
aVfasten
p2200
aVcompon
p2201
aVloop
p2202
aVhydrohead
p2203
aVmvtr
p2204
aVmbar
p2205
aVlamin
p2206
aVcomposit
p2207
aVbreathabl
p2208
asI5192606
(lp2209
Vbodysid
p2210
aVwaistband
p2211
aVbacksheet
p2212
aVliner
p2213
aVabsorb
p2214
aVlayer
p2215
aVtransfer
p2216
aVsection
p2217
aVabout
p2218
aVdpf
p2219
asI5358500
(lp2220
Vwearer
p2221
aVabsorb
p2222
aVarticl
p2223
aVfit
p2224
aVsustain
p2225
aVelast
p2226
aVdynam
p2227
aVdiaper
p2228
aVdesign
p2229
aVfeatur
p2230
asI7658311
(lp2231
Vfire
p2232
aVgear
p2233
aVmember
p2234
aVeffector
p2235
aVdrive
p2236
aVpawl
p2237
aVrevers
p2238
aVengag
p2239
aVcut
p2240
aVsurgic
p2241
asI7669746
(lp2242
Vstapl
p2243
aVcartridg
p2244
aVactuat
p2245
aVanvil
p2246
aVdriver
p2247
aVheight
p2248
aVvarious
p2249
aVmovabl
p2250
aVform
p2251
aVembodi
p2252
asI5334446
(lp2253
Vhydroentangl
p2254
aVnet
p2255
aVelastomer
p2256
aVnonwoven
p2257
aVweb
p2258
aVelast
p2259
aVfibrous
p2260
aVfabric
p2261
aVbinder
p2262
aVhydro
p2263
asI5114781
(lp2264
Velast
p2265
aVneck
p2266
aVmateri
p2267
aVrevers
p2268
aVstretch
p2269
aVcomposit
p2270
aVleast
p2271
aVsheet
p2272
aVnonlinear
p2273
aVgather
p2274
asI7792562
(lp2275
Vanalyt
p2276
aVmicroarchitectur
p2277
aVdevic
p2278
aVimplant
p2279
aVmonitor
p2280
aVglucos
p2281
aVlevel
p2282
aVallow
p2283
aVdetermin
p2284
aVblood
p2285
asI7669747
(lp2286
Vstapl
p2287
aVwasher
p2288
aVsurgic
p2289
aVstapler
p2290
aVanvil
p2291
aVcircular
p2292
aVbioabsorb
p2293
aVbreakaway
p2294
aVguid
p2295
aVpunctur
p2296
asI7673780
(lp2297
Varticul
p2298
aVsurgic
p2299
aVinstrument
p2300
aVtrocar
p2301
aVeffector
p2302
aVjoint
p2303
aVendocutt
p2304
aVmoment
p2305
aVarm
p2306
aVmust
p2307
asI5364382
(lp2308
Vsurg
p2309
aVmanag
p2310
aVabsorb
p2311
aVretent
p2312
aVportion
p2313
aVliquid
p2314
aVarticl
p2315
aVuptak
p2316
aVdesorb
p2317
aVstore
p2318
asI5759926
(lp2319
Vfiber
p2320
aVsplittabl
p2321
aVsplit
p2322
aVsegment
p2323
aVconjug
p2324
aVfabric
p2325
aVdenier
p2326
aVincompat
p2327
aVfibril
p2328
aVdissoci
p2329
asI7604151
(lp2330
Vstapl
p2331
aVsurgic
p2332
aVtissu
p2333
aVdeform
p2334
aVproject
p2335
aVpunctur
p2336
aVcompress
p2337
aVdeploy
p2338
aVsoft
p2339
aVmember
p2340
asI6695865
(lp2341
Vgraft
p2342
aVmember
p2343
aVembol
p2344
aVguidewir
p2345
aVdiametr
p2346
aVlumen
p2347
aVcathet
p2348
aVfrustrocon
p2349
aVdeploy
p2350
aVundeploy
p2351
asI5540796
(lp2352
Vweb
p2353
aVpanel
p2354
aVside
p2355
aVbridg
p2356
aVelastic
p2357
aVmateri
p2358
aVsecond
p2359
aVappoint
p2360
aVfirst
p2361
aVlater
p2362
asI4789699
(lp2363
Vnonwoven
p2364
aVelastomer
p2365
aVsheet
p2366
aVweb
p2367
aVmateri
p2368
aVlamin
p2369
aVgather
p2370
aVbond
p2371
aVmeltblown
p2372
aVtension
p2373
asI6645190
(lp2374
Vrefasten
p2375
aVabsorb
p2376
aVwaist
p2377
aVarticl
p2378
aVattach
p2379
aVfasten
p2380
aVpant
p2381
aVpanel
p2382
aVirrit
p2383
aVhip
p2384
asI4652487
(lp2385
sI7721931
(lp2386
Vtranspond
p2387
aVsurgic
p2388
aVinstrument
p2389
aVwireless
p2390
aVcartridg
p2391
aVstapl
p2392
aVstate
p2393
aVsignal
p2394
aVelectron
p2395
aVreus
p2396
asI7721934
(lp2397
Vinstrument
p2398
aVeffector
p2399
aVtrigger
p2400
aVcut
p2401
aVclosur
p2402
aVdrive
p2403
aVsurgic
p2404
aVshaft
p2405
aVactuat
p2406
aVend
p2407
asI5672399
(lp2408
Vfilter
p2409
aVmedia
p2410
aVfiber
p2411
aVcoars
p2412
aVfine
p2413
aVconstruct
p2414
aVprefer
p2415
aVdisclosur
p2416
aVsupport
p2417
aVadvantag
p2418
asI7721936
(lp2419
Vinstrument
p2420
aVeffector
p2421
aVcut
p2422
aVmotor
p2423
aVinterlock
p2424
aVsurgic
p2425
aVmost
p2426
aVactuat
p2427
aVend
p2428
aVcurrent
p2429
asI5938648
(lp2430
Velastom
p2431
aVfilm
p2432
aVabsorb
p2433
aVhydrophil
p2434
aVbacksheet
p2435
aVsubstanti
p2436
aVarticl
p2437
aVlayer
p2438
aVsheet
p2439
aVfibrous
p2440
asI6855135
(lp2441
Vwound
p2442
aVdress
p2443
aVvacuum
p2444
aVface
p2445
aVsurfac
p2446
aVmember
p2447
aVbandag
p2448
aVhole
p2449
aVcleans
p2450
aVsourc
p2451
asI5336545
(lp2452
Vneck
p2453
aVelast
p2454
aVmateri
p2455
aVbond
p2456
aVneckabl
p2457
aVcomposit
p2458
aVjoin
p2459
aVsheet
p2460
aVstretchabl
p2461
aVconstrict
p2462
asI5439458
(lp2463
Vabsorb
p2464
aVlayer
p2465
aVacquisit
p2466
aVarticl
p2467
aVcore
p2468
aVtopsheet
p2469
aVbacksheet
p2470
aVmultipl
p2471
aVcentimet
p2472
aVacquir
p2473
asI6936037
(lp2474
Vftc
p2475
aVunderdrap
p2476
aVpatient
p2477
aVsuction
p2478
aVclosur
p2479
aVmanual
p2480
aVtissu
p2481
aVplace
p2482
aVfluid
p2483
aVinterfac
p2484
asI5336552
(lp2485
Vmulticompon
p2486
aVstrand
p2487
aVnonwoven
p2488
aVpolymer
p2489
aVfabric
p2490
aVmeltblown
p2491
aVtough
p2492
aVpolyolefin
p2493
aVmade
p2494
aVsheath
p2495
asI5990377
(lp2496
Vbasesheet
p2497
aVhydrophob
p2498
aVabsorb
p2499
aVregion
p2500
aVliner
p2501
aVweb
p2502
aVfeel
p2503
aVelev
p2504
aVhydrophil
p2505
aVdepress
p2506
asI5496298
(lp2507
Velastomer
p2508
aVedg
p2509
aVear
p2510
aVdistal
p2511
aVabsorb
p2512
aVproxim
p2513
aVarticl
p2514
aVconnect
p2515
aVdispos
p2516
aVlonger
p2517
asI5226992
(lp2518
Vneck
p2519
aVelast
p2520
aVmateri
p2521
aVbond
p2522
aVneckabl
p2523
aVcomposit
p2524
aVjoin
p2525
aVsheet
p2526
aVstretchabl
p2527
aVconstrict
p2528
asI6685681
(lp2529
Vwound
p2530
aVdress
p2531
aVsuction
p2532
aVbandag
p2533
aVmember
p2534
aVvacuum
p2535
aVport
p2536
aVhole
p2537
aVcleans
p2538
aVsurfac
p2539
asI6039302
(lp2540
sI4981747
(lp2541
Vneck
p2542
aVmateri
p2543
aVelast
p2544
aVrevers
p2545
aVneckabl
p2546
aVdimens
p2547
aVjoin
p2548
aVcomposit
p2549
aVsheet
p2550
aVleast
p2551
asI6120487
(lp2552
Vpanel
p2553
aVwaistband
p2554
aVrash
p2555
aVskin
p2556
aVproblem
p2557
aVleg
p2558
aVvapor
p2559
aVpull
p2560
aVreduc
p2561
aVpant
p2562
asI7195641
(lp2563
Vpseudometal
p2564
aVvenous
p2565
aVprosthet
p2566
aVcardiac
p2567
aVvalv
p2568
aVsepta
p2569
aVvalvular
p2570
aVmetal
p2571
aVprosthes
p2572
aVpercutan
p2573
astp2574
.