((lp0
I4683202
aI4800159
aI4851331
aI4889818
aI4965188
aI5043272
aI5118801
aI5124246
aI5130238
aI5188963
aI5192659
aI5202231
aI5210015
aI5223409
aI5399491
aI5409818
aI5436149
aI5455166
aI5475610
aI5487972
aI5492806
aI5525464
aI5554516
aI5571698
aI5656493
aI5674743
aI5695940
aI5807522
aI5834252
aI5866336
aI5928905
aI5965410
aI6117679
aI6130098
aI6132970
aI6174670
aI6174675
aI6329139
aI6210891
aI5494810
aI5547839
aI6235471
aI5639603
aI5661016
aI5800992
aI5854033
aI5502177
aI5605793
aI5811238
aI5830721
aI5837458
aI5925517
aI6287765
aI5498392
aI5585069
aI5587128
aI5593838
aI5681484
aI5726026
aI5755942
aI5779868
aI5846396
aI5856174
aI5858804
aI5863708
aI5869004
aI5880071
aI5922591
aI5928880
aI5942443
aI5958203
aI6043080
aI6046056
aI6168948
aI6197595
aI6368871
aI6440725
aI5445934
aI5503980
aI5552270
aI5605662
aI5632957
aI5653939
aI5700637
aI5744305
aI5837832
aI5846708
aI5849486
aI5871697
aI6017696
aI6027889
aI6040138
aI6051380
aI6054270
aI6103199
aI6156501
aI6214560
aI6632655
aI5538848
aI5723591
aI5427908
aI5498530
aI5580717
aI5658727
aI5698426
aI5733743
aI5821047
aI5969108
aI6379929
aI6274320
aI6355431
aI5932100
aI6210896
aI5922617
aI7115884
aI5961923
aI6767706
aI6327410
aI6340588
aI6429027
aI5939250
aI5965408
aI6368275
aI5639423
aI5699157
aI5842787
aI5852495
aI5855801
aI5863801
aI5872010
aI5876675
aI5882465
aI5885470
aI5948227
aI5955028
aI5957579
aI5958694
aI5965001
aI5989402
aI6007690
aI6068752
aI6103479
aI6126899
aI6167910
aI6251343
aI6321791
aI6540895
aI5800690
aI5858195
aI5976336
aI6001229
aI6012902
aI6294063
aI5716825
aI5726751
aI5863502
aI6329209
aI6540675
aI6923764
aI6074827
aI6541266
aI5900130
aI6334960
aI6696220
aI6045996
aI6133436
aI7160678
aI6264825
aI6377894
aI6773671
aI7344499
aI5965452
aI6066448
aI6582908
aI6281006
aI6361944
aI5922537
aI7494465
aI7637868
aI7640048
aI7654956
aI7715893
aI7291497
aI6486588
aI6645202
aI6256533
aI6312612
aI6375627
aI6379324
aI6471903
aI6591124
aI6743211
aI6835184
aI7041068
aI7198606
aI6090251
aI5972710
aI6485461
aI6656158
aI6656159
aI6669669
aI6692457
aI6699218
aI6723072
aI6749587
aI6768425
aI6830558
aI6960192
aI7018360
aI7029455
aI7137964
aI7144384
aI6738654
aI7074307
aI7366556
aI7424318
aI7460898
aI7467003
aI7471972
aI7613491
aI7651596
aI7657297
aI6645142
aI6743635
aI6946299
aI6953693
aI6959247
aI7711402
aI7041468
a(lp1
(lp2
I4683202
aa(lp3
I4800159
aI4851331
aI4889818
aI4965188
aI5043272
aI5118801
aI5124246
aI5130238
aI5188963
aI5192659
aI5202231
aI5210015
aI5223409
aI5399491
aI5409818
aI5436149
aI5455166
aI5475610
aI5487972
aI5492806
aI5525464
aI5554516
aI5571698
aI5656493
aI5674743
aI5695940
aI5807522
aI5834252
aI5866336
aI5928905
aI5965410
aI6117679
aI6130098
aI6132970
aI6174670
aI6174675
aI6329139
aa(lp4
I6210891
aI5494810
aI5547839
aI6235471
aI5639603
aI5661016
aI5800992
aI5854033
aI5502177
aI5605793
aI5811238
aI5830721
aI5837458
aI5925517
aI6287765
aI5498392
aI5585069
aI5587128
aI5593838
aI5681484
aI5726026
aI5755942
aI5779868
aI5846396
aI5856174
aI5858804
aI5863708
aI5869004
aI5880071
aI5922591
aI5928880
aI5942443
aI5958203
aI6043080
aI6046056
aI6168948
aI6197595
aI6368871
aI6440725
aI5445934
aI5503980
aI5552270
aI5605662
aI5632957
aI5653939
aI5700637
aI5744305
aI5837832
aI5846708
aI5849486
aI5871697
aI6017696
aI6027889
aI6040138
aI6051380
aI6054270
aI6103199
aI6156501
aI6214560
aI6632655
aI5538848
aI5723591
aI5427908
aI5498530
aI5580717
aI5658727
aI5698426
aI5733743
aI5821047
aI5969108
aI6379929
aI6274320
aI6355431
aI5932100
aI6210896
aI5922617
aa(lp5
I7115884
aI5961923
aI6767706
aI6327410
aI6340588
aI6429027
aI5939250
aI5965408
aI6368275
aI5639423
aI5699157
aI5842787
aI5852495
aI5855801
aI5863801
aI5872010
aI5876675
aI5882465
aI5885470
aI5948227
aI5955028
aI5957579
aI5958694
aI5965001
aI5989402
aI6007690
aI6068752
aI6103479
aI6126899
aI6167910
aI6251343
aI6321791
aI6540895
aI5800690
aI5858195
aI5976336
aI6001229
aI6012902
aI6294063
aI5716825
aI5726751
aI5863502
aI6329209
aI6540675
aI6923764
aI6074827
aI6541266
aI5900130
aI6334960
aI6696220
aI6045996
aI6133436
aI7160678
aI6264825
aI6377894
aI6773671
aI7344499
aI5965452
aI6066448
aI6582908
aI6281006
aI6361944
aI5922537
aa(lp6
I7494465
aI7637868
aI7640048
aI7654956
aI7715893
aI7291497
aI6486588
aI6645202
aI6256533
aI6312612
aI6375627
aI6379324
aI6471903
aI6591124
aI6743211
aI6835184
aI7041068
aI7198606
aI6090251
aI5972710
aI6485461
aI6656158
aI6656159
aI6669669
aI6692457
aI6699218
aI6723072
aI6749587
aI6768425
aI6830558
aI6960192
aI7018360
aI7029455
aI7137964
aI7144384
aI6738654
aI7074307
aI7366556
aI7424318
aI7460898
aI7467003
aI7471972
aI7613491
aI7651596
aI7657297
aI6645142
aI6743635
aI6946299
aI6953693
aI6959247
aI7711402
aI7041468
aa(lp7
(I4683202
I4800159
tp8
a(I4683202
I4851331
tp9
a(I4683202
I4889818
tp10
a(I4683202
I4965188
tp11
a(I4683202
I5043272
tp12
a(I4683202
I5118801
tp13
a(I4683202
I5124246
tp14
a(I4683202
I5130238
tp15
a(I4683202
I5188963
tp16
a(I4683202
I5192659
tp17
a(I4683202
I5202231
tp18
a(I4683202
I5210015
tp19
a(I4683202
I5223409
tp20
a(I4683202
I5399491
tp21
a(I4683202
I5409818
tp22
a(I4683202
I5436149
tp23
a(I4683202
I5455166
tp24
a(I4683202
I5475610
tp25
a(I4683202
I5487972
tp26
a(I4683202
I5492806
tp27
a(I4683202
I5525464
tp28
a(I4683202
I5554516
tp29
a(I4683202
I5571698
tp30
a(I4683202
I5656493
tp31
a(I4683202
I5674743
tp32
a(I4683202
I5695940
tp33
a(I4683202
I5807522
tp34
a(I4683202
I5834252
tp35
a(I4683202
I5866336
tp36
a(I4683202
I5928905
tp37
a(I4683202
I5965410
tp38
a(I4683202
I6117679
tp39
a(I4683202
I6130098
tp40
a(I4683202
I6132970
tp41
a(I4683202
I6174670
tp42
a(I4683202
I6174675
tp43
a(I4683202
I6329139
tp44
a(I4800159
I4965188
tp45
a(I4800159
I5124246
tp46
a(I4800159
I5409818
tp47
a(I4800159
I5475610
tp48
a(I4800159
I5656493
tp49
a(I4800159
I5834252
tp50
a(I4800159
I5928905
tp51
a(I4800159
I5965410
tp52
a(I4800159
I6117679
tp53
a(I4800159
I6132970
tp54
a(I4800159
I6174675
tp55
a(I4851331
I6210891
tp56
a(I4889818
I4965188
tp57
a(I4889818
I5210015
tp58
a(I4889818
I5475610
tp59
a(I4889818
I5487972
tp60
a(I4889818
I5494810
tp61
a(I4889818
I5547839
tp62
a(I4889818
I5656493
tp63
a(I4889818
I5674743
tp64
a(I4889818
I5866336
tp65
a(I4889818
I6174670
tp66
a(I4889818
I6235471
tp67
a(I4965188
I5475610
tp68
a(I4965188
I5547839
tp69
a(I4965188
I5639603
tp70
a(I4965188
I5656493
tp71
a(I4965188
I5661016
tp72
a(I4965188
I5800992
tp73
a(I4965188
I5834252
tp74
a(I4965188
I5854033
tp75
a(I4965188
I5928905
tp76
a(I4965188
I5965410
tp77
a(I4965188
I6117679
tp78
a(I4965188
I6132970
tp79
a(I4965188
I6174670
tp80
a(I4965188
I6235471
tp81
a(I5043272
I5502177
tp82
a(I5043272
I5605793
tp83
a(I5043272
I5811238
tp84
a(I5043272
I5830721
tp85
a(I5043272
I5837458
tp86
a(I5043272
I6117679
tp87
a(I5043272
I6132970
tp88
a(I5043272
I6235471
tp89
a(I5118801
I5866336
tp90
a(I5118801
I5925517
tp91
a(I5118801
I6287765
tp92
a(I5130238
I5399491
tp93
a(I5130238
I5502177
tp94
a(I5188963
I5498392
tp95
a(I5188963
I5585069
tp96
a(I5188963
I5587128
tp97
a(I5188963
I5593838
tp98
a(I5188963
I5681484
tp99
a(I5188963
I5726026
tp100
a(I5188963
I5755942
tp101
a(I5188963
I5779868
tp102
a(I5188963
I5807522
tp103
a(I5188963
I5846396
tp104
a(I5188963
I5856174
tp105
a(I5188963
I5858804
tp106
a(I5188963
I5863708
tp107
a(I5188963
I5869004
tp108
a(I5188963
I5880071
tp109
a(I5188963
I5922591
tp110
a(I5188963
I5928880
tp111
a(I5188963
I5942443
tp112
a(I5188963
I5958203
tp113
a(I5188963
I6043080
tp114
a(I5188963
I6046056
tp115
a(I5188963
I6168948
tp116
a(I5188963
I6197595
tp117
a(I5188963
I6368871
tp118
a(I5188963
I6440725
tp119
a(I5202231
I5445934
tp120
a(I5202231
I5503980
tp121
a(I5202231
I5525464
tp122
a(I5202231
I5552270
tp123
a(I5202231
I5605662
tp124
a(I5202231
I5632957
tp125
a(I5202231
I5653939
tp126
a(I5202231
I5695940
tp127
a(I5202231
I5700637
tp128
a(I5202231
I5744305
tp129
a(I5202231
I5800992
tp130
a(I5202231
I5807522
tp131
a(I5202231
I5837832
tp132
a(I5202231
I5846708
tp133
a(I5202231
I5849486
tp134
a(I5202231
I5871697
tp135
a(I5202231
I6017696
tp136
a(I5202231
I6027889
tp137
a(I5202231
I6040138
tp138
a(I5202231
I6051380
tp139
a(I5202231
I6054270
tp140
a(I5202231
I6103199
tp141
a(I5202231
I6156501
tp142
a(I5202231
I6214560
tp143
a(I5202231
I6632655
tp144
a(I5210015
I5538848
tp145
a(I5210015
I5723591
tp146
a(I5210015
I5925517
tp147
a(I5210015
I6174670
tp148
a(I5223409
I5427908
tp149
a(I5223409
I5498530
tp150
a(I5223409
I5580717
tp151
a(I5223409
I5658727
tp152
a(I5223409
I5698426
tp153
a(I5223409
I5733743
tp154
a(I5223409
I5821047
tp155
a(I5223409
I5969108
tp156
a(I5223409
I6329139
tp157
a(I5409818
I5854033
tp158
a(I5409818
I5866336
tp159
a(I5455166
I5854033
tp160
a(I5455166
I6379929
tp161
a(I5487972
I5866336
tp162
a(I5487972
I5925517
tp163
a(I5492806
I5695940
tp164
a(I5492806
I5800992
tp165
a(I5492806
I6329139
tp166
a(I5525464
I5695940
tp167
a(I5525464
I5800992
tp168
a(I5525464
I6274320
tp169
a(I5525464
I6329139
tp170
a(I5554516
I6355431
tp171
a(I5674743
I5932100
tp172
a(I5674743
I6210896
tp173
a(I5674743
I6235471
tp174
a(I5674743
I6287765
tp175
a(I5807522
I5922617
tp176
a(I5807522
I6054270
tp177
a(I5834252
I6117679
tp178
a(I5834252
I6274320
tp179
a(I5928905
I6132970
tp180
a(I5928905
I6274320
tp181
a(I5965410
I6632655
tp182
a(I5494810
I6027889
tp183
a(I5494810
I6355431
tp184
a(I5494810
I7115884
tp185
a(I5547839
I5674743
tp186
a(I5547839
I5961923
tp187
a(I5547839
I6329139
tp188
a(I6235471
I6632655
tp189
a(I6235471
I6767706
tp190
a(I5639603
I5961923
tp191
a(I5639603
I6327410
tp192
a(I5639603
I6329139
tp193
a(I5639603
I6340588
tp194
a(I5639603
I6355431
tp195
a(I5639603
I6429027
tp196
a(I5639603
I7115884
tp197
a(I5800992
I6156501
tp198
a(I5800992
I6274320
tp199
a(I5854033
I6274320
tp200
a(I5854033
I6355431
tp201
a(I5605793
I5830721
tp202
a(I5605793
I5939250
tp203
a(I5605793
I5965408
tp204
a(I5605793
I6117679
tp205
a(I5605793
I6132970
tp206
a(I5811238
I5939250
tp207
a(I5811238
I5965408
tp208
a(I5811238
I6117679
tp209
a(I5811238
I6287765
tp210
a(I5830721
I5939250
tp211
a(I5830721
I5965408
tp212
a(I5830721
I6117679
tp213
a(I5837458
I5939250
tp214
a(I5837458
I5965408
tp215
a(I5837458
I6117679
tp216
a(I6287765
I6368275
tp217
a(I5498392
I5639423
tp218
a(I5498392
I5699157
tp219
a(I5498392
I5726026
tp220
a(I5498392
I5779868
tp221
a(I5498392
I5842787
tp222
a(I5498392
I5852495
tp223
a(I5498392
I5855801
tp224
a(I5498392
I5856174
tp225
a(I5498392
I5863801
tp226
a(I5498392
I5872010
tp227
a(I5498392
I5876675
tp228
a(I5498392
I5880071
tp229
a(I5498392
I5882465
tp230
a(I5498392
I5885470
tp231
a(I5498392
I5922591
tp232
a(I5498392
I5932100
tp233
a(I5498392
I5942443
tp234
a(I5498392
I5948227
tp235
a(I5498392
I5955028
tp236
a(I5498392
I5957579
tp237
a(I5498392
I5958203
tp238
a(I5498392
I5958694
tp239
a(I5498392
I5965001
tp240
a(I5498392
I5965410
tp241
a(I5498392
I5989402
tp242
a(I5498392
I6007690
tp243
a(I5498392
I6043080
tp244
a(I5498392
I6046056
tp245
a(I5498392
I6068752
tp246
a(I5498392
I6103479
tp247
a(I5498392
I6126899
tp248
a(I5498392
I6130098
tp249
a(I5498392
I6167910
tp250
a(I5498392
I6168948
tp251
a(I5498392
I6174675
tp252
a(I5498392
I6197595
tp253
a(I5498392
I6235471
tp254
a(I5498392
I6251343
tp255
a(I5498392
I6321791
tp256
a(I5498392
I6379929
tp257
a(I5498392
I6540895
tp258
a(I5498392
I6632655
tp259
a(I5585069
I5800690
tp260
a(I5585069
I5842787
tp261
a(I5585069
I5858195
tp262
a(I5585069
I5869004
tp263
a(I5585069
I5876675
tp264
a(I5585069
I5922617
tp265
a(I5585069
I5932100
tp266
a(I5585069
I5942443
tp267
a(I5585069
I5948227
tp268
a(I5585069
I5957579
tp269
a(I5585069
I5958694
tp270
a(I5585069
I5965001
tp271
a(I5585069
I5965410
tp272
a(I5585069
I5976336
tp273
a(I5585069
I5989402
tp274
a(I5585069
I6001229
tp275
a(I5585069
I6007690
tp276
a(I5585069
I6012902
tp277
a(I5585069
I6043080
tp278
a(I5585069
I6046056
tp279
a(I5585069
I6068752
tp280
a(I5585069
I6130098
tp281
a(I5585069
I6167910
tp282
a(I5585069
I6174675
tp283
a(I5585069
I6235471
tp284
a(I5585069
I6251343
tp285
a(I5585069
I6294063
tp286
a(I5585069
I6321791
tp287
a(I5585069
I6440725
tp288
a(I5585069
I6632655
tp289
a(I5587128
I5716825
tp290
a(I5587128
I5726751
tp291
a(I5587128
I5856174
tp292
a(I5587128
I5863502
tp293
a(I5587128
I5922591
tp294
a(I5587128
I5932100
tp295
a(I5587128
I5965410
tp296
a(I5587128
I6007690
tp297
a(I5587128
I6043080
tp298
a(I5587128
I6103479
tp299
a(I5587128
I6130098
tp300
a(I5587128
I6168948
tp301
a(I5587128
I6174675
tp302
a(I5587128
I6197595
tp303
a(I5587128
I6235471
tp304
a(I5587128
I6368871
tp305
a(I5587128
I6379929
tp306
a(I5587128
I6440725
tp307
a(I5587128
I6632655
tp308
a(I5593838
I5726751
tp309
a(I5593838
I5779868
tp310
a(I5593838
I5800690
tp311
a(I5593838
I5842787
tp312
a(I5593838
I5869004
tp313
a(I5593838
I5876675
tp314
a(I5593838
I5880071
tp315
a(I5593838
I5942443
tp316
a(I5593838
I5948227
tp317
a(I5593838
I5957579
tp318
a(I5593838
I5958203
tp319
a(I5593838
I5958694
tp320
a(I5593838
I5965001
tp321
a(I5593838
I5976336
tp322
a(I5593838
I5989402
tp323
a(I5593838
I6007690
tp324
a(I5593838
I6046056
tp325
a(I5593838
I6051380
tp326
a(I5593838
I6068752
tp327
a(I5593838
I6167910
tp328
a(I5593838
I6174675
tp329
a(I5593838
I6235471
tp330
a(I5593838
I6251343
tp331
a(I5593838
I6321791
tp332
a(I5593838
I6329209
tp333
a(I5593838
I6632655
tp334
a(I5681484
I5885470
tp335
a(I5681484
I5932100
tp336
a(I5681484
I6007690
tp337
a(I5681484
I6167910
tp338
a(I5681484
I6235471
tp339
a(I5681484
I6294063
tp340
a(I5681484
I6321791
tp341
a(I5681484
I6329209
tp342
a(I5681484
I6540675
tp343
a(I5681484
I6540895
tp344
a(I5681484
I6923764
tp345
a(I5726026
I5876675
tp346
a(I5726026
I6007690
tp347
a(I5726026
I6074827
tp348
a(I5726026
I6168948
tp349
a(I5726026
I6197595
tp350
a(I5726026
I6251343
tp351
a(I5726026
I6329209
tp352
a(I5755942
I6007690
tp353
a(I5755942
I6541266
tp354
a(I5755942
I6632655
tp355
a(I5779868
I5900130
tp356
a(I5779868
I5965410
tp357
a(I5779868
I5976336
tp358
a(I5779868
I6068752
tp359
a(I5779868
I6167910
tp360
a(I5779868
I6174675
tp361
a(I5779868
I6251343
tp362
a(I5779868
I6321791
tp363
a(I5779868
I6632655
tp364
a(I5846396
I6012902
tp365
a(I5856174
I6440725
tp366
a(I5856174
I6540895
tp367
a(I5856174
I6632655
tp368
a(I5858804
I6126899
tp369
a(I5863708
I6327410
tp370
a(I5863708
I6355431
tp371
a(I5863708
I6429027
tp372
a(I5863708
I7115884
tp373
a(I5869004
I6068752
tp374
a(I5869004
I6167910
tp375
a(I5869004
I6251343
tp376
a(I5869004
I6321791
tp377
a(I5869004
I6368871
tp378
a(I5869004
I6440725
tp379
a(I5869004
I6540895
tp380
a(I5869004
I6632655
tp381
a(I5880071
I6068752
tp382
a(I5880071
I6167910
tp383
a(I5880071
I6251343
tp384
a(I5880071
I6321791
tp385
a(I5880071
I6368871
tp386
a(I5880071
I6440725
tp387
a(I5880071
I6540895
tp388
a(I5880071
I6632655
tp389
a(I5922591
I6440725
tp390
a(I5922591
I6540895
tp391
a(I5928880
I6329209
tp392
a(I5928880
I6440725
tp393
a(I5942443
I6068752
tp394
a(I5942443
I6235471
tp395
a(I5942443
I6632655
tp396
a(I5958203
I6068752
tp397
a(I5958203
I6632655
tp398
a(I6043080
I6440725
tp399
a(I6043080
I6767706
tp400
a(I6046056
I6334960
tp401
a(I6046056
I6632655
tp402
a(I6046056
I6696220
tp403
a(I6168948
I6368871
tp404
a(I6168948
I6440725
tp405
a(I6197595
I6440725
tp406
a(I5445934
I5744305
tp407
a(I5445934
I5800992
tp408
a(I5445934
I5807522
tp409
a(I5445934
I6045996
tp410
a(I5445934
I6054270
tp411
a(I5445934
I6274320
tp412
a(I5445934
I6329209
tp413
a(I5445934
I6767706
tp414
a(I5503980
I6133436
tp415
a(I5552270
I6329139
tp416
a(I5552270
I7160678
tp417
a(I5605662
I5779868
tp418
a(I5605662
I5800690
tp419
a(I5605662
I5807522
tp420
a(I5605662
I5849486
tp421
a(I5605662
I5858195
tp422
a(I5605662
I5863502
tp423
a(I5605662
I5869004
tp424
a(I5605662
I5880071
tp425
a(I5605662
I5932100
tp426
a(I5605662
I5942443
tp427
a(I5605662
I5958203
tp428
a(I5605662
I5965001
tp429
a(I5605662
I6001229
tp430
a(I5605662
I6046056
tp431
a(I5605662
I6051380
tp432
a(I5605662
I6264825
tp433
a(I5605662
I6294063
tp434
a(I5605662
I6329209
tp435
a(I5605662
I6340588
tp436
a(I5605662
I6377894
tp437
a(I5605662
I6440725
tp438
a(I5605662
I6773671
tp439
a(I5605662
I7344499
tp440
a(I5632957
I5849486
tp441
a(I5632957
I5932100
tp442
a(I5632957
I5965452
tp443
a(I5632957
I6045996
tp444
a(I5632957
I6051380
tp445
a(I5632957
I6066448
tp446
a(I5632957
I6264825
tp447
a(I5632957
I6294063
tp448
a(I5632957
I7160678
tp449
a(I5632957
I7344499
tp450
a(I5653939
I5849486
tp451
a(I5653939
I5922591
tp452
a(I5653939
I6017696
tp453
a(I5653939
I6051380
tp454
a(I5653939
I6168948
tp455
a(I5653939
I6197595
tp456
a(I5653939
I6632655
tp457
a(I5700637
I5922591
tp458
a(I5700637
I6040138
tp459
a(I5700637
I6054270
tp460
a(I5700637
I6130098
tp461
a(I5700637
I6197595
tp462
a(I5700637
I6582908
tp463
a(I5744305
I6054270
tp464
a(I5744305
I6329209
tp465
a(I5837832
I6329209
tp466
a(I5837832
I6767706
tp467
a(I5846708
I5922617
tp468
a(I5846708
I6767706
tp469
a(I5849486
I6051380
tp470
a(I5849486
I6294063
tp471
a(I5849486
I7160678
tp472
a(I5871697
I6274320
tp473
a(I6017696
I6281006
tp474
a(I6017696
I6294063
tp475
a(I6027889
I6355431
tp476
a(I6027889
I7115884
tp477
a(I6051380
I6281006
tp478
a(I6051380
I6294063
tp479
a(I6051380
I6327410
tp480
a(I6051380
I6355431
tp481
a(I6051380
I7115884
tp482
a(I6103199
I6767706
tp483
a(I6214560
I6361944
tp484
a(I5538848
I5925517
tp485
a(I5538848
I6210896
tp486
a(I5427908
I5580717
tp487
a(I5427908
I5658727
tp488
a(I5427908
I5698426
tp489
a(I5427908
I5922537
tp490
a(I5427908
I5969108
tp491
a(I5498530
I6329139
tp492
a(I5698426
I6132970
tp493
a(I5932100
I6368871
tp494
a(I5932100
I6540895
tp495
a(I7115884
I7494465
tp496
a(I7115884
I7637868
tp497
a(I7115884
I7640048
tp498
a(I7115884
I7654956
tp499
a(I7115884
I7715893
tp500
a(I5961923
I6340588
tp501
a(I5961923
I7291497
tp502
a(I6340588
I7291497
tp503
a(I5939250
I6117679
tp504
a(I5939250
I6132970
tp505
a(I5965408
I6117679
tp506
a(I5965408
I6132970
tp507
a(I6368275
I6486588
tp508
a(I6368275
I6645202
tp509
a(I6368275
I7291497
tp510
a(I5639423
I5885470
tp511
a(I5639423
I5932100
tp512
a(I5639423
I5965410
tp513
a(I5639423
I6174675
tp514
a(I5639423
I6235471
tp515
a(I5639423
I6379929
tp516
a(I5639423
I6440725
tp517
a(I5639423
I6540895
tp518
a(I5699157
I5852495
tp519
a(I5699157
I5965410
tp520
a(I5699157
I6007690
tp521
a(I5699157
I6068752
tp522
a(I5699157
I6167910
tp523
a(I5699157
I6174675
tp524
a(I5699157
I6251343
tp525
a(I5699157
I6321791
tp526
a(I5699157
I6632655
tp527
a(I5842787
I6068752
tp528
a(I5842787
I6167910
tp529
a(I5842787
I6235471
tp530
a(I5842787
I6251343
tp531
a(I5842787
I6321791
tp532
a(I5842787
I6368871
tp533
a(I5842787
I6440725
tp534
a(I5842787
I6632655
tp535
a(I5852495
I6068752
tp536
a(I5852495
I6167910
tp537
a(I5852495
I6251343
tp538
a(I5852495
I6321791
tp539
a(I5852495
I6540895
tp540
a(I5852495
I6632655
tp541
a(I5852495
I7344499
tp542
a(I5855801
I6256533
tp543
a(I5855801
I6312612
tp544
a(I5855801
I6375627
tp545
a(I5855801
I6379324
tp546
a(I5855801
I6471903
tp547
a(I5855801
I6540675
tp548
a(I5855801
I6591124
tp549
a(I5855801
I6743211
tp550
a(I5855801
I6835184
tp551
a(I5855801
I6923764
tp552
a(I5855801
I7041068
tp553
a(I5855801
I7198606
tp554
a(I5863801
I6168948
tp555
a(I5863801
I6197595
tp556
a(I5863801
I6440725
tp557
a(I5872010
I6103199
tp558
a(I5872010
I6379929
tp559
a(I5876675
I6068752
tp560
a(I5876675
I6167910
tp561
a(I5876675
I6251343
tp562
a(I5876675
I6321791
tp563
a(I5876675
I6632655
tp564
a(I5876675
I7344499
tp565
a(I5882465
I6068752
tp566
a(I5882465
I6251343
tp567
a(I5882465
I6632655
tp568
a(I5885470
I6068752
tp569
a(I5885470
I6090251
tp570
a(I5885470
I6251343
tp571
a(I5885470
I6540895
tp572
a(I5885470
I6632655
tp573
a(I5948227
I6068752
tp574
a(I5948227
I6632655
tp575
a(I5948227
I6767706
tp576
a(I5955028
I6068752
tp577
a(I5955028
I6632655
tp578
a(I5957579
I6068752
tp579
a(I5957579
I6632655
tp580
a(I5958694
I6068752
tp581
a(I5958694
I6235471
tp582
a(I5958694
I6632655
tp583
a(I5965001
I6632655
tp584
a(I5965001
I6767706
tp585
a(I5989402
I6632655
tp586
a(I6007690
I6632655
tp587
a(I6007690
I6767706
tp588
a(I6068752
I6368871
tp589
a(I6068752
I6440725
tp590
a(I6126899
I6540675
tp591
a(I6126899
I6923764
tp592
a(I5800690
I5900130
tp593
a(I5800690
I5965410
tp594
a(I5800690
I5976336
tp595
a(I5800690
I6068752
tp596
a(I5800690
I6167910
tp597
a(I5800690
I6174675
tp598
a(I5800690
I6251343
tp599
a(I5800690
I6321791
tp600
a(I5800690
I6540895
tp601
a(I5800690
I6632655
tp602
a(I5800690
I6767706
tp603
a(I5858195
I6168948
tp604
a(I5858195
I6197595
tp605
a(I5858195
I6294063
tp606
a(I5858195
I6632655
tp607
a(I5976336
I6168948
tp608
a(I5976336
I6197595
tp609
a(I5976336
I6632655
tp610
a(I6001229
I6168948
tp611
a(I6001229
I6197595
tp612
a(I6012902
I6632655
tp613
a(I5716825
I5955028
tp614
a(I5716825
I5976336
tp615
a(I5716825
I6068752
tp616
a(I5716825
I6235471
tp617
a(I5726751
I5932100
tp618
a(I5726751
I5972710
tp619
a(I5726751
I6485461
tp620
a(I5726751
I6540895
tp621
a(I5726751
I6656158
tp622
a(I5726751
I6656159
tp623
a(I5726751
I6669669
tp624
a(I5726751
I6692457
tp625
a(I5726751
I6699218
tp626
a(I5726751
I6723072
tp627
a(I5726751
I6749587
tp628
a(I5726751
I6768425
tp629
a(I5726751
I6830558
tp630
a(I5726751
I6960192
tp631
a(I5726751
I7018360
tp632
a(I5726751
I7029455
tp633
a(I5726751
I7137964
tp634
a(I5726751
I7144384
tp635
a(I5863502
I6440725
tp636
a(I5863502
I6632655
tp637
a(I6540675
I6738654
tp638
a(I6540675
I6923764
tp639
a(I6540675
I7041068
tp640
a(I6540675
I7198606
tp641
a(I6074827
I6334960
tp642
a(I6074827
I6696220
tp643
a(I5900130
I7041068
tp644
a(I5900130
I7198606
tp645
a(I6334960
I6696220
tp646
a(I6264825
I7074307
tp647
a(I6264825
I7366556
tp648
a(I6264825
I7424318
tp649
a(I6264825
I7460898
tp650
a(I6264825
I7467003
tp651
a(I6264825
I7471972
tp652
a(I6264825
I7613491
tp653
a(I6264825
I7637868
tp654
a(I6264825
I7651596
tp655
a(I6264825
I7657297
tp656
a(I6264825
I7715893
tp657
a(I6377894
I6645142
tp658
a(I6377894
I6743635
tp659
a(I6377894
I6946299
tp660
a(I6377894
I6953693
tp661
a(I6377894
I6959247
tp662
a(I6773671
I6946299
tp663
a(I6773671
I6953693
tp664
a(I6773671
I6959247
tp665
a(I6773671
I7041068
tp666
a(I6773671
I7198606
tp667
a(I6066448
I7074307
tp668
a(I6066448
I7471972
tp669
a(I6066448
I7613491
tp670
a(I6066448
I7637868
tp671
a(I6066448
I7657297
tp672
a(I6066448
I7711402
tp673
a(I6066448
I7715893
tp674
a(I6281006
I7041068
tp675
a(I6281006
I7041468
tp676
a(I6281006
I7198606
tp677
a(dp678
I6723072
(lp679
Vplunger
p680
aVreservoir
p681
aVassembl
p682
aVcharg
p683
aVexit
p684
aVport
p685
aVlength
p686
aVmemori
p687
aVuncharg
p688
aVpatient
p689
asI5958694
(lp690
Vnucleic
p691
aVnucleotid
p692
aVtarget
p693
aVsequenc
p694
aVmicrofluid
p695
aVacid
p696
aVfragment
p697
aVgiven
p698
aVnest
p699
aVoccupi
p700
asI5837832
(lp701
Vprobe
p702
aVexact
p703
aVsequenc
p704
aVarray
p705
aVcomplementari
p706
aVnucleic
p707
aVchip
p708
aVrefer
p709
aVoligonucleotid
p710
aVacid
p711
asI6090251
(lp712
Vfluid
p713
aVport
p714
aVintroduct
p715
aVchannel
p716
aVmicrofluid
p717
aVcapillari
p718
aVaspect
p719
aVmicrofabr
p720
aVsubstrat
p721
aVfacilit
p722
asI5834252
(lp723
Vpolynucleotid
p724
aVconcatem
p725
aVnucleic
p726
aVpcr
p727
aVpolymeras
p728
aVacid
p729
aVamplif
p730
aVfragment
p731
aVcomplementari
p732
aVoverlap
p733
asI5580717
(lp734
Vprotein
p735
aVencod
p736
aVsequenc
p737
aVlibrari
p738
aVbacteriophag
p739
aVphage
p740
aVnucleotid
p741
aVdna
p742
aVinterest
p743
aVhybridoma
p744
asI6068752
(lp745
Vmicrofluid
p746
aVgeometri
p747
aVincorpor
p748
aVborn
p749
aVmateri
p750
aVchannel
p751
aVthese
p752
aVthroughput
p753
aVdevic
p754
aVimprov
p755
asI6361944
(lp756
Vnanoparticl
p757
aVnucleic
p758
aVoligonucleotid
p759
aVacid
p760
aVnanofabr
p761
aVnanomateri
p762
aVattach
p763
aVthereto
p764
aVsequenc
p765
aVnanostructur
p766
asI6368275
(lp767
Vmicro
p768
aVinstrument
p769
aVlid
p770
aVwall
p771
aVproperti
p772
aVdeform
p773
aVoption
p774
aVcircumscrib
p775
aVmillimet
p776
aVgather
p777
asI5498392
(lp778
Vpolynucleotid
p779
aVmesoscal
p780
aVreaction
p781
aVpcr
p782
aVpolymeras
p783
aVpolymer
p784
aVchamber
p785
aVprimer
p786
aVdehybrid
p787
aVinlet
p788
asI5409818
(lp789
Vprimer
p790
aVstrand
p791
aVnucleic
p792
aVsequenc
p793
aVtemplat
p794
aVdna
p795
aVacid
p796
aVspecif
p797
aVrna
p798
aVsingl
p799
asI5700637
(lp800
Vsequenc
p801
aVpolynucleotid
p802
aVoligonucleotid
p803
aVchosen
p804
aVarray
p805
aVhybrid
p806
aVmrnas
p807
aVknown
p808
aVanalyz
p809
aVmrna
p810
asI5885470
(lp811
Vmicrofabr
p812
aVbiochemistri
p813
aVbiotechnolog
p814
aVpolymer
p815
aVbiochem
p816
aVmicrofluid
p817
aVchemistri
p818
aVanalys
p819
aVfield
p820
aVfluidic
p821
asI5726751
(lp822
Vcytomet
p823
aVphotodetector
p824
aVangl
p825
aVflow
p826
aVgroov
p827
aVreflect
p828
aVcollect
p829
aVlarg
p830
aVscatter
p831
aVsmall
p832
asI5800992
(lp833
Vbiolog
p834
aVmacromolecul
p835
aVsequenc
p836
aVfingerprint
p837
aVclassif
p838
aVreagent
p839
aVrecognit
p840
aVnucleic
p841
aVtypic
p842
aVmap
p843
asI7460898
(lp844
Vanalyt
p845
aVsensor
p846
aVcontinu
p847
aVmeasur
p848
aVdata
p849
aVsuch
p850
aVglucos
p851
aVelectrod
p852
aVbackground
p853
aVsuspend
p854
asI6281006
(lp855
Vaffin
p856
aVligand
p857
aVelectrochem
p858
aVassay
p859
aVreceptor
p860
aVbind
p861
aVdetect
p862
aVsystem
p863
aVfor
p864
asI5811238
(lp865
Vmutagenesi
p866
aVvitro
p867
aVpolynucleotid
p868
aVvivo
p869
aVfragment
p870
aVnucleic
p871
aVprotein
p872
aVshuffl
p873
aVreassembl
p874
aVevolut
p875
asI7654956
(lp876
Vtranscutan
p877
aVanalyt
p878
aVhost
p879
aVglucos
p880
aVmeasur
p881
aVpresent
p882
aVrelat
p883
aVinvent
p884
aVsensor
p885
aVgeneral
p886
asI6294063
(lp887
Vprogramm
p888
aVpacket
p889
aVmanipul
p890
aVforc
p891
aVcompartment
p892
aVposit
p893
aVmicrofluid
p894
aVarbitrarili
p895
aVfluidic
p896
aVchosen
p897
asI5939250
(lp898
Venzym
p899
aVdna
p900
aVspecifi
p901
aVmutagenesi
p902
aVclone
p903
aVactiv
p904
aVpopul
p905
aVlibrari
p906
aVheterogen
p907
aVscreen
p908
asI5639603
(lp909
Vsynthes
p910
aVcompound
p911
aVstochast
p912
aVscreen
p913
aVdivers
p914
aVtag
p915
aVmolecular
p916
aVisol
p917
aVcollect
p918
aVlarg
p919
asI6051380
(lp920
Vmicroloc
p921
aVreaction
p922
aVanalyt
p923
aVspecif
p924
aVbiolog
p925
aVmolecular
p926
aVreactant
p927
aVentiti
p928
aVstringenc
p929
aVnucleic
p930
asI7715893
(lp931
Vanalyt
p932
aVcalibr
p933
aVbaselin
p934
aVsensor
p935
aVmeasur
p936
aVcontinu
p937
aVsensit
p938
aVsuch
p939
aVglucos
p940
aVsuspend
p941
asI5855801
(lp942
Vetchabl
p943
aVmembran
p944
aVetch
p945
aVunetch
p946
aVmicroneedl
p947
aVlayer
p948
aVstructur
p949
aVelong
p950
aVetchant
p951
aVinterfac
p952
asI5958203
(lp953
Vmicrofluid
p954
aVelectropipettor
p955
aVtransport
p956
aVmateri
p957
aVionic
p958
aVelectrophoret
p959
aVchannel
p960
aVconcentr
p961
aVelectrophores
p962
aVspacer
p963
asI6486588
(lp964
Vbiosensor
p965
aVphysiolog
p966
aVacoust
p967
aVinterrog
p968
aVelement
p969
aVtransduc
p970
aVcondit
p971
aVsite
p972
aVimplant
p973
aVsignal
p974
asI7657297
(lp975
Vsensor
p976
aVanalyt
p977
aVimplant
p978
aVbodi
p979
aVhost
p980
aVsens
p981
aVcapsul
p982
aVforeign
p983
aVimmobil
p984
aVminiatur
p985
asI6960192
(lp986
Vfluid
p987
aVperson
p988
aVtransport
p989
aVreservoir
p990
aVhous
p991
aVskin
p992
aVdistal
p993
aVdevic
p994
aVpenetr
p995
aVexit
p996
asI5830721
(lp997
Vfragment
p998
aVlibrari
p999
aVcorresspond
p1000
aVpool
p1001
aVrecombin
p1002
aVpeptid
p1003
aVpns
p1004
aVcopi
p1005
aVmutagenesi
p1006
aVshuffl
p1007
asI5932100
(lp1008
Vmicrofabr
p1009
aVextract
p1010
aVstream
p1011
aVdifferenti
p1012
aVsampl
p1013
aVparticl
p1014
aVpicolit
p1015
aVdesir
p1016
aVdiffus
p1017
aVtransport
p1018
asI5492806
(lp1019
Vsubfrag
p1020
aVphage
p1021
aVnucleic
p1022
aVsequenc
p1023
aVhybrid
p1024
aVclone
p1025
aVgenom
p1026
aVm13
p1027
aVfragment
p1028
aV000
p1029
asI5043272
(lp1030
Vnucleic
p1031
aVtemplat
p1032
aVoligonucleotid
p1033
aVacid
p1034
aVprimer
p1035
aVamplif
p1036
aVsaid
p1037
aVrandom
p1038
aVapposit
p1039
aVsequenc
p1040
asI6749587
(lp1041
Vassembl
p1042
aVreusabl
p1043
aVdispens
p1044
aVexit
p1045
aVlocal
p1046
aVport
p1047
aVflow
p1048
aVdispos
p1049
aVmeter
p1050
aVfluid
p1051
asI6040138
(lp1052
sI6001229
(lp1053
Vmicrochip
p1054
aVchannel
p1055
aVinject
p1056
aVmanipul
p1057
aVosmot
p1058
aVsampl
p1059
aVmicrofluid
p1060
aVphotolithograph
p1061
aVelectrophoresi
p1062
aVfluidic
p1063
asI5863502
(lp1064
Vreaction
p1065
aVfluid
p1066
aVchannel
p1067
aVexchang
p1068
aVflow
p1069
aVparallel
p1070
aVway
p1071
aVsuch
p1072
aVchamber
p1073
aVcassett
p1074
asI5871697
(lp1075
Vsequenc
p1076
aVdna
p1077
aVcare
p1078
aVsampl
p1079
aVclone
p1080
aVsubsequ
p1081
aVtarget
p1082
aVchosen
p1083
aVexperiment
p1084
aVclassifi
p1085
asI6429027
(lp1086
Vmicrospher
p1087
aVarray
p1088
aVcomposit
p1089
aVdecod
p1090
aVsensor
p1091
aVutil
p1092
aVrelat
p1093
aVinvent
p1094
aVmethod
p1095
aVfor
p1096
asI5699157
(lp1097
Vspeci
p1098
aVelectrophoret
p1099
aVmicrofluid
p1100
aVfourier
p1101
aVphotodetector
p1102
aVbiochemistri
p1103
aVchannel
p1104
aVbiotechnolog
p1105
aVanalysi
p1106
aVband
p1107
asI7471972
(lp1108
Velectrod
p1109
aVimplant
p1110
aVcounter
p1111
aVbodi
p1112
aVwork
p1113
aVelectrochem
p1114
aVhead
p1115
aVreactiv
p1116
aVsensor
p1117
aVnonconduct
p1118
asI6767706
(lp1119
Vmolecul
p1120
aVhybrid
p1121
aVpolynucleotid
p1122
aVprotein
p1123
aVmicrofabr
p1124
aVdna
p1125
aVdetect
p1126
aVantibodi
p1127
aVantigen
p1128
aVreport
p1129
asI7029455
(lp1130
Vfluid
p1131
aVexit
p1132
aVflow
p1133
aVdevic
p1134
aVinstruct
p1135
aVdeliveri
p1136
aVinfus
p1137
aVlocal
p1138
aVport
p1139
aVprocessor
p1140
asI6540895
(lp1141
Vmicrofabr
p1142
aVbranch
p1143
aVchannel
p1144
aVcell
p1145
aVsort
p1146
aVdetect
p1147
aVregion
p1148
aVanalysi
p1149
aVreport
p1150
aVpoint
p1151
asI5965408
(lp1152
Vpolynucleotid
p1153
aVmutant
p1154
aVsynthesi
p1155
aVrandom
p1156
aVreanneal
p1157
aVamplif
p1158
aVpolypeptid
p1159
aVinterrupt
p1160
aVexpress
p1161
aVsexual
p1162
asI5882465
(lp1163
Vmicrofluid
p1164
aVmicrofabr
p1165
aVbond
p1166
aVmanufactur
p1167
aVsubstrat
p1168
aVimprov
p1169
aVdevic
p1170
aVvacuum
p1171
aVmethod
p1172
aVinvent
p1173
asI5965410
(lp1174
Vport
p1175
aVchannel
p1176
aVfluid
p1177
aVmonitor
p1178
aVlcr
p1179
aV421
p1180
aV413
p1181
aV407
p1182
aVtherebetween
p1183
aVsubstrat
p1184
asI7160678
(lp1185
Vmonolay
p1186
aVanalyt
p1187
aVoligom
p1188
aVdetect
p1189
aVself
p1190
aVtarget
p1191
aVmixtur
p1192
aVinsul
p1193
aVelectron
p1194
aVutil
p1195
asI6368871
(lp1196
Vmicrostructur
p1197
aVintern
p1198
aVchannel
p1199
aVmultipl
p1200
aVreactiv
p1201
aVstructur
p1202
aVmanipul
p1203
aVbranch
p1204
aVchip
p1205
aVmacromolecul
p1206
asI7291497
(lp1207
Vmicroarray
p1208
aVanalyt
p1209
aVagent
p1210
aVbioactiv
p1211
aVcapabl
p1212
aVtherapeut
p1213
aVmicrochannel
p1214
aVmedic
p1215
aVbodili
p1216
aVdevic
p1217
asI5658727
(lp1218
Vphage
p1219
aVpolypeptid
p1220
aVreceptor
p1221
aVantogen
p1222
aVcpviii
p1223
aVfilament
p1224
aVphagemid
p1225
aVheterodimer
p1226
aVprotein
p1227
aVmatrix
p1228
asI7115884
(lp1229
Vsensor
p1230
aVmicrospher
p1231
aVfiber
p1232
aVarray
p1233
aVbundl
p1234
aVanalyt
p1235
aVencod
p1236
aVoptic
p1237
aVself
p1238
aVinterrogat
p1239
asI6066448
(lp1240
Velectrochemiluminesc
p1241
aVmulti
p1242
aVtest
p1243
aVspecif
p1244
aVarray
p1245
aVreagent
p1246
aVmultipli
p1247
aVexcit
p1248
aVdomain
p1249
aVprocedur
p1250
asI6027889
(lp1251
sI5571698
(lp1252
Vbind
p1253
aVdomain
p1254
aVprotein
p1255
aVm13
p1256
aVfamili
p1257
aVgenet
p1258
aVphage
p1259
aVpotenti
p1260
aVpackag
p1261
aVmolecul
p1262
asI5821047
(lp1263
Vphagemid
p1264
aVprotein
p1265
aVphage
p1266
aVgene
p1267
aVhormon
p1268
aVvariant
p1269
aVfusion
p1270
aVm13
p1271
aVgrowth
p1272
aVexpress
p1273
asI6582908
(lp1274
Voligonucleotid
p1275
aVchemistri
p1276
aVanalys
p1277
aVmedicin
p1278
aVdivers
p1279
aVdiagnost
p1280
aVgene
p1281
aVbiolog
p1282
aVimpact
p1283
aVprobe
p1284
asI6321791
(lp1285
Vmicrofluid
p1286
aVlayer
p1287
aVmicrofabr
p1288
aVsubstrat
p1289
aVmicroscal
p1290
aVaspect
p1291
aVmulti
p1292
aVvarious
p1293
aVchannel
p1294
aVlike
p1295
asI4851331
(lp1296
Vtriphosph
p1297
aVnucleosid
p1298
aVnucleotid
p1299
aVpolynucleotid
p1300
aVprimer
p1301
aVsampl
p1302
aVstrand
p1303
aVhybrid
p1304
aVexonucleas
p1305
aVprobe
p1306
asI6835184
(lp1307
Vabrad
p1308
aVskin
p1309
aVmicroneedl
p1310
aVdeliveri
p1311
aVmicron
p1312
aVcorneum
p1313
aVsite
p1314
aVstratum
p1315
aVtransderm
p1316
aVirrit
p1317
asI5965452
(lp1318
Vsampl
p1319
aVhold
p1320
aVelectrod
p1321
aVcircuit
p1322
aVtimeshar
p1323
aVarray
p1324
aVbiolog
p1325
aVmultiplex
p1326
aVmatrix
p1327
aVcapacitor
p1328
asI5925517
(lp1329
Vprobe
p1330
aVunimolecular
p1331
aVtarget
p1332
aVlabel
p1333
aVconform
p1334
aVsequenc
p1335
aVinteract
p1336
aVassay
p1337
aVcomplement
p1338
aVbimolecular
p1339
asI5552270
(lp1340
Vdna
p1341
aVoligonucleotid
p1342
aVdissoci
p1343
aVhybrid
p1344
aVduplex
p1345
aVgel
p1346
aVsequenc
p1347
aVarray
p1348
aVwash
p1349
aVtemperatur
p1350
asI6959247
(lp1351
Vmeter
p1352
aVsampl
p1353
aVstrip
p1354
aVglucos
p1355
aVelectrod
p1356
aVblood
p1357
aVtest
p1358
aVcounter
p1359
aVauto
p1360
aVwork
p1361
asI5837458
(lp1362
Vmetabol
p1363
aVrecombin
p1364
aVrecurs
p1365
aVmultigen
p1366
aVwhole
p1367
aVbioprocess
p1368
aVsequenc
p1369
aVevolut
p1370
aVevolv
p1371
aVplasmid
p1372
asI5876675
(lp1373
Vmicrofluid
p1374
aVfoul
p1375
aVmanual
p1376
aVhandl
p1377
aVdevic
p1378
aVeasier
p1379
aVresult
p1380
aVcontact
p1381
aVcontamin
p1382
aVotherwis
p1383
asI6591124
(lp1384
Vmicroneedl
p1385
aVinterstiti
p1386
aVsensor
p1387
aVfluid
p1388
aVarray
p1389
aVdiaphragm
p1390
aVfinger
p1391
aVportabl
p1392
aVpump
p1393
aVcould
p1394
asI5124246
(lp1395
Voligonucleotid
p1396
aVmultim
p1397
aVstrand
p1398
aVnucleic
p1399
aVsingl
p1400
aVamplifi
p1401
aVassay
p1402
aVcomplementari
p1403
aVhybrid
p1404
aVacid
p1405
asI5494810
(lp1406
Vligas
p1407
aVdna
p1408
aVnucleic
p1409
aVsequenc
p1410
aVhb8
p1411
aVaquaticus
p1412
aVthermus
p1413
aVlcr
p1414
aVacid
p1415
aVthermophil
p1416
asI6656158
(lp1417
Vreservoir
p1418
aVscrew
p1419
aVplunger
p1420
aVlead
p1421
aVlength
p1422
aVelement
p1423
aVexit
p1424
aVuncharg
p1425
aVwall
p1426
aVperipheri
p1427
asI4800159
(lp1428
Vnucleic
p1429
aVprimer
p1430
aVacid
p1431
aVsequenc
p1432
aVamplifi
p1433
aVcomplementari
p1434
aVdetect
p1435
aVstepwis
p1436
aVclone
p1437
aVoligonucleotid
p1438
asI6017696
(lp1439
sI5498530
(lp1440
Vprotein
p1441
aVpeptid
p1442
aVdna
p1443
aVbind
p1444
aVrandom
p1445
aVscreen
p1446
aVlibrari
p1447
aVfusion
p1448
aVligand
p1449
aVrecombin
p1450
asI6312612
(lp1451
Vmicroneedl
p1452
aVmicrofabr
p1453
aVskin
p1454
aVarray
p1455
aVsilicon
p1456
aVintracutan
p1457
aVreptil
p1458
aVcorneum
p1459
aVcreatur
p1460
aVhollow
p1461
asI6696220
(lp1462
Vreconvers
p1463
aVcolor
p1464
aVviewabl
p1465
aVimprint
p1466
aVnano
p1467
aVtemplat
p1468
aVmicro
p1469
aVsuit
p1470
aVroom
p1471
aVphotograph
p1472
asI7711402
(lp1473
Vanalyt
p1474
aVmicroarchitectur
p1475
aVdevic
p1476
aVimplant
p1477
aVmonitor
p1478
aVglucos
p1479
aVlevel
p1480
aVallow
p1481
aVdetermin
p1482
aVblood
p1483
asI5942443
(lp1484
Vscreen
p1485
aVthroughput
p1486
aVassay
p1487
aVmicroscal
p1488
aVbiochem
p1489
aVmicrofluid
p1490
aVfluidic
p1491
aVhigh
p1492
aVvarieti
p1493
aVdevic
p1494
asI7137964
(lp1495
Vfluid
p1496
aVexit
p1497
aVflow
p1498
aVdevic
p1499
aVinstruct
p1500
aVdeliveri
p1501
aVinfus
p1502
aVlocal
p1503
aVport
p1504
aVprocessor
p1505
asI5585069
(lp1506
Varray
p1507
aVsampl
p1508
aVmicrolaboratori
p1509
aVtest
p1510
aVfluidic
p1511
aVmicroelectron
p1512
aVclinic
p1513
aVchannel
p1514
aVlight
p1515
aVsynthes
p1516
asI5744305
(lp1517
Vtechniqu
p1518
aVphotoremov
p1519
aVphotolabil
p1520
aVchemic
p1521
aVlinker
p1522
aVchemistri
p1523
aVphotolithographi
p1524
aVprotect
p1525
aVstrategi
p1526
aVdivers
p1527
asI5846708
(lp1528
Vsite
p1529
aVtest
p1530
aVmolecular
p1531
aVstructur
p1532
aVprobe
p1533
aVsubstanc
p1534
aVtarget
p1535
aVsampl
p1536
aVbond
p1537
aVmonolith
p1538
asI5587128
(lp1539
Vpolynucleotid
p1540
aVamplif
p1541
aVreaction
p1542
aVchamber
p1543
aVpreselect
p1544
aVmesoscal
p1545
aVdevic
p1546
aVregul
p1547
aVmicrofabr
p1548
aVamplifi
p1549
asI6133436
(lp1550
Vbead
p1551
aVnucleic
p1552
aVsolid
p1553
aVchemistri
p1554
aVacid
p1555
aVimmobil
p1556
aVconjug
p1557
aVsupport
p1558
aVpractition
p1559
aVnovel
p1560
asI5538848
(lp1561
Voligonucleotid
p1562
aVquencher
p1563
aVreport
p1564
aVnucleic
p1565
aVmolecul
p1566
aVprobe
p1567
aVquench
p1568
aVwhenev
p1569
aVunquench
p1570
aVamplif
p1571
asI5961923
(lp1572
Vmatrix
p1573
aVmemori
p1574
aVmatric
p1575
aVassay
p1576
aVmacromolecul
p1577
aVbiolog
p1578
aVcombin
p1579
aVimmunoassay
p1580
aVmolecul
p1581
aVmateri
p1582
asI5427908
(lp1583
Vprotein
p1584
aVencod
p1585
aVsequenc
p1586
aVlibrari
p1587
aVbacteriophag
p1588
aVphage
p1589
aVnucleotid
p1590
aVdna
p1591
aVinterest
p1592
aVhybridoma
p1593
asI7640048
(lp1594
Vanalyt
p1595
aVhost
p1596
aVtranscutan
p1597
aVglucos
p1598
aVmeasur
p1599
aVpresent
p1600
aVrelat
p1601
aVinvent
p1602
aVsensor
p1603
aVgeneral
p1604
asI5965001
(lp1605
Vmicrofluid
p1606
aVmultiplex
p1607
aVelectroosmot
p1608
aVelectrod
p1609
aVvoltag
p1610
aVelectrokinet
p1611
aVfluid
p1612
aVvari
p1613
aVelectrophoret
p1614
aVforc
p1615
asI6375627
(lp1616
Vphysiolog
p1617
aVfluid
p1618
aVpunctur
p1619
aVanalysi
p1620
aVsampl
p1621
aVbodi
p1622
aVskin
p1623
aVlanc
p1624
aVsensor
p1625
aVchannel
p1626
asI6632655
(lp1627
Vmicrofluid
p1628
aVflowabl
p1629
aVassay
p1630
aVarray
p1631
aVmicroparticl
p1632
aVparticl
p1633
aVhydrodynam
p1634
aVfix
p1635
aVsystem
p1636
aVset
p1637
asI6699218
(lp1638
Vfluid
p1639
aVtransport
p1640
aVtube
p1641
aVdistal
p1642
aVmember
p1643
aVpenetr
p1644
aVpassageway
p1645
aVexpans
p1646
aVdispens
p1647
aVtranscutan
p1648
asI5969108
(lp1649
Vsbp
p1650
aVcapsid
p1651
aVdna
p1652
aVmember
p1653
aVrgdp
p1654
aVexpress
p1655
aVphagemid
p1656
aVfusion
p1657
aVgenet
p1658
aVpolypeptid
p1659
asI6156501
(lp1660
Voligonucleotid
p1661
aVanalogu
p1662
aVnucleic
p1663
aVarray
p1664
aVacid
p1665
aVunmodifi
p1666
aVnucleotid
p1667
aVbound
p1668
aVhybrid
p1669
aVprobe
p1670
asI6329209
(lp1671
Vprotein
p1672
aVarray
p1673
aVcaptur
p1674
aVagent
p1675
aVproteom
p1676
aVcell
p1677
aVexpress
p1678
aVpopul
p1679
aVassess
p1680
aVparticular
p1681
asI4889818
(lp1682
Venzym
p1683
aVthermost
p1684
aVaquaticus
p1685
aV000
p1686
aVthermus
p1687
aVpurifi
p1688
aVtriphosph
p1689
aVdalton
p1690
aVlend
p1691
aVsequenc
p1692
asI5842787
(lp1693
Vmicrofluid
p1694
aVchannel
p1695
aVvari
p1696
aVdepth
p1697
aVdescrib
p1698
aVprevious
p1699
aVincorpor
p1700
aVunexpect
p1701
aVbenefici
p1702
aVbenefit
p1703
asI6953693
(lp1704
Vmeter
p1705
aVsampl
p1706
aVstrip
p1707
aVglucos
p1708
aVelectrod
p1709
aVblood
p1710
aVtest
p1711
aVcounter
p1712
aVauto
p1713
aVwork
p1714
asI6738654
(lp1715
Vanalyt
p1716
aVconcentr
p1717
aVmeasur
p1718
aVmonitor
p1719
aVsingl
p1720
aVtime
p1721
aVhost
p1722
aVmake
p1723
aVgiven
p1724
aVuse
p1725
asI6471903
(lp1726
Vmicroneedl
p1727
aVmold
p1728
aVplastic
p1729
aVarray
p1730
aVmicroinject
p1731
aVmicropillar
p1732
aVintracutan
p1733
aVmicrohol
p1734
aVmicroform
p1735
aVmicro
p1736
asI5502177
(lp1737
Vpartner
p1738
aVpyrimidin
p1739
aVoligonucleotid
p1740
aVlabel
p1741
aVbind
p1742
aVsup
p1743
aVstr1
p1744
aVderiv
p1745
aVcompound
p1746
aVstructur
p1747
asI5755942
(lp1748
Varray
p1749
aVsampl
p1750
aVmicrolaboratori
p1751
aVtest
p1752
aVmicroelectron
p1753
aVchannel
p1754
aVlight
p1755
aVsynthes
p1756
aVsynthesi
p1757
aVpartit
p1758
asI5972710
(lp1759
Vlaminar
p1760
aVstream
p1761
aVanalyt
p1762
aVchannel
p1763
aVparticl
p1764
aVflow
p1765
aVindic
p1766
aVsampl
p1767
aVpresenc
p1768
aVdiffus
p1769
asI5922537
(lp1770
Vparticl
p1771
aVphage
p1772
aVentiti
p1773
aVassay
p1774
aVlabel
p1775
aVbiosensor
p1776
aVcompetit
p1777
aVreport
p1778
aVvarieti
p1779
aVparamagnet
p1780
asI6132970
(lp1781
Vpolynucleotid
p1782
aVshuffl
p1783
aVstrand
p1784
aVanneal
p1785
aVvariant
p1786
aVpartial
p1787
aVregion
p1788
aVextens
p1789
aVsimilar
p1790
aVentail
p1791
asI6645202
(lp1792
Vablat
p1793
aVtissu
p1794
aVfocus
p1795
aVaspect
p1796
aVdeliv
p1797
aVnearer
p1798
aVelement
p1799
aVcharacterist
p1800
aVultrasound
p1801
aVfocal
p1802
asI5593838
(lp1803
Varray
p1804
aVsampl
p1805
aVmicrolaboratori
p1806
aVsynthes
p1807
aVmani
p1808
aVchannel
p1809
aVtest
p1810
aVprocess
p1811
aVmicroelectron
p1812
aVwell
p1813
asI5800690
(lp1814
Vmicrofluid
p1815
aVmultiplex
p1816
aVelectroosmot
p1817
aVelectrod
p1818
aVvoltag
p1819
aVelectrokinet
p1820
aVfluid
p1821
aVvari
p1822
aVelectrophoret
p1823
aVforc
p1824
asI6174675
(lp1825
Vport
p1826
aVchannel
p1827
aVfluid
p1828
aVmonitor
p1829
aVlcr
p1830
aV421
p1831
aV413
p1832
aV407
p1833
aVtherebetween
p1834
aVsubstrat
p1835
asI5436149
(lp1836
Vpolymeras
p1837
aVdna
p1838
aVthermus
p1839
aVthermost
p1840
aVaquaticus
p1841
aVflavus
p1842
aVexonucleas
p1843
aVsequenc
p1844
aVamino
p1845
aVacid
p1846
asI5674743
(lp1847
sI6251343
(lp1848
Vmicrofluid
p1849
aVcover
p1850
aVport
p1851
aVbodi
p1852
aVlayer
p1853
aVstructur
p1854
aVchannel
p1855
aVmicroscal
p1856
aVapertur
p1857
aVdispos
p1858
asI5639423
(lp1859
Vinstrument
p1860
aVmicrofabr
p1861
aVreaction
p1862
aVagit
p1863
aVpicolit
p1864
aVlamb
p1865
aVmicrolit
p1866
aVcycl
p1867
aVpump
p1868
aVbiochem
p1869
asI5880071
(lp1870
Vmicrofluid
p1871
aVelectropipettor
p1872
aVmateri
p1873
aVtransport
p1874
aVionic
p1875
aVelectrophoret
p1876
aVchannel
p1877
aVconcentr
p1878
aVelectrophores
p1879
aVspacer
p1880
asI7041068
(lp1881
Vsampl
p1882
aVmodul
p1883
aVlancet
p1884
aVmay
p1885
aVcartridg
p1886
aVpenetr
p1887
aVtissu
p1888
aVanalyz
p1889
aVoption
p1890
aVdevic
p1891
asI7651596
(lp1892
Vcellulos
p1893
aVanalyt
p1894
aVdomain
p1895
aVinterfer
p1896
aVhost
p1897
aVglucos
p1898
aVmeasur
p1899
aVpresent
p1900
aVbase
p1901
aVincorpor
p1902
asI6274320
(lp1903
Vnucleic
p1904
aVacid
p1905
aVsequenc
p1906
aVmolecul
p1907
aVpopul
p1908
aVanneal
p1909
aVcircular
p1910
aVamplifi
p1911
aVbyproduct
p1912
aVprimer
p1913
asI6656159
(lp1914
Vreservoir
p1915
aVscrew
p1916
aVplunger
p1917
aVlead
p1918
aVlength
p1919
aVelement
p1920
aVexit
p1921
aVuncharg
p1922
aVwall
p1923
aVperipheri
p1924
asI6440725
(lp1925
Velut
p1926
aVsampl
p1927
aVcartridg
p1928
aV122
p1929
aVanalyt
p1930
aVflow
p1931
aVfluid
p1932
aVpath
p1933
aVcompon
p1934
aVthrough
p1935
asI5475610
(lp1936
sI5863708
(lp1937
Vchannel
p1938
aVpassag
p1939
aVfirst
p1940
aVsurfac
p1941
aVsecond
p1942
aVfourth
p1943
aVintersect
p1944
aVsubstrat
p1945
aVwherein
p1946
aVcapillari
p1947
asI5605662
(lp1948
Vreaction
p1949
aVanalyt
p1950
aVspecif
p1951
aVbiolog
p1952
aVmolecular
p1953
aVreactant
p1954
aVmicroloc
p1955
aVentiti
p1956
aVstringenc
p1957
aVdevic
p1958
asI5922591
(lp1959
Vsampl
p1960
aVnucleic
p1961
aVdiagnost
p1962
aVintegr
p1963
aVacquisit
p1964
aVnovo
p1965
aVacid
p1966
aVapplic
p1967
aVanalysi
p1968
aVdevic
p1969
asI7074307
(lp1970
Vanalyt
p1971
aVelectrochem
p1972
aVelectrod
p1973
aVauxiliari
p1974
aVinterfer
p1975
aVoxygen
p1976
aVmeasur
p1977
aVenzym
p1978
aVadvantag
p1979
aVinaccuraci
p1980
asI6768425
(lp1981
Vremot
p1982
aVprocessor
p1983
aVmedic
p1984
aVlocal
p1985
aVtreatment
p1986
aVcommunic
p1987
aVconnect
p1988
aVelement
p1989
aVcontrol
p1990
aVapparatus
p1991
asI6045996
(lp1992
sI5445934
(lp1993
Vphotoremov
p1994
aVsubstrat
p1995
aVmonom
p1996
aVsequenc
p1997
aVselect
p1998
aVoligonucleotid
p1999
aVgroup
p2000
aVarea
p2001
aVamino
p2002
aVbind
p2003
asI6117679
(lp2004
sI6329139
(lp2005
Vautom
p2006
aVmemori
p2007
aVmicrovessel
p2008
aVmatric
p2009
aVencodabi
p2010
aVprotocol
p2011
aVmanual
p2012
aVdiscoveri
p2013
aVsort
p2014
aVcleaver
p2015
asI6743211
(lp2016
Vmicroneedl
p2017
aVelast
p2018
aVbiolog
p2019
aVskin
p2020
aVpenetr
p2021
aVbarrier
p2022
aVmolecul
p2023
aVdevic
p2024
aVdeform
p2025
aVenhanc
p2026
asI5202231
(lp2027
Vsubclon
p2028
aVkbp
p2029
aVgenom
p2030
aVdna
p2031
aVhybrid
p2032
aVsequenc
p2033
aVphage
p2034
aV000
p2035
aVmillion
p2036
aVclone
p2037
asI5922617
(lp2038
Vheader
p2039
aVpreprepar
p2040
aVtrack
p2041
aVassay
p2042
aVrapid
p2043
aVsite
p2044
aVinteract
p2045
aVdisk
p2046
aVemit
p2047
aVinterpret
p2048
asI6379324
(lp2049
Vmicroneedl
p2050
aVdrug
p2051
aVarray
p2052
aVskin
p2053
aVelectrod
p2054
aVhollow
p2055
aVbioelectrochem
p2056
aVelectr
p2057
aVfluid
p2058
aVintracutan
p2059
asI6007690
(lp2060
Velectrophoret
p2061
aVflowpath
p2062
aVmicrofluid
p2063
aVbioresearch
p2064
aVenrich
p2065
aVmain
p2066
aVdiagnost
p2067
aVintegr
p2068
aVsubject
p2069
aVgenom
p2070
asI5455166
(lp2071
Vstrand
p2072
aVpolymeras
p2073
aVamplif
p2074
aVnick
p2075
aVendonucleas
p2076
aVpolymer
p2077
aVdisplac
p2078
aVwill
p2079
aVdigest
p2080
aVnewli
p2081
asI5547839
(lp2082
Vpolym
p2083
aVmicroflouresc
p2084
aVimmobil
p2085
aVlabel
p2086
aVmonom
p2087
aVmacromolecul
p2088
aVsequenc
p2089
aVsolid
p2090
aVchemistri
p2091
aVtermin
p2092
asI7494465
(lp2093
Vtranscutan
p2094
aVanalyt
p2095
aVhost
p2096
aVglucos
p2097
aVmeasur
p2098
aVpresent
p2099
aVrelat
p2100
aVinvent
p2101
aVsensor
p2102
aVgeneral
p2103
asI5948227
(lp2104
Velectrophoret
p2105
aVcapillari
p2106
aVcharg
p2107
aVmacromolecular
p2108
aVsurfac
p2109
aVchannel
p2110
aVadsorb
p2111
aVnet
p2112
aVspeci
p2113
aVsepar
p2114
asI4965188
(lp2115
Vnucleic
p2116
aVprimer
p2117
aVacid
p2118
aVsequenc
p2119
aVamplifi
p2120
aVenzym
p2121
aVcomplementari
p2122
aVhybrid
p2123
aVthermost
p2124
aVdenatur
p2125
asI6692457
(lp2126
Vdiaphragm
p2127
aVflow
p2128
aVsensor
p2129
aVpatient
p2130
aVassembl
p2131
aVpath
p2132
aVchamber
p2133
aVexit
p2134
aVsurfac
p2135
aVcondit
p2136
asI5726026
(lp2137
Vmesoscal
p2138
aVsampl
p2139
aVmicrovolum
p2140
aVfraction
p2141
aVanalys
p2142
aVenrich
p2143
aVcell
p2144
aVprepar
p2145
aVpolynucleotid
p2146
aVamplif
p2147
asI6210891
(lp2148
Vpyrophosph
p2149
aVdideoxynucleotid
p2150
aVdna
p2151
aVdeoxynucleotid
p2152
aVprimer
p2153
aVtarget
p2154
aVsampl
p2155
aVextens
p2156
aVpolymer
p2157
aVsequenc
p2158
asI5681484
(lp2159
Varray
p2160
aVsampl
p2161
aVchannel
p2162
aVmicrolaboratori
p2163
aVsynthes
p2164
aVmani
p2165
aVintersect
p2166
aVetch
p2167
aVtest
p2168
aVprocess
p2169
asI5989402
(lp2170
Vmicrofluid
p2171
aVmonitor
p2172
aVcontrol
p2173
aVancillari
p2174
aVsystem
p2175
aVinterfac
p2176
aVenvironment
p2177
aVperform
p2178
aVconjunct
p2179
aVtypic
p2180
asI6235471
(lp2181
Vbiochem
p2182
aVfluid
p2183
aVmicroscal
p2184
aVscreen
p2185
aVperform
p2186
aVmicrofluid
p2187
aVgenom
p2188
aViter
p2189
aVsystem
p2190
aVpurif
p2191
asI6210896
(lp2192
Vmolecular
p2193
aVpolym
p2194
aVmotor
p2195
aVstation
p2196
aVaris
p2197
aVanalysi
p2198
aVinteract
p2199
aVlinear
p2200
aVagent
p2201
aVspecif
p2202
asI5118801
(lp2203
Vprobe
p2204
aVnucleotid
p2205
aVswitch
p2206
aVsequenc
p2207
aVnucleic
p2208
aVmolecular
p2209
aVtarget
p2210
aVacid
p2211
aVassay
p2212
aVkit
p2213
asI5554516
(lp2214
Vsequenc
p2215
aVnucleic
p2216
aVprimer
p2217
aVamplif
p2218
aVtarget
p2219
aVpromot
p2220
aVacid
p2221
aVkit
p2222
aVforens
p2223
aVtranscriptas
p2224
asI7198606
(lp2225
Vpenetr
p2226
aVcartridg
p2227
aVtissu
p2228
aVmember
p2229
aVanalyt
p2230
aVdriver
p2231
aVcouplabl
p2232
aVsingl
p2233
aVfluid
p2234
aVbodi
p2235
asI5661016
(lp2236
Vimmunoglobulin
p2237
aVtransgen
p2238
aVheterolog
p2239
aVhuman
p2240
aVanim
p2241
aVendogen
p2242
aVantibodi
p2243
aVgene
p2244
aVimmort
p2245
aVnon
p2246
asI5716825
(lp2247
Vmaldi
p2248
aVtof
p2249
aVionize
p2250
aVanalysi
p2251
aVsampl
p2252
aVminiatur
p2253
aVintegr
p2254
aVanalyt
p2255
aVnucleic
p2256
aVmass
p2257
asI6197595
(lp2258
Vsampl
p2259
aVnucleic
p2260
aVdiagnost
p2261
aVintegr
p2262
aVacquisit
p2263
aVnovo
p2264
aVacid
p2265
aVapplic
p2266
aVanalysi
p2267
aVdevic
p2268
asI6074827
(lp2269
Velectrophoret
p2270
aVflowpath
p2271
aVmicrofluid
p2272
aVbioresearch
p2273
aVenrich
p2274
aVmain
p2275
aVnucleic
p2276
aVdiagnost
p2277
aVsubject
p2278
aVgenom
p2279
asI5866336
(lp2280
Vamplif
p2281
aVoligonucleotid
p2282
aVacceptor
p2283
aVmoieti
p2284
aVprimer
p2285
aVdonor
p2286
aVfluorophor
p2287
aVlabel
p2288
aVnucleic
p2289
aVunincorpor
p2290
asI7613491
(lp2291
Vpoli
p2292
aVpolym
p2293
aVmembran
p2294
aVsilicon
p2295
aVanalyt
p2296
aVoxid
p2297
aVblend
p2298
aVethylen
p2299
aVsolubl
p2300
aVtriblock
p2301
asI5900130
(lp2302
Vmicrochannel
p2303
aVintersect
p2304
aVthird
p2305
aVfourth
p2306
aVliquid
p2307
aVmove
p2308
aVstage
p2309
aVsampl
p2310
aVcarrier
p2311
aVconcurr
p2312
asI5188963
(lp2313
Vmatrix
p2314
aVspecimen
p2315
aVanalysi
p2316
aVcarrier
p2317
aVelectrophoresi
p2318
aVtreat
p2319
aVsurveil
p2320
aVrna
p2321
aVgenet
p2322
aVamplif
p2323
asI5487972
(lp2324
Voligonucleotid
p2325
aVlabel
p2326
aVnucleic
p2327
aV3'exonucleas
p2328
aVpolymeras
p2329
aVacid
p2330
aVnucleas
p2331
aVdetect
p2332
aVpcr
p2333
aVcleav
p2334
asI6669669
(lp2335
Vexit
p2336
aVlamin
p2337
aVpatient
p2338
aVport
p2339
aVpassageway
p2340
aVfluid
p2341
aVtranscutan
p2342
aVlend
p2343
aVassembl
p2344
aVdevic
p2345
asI6167910
(lp2346
Vmicrofluid
p2347
aVlayer
p2348
aVmicrofabr
p2349
aVsubstrat
p2350
aVmicroscal
p2351
aVaspect
p2352
aVmulti
p2353
aVvarious
p2354
aVchannel
p2355
aVlike
p2356
asI6046056
(lp2357
Vscreen
p2358
aVthroughput
p2359
aVassay
p2360
aVmicroscal
p2361
aVbiochem
p2362
aVmicrofluid
p2363
aVfluidic
p2364
aVhigh
p2365
aVvarieti
p2366
aVdevic
p2367
asI6355431
(lp2368
Vamplif
p2369
aVnucleic
p2370
aVtarget
p2371
aVquantifi
p2372
aVacid
p2373
aVbead
p2374
aVdetect
p2375
aVvarieti
p2376
aVtechniqu
p2377
aVreaction
p2378
asI7637868
(lp2379
Vimplant
p2380
aVbead
p2381
aVbeliev
p2382
aVcomposit
p2383
aVmateri
p2384
aVdevic
p2385
aVmatrix
p2386
aVhollow
p2387
aVmix
p2388
aVincorpor
p2389
asI5976336
(lp2390
Vmicrofluid
p2391
aVgeometri
p2392
aVincorpor
p2393
aVborn
p2394
aVmateri
p2395
aVchannel
p2396
aVthese
p2397
aVthroughput
p2398
aVdevic
p2399
aVimprov
p2400
asI5733743
(lp2401
Vsbp
p2402
aVrecombin
p2403
aVrgdps
p2404
aVmember
p2405
aVbind
p2406
aVloxp
p2407
aVpolypeptid
p2408
aVspecif
p2409
aVvector
p2410
aVdisplay
p2411
asI7344499
(lp2412
Vmicroneedl
p2413
aVbiolog
p2414
aVfluid
p2415
aVcollect
p2416
aVantigen
p2417
aVprefer
p2418
aVwithdraw
p2419
aVsens
p2420
aVcarcinoembryon
p2421
aVpainless
p2422
asI6168948
(lp2423
Vnucleic
p2424
aVminiatur
p2425
aVacid
p2426
aVgenet
p2427
aVdiagnost
p2428
aVbind
p2429
aVsite
p2430
aVanalysi
p2431
aVzone
p2432
aVextract
p2433
asI7424318
(lp2434
Vanalyt
p2435
aVsensor
p2436
aVcontinu
p2437
aVmeasur
p2438
aVdata
p2439
aVsuch
p2440
aVglucos
p2441
aVelectrod
p2442
aVbackground
p2443
aVsuspend
p2444
asI7018360
(lp2445
Vflow
p2446
aVexit
p2447
aVpath
p2448
aVrestrict
p2449
aVpatient
p2450
aVair
p2451
aVfluid
p2452
aVport
p2453
aVdevic
p2454
aVtranscutan
p2455
asI5863801
(lp2456
Vnucleic
p2457
aVprepar
p2458
aVacid
p2459
aVcassett
p2460
aVbiolog
p2461
aVautom
p2462
aVstrip
p2463
aVsampl
p2464
aVtransfer
p2465
aVstorag
p2466
asI5698426
(lp2467
Vand
p2468
aVexhibit
p2469
aVcomposit
p2470
aVprocaryot
p2471
aVencod
p2472
aVpolypeptid
p2473
aVsecond
p2474
aVreceptor
p2475
aVlibrari
p2476
aVsurfac
p2477
asI5846396
(lp2478
Vfeeder
p2479
aVreservoir
p2480
aVchannel
p2481
aVdistribut
p2482
aVbeta
p2483
aValpha
p2484
aVfourth
p2485
aVthird
p2486
aVsecond
p2487
aVsituat
p2488
asI6054270
(lp2489
sI6256533
(lp2490
Vmicroneedl
p2491
aVdrug
p2492
aVfluid
p2493
aVsampl
p2494
aVbodi
p2495
aViontophoret
p2496
aVarray
p2497
aVdispens
p2498
aVelectrod
p2499
aVbioelectrochem
p2500
asI6540675
(lp2501
Vanalysi
p2502
aVneedl
p2503
aVsite
p2504
aVadapt
p2505
aVanalyt
p2506
aVlight
p2507
aVretract
p2508
aVhous
p2509
aVtip
p2510
aVposit
p2511
asI6340588
(lp2512
Vmatrix
p2513
aVmemori
p2514
aVmatric
p2515
aVcombin
p2516
aVassay
p2517
aVmacromolecul
p2518
aVbiolog
p2519
aVimmunoassay
p2520
aVmolecul
p2521
aVmateri
p2522
asI5872010
(lp2523
Vfluid
p2524
aVmicroscal
p2525
aVchip
p2526
aVmicrochip
p2527
aVsampl
p2528
aVhandl
p2529
aVport
p2530
aVpicolit
p2531
aVnanolit
p2532
aVoff
p2533
asI5849486
(lp2534
Vdna
p2535
aVfluidic
p2536
aVbiochip
p2537
aVfluoresc
p2538
aVdiagnost
p2539
aVhybrid
p2540
aVperturb
p2541
aVaflow
p2542
aVselfaddress
p2543
aVanalysi
p2544
asI5858195
(lp2545
Vmicrochip
p2546
aVanalyt
p2547
aVelectrochromatographi
p2548
aVintersect
p2549
aVmanipul
p2550
aVchannel
p2551
aVelectrokinet
p2552
aVchemic
p2553
aVmicrofluid
p2554
aVphotolithograph
p2555
asI6287765
(lp2556
Vmultimolecular
p2557
aVheteropolymer
p2558
aVnucleotid
p2559
aVmultival
p2560
aVnonoligonucleotid
p2561
aVnonaptamer
p2562
aVnonnucleotid
p2563
aVspecif
p2564
aVaptamer
p2565
aVpopul
p2566
asI6645142
(lp2567
Vinstrument
p2568
aVglucos
p2569
aVpractition
p2570
aVcomplianc
p2571
aVguidanc
p2572
aVmonitor
p2573
aVcalibr
p2574
aVnetwork
p2575
aVpatient
p2576
aVsupervisori
p2577
asI6379929
(lp2578
Visotherm
p2579
aVmicrofabr
p2580
aVamplif
p2581
aVnucleic
p2582
aVgene
p2583
aVenvis
p2584
aVsubstrat
p2585
aVacid
p2586
aVcomposit
p2587
aVdiagnost
p2588
asI5779868
(lp2589
Vmicrofluid
p2590
aVelectropipettor
p2591
aVtransport
p2592
aVmateri
p2593
aVionic
p2594
aVelectrophoret
p2595
aVchannel
p2596
aVconcentr
p2597
aVelectrophores
p2598
aVelectrokinet
p2599
asI5210015
(lp2600
Voligonucleotid
p2601
aVnucleas
p2602
aVlabel
p2603
aVnucleic
p2604
aVassay
p2605
aVacid
p2606
aVpcr
p2607
aVpolymeras
p2608
aVcleav
p2609
aVduplex
p2610
asI6214560
(lp2611
Vanalyt
p2612
aVscatter
p2613
aVparticl
p2614
aVlight
p2615
aVdetect
p2616
aVani
p2617
aVsampl
p2618
aVmore
p2619
aVspecif
p2620
aVmagnif
p2621
asI5605793
(lp2622
Vvitro
p2623
aVmutagenesi
p2624
aVfragment
p2625
aVrecombin
p2626
aVnucleic
p2627
aVprotein
p2628
aVshuffl
p2629
aVreassembl
p2630
aVevolut
p2631
aVmutant
p2632
asI5807522
(lp2633
Vmicroarray
p2634
aVbiolog
p2635
aVdispens
p2636
aVvolum
p2637
aVsampl
p2638
aVsupport
p2639
aVcapillari
p2640
aVtap
p2641
aVreagent
p2642
aVfashion
p2643
asI6377894
(lp2644
Vinstrument
p2645
aVstrip
p2646
aVtest
p2647
aVcalibr
p2648
aVinvalid
p2649
aVstorag
p2650
aVdate
p2651
aVparamet
p2652
aVanalyt
p2653
aVdata
p2654
asI6773671
(lp2655
Vmultichemistri
p2656
aVtest
p2657
aVstrip
p2658
aVmeasur
p2659
aVfunction
p2660
aVtype
p2661
aVmultipl
p2662
aVcombin
p2663
aVport
p2664
aVindic
p2665
asI7366556
(lp2666
Vanalyt
p2667
aVsensor
p2668
aVcontinu
p2669
aVmeasur
p2670
aVdata
p2671
aVsuch
p2672
aVglucos
p2673
aVelectrod
p2674
aVbackground
p2675
aVsuspend
p2676
asI5656493
(lp2677
Vthermost
p2678
aVreaction
p2679
aVcool
p2680
aVamplif
p2681
aVheat
p2682
aVenzym
p2683
aVnucleic
p2684
aVmachin
p2685
aVchain
p2686
aVtriphosph
p2687
asI5856174
(lp2688
Vsampl
p2689
aVnucleic
p2690
aVdiagnost
p2691
aVintegr
p2692
aVacquisit
p2693
aVnovo
p2694
aVacid
p2695
aVapplic
p2696
aVanalysi
p2697
aVdevic
p2698
asI5928880
(lp2699
Vmesoscal
p2700
aVsampl
p2701
aVmicrovolum
p2702
aVfraction
p2703
aVanalys
p2704
aVenrich
p2705
aVcell
p2706
aVprepar
p2707
aVpolynucleotid
p2708
aVamplif
p2709
asI6130098
(lp2710
Vmicrodroplet
p2711
aVmicroscal
p2712
aVmicrochannel
p2713
aVelectrophoresi
p2714
aVchannel
p2715
aVdroplet
p2716
aVpropel
p2717
aVdiscret
p2718
aVsame
p2719
aVetch
p2720
asI5653939
(lp2721
Vsite
p2722
aVtest
p2723
aVmolecular
p2724
aVstructur
p2725
aVprobe
p2726
aVsubstanc
p2727
aVtarget
p2728
aVsampl
p2729
aVbond
p2730
aVmonolith
p2731
asI6103479
(lp2732
sI6923764
(lp2733
Vanalysi
p2734
aVneedl
p2735
aVsite
p2736
aVadapt
p2737
aVanalyt
p2738
aVlight
p2739
aVretract
p2740
aVhous
p2741
aVtip
p2742
aVposit
p2743
asI6103199
(lp2744
Vmicrofluid
p2745
aVsampl
p2746
aVarray
p2747
aVelectroflow
p2748
aVplanar
p2749
aVprocess
p2750
aVnetwork
p2751
aVconduct
p2752
aVcaviti
p2753
aVchannel
p2754
asI7041468
(lp2755
Vglucos
p2756
aVtest
p2757
aVstrip
p2758
aVhous
p2759
aVreceptacl
p2760
aVhand
p2761
aVheld
p2762
aVconnector
p2763
aVmodul
p2764
aVamount
p2765
asI5632957
(lp2766
Vmicroloc
p2767
aVdna
p2768
aVreaction
p2769
aVdiagnost
p2770
aVbiolog
p2771
aVinterfac
p2772
aVcleav
p2773
aVmolecular
p2774
aVprefer
p2775
aVhybrid
p2776
asI7144384
(lp2777
Vscrew
p2778
aVlead
p2779
aVreservoir
p2780
aVtube
p2781
aVexit
p2782
aVpatient
p2783
aVoutlet
p2784
aVport
p2785
aVslot
p2786
aVlongitudin
p2787
asI4683202
(lp2788
Vnucleic
p2789
aVprimer
p2790
aVacid
p2791
aVsequenc
p2792
aVcomplementari
p2793
aVdesir
p2794
aVamplifi
p2795
aVstepwis
p2796
aVoligonucleotid
p2797
aVoften
p2798
asI5399491
(lp2799
Vnucleic
p2800
aVautocatalyt
p2801
aVcopi
p2802
aVsequenc
p2803
aVacid
p2804
aVtarget
p2805
aVforens
p2806
aVgenerat
p2807
aVclone
p2808
aVrna
p2809
asI5695940
(lp2810
Vhybrid
p2811
aVnucleic
p2812
aVoligonucleotid
p2813
aVacid
p2814
aVtarget
p2815
aVsequenc
p2816
aVprobe
p2817
aVgenom
p2818
aVmammalian
p2819
aVcondit
p2820
asI6327410
(lp2821
Vmicrospher
p2822
aVbioactiv
p2823
aVanalyt
p2824
aVarray
p2825
aVinterrogat
p2826
aVsubstrat
p2827
aVdiscret
p2828
aVagent
p2829
aVeither
p2830
aVrandom
p2831
asI5723591
(lp2832
Vmolecul
p2833
aVprobe
p2834
aVquencher
p2835
aVreport
p2836
aVunhybrid
p2837
aVfluoresc
p2838
aVquench
p2839
aVhybrid
p2840
aVoligonucleotid
p2841
aVconform
p2842
asI6043080
(lp2843
sI5928905
(lp2844
Vpolynucleotid
p2845
aVconcatem
p2846
aVnucleic
p2847
aVpcr
p2848
aVpolymeras
p2849
aVacid
p2850
aVamplif
p2851
aVfragment
p2852
aVcomplementari
p2853
aVoverlap
p2854
asI5957579
(lp2855
Vmicrofluid
p2856
aVchannel
p2857
aVvari
p2858
aVdepth
p2859
aVdescrib
p2860
aVprevious
p2861
aVincorpor
p2862
aVunexpect
p2863
aVbenefici
p2864
aVbenefit
p2865
asI5869004
(lp2866
Vmicrofluid
p2867
aVdilut
p2868
aVperfom
p2869
aVconcentr
p2870
aVsitu
p2871
aVgeneral
p2872
aVcontext
p2873
aVsystem
p2874
aVjust
p2875
aVapparatus
p2876
asI6174670
(lp2877
Vcy5
p2878
aVdna
p2879
aVreanneal
p2880
aVhybrid
p2881
aVfluorescein
p2882
aVpcr
p2883
aVpolymeras
p2884
aVmonitor
p2885
aVquantit
p2886
aVpuriti
p2887
asI6541266
(lp2888
Vanalyt
p2889
aVtest
p2890
aVcalcul
p2891
aVglucos
p2892
aVascertain
p2893
aVpoint
p2894
aVlevel
p2895
aVmeasur
p2896
aVphotomet
p2897
aVsup
p2898
asI5192659
(lp2899
Vallel
p2900
aVdna
p2901
aVsequenc
p2902
aVintron
p2903
aVamplifi
p2904
aVgenet
p2905
aVdetect
p2906
aVgenom
p2907
aVprimer
p2908
aVnucleotid
p2909
asI5955028
(lp2910
Vanalyt
p2911
aVpreparatori
p2912
aVadapt
p2913
aVattach
p2914
aVsubstrat
p2915
aVunit
p2916
aVanalys
p2917
aVregion
p2918
aVbase
p2919
aVbiolog
p2920
asI6485461
(lp2921
Vinfus
p2922
aVbladder
p2923
aVcannula
p2924
aVdeliveri
p2925
aVliquid
p2926
aVneedl
p2927
aVhous
p2928
aVdeliv
p2929
aVinject
p2930
aVdispos
p2931
asI5525464
(lp2932
Vhybrid
p2933
aVnucleic
p2934
aVoligonucleotid
p2935
aVacid
p2936
aVtarget
p2937
aVsequenc
p2938
aVprobe
p2939
aVgenom
p2940
aVmammalian
p2941
aVcondit
p2942
asI5852495
(lp2943
Vspeci
p2944
aVelectrophoret
p2945
aVmicrofluid
p2946
aVfourier
p2947
aVphotodetector
p2948
aVbiochemistri
p2949
aVchannel
p2950
aVbiotechnolog
p2951
aVanalysi
p2952
aVband
p2953
asI6830558
(lp2954
Vdiaphragm
p2955
aVsensor
p2956
aVflow
p2957
aVelectrod
p2958
aVassembl
p2959
aVpatient
p2960
aVpath
p2961
aVchamber
p2962
aVexit
p2963
aVcondit
p2964
asI6946299
(lp2965
Vmeter
p2966
aVsampl
p2967
aVstrip
p2968
aVglucos
p2969
aVelectrod
p2970
aVblood
p2971
aVtest
p2972
aVcounter
p2973
aVauto
p2974
aVwork
p2975
asI6012902
(lp2976
Velectroosmot
p2977
aVmicropump
p2978
aVchannel
p2979
aVpump
p2980
aVflow
p2981
aVapplic
p2982
aVwhere
p2983
aVprohibit
p2984
aVdesir
p2985
aVfluid
p2986
asI5854033
(lp2987
Vamplif
p2988
aVprobe
p2989
aVreplic
p2990
aVsequenc
p2991
aVcircl
p2992
aVligat
p2993
aVdetect
p2994
aVdna
p2995
aVnucleic
p2996
aVcircular
p2997
asI6126899
(lp2998
Vanalyt
p2999
aVsampl
p3000
aVdetect
p3001
aVchamber
p3002
aVinlet
p3003
aVdevic
p3004
aVdead
p3005
aVquantit
p3006
aVreagent
p3007
aVabsenc
p3008
asI5503980
(lp3009
Vnucleic
p3010
aVsequenc
p3011
aVhybrid
p3012
aVacid
p3013
aVsampl
p3014
aVagricultur
p3015
aVnucleotid
p3016
aVcreation
p3017
aVdiagnost
p3018
aVbiolog
p3019
asI6334960
(lp3020
Vpolymeriz
p3021
aVrelief
p3022
aVpolymer
p3023
aVsolidifi
p3024
aVtransfer
p3025
aVfluid
p3026
aVmold
p3027
aVlayer
p3028
aVcomposit
p3029
aVmateri
p3030
asI5223409
(lp3031
Vbind
p3032
aVdomain
p3033
aVprotein
p3034
aVm13
p3035
aVfamili
p3036
aVgenet
p3037
aVphage
p3038
aVpotenti
p3039
aVpackag
p3040
aVmolecul
p3041
asI6743635
(lp3042
Vmeter
p3043
aVsampl
p3044
aVstrip
p3045
aVglucos
p3046
aVelectrod
p3047
aVblood
p3048
aVtest
p3049
aVcounter
p3050
aVauto
p3051
aVwork
p3052
asI5858804
(lp3053
Vmoieti
p3054
aVbind
p3055
aVsampl
p3056
aVwell
p3057
aVfirst
p3058
aVchannel
p3059
aVprospect
p3060
aVsecond
p3061
aVcrossov
p3062
aVimmunolog
p3063
asI6264825
(lp3064
Vetm
p3065
aVanalyt
p3066
aVacceler
p3067
aVbind
p3068
aVdetect
p3069
aVtarget
p3070
aVelectron
p3071
aVproceed
p3072
aVindirect
p3073
aVligand
p3074
asI7467003
(lp3075
Vanalyt
p3076
aVsensor
p3077
aVcontinu
p3078
aVmeasur
p3079
aVdata
p3080
aVsuch
p3081
aVglucos
p3082
aVelectrod
p3083
aVbackground
p3084
aVsuspend
p3085
asI5130238
(lp3086
Vprimer
p3087
aVstrand
p3088
aVnucleic
p3089
aVsequenc
p3090
aVtemplat
p3091
aVamplif
p3092
aVdna
p3093
aVspecif
p3094
aVacid
p3095
aVrna
p3096
astp3097
.