((lp0
I4683202
aI4800159
aI4851331
aI4889818
aI4965188
aI5043272
aI5079352
aI5118801
aI5124246
aI5130238
aI5185243
aI5188963
aI5192659
aI5202231
aI5210015
aI5219727
aI5223409
aI5399491
aI5409818
aI5434131
aI5436149
aI5451500
aI5455166
aI5474895
aI5475610
aI5487972
aI5492806
aI5525464
aI5554516
aI5571698
aI5656493
aI5660988
aI5674743
aI5679524
aI5695940
aI5720923
aI5807522
aI5834252
aI5837500
aI5846717
aI5866336
aI5928905
aI5965410
aI5994056
aI6117679
aI6130098
aI6132970
aI6174670
aI6174675
aI6329139
aI7323305
aI5981176
aI6210891
aI5494810
aI5547839
aI6235471
aI6444461
aI5639603
aI5661016
aI5800992
aI5854033
aI6132580
aI6143495
aI5502177
aI5605793
aI5811238
aI5830721
aI5837458
aI5925517
aI6150097
aI6287765
aI5312527
aI6233565
aI5346672
aI5498392
aI5585069
aI5587128
aI5593838
aI5681484
aI5726026
aI5755942
aI5779868
aI5846396
aI5856174
aI5858804
aI5863708
aI5869004
aI5880071
aI5922591
aI5928880
aI5942443
aI5958203
aI5972187
aI6042709
aI6043080
aI6046056
aI6132685
aI6168948
aI6197595
aI6368871
aI6440725
aI6664104
aI5445934
aI5503980
aI5552270
aI5599668
aI5605662
aI5632957
aI5653939
aI5700637
aI5744305
aI5795714
aI5837832
aI5846708
aI5849486
aI5858659
aI5871697
aI6017696
aI6027889
aI6040138
aI6040193
aI6051380
aI6054270
aI6103199
aI6156501
aI6214560
aI6632655
aI5538848
aI5723591
aI5427908
aI5432018
aI5498530
aI5580717
aI5658727
aI5698426
aI5733743
aI5821047
aI5885793
aI5969108
aI6225047
aI6660843
aI6379929
aI6043031
aI6133436
aI6327410
aI6355431
aI7115884
aI6143496
aI6274320
aI5932100
aI6210896
aI6355420
aI6454945
aI5922617
aI6960437
aI7080786
aI5961923
aI6767706
aI6319668
aI6340588
aI6429027
aI5939250
aI5965408
aI6368275
aI5770369
aI6264825
aI7160678
aI6578015
aI6629081
aI6665648
aI7069234
aI6571651
aI5639423
aI5674742
aI5699157
aI5747349
aI5842787
aI5852495
aI5855801
aI5863801
aI5872010
aI5876675
aI5882465
aI5885470
aI5948227
aI5955028
aI5957579
aI5958694
aI5965001
aI5989402
aI6007690
aI6068752
aI6100541
aI6103479
aI6126899
aI6167910
aI6221654
aI6251343
aI6321791
aI6540895
aI6825047
aI5800690
aI5858195
aI5976336
aI6001229
aI6012902
aI6096656
aI6294063
aI6416642
aI5716825
aI5726751
aI5863502
aI6117630
aI6329209
aI6540675
aI6923764
aI6074827
aI6541266
aI5900130
aI6334960
aI6696220
aI6045996
aI6180415
aI6344272
aI6361944
aI6377894
aI6773671
aI7344499
aI5965452
aI6066448
aI6207369
aI6582908
aI6281006
aI5922537
aI7494465
aI7637868
aI7640048
aI7654956
aI7715893
aI6409832
aI7291497
aI6486588
aI6645202
aI7083620
aI7247155
aI7025774
aI7041068
aI7198606
aI7074307
aI7366556
aI7424318
aI7460898
aI7467003
aI7471972
aI7613491
aI7651596
aI7657297
aI7206768
aI5948684
aI6139800
aI6256533
aI6312612
aI6375627
aI6379324
aI6471903
aI6572566
aI6591124
aI6743211
aI6835184
aI6296673
aI6090251
aI5972710
aI6485461
aI6656158
aI6656159
aI6669669
aI6692457
aI6699218
aI6723072
aI6749587
aI6768425
aI6830558
aI6960192
aI7018360
aI7029455
aI7137964
aI7144384
aI6738654
aI6530944
aI6710366
aI6645142
aI6743635
aI6946299
aI6953693
aI6959247
aI6964871
aI7160251
aI7711402
aI7041468
a(lp1
(lp2
I4683202
aa(lp3
I4800159
aI4851331
aI4889818
aI4965188
aI5043272
aI5079352
aI5118801
aI5124246
aI5130238
aI5185243
aI5188963
aI5192659
aI5202231
aI5210015
aI5219727
aI5223409
aI5399491
aI5409818
aI5434131
aI5436149
aI5451500
aI5455166
aI5474895
aI5475610
aI5487972
aI5492806
aI5525464
aI5554516
aI5571698
aI5656493
aI5660988
aI5674743
aI5679524
aI5695940
aI5720923
aI5807522
aI5834252
aI5837500
aI5846717
aI5866336
aI5928905
aI5965410
aI5994056
aI6117679
aI6130098
aI6132970
aI6174670
aI6174675
aI6329139
aI7323305
aa(lp4
I5981176
aI6210891
aI5494810
aI5547839
aI6235471
aI6444461
aI5639603
aI5661016
aI5800992
aI5854033
aI6132580
aI6143495
aI5502177
aI5605793
aI5811238
aI5830721
aI5837458
aI5925517
aI6150097
aI6287765
aI5312527
aI6233565
aI5346672
aI5498392
aI5585069
aI5587128
aI5593838
aI5681484
aI5726026
aI5755942
aI5779868
aI5846396
aI5856174
aI5858804
aI5863708
aI5869004
aI5880071
aI5922591
aI5928880
aI5942443
aI5958203
aI5972187
aI6042709
aI6043080
aI6046056
aI6132685
aI6168948
aI6197595
aI6368871
aI6440725
aI6664104
aI5445934
aI5503980
aI5552270
aI5599668
aI5605662
aI5632957
aI5653939
aI5700637
aI5744305
aI5795714
aI5837832
aI5846708
aI5849486
aI5858659
aI5871697
aI6017696
aI6027889
aI6040138
aI6040193
aI6051380
aI6054270
aI6103199
aI6156501
aI6214560
aI6632655
aI5538848
aI5723591
aI5427908
aI5432018
aI5498530
aI5580717
aI5658727
aI5698426
aI5733743
aI5821047
aI5885793
aI5969108
aI6225047
aI6660843
aI6379929
aI6043031
aI6133436
aI6327410
aI6355431
aI7115884
aI6143496
aI6274320
aI5932100
aI6210896
aI6355420
aI6454945
aI5922617
aI6960437
aI7080786
aa(lp5
I5961923
aI6767706
aI6319668
aI6340588
aI6429027
aI5939250
aI5965408
aI6368275
aI5770369
aI6264825
aI7160678
aI6578015
aI6629081
aI6665648
aI7069234
aI6571651
aI5639423
aI5674742
aI5699157
aI5747349
aI5842787
aI5852495
aI5855801
aI5863801
aI5872010
aI5876675
aI5882465
aI5885470
aI5948227
aI5955028
aI5957579
aI5958694
aI5965001
aI5989402
aI6007690
aI6068752
aI6100541
aI6103479
aI6126899
aI6167910
aI6221654
aI6251343
aI6321791
aI6540895
aI6825047
aI5800690
aI5858195
aI5976336
aI6001229
aI6012902
aI6096656
aI6294063
aI6416642
aI5716825
aI5726751
aI5863502
aI6117630
aI6329209
aI6540675
aI6923764
aI6074827
aI6541266
aI5900130
aI6334960
aI6696220
aI6045996
aI6180415
aI6344272
aI6361944
aI6377894
aI6773671
aI7344499
aI5965452
aI6066448
aI6207369
aI6582908
aI6281006
aI5922537
aI7494465
aI7637868
aI7640048
aI7654956
aI7715893
aI6409832
aa(lp6
I7291497
aI6486588
aI6645202
aI7083620
aI7247155
aI7025774
aI7041068
aI7198606
aI7074307
aI7366556
aI7424318
aI7460898
aI7467003
aI7471972
aI7613491
aI7651596
aI7657297
aI7206768
aI5948684
aI6139800
aI6256533
aI6312612
aI6375627
aI6379324
aI6471903
aI6572566
aI6591124
aI6743211
aI6835184
aI6296673
aI6090251
aI5972710
aI6485461
aI6656158
aI6656159
aI6669669
aI6692457
aI6699218
aI6723072
aI6749587
aI6768425
aI6830558
aI6960192
aI7018360
aI7029455
aI7137964
aI7144384
aI6738654
aI6530944
aI6710366
aI6645142
aI6743635
aI6946299
aI6953693
aI6959247
aI6964871
aI7160251
aI7711402
aI7041468
aa(lp7
(I4683202
I4800159
tp8
a(I4683202
I4851331
tp9
a(I4683202
I4889818
tp10
a(I4683202
I4965188
tp11
a(I4683202
I5043272
tp12
a(I4683202
I5079352
tp13
a(I4683202
I5118801
tp14
a(I4683202
I5124246
tp15
a(I4683202
I5130238
tp16
a(I4683202
I5185243
tp17
a(I4683202
I5188963
tp18
a(I4683202
I5192659
tp19
a(I4683202
I5202231
tp20
a(I4683202
I5210015
tp21
a(I4683202
I5219727
tp22
a(I4683202
I5223409
tp23
a(I4683202
I5399491
tp24
a(I4683202
I5409818
tp25
a(I4683202
I5434131
tp26
a(I4683202
I5436149
tp27
a(I4683202
I5451500
tp28
a(I4683202
I5455166
tp29
a(I4683202
I5474895
tp30
a(I4683202
I5475610
tp31
a(I4683202
I5487972
tp32
a(I4683202
I5492806
tp33
a(I4683202
I5525464
tp34
a(I4683202
I5554516
tp35
a(I4683202
I5571698
tp36
a(I4683202
I5656493
tp37
a(I4683202
I5660988
tp38
a(I4683202
I5674743
tp39
a(I4683202
I5679524
tp40
a(I4683202
I5695940
tp41
a(I4683202
I5720923
tp42
a(I4683202
I5807522
tp43
a(I4683202
I5834252
tp44
a(I4683202
I5837500
tp45
a(I4683202
I5846717
tp46
a(I4683202
I5866336
tp47
a(I4683202
I5928905
tp48
a(I4683202
I5965410
tp49
a(I4683202
I5994056
tp50
a(I4683202
I6117679
tp51
a(I4683202
I6130098
tp52
a(I4683202
I6132970
tp53
a(I4683202
I6174670
tp54
a(I4683202
I6174675
tp55
a(I4683202
I6329139
tp56
a(I4683202
I7323305
tp57
a(I4800159
I4965188
tp58
a(I4800159
I5124246
tp59
a(I4800159
I5409818
tp60
a(I4800159
I5475610
tp61
a(I4800159
I5656493
tp62
a(I4800159
I5834252
tp63
a(I4800159
I5928905
tp64
a(I4800159
I5965410
tp65
a(I4800159
I6117679
tp66
a(I4800159
I6132970
tp67
a(I4800159
I6174675
tp68
a(I4851331
I5185243
tp69
a(I4851331
I5981176
tp70
a(I4851331
I6210891
tp71
a(I4889818
I4965188
tp72
a(I4889818
I5079352
tp73
a(I4889818
I5210015
tp74
a(I4889818
I5219727
tp75
a(I4889818
I5475610
tp76
a(I4889818
I5487972
tp77
a(I4889818
I5494810
tp78
a(I4889818
I5547839
tp79
a(I4889818
I5656493
tp80
a(I4889818
I5674743
tp81
a(I4889818
I5866336
tp82
a(I4889818
I5994056
tp83
a(I4889818
I6174670
tp84
a(I4889818
I6235471
tp85
a(I4889818
I6444461
tp86
a(I4965188
I5475610
tp87
a(I4965188
I5547839
tp88
a(I4965188
I5639603
tp89
a(I4965188
I5656493
tp90
a(I4965188
I5661016
tp91
a(I4965188
I5800992
tp92
a(I4965188
I5834252
tp93
a(I4965188
I5854033
tp94
a(I4965188
I5928905
tp95
a(I4965188
I5965410
tp96
a(I4965188
I6117679
tp97
a(I4965188
I6132580
tp98
a(I4965188
I6132970
tp99
a(I4965188
I6143495
tp100
a(I4965188
I6174670
tp101
a(I4965188
I6235471
tp102
a(I4965188
I6444461
tp103
a(I4965188
I7323305
tp104
a(I5043272
I5502177
tp105
a(I5043272
I5605793
tp106
a(I5043272
I5811238
tp107
a(I5043272
I5830721
tp108
a(I5043272
I5837458
tp109
a(I5043272
I6117679
tp110
a(I5043272
I6132970
tp111
a(I5043272
I6235471
tp112
a(I5043272
I6444461
tp113
a(I5079352
I5436149
tp114
a(I5079352
I5866336
tp115
a(I5079352
I6235471
tp116
a(I5079352
I6444461
tp117
a(I5118801
I5866336
tp118
a(I5118801
I5925517
tp119
a(I5118801
I6150097
tp120
a(I5118801
I6287765
tp121
a(I5130238
I5399491
tp122
a(I5130238
I5502177
tp123
a(I5130238
I6143495
tp124
a(I5185243
I5312527
tp125
a(I5185243
I5679524
tp126
a(I5185243
I5807522
tp127
a(I5185243
I6233565
tp128
a(I5188963
I5346672
tp129
a(I5188963
I5498392
tp130
a(I5188963
I5585069
tp131
a(I5188963
I5587128
tp132
a(I5188963
I5593838
tp133
a(I5188963
I5681484
tp134
a(I5188963
I5726026
tp135
a(I5188963
I5755942
tp136
a(I5188963
I5779868
tp137
a(I5188963
I5807522
tp138
a(I5188963
I5846396
tp139
a(I5188963
I5856174
tp140
a(I5188963
I5858804
tp141
a(I5188963
I5863708
tp142
a(I5188963
I5869004
tp143
a(I5188963
I5880071
tp144
a(I5188963
I5922591
tp145
a(I5188963
I5928880
tp146
a(I5188963
I5942443
tp147
a(I5188963
I5958203
tp148
a(I5188963
I5972187
tp149
a(I5188963
I6042709
tp150
a(I5188963
I6043080
tp151
a(I5188963
I6046056
tp152
a(I5188963
I6132580
tp153
a(I5188963
I6132685
tp154
a(I5188963
I6168948
tp155
a(I5188963
I6197595
tp156
a(I5188963
I6368871
tp157
a(I5188963
I6440725
tp158
a(I5188963
I6664104
tp159
a(I5202231
I5445934
tp160
a(I5202231
I5503980
tp161
a(I5202231
I5525464
tp162
a(I5202231
I5552270
tp163
a(I5202231
I5599668
tp164
a(I5202231
I5605662
tp165
a(I5202231
I5632957
tp166
a(I5202231
I5653939
tp167
a(I5202231
I5695940
tp168
a(I5202231
I5700637
tp169
a(I5202231
I5744305
tp170
a(I5202231
I5795714
tp171
a(I5202231
I5800992
tp172
a(I5202231
I5807522
tp173
a(I5202231
I5837832
tp174
a(I5202231
I5846708
tp175
a(I5202231
I5849486
tp176
a(I5202231
I5858659
tp177
a(I5202231
I5871697
tp178
a(I5202231
I6017696
tp179
a(I5202231
I6027889
tp180
a(I5202231
I6040138
tp181
a(I5202231
I6040193
tp182
a(I5202231
I6051380
tp183
a(I5202231
I6054270
tp184
a(I5202231
I6103199
tp185
a(I5202231
I6156501
tp186
a(I5202231
I6214560
tp187
a(I5202231
I6632655
tp188
a(I5210015
I5538848
tp189
a(I5210015
I5723591
tp190
a(I5210015
I5846717
tp191
a(I5210015
I5925517
tp192
a(I5210015
I6150097
tp193
a(I5210015
I6174670
tp194
a(I5223409
I5427908
tp195
a(I5223409
I5432018
tp196
a(I5223409
I5498530
tp197
a(I5223409
I5580717
tp198
a(I5223409
I5658727
tp199
a(I5223409
I5698426
tp200
a(I5223409
I5733743
tp201
a(I5223409
I5821047
tp202
a(I5223409
I5885793
tp203
a(I5223409
I5969108
tp204
a(I5223409
I6225047
tp205
a(I5223409
I6329139
tp206
a(I5223409
I6660843
tp207
a(I5409818
I5854033
tp208
a(I5409818
I5866336
tp209
a(I5409818
I6143495
tp210
a(I5451500
I5856174
tp211
a(I5451500
I5922591
tp212
a(I5451500
I6043080
tp213
a(I5451500
I6132580
tp214
a(I5451500
I6168948
tp215
a(I5451500
I6197595
tp216
a(I5451500
I6379929
tp217
a(I5455166
I5854033
tp218
a(I5455166
I6143495
tp219
a(I5455166
I6379929
tp220
a(I5474895
I5807522
tp221
a(I5474895
I6043031
tp222
a(I5474895
I6133436
tp223
a(I5474895
I6327410
tp224
a(I5474895
I6355431
tp225
a(I5474895
I7115884
tp226
a(I5487972
I5846717
tp227
a(I5487972
I5866336
tp228
a(I5487972
I5925517
tp229
a(I5487972
I6150097
tp230
a(I5492806
I5695940
tp231
a(I5492806
I5800992
tp232
a(I5492806
I6040193
tp233
a(I5492806
I6329139
tp234
a(I5525464
I5695940
tp235
a(I5525464
I5800992
tp236
a(I5525464
I6040193
tp237
a(I5525464
I6143496
tp238
a(I5525464
I6274320
tp239
a(I5525464
I6329139
tp240
a(I5525464
I7323305
tp241
a(I5554516
I6355431
tp242
a(I5571698
I6225047
tp243
a(I5660988
I6355431
tp244
a(I5674743
I5932100
tp245
a(I5674743
I6210896
tp246
a(I5674743
I6235471
tp247
a(I5674743
I6287765
tp248
a(I5674743
I6355420
tp249
a(I5674743
I6444461
tp250
a(I5674743
I6454945
tp251
a(I5679524
I6210891
tp252
a(I5679524
I6327410
tp253
a(I5679524
I6355431
tp254
a(I5679524
I7115884
tp255
a(I5695940
I6040193
tp256
a(I5807522
I5922617
tp257
a(I5807522
I6040193
tp258
a(I5807522
I6054270
tp259
a(I5834252
I6117679
tp260
a(I5834252
I6274320
tp261
a(I5834252
I7323305
tp262
a(I5928905
I6132970
tp263
a(I5928905
I6274320
tp264
a(I5928905
I7323305
tp265
a(I5965410
I6632655
tp266
a(I6174675
I6960437
tp267
a(I6329139
I7080786
tp268
a(I6210891
I7323305
tp269
a(I5494810
I6027889
tp270
a(I5494810
I6355431
tp271
a(I5494810
I7115884
tp272
a(I5547839
I5674743
tp273
a(I5547839
I5961923
tp274
a(I5547839
I6329139
tp275
a(I6235471
I6444461
tp276
a(I6235471
I6632655
tp277
a(I6235471
I6767706
tp278
a(I6235471
I6960437
tp279
a(I5639603
I5961923
tp280
a(I5639603
I6319668
tp281
a(I5639603
I6327410
tp282
a(I5639603
I6329139
tp283
a(I5639603
I6340588
tp284
a(I5639603
I6355431
tp285
a(I5639603
I6429027
tp286
a(I5639603
I7115884
tp287
a(I5800992
I6156501
tp288
a(I5800992
I6274320
tp289
a(I5800992
I7323305
tp290
a(I5854033
I6274320
tp291
a(I5854033
I6355431
tp292
a(I5854033
I7323305
tp293
a(I6132580
I6960437
tp294
a(I5605793
I5830721
tp295
a(I5605793
I5939250
tp296
a(I5605793
I5965408
tp297
a(I5605793
I6117679
tp298
a(I5605793
I6132970
tp299
a(I5811238
I5939250
tp300
a(I5811238
I5965408
tp301
a(I5811238
I6117679
tp302
a(I5811238
I6287765
tp303
a(I5830721
I5939250
tp304
a(I5830721
I5965408
tp305
a(I5830721
I6117679
tp306
a(I5837458
I5939250
tp307
a(I5837458
I5965408
tp308
a(I5837458
I6117679
tp309
a(I6287765
I6368275
tp310
a(I5312527
I5605662
tp311
a(I5312527
I5770369
tp312
a(I5312527
I5849486
tp313
a(I5312527
I6017696
tp314
a(I5312527
I6051380
tp315
a(I5312527
I6264825
tp316
a(I5312527
I7160678
tp317
a(I6233565
I6578015
tp318
a(I6233565
I6629081
tp319
a(I6233565
I6665648
tp320
a(I6233565
I7069234
tp321
a(I5346672
I5498392
tp322
a(I5346672
I5587128
tp323
a(I5346672
I5726026
tp324
a(I5346672
I5856174
tp325
a(I5346672
I5922591
tp326
a(I5346672
I5928880
tp327
a(I5346672
I5965410
tp328
a(I5346672
I6043080
tp329
a(I5346672
I6132580
tp330
a(I5346672
I6143496
tp331
a(I5346672
I6168948
tp332
a(I5346672
I6174670
tp333
a(I5346672
I6174675
tp334
a(I5346672
I6197595
tp335
a(I5346672
I6571651
tp336
a(I5498392
I5639423
tp337
a(I5498392
I5674742
tp338
a(I5498392
I5699157
tp339
a(I5498392
I5720923
tp340
a(I5498392
I5726026
tp341
a(I5498392
I5747349
tp342
a(I5498392
I5779868
tp343
a(I5498392
I5842787
tp344
a(I5498392
I5852495
tp345
a(I5498392
I5855801
tp346
a(I5498392
I5856174
tp347
a(I5498392
I5863801
tp348
a(I5498392
I5872010
tp349
a(I5498392
I5876675
tp350
a(I5498392
I5880071
tp351
a(I5498392
I5882465
tp352
a(I5498392
I5885470
tp353
a(I5498392
I5922591
tp354
a(I5498392
I5932100
tp355
a(I5498392
I5942443
tp356
a(I5498392
I5948227
tp357
a(I5498392
I5955028
tp358
a(I5498392
I5957579
tp359
a(I5498392
I5958203
tp360
a(I5498392
I5958694
tp361
a(I5498392
I5965001
tp362
a(I5498392
I5965410
tp363
a(I5498392
I5972187
tp364
a(I5498392
I5989402
tp365
a(I5498392
I6007690
tp366
a(I5498392
I6042709
tp367
a(I5498392
I6043080
tp368
a(I5498392
I6046056
tp369
a(I5498392
I6068752
tp370
a(I5498392
I6100541
tp371
a(I5498392
I6103479
tp372
a(I5498392
I6126899
tp373
a(I5498392
I6130098
tp374
a(I5498392
I6132580
tp375
a(I5498392
I6132685
tp376
a(I5498392
I6143496
tp377
a(I5498392
I6167910
tp378
a(I5498392
I6168948
tp379
a(I5498392
I6174675
tp380
a(I5498392
I6197595
tp381
a(I5498392
I6221654
tp382
a(I5498392
I6235471
tp383
a(I5498392
I6251343
tp384
a(I5498392
I6321791
tp385
a(I5498392
I6379929
tp386
a(I5498392
I6444461
tp387
a(I5498392
I6454945
tp388
a(I5498392
I6540895
tp389
a(I5498392
I6632655
tp390
a(I5498392
I6825047
tp391
a(I5585069
I5800690
tp392
a(I5585069
I5842787
tp393
a(I5585069
I5858195
tp394
a(I5585069
I5869004
tp395
a(I5585069
I5876675
tp396
a(I5585069
I5922617
tp397
a(I5585069
I5932100
tp398
a(I5585069
I5942443
tp399
a(I5585069
I5948227
tp400
a(I5585069
I5957579
tp401
a(I5585069
I5958694
tp402
a(I5585069
I5965001
tp403
a(I5585069
I5965410
tp404
a(I5585069
I5976336
tp405
a(I5585069
I5989402
tp406
a(I5585069
I6001229
tp407
a(I5585069
I6007690
tp408
a(I5585069
I6012902
tp409
a(I5585069
I6043080
tp410
a(I5585069
I6046056
tp411
a(I5585069
I6068752
tp412
a(I5585069
I6096656
tp413
a(I5585069
I6100541
tp414
a(I5585069
I6130098
tp415
a(I5585069
I6132685
tp416
a(I5585069
I6143496
tp417
a(I5585069
I6167910
tp418
a(I5585069
I6174675
tp419
a(I5585069
I6235471
tp420
a(I5585069
I6251343
tp421
a(I5585069
I6294063
tp422
a(I5585069
I6321791
tp423
a(I5585069
I6416642
tp424
a(I5585069
I6440725
tp425
a(I5585069
I6444461
tp426
a(I5585069
I6454945
tp427
a(I5585069
I6632655
tp428
a(I5585069
I6664104
tp429
a(I5587128
I5716825
tp430
a(I5587128
I5726751
tp431
a(I5587128
I5747349
tp432
a(I5587128
I5856174
tp433
a(I5587128
I5863502
tp434
a(I5587128
I5922591
tp435
a(I5587128
I5932100
tp436
a(I5587128
I5965410
tp437
a(I5587128
I6007690
tp438
a(I5587128
I6043080
tp439
a(I5587128
I6103479
tp440
a(I5587128
I6130098
tp441
a(I5587128
I6132580
tp442
a(I5587128
I6168948
tp443
a(I5587128
I6174675
tp444
a(I5587128
I6197595
tp445
a(I5587128
I6235471
tp446
a(I5587128
I6368871
tp447
a(I5587128
I6379929
tp448
a(I5587128
I6440725
tp449
a(I5587128
I6444461
tp450
a(I5587128
I6454945
tp451
a(I5587128
I6632655
tp452
a(I5587128
I6664104
tp453
a(I5593838
I5726751
tp454
a(I5593838
I5747349
tp455
a(I5593838
I5779868
tp456
a(I5593838
I5800690
tp457
a(I5593838
I5842787
tp458
a(I5593838
I5869004
tp459
a(I5593838
I5876675
tp460
a(I5593838
I5880071
tp461
a(I5593838
I5942443
tp462
a(I5593838
I5948227
tp463
a(I5593838
I5957579
tp464
a(I5593838
I5958203
tp465
a(I5593838
I5958694
tp466
a(I5593838
I5965001
tp467
a(I5593838
I5972187
tp468
a(I5593838
I5976336
tp469
a(I5593838
I5989402
tp470
a(I5593838
I6007690
tp471
a(I5593838
I6042709
tp472
a(I5593838
I6046056
tp473
a(I5593838
I6051380
tp474
a(I5593838
I6068752
tp475
a(I5593838
I6100541
tp476
a(I5593838
I6117630
tp477
a(I5593838
I6132580
tp478
a(I5593838
I6132685
tp479
a(I5593838
I6167910
tp480
a(I5593838
I6174675
tp481
a(I5593838
I6235471
tp482
a(I5593838
I6251343
tp483
a(I5593838
I6321791
tp484
a(I5593838
I6329209
tp485
a(I5593838
I6444461
tp486
a(I5593838
I6632655
tp487
a(I5681484
I5885470
tp488
a(I5681484
I5932100
tp489
a(I5681484
I6007690
tp490
a(I5681484
I6096656
tp491
a(I5681484
I6167910
tp492
a(I5681484
I6221654
tp493
a(I5681484
I6235471
tp494
a(I5681484
I6294063
tp495
a(I5681484
I6321791
tp496
a(I5681484
I6329209
tp497
a(I5681484
I6444461
tp498
a(I5681484
I6454945
tp499
a(I5681484
I6540675
tp500
a(I5681484
I6540895
tp501
a(I5681484
I6923764
tp502
a(I5726026
I5876675
tp503
a(I5726026
I6007690
tp504
a(I5726026
I6074827
tp505
a(I5726026
I6132580
tp506
a(I5726026
I6168948
tp507
a(I5726026
I6197595
tp508
a(I5726026
I6251343
tp509
a(I5726026
I6329209
tp510
a(I5726026
I6664104
tp511
a(I5755942
I6007690
tp512
a(I5755942
I6541266
tp513
a(I5755942
I6632655
tp514
a(I5779868
I5900130
tp515
a(I5779868
I5965410
tp516
a(I5779868
I5972187
tp517
a(I5779868
I5976336
tp518
a(I5779868
I6068752
tp519
a(I5779868
I6167910
tp520
a(I5779868
I6174675
tp521
a(I5779868
I6251343
tp522
a(I5779868
I6321791
tp523
a(I5779868
I6416642
tp524
a(I5779868
I6444461
tp525
a(I5779868
I6632655
tp526
a(I5846396
I6012902
tp527
a(I5846396
I6960437
tp528
a(I5856174
I6221654
tp529
a(I5856174
I6440725
tp530
a(I5856174
I6540895
tp531
a(I5856174
I6632655
tp532
a(I5856174
I6664104
tp533
a(I5858804
I6126899
tp534
a(I5858804
I6825047
tp535
a(I5863708
I6096656
tp536
a(I5863708
I6327410
tp537
a(I5863708
I6355431
tp538
a(I5863708
I6429027
tp539
a(I5863708
I7115884
tp540
a(I5869004
I6068752
tp541
a(I5869004
I6167910
tp542
a(I5869004
I6221654
tp543
a(I5869004
I6251343
tp544
a(I5869004
I6321791
tp545
a(I5869004
I6368871
tp546
a(I5869004
I6416642
tp547
a(I5869004
I6440725
tp548
a(I5869004
I6454945
tp549
a(I5869004
I6540895
tp550
a(I5869004
I6632655
tp551
a(I5869004
I6664104
tp552
a(I5880071
I6068752
tp553
a(I5880071
I6167910
tp554
a(I5880071
I6221654
tp555
a(I5880071
I6251343
tp556
a(I5880071
I6321791
tp557
a(I5880071
I6368871
tp558
a(I5880071
I6416642
tp559
a(I5880071
I6440725
tp560
a(I5880071
I6444461
tp561
a(I5880071
I6540895
tp562
a(I5880071
I6632655
tp563
a(I5880071
I6664104
tp564
a(I5922591
I6221654
tp565
a(I5922591
I6440725
tp566
a(I5922591
I6540895
tp567
a(I5922591
I6664104
tp568
a(I5922591
I6960437
tp569
a(I5928880
I6329209
tp570
a(I5928880
I6440725
tp571
a(I5928880
I6664104
tp572
a(I5928880
I6960437
tp573
a(I5942443
I6068752
tp574
a(I5942443
I6235471
tp575
a(I5942443
I6444461
tp576
a(I5942443
I6632655
tp577
a(I5942443
I6960437
tp578
a(I5958203
I6068752
tp579
a(I5958203
I6444461
tp580
a(I5958203
I6632655
tp581
a(I5972187
I6444461
tp582
a(I5972187
I6632655
tp583
a(I6042709
I6368871
tp584
a(I6042709
I6440725
tp585
a(I6042709
I6444461
tp586
a(I6042709
I6664104
tp587
a(I6042709
I6767706
tp588
a(I6043080
I6440725
tp589
a(I6043080
I6664104
tp590
a(I6043080
I6767706
tp591
a(I6043080
I6960437
tp592
a(I6046056
I6334960
tp593
a(I6046056
I6444461
tp594
a(I6046056
I6632655
tp595
a(I6046056
I6696220
tp596
a(I6046056
I6960437
tp597
a(I6132685
I6960437
tp598
a(I6168948
I6368871
tp599
a(I6168948
I6440725
tp600
a(I6168948
I6664104
tp601
a(I6197595
I6440725
tp602
a(I6197595
I6664104
tp603
a(I6197595
I6960437
tp604
a(I5445934
I5744305
tp605
a(I5445934
I5800992
tp606
a(I5445934
I5807522
tp607
a(I5445934
I6040193
tp608
a(I5445934
I6045996
tp609
a(I5445934
I6054270
tp610
a(I5445934
I6225047
tp611
a(I5445934
I6274320
tp612
a(I5445934
I6329209
tp613
a(I5445934
I6767706
tp614
a(I5445934
I7323305
tp615
a(I5503980
I6043031
tp616
a(I5503980
I6133436
tp617
a(I5552270
I6329139
tp618
a(I5552270
I7160678
tp619
a(I5599668
I6180415
tp620
a(I5599668
I6214560
tp621
a(I5599668
I6344272
tp622
a(I5599668
I6361944
tp623
a(I5605662
I5779868
tp624
a(I5605662
I5800690
tp625
a(I5605662
I5807522
tp626
a(I5605662
I5849486
tp627
a(I5605662
I5858195
tp628
a(I5605662
I5863502
tp629
a(I5605662
I5869004
tp630
a(I5605662
I5880071
tp631
a(I5605662
I5932100
tp632
a(I5605662
I5942443
tp633
a(I5605662
I5958203
tp634
a(I5605662
I5965001
tp635
a(I5605662
I5972187
tp636
a(I5605662
I6001229
tp637
a(I5605662
I6042709
tp638
a(I5605662
I6046056
tp639
a(I5605662
I6051380
tp640
a(I5605662
I6132685
tp641
a(I5605662
I6264825
tp642
a(I5605662
I6294063
tp643
a(I5605662
I6319668
tp644
a(I5605662
I6329209
tp645
a(I5605662
I6340588
tp646
a(I5605662
I6377894
tp647
a(I5605662
I6440725
tp648
a(I5605662
I6454945
tp649
a(I5605662
I6664104
tp650
a(I5605662
I6773671
tp651
a(I5605662
I7344499
tp652
a(I5632957
I5849486
tp653
a(I5632957
I5932100
tp654
a(I5632957
I5965452
tp655
a(I5632957
I6045996
tp656
a(I5632957
I6051380
tp657
a(I5632957
I6066448
tp658
a(I5632957
I6207369
tp659
a(I5632957
I6264825
tp660
a(I5632957
I6294063
tp661
a(I5632957
I6454945
tp662
a(I5632957
I7160678
tp663
a(I5632957
I7344499
tp664
a(I5653939
I5849486
tp665
a(I5653939
I5922591
tp666
a(I5653939
I6017696
tp667
a(I5653939
I6040193
tp668
a(I5653939
I6051380
tp669
a(I5653939
I6117630
tp670
a(I5653939
I6168948
tp671
a(I5653939
I6197595
tp672
a(I5653939
I6632655
tp673
a(I5700637
I5922591
tp674
a(I5700637
I6040138
tp675
a(I5700637
I6040193
tp676
a(I5700637
I6054270
tp677
a(I5700637
I6130098
tp678
a(I5700637
I6197595
tp679
a(I5700637
I6582908
tp680
a(I5700637
I7323305
tp681
a(I5744305
I6054270
tp682
a(I5744305
I6329209
tp683
a(I5744305
I7323305
tp684
a(I5795714
I5922617
tp685
a(I5795714
I6043031
tp686
a(I5795714
I6133436
tp687
a(I5837832
I6329209
tp688
a(I5837832
I6767706
tp689
a(I5846708
I5922617
tp690
a(I5846708
I6767706
tp691
a(I5849486
I6051380
tp692
a(I5849486
I6294063
tp693
a(I5849486
I7160678
tp694
a(I5871697
I6274320
tp695
a(I5871697
I7323305
tp696
a(I6017696
I6281006
tp697
a(I6017696
I6294063
tp698
a(I6027889
I6355431
tp699
a(I6027889
I7115884
tp700
a(I6040193
I7323305
tp701
a(I6051380
I6281006
tp702
a(I6051380
I6294063
tp703
a(I6051380
I6327410
tp704
a(I6051380
I6355431
tp705
a(I6051380
I7115884
tp706
a(I6054270
I6444461
tp707
a(I6054270
I7323305
tp708
a(I6103199
I6767706
tp709
a(I6214560
I6361944
tp710
a(I5538848
I5925517
tp711
a(I5538848
I6150097
tp712
a(I5538848
I6210896
tp713
a(I5538848
I6355420
tp714
a(I5427908
I5580717
tp715
a(I5427908
I5658727
tp716
a(I5427908
I5698426
tp717
a(I5427908
I5922537
tp718
a(I5427908
I5969108
tp719
a(I5432018
I5698426
tp720
a(I5432018
I5821047
tp721
a(I5432018
I5922537
tp722
a(I5432018
I5961923
tp723
a(I5432018
I6329139
tp724
a(I5432018
I6660843
tp725
a(I5498530
I6329139
tp726
a(I5498530
I6660843
tp727
a(I5698426
I6132970
tp728
a(I6133436
I7323305
tp729
a(I6355431
I7323305
tp730
a(I7115884
I7494465
tp731
a(I7115884
I7637868
tp732
a(I7115884
I7640048
tp733
a(I7115884
I7654956
tp734
a(I7115884
I7715893
tp735
a(I5932100
I6221654
tp736
a(I5932100
I6368871
tp737
a(I5932100
I6409832
tp738
a(I5932100
I6454945
tp739
a(I5932100
I6540895
tp740
a(I6210896
I7323305
tp741
a(I6355420
I6960437
tp742
a(I6355420
I7323305
tp743
a(I5961923
I6319668
tp744
a(I5961923
I6340588
tp745
a(I5961923
I7291497
tp746
a(I6767706
I6960437
tp747
a(I6319668
I7291497
tp748
a(I6340588
I7291497
tp749
a(I5939250
I6117679
tp750
a(I5939250
I6132970
tp751
a(I5965408
I6117679
tp752
a(I5965408
I6132970
tp753
a(I6368275
I6486588
tp754
a(I6368275
I6645202
tp755
a(I6368275
I7083620
tp756
a(I6368275
I7247155
tp757
a(I6368275
I7291497
tp758
a(I5770369
I6264825
tp759
a(I5770369
I7025774
tp760
a(I5770369
I7041068
tp761
a(I5770369
I7160678
tp762
a(I5770369
I7198606
tp763
a(I6264825
I7074307
tp764
a(I6264825
I7366556
tp765
a(I6264825
I7424318
tp766
a(I6264825
I7460898
tp767
a(I6264825
I7467003
tp768
a(I6264825
I7471972
tp769
a(I6264825
I7613491
tp770
a(I6264825
I7637868
tp771
a(I6264825
I7651596
tp772
a(I6264825
I7657297
tp773
a(I6264825
I7715893
tp774
a(I6578015
I7206768
tp775
a(I6571651
I7025774
tp776
a(I6571651
I7041068
tp777
a(I6571651
I7198606
tp778
a(I5639423
I5885470
tp779
a(I5639423
I5932100
tp780
a(I5639423
I5965410
tp781
a(I5639423
I6174675
tp782
a(I5639423
I6221654
tp783
a(I5639423
I6235471
tp784
a(I5639423
I6379929
tp785
a(I5639423
I6440725
tp786
a(I5639423
I6444461
tp787
a(I5639423
I6454945
tp788
a(I5639423
I6540895
tp789
a(I5639423
I6664104
tp790
a(I5639423
I6960437
tp791
a(I5674742
I5965410
tp792
a(I5674742
I6174675
tp793
a(I5674742
I6960437
tp794
a(I5699157
I5852495
tp795
a(I5699157
I5965410
tp796
a(I5699157
I6007690
tp797
a(I5699157
I6068752
tp798
a(I5699157
I6167910
tp799
a(I5699157
I6174675
tp800
a(I5699157
I6251343
tp801
a(I5699157
I6321791
tp802
a(I5699157
I6416642
tp803
a(I5699157
I6444461
tp804
a(I5699157
I6632655
tp805
a(I5747349
I5932100
tp806
a(I5747349
I5948684
tp807
a(I5747349
I6139800
tp808
a(I5747349
I6454945
tp809
a(I5747349
I6632655
tp810
a(I5842787
I6068752
tp811
a(I5842787
I6167910
tp812
a(I5842787
I6235471
tp813
a(I5842787
I6251343
tp814
a(I5842787
I6321791
tp815
a(I5842787
I6368871
tp816
a(I5842787
I6416642
tp817
a(I5842787
I6440725
tp818
a(I5842787
I6444461
tp819
a(I5842787
I6454945
tp820
a(I5842787
I6632655
tp821
a(I5842787
I6664104
tp822
a(I5842787
I6960437
tp823
a(I5852495
I6068752
tp824
a(I5852495
I6167910
tp825
a(I5852495
I6221654
tp826
a(I5852495
I6251343
tp827
a(I5852495
I6321791
tp828
a(I5852495
I6444461
tp829
a(I5852495
I6540895
tp830
a(I5852495
I6632655
tp831
a(I5852495
I7344499
tp832
a(I5855801
I6256533
tp833
a(I5855801
I6312612
tp834
a(I5855801
I6375627
tp835
a(I5855801
I6379324
tp836
a(I5855801
I6471903
tp837
a(I5855801
I6540675
tp838
a(I5855801
I6572566
tp839
a(I5855801
I6591124
tp840
a(I5855801
I6743211
tp841
a(I5855801
I6835184
tp842
a(I5855801
I6923764
tp843
a(I5855801
I7025774
tp844
a(I5855801
I7041068
tp845
a(I5855801
I7198606
tp846
a(I5863801
I6168948
tp847
a(I5863801
I6197595
tp848
a(I5863801
I6221654
tp849
a(I5863801
I6440725
tp850
a(I5863801
I6664104
tp851
a(I5872010
I6103199
tp852
a(I5872010
I6296673
tp853
a(I5872010
I6379929
tp854
a(I5876675
I6068752
tp855
a(I5876675
I6096656
tp856
a(I5876675
I6100541
tp857
a(I5876675
I6167910
tp858
a(I5876675
I6251343
tp859
a(I5876675
I6321791
tp860
a(I5876675
I6416642
tp861
a(I5876675
I6632655
tp862
a(I5876675
I6960437
tp863
a(I5876675
I7344499
tp864
a(I5882465
I6068752
tp865
a(I5882465
I6251343
tp866
a(I5882465
I6416642
tp867
a(I5882465
I6632655
tp868
a(I5885470
I6068752
tp869
a(I5885470
I6090251
tp870
a(I5885470
I6221654
tp871
a(I5885470
I6251343
tp872
a(I5885470
I6444461
tp873
a(I5885470
I6540895
tp874
a(I5885470
I6632655
tp875
a(I5948227
I6068752
tp876
a(I5948227
I6632655
tp877
a(I5948227
I6767706
tp878
a(I5955028
I6068752
tp879
a(I5955028
I6132685
tp880
a(I5955028
I6444461
tp881
a(I5955028
I6632655
tp882
a(I5957579
I6068752
tp883
a(I5957579
I6632655
tp884
a(I5958694
I6068752
tp885
a(I5958694
I6235471
tp886
a(I5958694
I6444461
tp887
a(I5958694
I6632655
tp888
a(I5965001
I6444461
tp889
a(I5965001
I6632655
tp890
a(I5965001
I6767706
tp891
a(I5989402
I6632655
tp892
a(I6007690
I6632655
tp893
a(I6007690
I6767706
tp894
a(I6007690
I6960437
tp895
a(I6068752
I6368871
tp896
a(I6068752
I6440725
tp897
a(I6068752
I6664104
tp898
a(I6126899
I6540675
tp899
a(I6126899
I6825047
tp900
a(I6126899
I6923764
tp901
a(I6167910
I6960437
tp902
a(I6221654
I6540895
tp903
a(I6221654
I6960437
tp904
a(I6321791
I6960437
tp905
a(I6540895
I6960437
tp906
a(I6825047
I7025774
tp907
a(I6825047
I7041068
tp908
a(I6825047
I7198606
tp909
a(I5800690
I5900130
tp910
a(I5800690
I5965410
tp911
a(I5800690
I5976336
tp912
a(I5800690
I6068752
tp913
a(I5800690
I6167910
tp914
a(I5800690
I6174675
tp915
a(I5800690
I6221654
tp916
a(I5800690
I6251343
tp917
a(I5800690
I6321791
tp918
a(I5800690
I6416642
tp919
a(I5800690
I6444461
tp920
a(I5800690
I6540895
tp921
a(I5800690
I6632655
tp922
a(I5800690
I6767706
tp923
a(I5858195
I6132580
tp924
a(I5858195
I6168948
tp925
a(I5858195
I6197595
tp926
a(I5858195
I6294063
tp927
a(I5858195
I6632655
tp928
a(I5858195
I6960437
tp929
a(I5976336
I6132580
tp930
a(I5976336
I6168948
tp931
a(I5976336
I6197595
tp932
a(I5976336
I6632655
tp933
a(I6001229
I6132580
tp934
a(I6001229
I6168948
tp935
a(I6001229
I6197595
tp936
a(I6001229
I6444461
tp937
a(I6012902
I6632655
tp938
a(I5716825
I5955028
tp939
a(I5716825
I5976336
tp940
a(I5716825
I6068752
tp941
a(I5716825
I6235471
tp942
a(I5716825
I6444461
tp943
a(I5726751
I5932100
tp944
a(I5726751
I5948684
tp945
a(I5726751
I5972710
tp946
a(I5726751
I6221654
tp947
a(I5726751
I6454945
tp948
a(I5726751
I6485461
tp949
a(I5726751
I6540895
tp950
a(I5726751
I6656158
tp951
a(I5726751
I6656159
tp952
a(I5726751
I6669669
tp953
a(I5726751
I6692457
tp954
a(I5726751
I6699218
tp955
a(I5726751
I6723072
tp956
a(I5726751
I6749587
tp957
a(I5726751
I6768425
tp958
a(I5726751
I6830558
tp959
a(I5726751
I6960192
tp960
a(I5726751
I7018360
tp961
a(I5726751
I7029455
tp962
a(I5726751
I7137964
tp963
a(I5726751
I7144384
tp964
a(I5863502
I6440725
tp965
a(I5863502
I6444461
tp966
a(I5863502
I6632655
tp967
a(I5863502
I6664104
tp968
a(I6117630
I7025774
tp969
a(I6117630
I7041068
tp970
a(I6540675
I6738654
tp971
a(I6540675
I6923764
tp972
a(I6540675
I7025774
tp973
a(I6540675
I7041068
tp974
a(I6540675
I7198606
tp975
a(I6074827
I6334960
tp976
a(I6074827
I6696220
tp977
a(I5900130
I7025774
tp978
a(I5900130
I7041068
tp979
a(I5900130
I7198606
tp980
a(I6334960
I6696220
tp981
a(I6180415
I6344272
tp982
a(I6180415
I6530944
tp983
a(I6344272
I6530944
tp984
a(I6344272
I6710366
tp985
a(I6377894
I6645142
tp986
a(I6377894
I6743635
tp987
a(I6377894
I6946299
tp988
a(I6377894
I6953693
tp989
a(I6377894
I6959247
tp990
a(I6377894
I6964871
tp991
a(I6377894
I7160251
tp992
a(I6773671
I6946299
tp993
a(I6773671
I6953693
tp994
a(I6773671
I6959247
tp995
a(I6773671
I6964871
tp996
a(I6773671
I7025774
tp997
a(I6773671
I7041068
tp998
a(I6773671
I7160251
tp999
a(I6773671
I7198606
tp1000
a(I6066448
I7074307
tp1001
a(I6066448
I7471972
tp1002
a(I6066448
I7613491
tp1003
a(I6066448
I7637868
tp1004
a(I6066448
I7657297
tp1005
a(I6066448
I7711402
tp1006
a(I6066448
I7715893
tp1007
a(I6207369
I7160678
tp1008
a(I6281006
I7025774
tp1009
a(I6281006
I7041068
tp1010
a(I6281006
I7041468
tp1011
a(I6281006
I7198606
tp1012
a(I7494465
I7654956
tp1013
a(dp1014
I6723072
(lp1015
Vplunger
p1016
aVreservoir
p1017
aVassembl
p1018
aVcharg
p1019
aVexit
p1020
aVport
p1021
aVlength
p1022
aVmemori
p1023
aVuncharg
p1024
aVpatient
p1025
asI5958694
(lp1026
Vnucleic
p1027
aVnucleotid
p1028
aVtarget
p1029
aVsequenc
p1030
aVmicrofluid
p1031
aVacid
p1032
aVfragment
p1033
aVgiven
p1034
aVnest
p1035
aVoccupi
p1036
asI5842787
(lp1037
Vmicrofluid
p1038
aVchannel
p1039
aVvari
p1040
aVdepth
p1041
aVdescrib
p1042
aVprevious
p1043
aVincorpor
p1044
aVunexpect
p1045
aVbenefici
p1046
aVbenefit
p1047
asI6143495
(lp1048
Vamplif
p1049
aVmolecul
p1050
aVcircl
p1051
aVtarget
p1052
aVreplic
p1053
aVsampl
p1054
aVprobe
p1055
aVquantit
p1056
aVroll
p1057
aVdetect
p1058
asI5837832
(lp1059
Vprobe
p1060
aVexact
p1061
aVsequenc
p1062
aVarray
p1063
aVcomplementari
p1064
aVnucleic
p1065
aVchip
p1066
aVrefer
p1067
aVoligonucleotid
p1068
aVacid
p1069
asI7137964
(lp1070
Vfluid
p1071
aVexit
p1072
aVflow
p1073
aVdevic
p1074
aVinstruct
p1075
aVdeliveri
p1076
aVinfus
p1077
aVlocal
p1078
aVport
p1079
aVprocessor
p1080
asI6090251
(lp1081
Vfluid
p1082
aVport
p1083
aVintroduct
p1084
aVchannel
p1085
aVmicrofluid
p1086
aVcapillari
p1087
aVaspect
p1088
aVmicrofabr
p1089
aVsubstrat
p1090
aVfacilit
p1091
asI5834252
(lp1092
Vpolynucleotid
p1093
aVconcatem
p1094
aVnucleic
p1095
aVpcr
p1096
aVpolymeras
p1097
aVacid
p1098
aVamplif
p1099
aVfragment
p1100
aVcomplementari
p1101
aVoverlap
p1102
asI5312527
(lp1103
Vvoltammetr
p1104
aVheteroduplex
p1105
aVpolynucleotid
p1106
aVimmobil
p1107
aVvoltammogram
p1108
aVsequenc
p1109
aVtarget
p1110
aVsensor
p1111
aVphysiolog
p1112
aVhybrid
p1113
asI6068752
(lp1114
Vmicrofluid
p1115
aVgeometri
p1116
aVincorpor
p1117
aVborn
p1118
aVmateri
p1119
aVchannel
p1120
aVthese
p1121
aVthroughput
p1122
aVdevic
p1123
aVimprov
p1124
asI6361944
(lp1125
Vnanoparticl
p1126
aVnucleic
p1127
aVoligonucleotid
p1128
aVacid
p1129
aVnanofabr
p1130
aVnanomateri
p1131
aVattach
p1132
aVthereto
p1133
aVsequenc
p1134
aVnanostructur
p1135
asI6368275
(lp1136
Vmicro
p1137
aVinstrument
p1138
aVlid
p1139
aVwall
p1140
aVproperti
p1141
aVdeform
p1142
aVoption
p1143
aVcircumscrib
p1144
aVmillimet
p1145
aVgather
p1146
asI7291497
(lp1147
Vmicroarray
p1148
aVanalyt
p1149
aVagent
p1150
aVbioactiv
p1151
aVcapabl
p1152
aVtherapeut
p1153
aVmicrochannel
p1154
aVmedic
p1155
aVbodili
p1156
aVdevic
p1157
asI5498392
(lp1158
Vpolynucleotid
p1159
aVmesoscal
p1160
aVreaction
p1161
aVpcr
p1162
aVpolymeras
p1163
aVpolymer
p1164
aVchamber
p1165
aVprimer
p1166
aVdehybrid
p1167
aVinlet
p1168
asI5409818
(lp1169
Vprimer
p1170
aVstrand
p1171
aVnucleic
p1172
aVsequenc
p1173
aVtemplat
p1174
aVdna
p1175
aVacid
p1176
aVspecif
p1177
aVrna
p1178
aVsingl
p1179
asI5700637
(lp1180
Vsequenc
p1181
aVpolynucleotid
p1182
aVoligonucleotid
p1183
aVchosen
p1184
aVarray
p1185
aVhybrid
p1186
aVmrnas
p1187
aVknown
p1188
aVanalyz
p1189
aVmrna
p1190
asI5885470
(lp1191
Vmicrofabr
p1192
aVbiochemistri
p1193
aVbiotechnolog
p1194
aVpolymer
p1195
aVbiochem
p1196
aVmicrofluid
p1197
aVchemistri
p1198
aVanalys
p1199
aVfield
p1200
aVfluidic
p1201
asI5726751
(lp1202
Vcytomet
p1203
aVphotodetector
p1204
aVangl
p1205
aVflow
p1206
aVgroov
p1207
aVreflect
p1208
aVcollect
p1209
aVlarg
p1210
aVscatter
p1211
aVsmall
p1212
asI5800992
(lp1213
Vbiolog
p1214
aVmacromolecul
p1215
aVsequenc
p1216
aVfingerprint
p1217
aVclassif
p1218
aVreagent
p1219
aVrecognit
p1220
aVnucleic
p1221
aVtypic
p1222
aVmap
p1223
asI6665648
(lp1224
Vstate
p1225
aVtransit
p1226
aVmodel
p1227
aVrule
p1228
aVname
p1229
aVbusi
p1230
aVpermit
p1231
aVdefin
p1232
aVoop
p1233
aVprocess
p1234
asI7460898
(lp1235
Vanalyt
p1236
aVsensor
p1237
aVcontinu
p1238
aVmeasur
p1239
aVdata
p1240
aVsuch
p1241
aVglucos
p1242
aVelectrod
p1243
aVbackground
p1244
aVsuspend
p1245
asI6197595
(lp1246
Vsampl
p1247
aVnucleic
p1248
aVdiagnost
p1249
aVintegr
p1250
aVacquisit
p1251
aVnovo
p1252
aVacid
p1253
aVapplic
p1254
aVanalysi
p1255
aVdevic
p1256
asI5811238
(lp1257
Vmutagenesi
p1258
aVvitro
p1259
aVpolynucleotid
p1260
aVvivo
p1261
aVfragment
p1262
aVnucleic
p1263
aVprotein
p1264
aVshuffl
p1265
aVreassembl
p1266
aVevolut
p1267
asI7654956
(lp1268
Vtranscutan
p1269
aVanalyt
p1270
aVhost
p1271
aVglucos
p1272
aVmeasur
p1273
aVpresent
p1274
aVrelat
p1275
aVinvent
p1276
aVsensor
p1277
aVgeneral
p1278
asI6294063
(lp1279
Vprogramm
p1280
aVpacket
p1281
aVmanipul
p1282
aVforc
p1283
aVcompartment
p1284
aVposit
p1285
aVmicrofluid
p1286
aVarbitrarili
p1287
aVfluidic
p1288
aVchosen
p1289
asI6143496
(lp1290
Vnucleic
p1291
aVamplif
p1292
aVsampl
p1293
aVnanolit
p1294
aVmolecul
p1295
aVacid
p1296
aVquantifi
p1297
aVminiatur
p1298
aVreaction
p1299
aVsequenc
p1300
asI5939250
(lp1301
Venzym
p1302
aVdna
p1303
aVspecifi
p1304
aVmutagenesi
p1305
aVclone
p1306
aVactiv
p1307
aVpopul
p1308
aVlibrari
p1309
aVheterogen
p1310
aVscreen
p1311
asI5653939
(lp1312
Vsite
p1313
aVtest
p1314
aVmolecular
p1315
aVstructur
p1316
aVprobe
p1317
aVsubstanc
p1318
aVtarget
p1319
aVsampl
p1320
aVbond
p1321
aVmonolith
p1322
asI6051380
(lp1323
Vmicroloc
p1324
aVreaction
p1325
aVanalyt
p1326
aVspecif
p1327
aVbiolog
p1328
aVmolecular
p1329
aVreactant
p1330
aVentiti
p1331
aVstringenc
p1332
aVnucleic
p1333
asI7715893
(lp1334
Vanalyt
p1335
aVcalibr
p1336
aVbaselin
p1337
aVsensor
p1338
aVmeasur
p1339
aVcontinu
p1340
aVsensit
p1341
aVsuch
p1342
aVglucos
p1343
aVsuspend
p1344
asI5855801
(lp1345
Vetchabl
p1346
aVmembran
p1347
aVetch
p1348
aVunetch
p1349
aVmicroneedl
p1350
aVlayer
p1351
aVstructur
p1352
aVelong
p1353
aVetchant
p1354
aVinterfac
p1355
asI5958203
(lp1356
Vmicrofluid
p1357
aVelectropipettor
p1358
aVtransport
p1359
aVmateri
p1360
aVionic
p1361
aVelectrophoret
p1362
aVchannel
p1363
aVconcentr
p1364
aVelectrophores
p1365
aVspacer
p1366
asI6486588
(lp1367
Vbiosensor
p1368
aVphysiolog
p1369
aVacoust
p1370
aVinterrog
p1371
aVelement
p1372
aVtransduc
p1373
aVcondit
p1374
aVsite
p1375
aVimplant
p1376
aVsignal
p1377
asI6100541
(lp1378
Vmicrofluid
p1379
aVoptic
p1380
aVdevic
p1381
aVintegr
p1382
aVdetect
p1383
aValter
p1384
aVmanipul
p1385
aVsystem
p1386
aVincorpor
p1387
aVemploy
p1388
asI7657297
(lp1389
Vsensor
p1390
aVanalyt
p1391
aVimplant
p1392
aVbodi
p1393
aVhost
p1394
aVsens
p1395
aVcapsul
p1396
aVforeign
p1397
aVimmobil
p1398
aVminiatur
p1399
asI6180415
(lp1400
Vpres
p1401
aVspectral
p1402
aVplasmon
p1403
aVfield
p1404
aVtarget
p1405
aVscatter
p1406
aVparticl
p1407
aVreson
p1408
aVcharacterist
p1409
aVinterrog
p1410
asI6960192
(lp1411
Vfluid
p1412
aVperson
p1413
aVtransport
p1414
aVreservoir
p1415
aVhous
p1416
aVskin
p1417
aVdistal
p1418
aVdevic
p1419
aVpenetr
p1420
aVexit
p1421
asI5830721
(lp1422
Vfragment
p1423
aVlibrari
p1424
aVcorresspond
p1425
aVpool
p1426
aVrecombin
p1427
aVpeptid
p1428
aVpns
p1429
aVcopi
p1430
aVmutagenesi
p1431
aVshuffl
p1432
asI7613491
(lp1433
Vpoli
p1434
aVpolym
p1435
aVmembran
p1436
aVsilicon
p1437
aVanalyt
p1438
aVoxid
p1439
aVblend
p1440
aVethylen
p1441
aVsolubl
p1442
aVtriblock
p1443
asI5932100
(lp1444
Vmicrofabr
p1445
aVextract
p1446
aVstream
p1447
aVdifferenti
p1448
aVsampl
p1449
aVparticl
p1450
aVpicolit
p1451
aVdesir
p1452
aVdiffus
p1453
aVtransport
p1454
asI5492806
(lp1455
Vsubfrag
p1456
aVphage
p1457
aVnucleic
p1458
aVsequenc
p1459
aVhybrid
p1460
aVclone
p1461
aVgenom
p1462
aVm13
p1463
aVfragment
p1464
aV000
p1465
asI6296673
(lp1466
Vmicrocrystal
p1467
aVdrop
p1468
aVmolecul
p1469
aVarray
p1470
aVcrystal
p1471
aVsuitabl
p1472
aVcondit
p1473
aVperform
p1474
aVvolum
p1475
aVformat
p1476
asI5994056
(lp1477
Vamplif
p1478
aVdna
p1479
aVbind
p1480
aVdetect
p1481
aVreaction
p1482
aVnucleic
p1483
aVagent
p1484
aVpcr
p1485
aVpolymeras
p1486
aVenhanc
p1487
asI5948684
(lp1488
Vstream
p1489
aVlaminar
p1490
aVanalyt
p1491
aVrefer
p1492
aVflow
p1493
aVchannel
p1494
aVsampl
p1495
aVstandard
p1496
aVindic
p1497
aVparticl
p1498
asI6040138
(lp1499
sI6001229
(lp1500
Vmicrochip
p1501
aVchannel
p1502
aVinject
p1503
aVmanipul
p1504
aVosmot
p1505
aVsampl
p1506
aVmicrofluid
p1507
aVphotolithograph
p1508
aVelectrophoresi
p1509
aVfluidic
p1510
asI5863502
(lp1511
Vreaction
p1512
aVfluid
p1513
aVchannel
p1514
aVexchang
p1515
aVflow
p1516
aVparallel
p1517
aVway
p1518
aVsuch
p1519
aVchamber
p1520
aVcassett
p1521
asI5474895
(lp1522
sI6344272
(lp1523
Vnonconduct
p1524
aVconduct
p1525
aVcluster
p1526
aVnanoshel
p1527
aVscatter
p1528
aVparticl
p1529
aVshell
p1530
aVmolecul
p1531
aVabsorb
p1532
aVthick
p1533
asI5871697
(lp1534
Vsequenc
p1535
aVdna
p1536
aVcare
p1537
aVsampl
p1538
aVclone
p1539
aVsubsequ
p1540
aVtarget
p1541
aVchosen
p1542
aVexperiment
p1543
aVclassifi
p1544
asI5858659
(lp1545
Vmarker
p1546
aVpolymorph
p1547
aVpolygen
p1548
aVheterozygot
p1549
aVhomozygot
p1550
aVbiallel
p1551
aVprobe
p1552
aVrapid
p1553
aVgenotyp
p1554
aVtrait
p1555
asI6042709
(lp1556
sI6825047
(lp1557
Vanalyt
p1558
aVsampl
p1559
aVdetect
p1560
aVchamber
p1561
aVinlet
p1562
aVdevic
p1563
aVdead
p1564
aVquantit
p1565
aVreagent
p1566
aVabsenc
p1567
asI5487972
(lp1568
Voligonucleotid
p1569
aVlabel
p1570
aVnucleic
p1571
aV3'exonucleas
p1572
aVpolymeras
p1573
aVacid
p1574
aVnucleas
p1575
aVdetect
p1576
aVpcr
p1577
aVcleav
p1578
asI6767706
(lp1579
Vmolecul
p1580
aVhybrid
p1581
aVpolynucleotid
p1582
aVprotein
p1583
aVmicrofabr
p1584
aVdna
p1585
aVdetect
p1586
aVantibodi
p1587
aVantigen
p1588
aVreport
p1589
asI7029455
(lp1590
Vfluid
p1591
aVexit
p1592
aVflow
p1593
aVdevic
p1594
aVinstruct
p1595
aVdeliveri
p1596
aVinfus
p1597
aVlocal
p1598
aVport
p1599
aVprocessor
p1600
asI6540895
(lp1601
Vmicrofabr
p1602
aVbranch
p1603
aVchannel
p1604
aVcell
p1605
aVsort
p1606
aVdetect
p1607
aVregion
p1608
aVanalysi
p1609
aVreport
p1610
aVpoint
p1611
asI5965408
(lp1612
Vpolynucleotid
p1613
aVmutant
p1614
aVsynthesi
p1615
aVrandom
p1616
aVreanneal
p1617
aVamplif
p1618
aVpolypeptid
p1619
aVinterrupt
p1620
aVexpress
p1621
aVsexual
p1622
asI5882465
(lp1623
Vmicrofluid
p1624
aVmicrofabr
p1625
aVbond
p1626
aVmanufactur
p1627
aVsubstrat
p1628
aVimprov
p1629
aVdevic
p1630
aVvacuum
p1631
aVmethod
p1632
aVinvent
p1633
asI5965410
(lp1634
Vport
p1635
aVchannel
p1636
aVfluid
p1637
aVmonitor
p1638
aVlcr
p1639
aV421
p1640
aV413
p1641
aV407
p1642
aVtherebetween
p1643
aVsubstrat
p1644
asI7160251
(lp1645
Vmeter
p1646
aVsampl
p1647
aVstrip
p1648
aVglucos
p1649
aVelectrod
p1650
aVblood
p1651
aVtest
p1652
aVcounter
p1653
aVauto
p1654
aVwork
p1655
asI7083620
(lp1656
Vhemostat
p1657
aVjaw
p1658
aVablat
p1659
aVtreatment
p1660
aVprocedur
p1661
aVmalleabl
p1662
aVelectrosurg
p1663
aVatrial
p1664
aVfibril
p1665
aVlesion
p1666
asI6167910
(lp1667
Vmicrofluid
p1668
aVlayer
p1669
aVmicrofabr
p1670
aVsubstrat
p1671
aVmicroscal
p1672
aVaspect
p1673
aVmulti
p1674
aVvarious
p1675
aVchannel
p1676
aVlike
p1677
asI6368871
(lp1678
Vmicrostructur
p1679
aVintern
p1680
aVchannel
p1681
aVmultipl
p1682
aVreactiv
p1683
aVstructur
p1684
aVmanipul
p1685
aVbranch
p1686
aVchip
p1687
aVmacromolecul
p1688
asI6409832
(lp1689
Vmicrofluid
p1690
aVprotein
p1691
aVcrystal
p1692
aVpcg
p1693
aVmicrograv
p1694
aVlaminar
p1695
aVchannel
p1696
aVharvest
p1697
aVsuit
p1698
aVpromot
p1699
asI6133436
(lp1700
Vbead
p1701
aVnucleic
p1702
aVsolid
p1703
aVchemistri
p1704
aVacid
p1705
aVimmobil
p1706
aVconjug
p1707
aVsupport
p1708
aVpractition
p1709
aVnovel
p1710
asI5658727
(lp1711
Vphage
p1712
aVpolypeptid
p1713
aVreceptor
p1714
aVantogen
p1715
aVcpviii
p1716
aVfilament
p1717
aVphagemid
p1718
aVheterodimer
p1719
aVprotein
p1720
aVmatrix
p1721
asI7115884
(lp1722
Vsensor
p1723
aVmicrospher
p1724
aVfiber
p1725
aVarray
p1726
aVbundl
p1727
aVanalyt
p1728
aVencod
p1729
aVoptic
p1730
aVself
p1731
aVinterrogat
p1732
asI6066448
(lp1733
Velectrochemiluminesc
p1734
aVmulti
p1735
aVtest
p1736
aVspecif
p1737
aVarray
p1738
aVreagent
p1739
aVmultipli
p1740
aVexcit
p1741
aVdomain
p1742
aVprocedur
p1743
asI6027889
(lp1744
sI5571698
(lp1745
Vbind
p1746
aVdomain
p1747
aVprotein
p1748
aVm13
p1749
aVfamili
p1750
aVgenet
p1751
aVphage
p1752
aVpotenti
p1753
aVpackag
p1754
aVmolecul
p1755
asI6743635
(lp1756
Vmeter
p1757
aVsampl
p1758
aVstrip
p1759
aVglucos
p1760
aVelectrod
p1761
aVblood
p1762
aVtest
p1763
aVcounter
p1764
aVauto
p1765
aVwork
p1766
asI6710366
(lp1767
Vnanocomposit
p1768
aVsup
p1769
aVmateri
p1770
aVmatrix
p1771
aVlambda
p1772
aVquantum
p1773
aVnonlinear
p1774
aVgamma
p1775
aVdot
p1776
aVrefract
p1777
asI5821047
(lp1778
Vphagemid
p1779
aVprotein
p1780
aVphage
p1781
aVgene
p1782
aVhormon
p1783
aVvariant
p1784
aVfusion
p1785
aVm13
p1786
aVgrowth
p1787
aVexpress
p1788
asI6743211
(lp1789
Vmicroneedl
p1790
aVelast
p1791
aVbiolog
p1792
aVskin
p1793
aVpenetr
p1794
aVbarrier
p1795
aVmolecul
p1796
aVdevic
p1797
aVdeform
p1798
aVenhanc
p1799
asI6582908
(lp1800
Voligonucleotid
p1801
aVchemistri
p1802
aVanalys
p1803
aVmedicin
p1804
aVdivers
p1805
aVdiagnost
p1806
aVgene
p1807
aVbiolog
p1808
aVimpact
p1809
aVprobe
p1810
asI6321791
(lp1811
Vmicrofluid
p1812
aVlayer
p1813
aVmicrofabr
p1814
aVsubstrat
p1815
aVmicroscal
p1816
aVaspect
p1817
aVmulti
p1818
aVvarious
p1819
aVchannel
p1820
aVlike
p1821
asI6040193
(lp1822
sI4851331
(lp1823
Vtriphosph
p1824
aVnucleosid
p1825
aVnucleotid
p1826
aVpolynucleotid
p1827
aVprimer
p1828
aVsampl
p1829
aVstrand
p1830
aVhybrid
p1831
aVexonucleas
p1832
aVprobe
p1833
asI6572566
(lp1834
Vanalyt
p1835
aVrecess
p1836
aVmember
p1837
aVconcentr
p1838
aVchannel
p1839
aVmembran
p1840
aVfluid
p1841
aVleast
p1842
aVdetermin
p1843
aVsystem
p1844
asI6964871
(lp1845
Vmeter
p1846
aVtest
p1847
aVstrip
p1848
aVglucos
p1849
aVelectrod
p1850
aVblood
p1851
aVsampl
p1852
aVcounter
p1853
aVauto
p1854
aVwork
p1855
asI5965452
(lp1856
Vsampl
p1857
aVhold
p1858
aVelectrod
p1859
aVcircuit
p1860
aVtimeshar
p1861
aVarray
p1862
aVbiolog
p1863
aVmultiplex
p1864
aVmatrix
p1865
aVcapacitor
p1866
asI5925517
(lp1867
Vprobe
p1868
aVunimolecular
p1869
aVtarget
p1870
aVlabel
p1871
aVconform
p1872
aVsequenc
p1873
aVinteract
p1874
aVassay
p1875
aVcomplement
p1876
aVbimolecular
p1877
asI5552270
(lp1878
Vdna
p1879
aVoligonucleotid
p1880
aVdissoci
p1881
aVhybrid
p1882
aVduplex
p1883
aVgel
p1884
aVsequenc
p1885
aVarray
p1886
aVwash
p1887
aVtemperatur
p1888
asI6959247
(lp1889
Vmeter
p1890
aVsampl
p1891
aVstrip
p1892
aVglucos
p1893
aVelectrod
p1894
aVblood
p1895
aVtest
p1896
aVcounter
p1897
aVauto
p1898
aVwork
p1899
asI6340588
(lp1900
Vmatrix
p1901
aVmemori
p1902
aVmatric
p1903
aVcombin
p1904
aVassay
p1905
aVmacromolecul
p1906
aVbiolog
p1907
aVimmunoassay
p1908
aVmolecul
p1909
aVmateri
p1910
asI5837458
(lp1911
Vmetabol
p1912
aVrecombin
p1913
aVrecurs
p1914
aVmultigen
p1915
aVwhole
p1916
aVbioprocess
p1917
aVsequenc
p1918
aVevolut
p1919
aVevolv
p1920
aVplasmid
p1921
asI5876675
(lp1922
Vmicrofluid
p1923
aVfoul
p1924
aVmanual
p1925
aVhandl
p1926
aVdevic
p1927
aVeasier
p1928
aVresult
p1929
aVcontact
p1930
aVcontamin
p1931
aVotherwis
p1932
asI6591124
(lp1933
Vmicroneedl
p1934
aVinterstiti
p1935
aVsensor
p1936
aVfluid
p1937
aVarray
p1938
aVdiaphragm
p1939
aVfinger
p1940
aVportabl
p1941
aVpump
p1942
aVcould
p1943
asI5747349
(lp1944
Vbead
p1945
aVreport
p1946
aVanalyt
p1947
aVfluoresc
p1948
aVbulk
p1949
aVfluid
p1950
aVmeasur
p1951
aVmolecul
p1952
aVmicroscal
p1953
aVcytomet
p1954
asI5124246
(lp1955
Voligonucleotid
p1956
aVmultim
p1957
aVstrand
p1958
aVnucleic
p1959
aVsingl
p1960
aVamplifi
p1961
aVassay
p1962
aVcomplementari
p1963
aVhybrid
p1964
aVacid
p1965
asI6225047
(lp1966
Vanalyt
p1967
aVretent
p1968
aVdifferenti
p1969
aVdesorpt
p1970
aVsampl
p1971
aVspectrometri
p1972
aVidentifi
p1973
aVchromatographi
p1974
aVdiffer
p1975
aVmap
p1976
asI5494810
(lp1977
Vligas
p1978
aVdna
p1979
aVnucleic
p1980
aVsequenc
p1981
aVhb8
p1982
aVaquaticus
p1983
aVthermus
p1984
aVlcr
p1985
aVacid
p1986
aVthermophil
p1987
asI6429027
(lp1988
Vmicrospher
p1989
aVarray
p1990
aVcomposit
p1991
aVdecod
p1992
aVsensor
p1993
aVutil
p1994
aVrelat
p1995
aVinvent
p1996
aVmethod
p1997
aVfor
p1998
asI4800159
(lp1999
Vnucleic
p2000
aVprimer
p2001
aVacid
p2002
aVsequenc
p2003
aVamplifi
p2004
aVcomplementari
p2005
aVdetect
p2006
aVstepwis
p2007
aVclone
p2008
aVoligonucleotid
p2009
asI6017696
(lp2010
sI6454945
(lp2011
Vstream
p2012
aVmicrofabr
p2013
aVextract
p2014
aVsampl
p2015
aVparticl
p2016
aVdiffus
p2017
aVpicolit
p2018
aVdesir
p2019
aVquantiti
p2020
aVdifferenti
p2021
asI5498530
(lp2022
Vprotein
p2023
aVpeptid
p2024
aVdna
p2025
aVbind
p2026
aVrandom
p2027
aVscreen
p2028
aVlibrari
p2029
aVfusion
p2030
aVligand
p2031
aVrecombin
p2032
asI6312612
(lp2033
Vmicroneedl
p2034
aVmicrofabr
p2035
aVskin
p2036
aVarray
p2037
aVsilicon
p2038
aVintracutan
p2039
aVreptil
p2040
aVcorneum
p2041
aVcreatur
p2042
aVhollow
p2043
asI6281006
(lp2044
Vaffin
p2045
aVligand
p2046
aVelectrochem
p2047
aVassay
p2048
aVreceptor
p2049
aVbind
p2050
aVdetect
p2051
aVsystem
p2052
aVfor
p2053
asI7323305
(lp2054
Vdna
p2055
aVsequenc
p2056
aVgenom
p2057
aVamplifi
p2058
aVprimer
p2059
aVprepar
p2060
aVstep
p2061
aVperform
p2062
aVnucleic
p2063
aVhybrid
p2064
asI7711402
(lp2065
Vanalyt
p2066
aVmicroarchitectur
p2067
aVdevic
p2068
aVimplant
p2069
aVmonitor
p2070
aVglucos
p2071
aVlevel
p2072
aVallow
p2073
aVdetermin
p2074
aVblood
p2075
asI5942443
(lp2076
Vscreen
p2077
aVthroughput
p2078
aVassay
p2079
aVmicroscal
p2080
aVbiochem
p2081
aVmicrofluid
p2082
aVfluidic
p2083
aVhigh
p2084
aVvarieti
p2085
aVdevic
p2086
asI6835184
(lp2087
Vabrad
p2088
aVskin
p2089
aVmicroneedl
p2090
aVdeliveri
p2091
aVmicron
p2092
aVcorneum
p2093
aVsite
p2094
aVstratum
p2095
aVtransderm
p2096
aVirrit
p2097
asI5585069
(lp2098
Varray
p2099
aVsampl
p2100
aVmicrolaboratori
p2101
aVtest
p2102
aVfluidic
p2103
aVmicroelectron
p2104
aVclinic
p2105
aVchannel
p2106
aVlight
p2107
aVsynthes
p2108
asI5744305
(lp2109
Vtechniqu
p2110
aVphotoremov
p2111
aVphotolabil
p2112
aVchemic
p2113
aVlinker
p2114
aVchemistri
p2115
aVphotolithographi
p2116
aVprotect
p2117
aVstrategi
p2118
aVdivers
p2119
asI5846708
(lp2120
Vsite
p2121
aVtest
p2122
aVmolecular
p2123
aVstructur
p2124
aVprobe
p2125
aVsubstanc
p2126
aVtarget
p2127
aVsampl
p2128
aVbond
p2129
aVmonolith
p2130
asI6696220
(lp2131
Vreconvers
p2132
aVcolor
p2133
aVviewabl
p2134
aVimprint
p2135
aVnano
p2136
aVtemplat
p2137
aVmicro
p2138
aVsuit
p2139
aVroom
p2140
aVphotograph
p2141
asI5587128
(lp2142
Vpolynucleotid
p2143
aVamplif
p2144
aVreaction
p2145
aVchamber
p2146
aVpreselect
p2147
aVmesoscal
p2148
aVdevic
p2149
aVregul
p2150
aVmicrofabr
p2151
aVamplifi
p2152
asI5837500
(lp2153
Vbind
p2154
aVdomain
p2155
aVprotein
p2156
aVm13
p2157
aVfamili
p2158
aVgenet
p2159
aVphage
p2160
aVpotenti
p2161
aVpackag
p2162
aVmolecul
p2163
asI5846717
(lp2164
Vnucleic
p2165
aVcleavag
p2166
aVacid
p2167
aVsequenc
p2168
aVcleav
p2169
aVspecif
p2170
aVinvad
p2171
aVvariat
p2172
aVnucleas
p2173
aVtarget
p2174
asI6699218
(lp2175
Vfluid
p2176
aVtransport
p2177
aVtube
p2178
aVdistal
p2179
aVmember
p2180
aVpenetr
p2181
aVpassageway
p2182
aVexpans
p2183
aVdispens
p2184
aVtranscutan
p2185
asI5538848
(lp2186
Voligonucleotid
p2187
aVquencher
p2188
aVreport
p2189
aVnucleic
p2190
aVmolecul
p2191
aVprobe
p2192
aVquench
p2193
aVwhenev
p2194
aVunquench
p2195
aVamplif
p2196
asI5961923
(lp2197
Vmatrix
p2198
aVmemori
p2199
aVmatric
p2200
aVassay
p2201
aVmacromolecul
p2202
aVbiolog
p2203
aVcombin
p2204
aVimmunoassay
p2205
aVmolecul
p2206
aVmateri
p2207
asI5427908
(lp2208
Vprotein
p2209
aVencod
p2210
aVsequenc
p2211
aVlibrari
p2212
aVbacteriophag
p2213
aVphage
p2214
aVnucleotid
p2215
aVdna
p2216
aVinterest
p2217
aVhybridoma
p2218
asI7640048
(lp2219
Vanalyt
p2220
aVhost
p2221
aVtranscutan
p2222
aVglucos
p2223
aVmeasur
p2224
aVpresent
p2225
aVrelat
p2226
aVinvent
p2227
aVsensor
p2228
aVgeneral
p2229
asI6319668
(lp2230
Vmatrix
p2231
aVmolecul
p2232
aVmemori
p2233
aVassay
p2234
aVmacromolecul
p2235
aVbiolog
p2236
aVcombin
p2237
aVimmunoassay
p2238
aVmatric
p2239
aVmateri
p2240
asI5965001
(lp2241
Vmicrofluid
p2242
aVmultiplex
p2243
aVelectroosmot
p2244
aVelectrod
p2245
aVvoltag
p2246
aVelectrokinet
p2247
aVfluid
p2248
aVvari
p2249
aVelectrophoret
p2250
aVforc
p2251
asI6375627
(lp2252
Vphysiolog
p2253
aVfluid
p2254
aVpunctur
p2255
aVanalysi
p2256
aVsampl
p2257
aVbodi
p2258
aVskin
p2259
aVlanc
p2260
aVsensor
p2261
aVchannel
p2262
asI6632655
(lp2263
Vmicrofluid
p2264
aVflowabl
p2265
aVassay
p2266
aVarray
p2267
aVmicroparticl
p2268
aVparticl
p2269
aVhydrodynam
p2270
aVfix
p2271
aVsystem
p2272
aVset
p2273
asI5432018
(lp2274
Vpeptid
p2275
aVlibrari
p2276
aVbacteriophag
p2277
aVreceptor
p2278
aVscreen
p2279
aVprotein
p2280
aVencod
p2281
aVidentifi
p2282
aVfusion
p2283
aVligand
p2284
asI5969108
(lp2285
Vsbp
p2286
aVcapsid
p2287
aVdna
p2288
aVmember
p2289
aVrgdp
p2290
aVexpress
p2291
aVphagemid
p2292
aVfusion
p2293
aVgenet
p2294
aVpolypeptid
p2295
asI6156501
(lp2296
Voligonucleotid
p2297
aVanalogu
p2298
aVnucleic
p2299
aVarray
p2300
aVacid
p2301
aVunmodifi
p2302
aVnucleotid
p2303
aVbound
p2304
aVhybrid
p2305
aVprobe
p2306
asI6329209
(lp2307
Vprotein
p2308
aVarray
p2309
aVcaptur
p2310
aVagent
p2311
aVproteom
p2312
aVcell
p2313
aVexpress
p2314
aVpopul
p2315
aVassess
p2316
aVparticular
p2317
asI6629081
(lp2318
Vsettl
p2319
aVloan
p2320
aVaccount
p2321
aVoption
p2322
aVbalanc
p2323
aVfinanc
p2324
aVimport
p2325
aVsettlement
p2326
aVbuyer
p2327
aVbook
p2328
asI4889818
(lp2329
Venzym
p2330
aVthermost
p2331
aVaquaticus
p2332
aV000
p2333
aVthermus
p2334
aVpurifi
p2335
aVtriphosph
p2336
aVdalton
p2337
aVlend
p2338
aVsequenc
p2339
asI5185243
(lp2340
Vsequenc
p2341
aVnucleotid
p2342
aVtarget
p2343
aVcoval
p2344
aVpresenc
p2345
aVviroid
p2346
aVgenet
p2347
aVhybrid
p2348
aVattach
p2349
aVcharacterist
p2350
asI6953693
(lp2351
Vmeter
p2352
aVsampl
p2353
aVstrip
p2354
aVglucos
p2355
aVelectrod
p2356
aVblood
p2357
aVtest
p2358
aVcounter
p2359
aVauto
p2360
aVwork
p2361
asI6738654
(lp2362
Vanalyt
p2363
aVconcentr
p2364
aVmeasur
p2365
aVmonitor
p2366
aVsingl
p2367
aVtime
p2368
aVhost
p2369
aVmake
p2370
aVgiven
p2371
aVuse
p2372
asI6471903
(lp2373
Vmicroneedl
p2374
aVmold
p2375
aVplastic
p2376
aVarray
p2377
aVmicroinject
p2378
aVmicropillar
p2379
aVintracutan
p2380
aVmicrohol
p2381
aVmicroform
p2382
aVmicro
p2383
asI5502177
(lp2384
Vpartner
p2385
aVpyrimidin
p2386
aVoligonucleotid
p2387
aVlabel
p2388
aVbind
p2389
aVsup
p2390
aVstr1
p2391
aVderiv
p2392
aVcompound
p2393
aVstructur
p2394
asI5755942
(lp2395
Varray
p2396
aVsampl
p2397
aVmicrolaboratori
p2398
aVtest
p2399
aVmicroelectron
p2400
aVchannel
p2401
aVlight
p2402
aVsynthes
p2403
aVsynthesi
p2404
aVpartit
p2405
asI5972710
(lp2406
Vlaminar
p2407
aVstream
p2408
aVanalyt
p2409
aVchannel
p2410
aVparticl
p2411
aVflow
p2412
aVindic
p2413
aVsampl
p2414
aVpresenc
p2415
aVdiffus
p2416
asI5922537
(lp2417
Vparticl
p2418
aVphage
p2419
aVentiti
p2420
aVassay
p2421
aVlabel
p2422
aVbiosensor
p2423
aVcompetit
p2424
aVreport
p2425
aVvarieti
p2426
aVparamagnet
p2427
asI6132970
(lp2428
Vpolynucleotid
p2429
aVshuffl
p2430
aVstrand
p2431
aVanneal
p2432
aVvariant
p2433
aVpartial
p2434
aVregion
p2435
aVextens
p2436
aVsimilar
p2437
aVentail
p2438
asI6660843
(lp2439
Vpeptid
p2440
aVbiolog
p2441
aVactiv
p2442
aVagent
p2443
aVpharmacolog
p2444
aVprepar
p2445
aVfusion
p2446
aVdomain
p2447
aVconcern
p2448
aVtherapeut
p2449
asI5451500
(lp2450
Vnucleic
p2451
aVanalysi
p2452
aVdimension
p2453
aVamplif
p2454
aVsampl
p2455
aVbiolog
p2456
aVcarrier
p2457
aVmatric
p2458
aVacid
p2459
aVspecimen
p2460
asI6645202
(lp2461
Vablat
p2462
aVtissu
p2463
aVfocus
p2464
aVaspect
p2465
aVdeliv
p2466
aVnearer
p2467
aVelement
p2468
aVcharacterist
p2469
aVultrasound
p2470
aVfocal
p2471
asI5593838
(lp2472
Varray
p2473
aVsampl
p2474
aVmicrolaboratori
p2475
aVsynthes
p2476
aVmani
p2477
aVchannel
p2478
aVtest
p2479
aVprocess
p2480
aVmicroelectron
p2481
aVwell
p2482
asI5800690
(lp2483
Vmicrofluid
p2484
aVmultiplex
p2485
aVelectroosmot
p2486
aVelectrod
p2487
aVvoltag
p2488
aVelectrokinet
p2489
aVfluid
p2490
aVvari
p2491
aVelectrophoret
p2492
aVforc
p2493
asI6174675
(lp2494
Vport
p2495
aVchannel
p2496
aVfluid
p2497
aVmonitor
p2498
aVlcr
p2499
aV421
p2500
aV413
p2501
aV407
p2502
aVtherebetween
p2503
aVsubstrat
p2504
asI5436149
(lp2505
Vpolymeras
p2506
aVdna
p2507
aVthermus
p2508
aVthermost
p2509
aVaquaticus
p2510
aVflavus
p2511
aVexonucleas
p2512
aVsequenc
p2513
aVamino
p2514
aVacid
p2515
asI5674742
(lp2516
sI5674743
(lp2517
sI6444461
(lp2518
Vmicrofluid
p2519
aVfluid
p2520
aVmicroscal
p2521
aVscreen
p2522
aVperform
p2523
aVbiochem
p2524
aVgenom
p2525
aViter
p2526
aVdevic
p2527
aVsystem
p2528
asI6251343
(lp2529
Vmicrofluid
p2530
aVcover
p2531
aVport
p2532
aVbodi
p2533
aVlayer
p2534
aVstructur
p2535
aVchannel
p2536
aVmicroscal
p2537
aVapertur
p2538
aVdispos
p2539
asI6117630
(lp2540
sI5639423
(lp2541
Vinstrument
p2542
aVmicrofabr
p2543
aVreaction
p2544
aVagit
p2545
aVpicolit
p2546
aVlamb
p2547
aVmicrolit
p2548
aVcycl
p2549
aVpump
p2550
aVbiochem
p2551
asI6416642
(lp2552
Vwick
p2553
aVflow
p2554
aVrate
p2555
aVchannel
p2556
aVelectrokinet
p2557
aVmicroscal
p2558
aVmicrofluid
p2559
aVprefabr
p2560
aVincub
p2561
aVmateri
p2562
asI5880071
(lp2563
Vmicrofluid
p2564
aVelectropipettor
p2565
aVmateri
p2566
aVtransport
p2567
aVionic
p2568
aVelectrophoret
p2569
aVchannel
p2570
aVconcentr
p2571
aVelectrophores
p2572
aVspacer
p2573
asI7041068
(lp2574
Vsampl
p2575
aVmodul
p2576
aVlancet
p2577
aVmay
p2578
aVcartridg
p2579
aVpenetr
p2580
aVtissu
p2581
aVanalyz
p2582
aVoption
p2583
aVdevic
p2584
asI7651596
(lp2585
Vcellulos
p2586
aVanalyt
p2587
aVdomain
p2588
aVinterfer
p2589
aVhost
p2590
aVglucos
p2591
aVmeasur
p2592
aVpresent
p2593
aVbase
p2594
aVincorpor
p2595
asI6274320
(lp2596
Vnucleic
p2597
aVacid
p2598
aVsequenc
p2599
aVmolecul
p2600
aVpopul
p2601
aVanneal
p2602
aVcircular
p2603
aVamplifi
p2604
aVbyproduct
p2605
aVprimer
p2606
asI6656159
(lp2607
Vreservoir
p2608
aVscrew
p2609
aVplunger
p2610
aVlead
p2611
aVlength
p2612
aVelement
p2613
aVexit
p2614
aVuncharg
p2615
aVwall
p2616
aVperipheri
p2617
asI5434131
(lp2618
Vctla4
p2619
aVfusion
p2620
aVreceptor
p2621
aVprotein
p2622
aVinteract
p2623
aVimmunoglobulin
p2624
aVchimer
p2625
aVmonoclon
p2626
aVmediat
p2627
aVantigen
p2628
asI6440725
(lp2629
Velut
p2630
aVsampl
p2631
aVcartridg
p2632
aV122
p2633
aVanalyt
p2634
aVflow
p2635
aVfluid
p2636
aVpath
p2637
aVcompon
p2638
aVthrough
p2639
asI5475610
(lp2640
sI5863708
(lp2641
Vchannel
p2642
aVpassag
p2643
aVfirst
p2644
aVsurfac
p2645
aVsecond
p2646
aVfourth
p2647
aVintersect
p2648
aVsubstrat
p2649
aVwherein
p2650
aVcapillari
p2651
asI5605662
(lp2652
Vreaction
p2653
aVanalyt
p2654
aVspecif
p2655
aVbiolog
p2656
aVmolecular
p2657
aVreactant
p2658
aVmicroloc
p2659
aVentiti
p2660
aVstringenc
p2661
aVdevic
p2662
asI5922591
(lp2663
Vsampl
p2664
aVnucleic
p2665
aVdiagnost
p2666
aVintegr
p2667
aVacquisit
p2668
aVnovo
p2669
aVacid
p2670
aVapplic
p2671
aVanalysi
p2672
aVdevic
p2673
asI5972187
(lp2674
Vmicrofluid
p2675
aVelectropipettor
p2676
aVtransport
p2677
aVmateri
p2678
aVionic
p2679
aVelectrophoret
p2680
aVchannel
p2681
aVconcentr
p2682
aVelectrophores
p2683
aVspacer
p2684
asI7074307
(lp2685
Vanalyt
p2686
aVelectrochem
p2687
aVelectrod
p2688
aVauxiliari
p2689
aVinterfer
p2690
aVoxygen
p2691
aVmeasur
p2692
aVenzym
p2693
aVadvantag
p2694
aVinaccuraci
p2695
asI6749587
(lp2696
Vassembl
p2697
aVreusabl
p2698
aVdispens
p2699
aVexit
p2700
aVlocal
p2701
aVport
p2702
aVflow
p2703
aVdispos
p2704
aVmeter
p2705
aVfluid
p2706
asI6768425
(lp2707
Vremot
p2708
aVprocessor
p2709
aVmedic
p2710
aVlocal
p2711
aVtreatment
p2712
aVcommunic
p2713
aVconnect
p2714
aVelement
p2715
aVcontrol
p2716
aVapparatus
p2717
asI6045996
(lp2718
sI7069234
(lp2719
Vbuyer
p2720
aVseller
p2721
aVagreement
p2722
aVnetwork
p2723
aVutil
p2724
aVcredit
p2725
aVsign
p2726
aVsent
p2727
aVtrade
p2728
aVassess
p2729
asI5445934
(lp2730
Vphotoremov
p2731
aVsubstrat
p2732
aVmonom
p2733
aVsequenc
p2734
aVselect
p2735
aVoligonucleotid
p2736
aVgroup
p2737
aVarea
p2738
aVamino
p2739
aVbind
p2740
asI6117679
(lp2741
sI7025774
(lp2742
Vlancet
p2743
aVtissu
p2744
aVpenetr
p2745
aVpatenc
p2746
aVmay
p2747
aVembodi
p2748
aVsampl
p2749
aVlanc
p2750
aVtract
p2751
aVsolenoid
p2752
asI6329139
(lp2753
Vautom
p2754
aVmemori
p2755
aVmicrovessel
p2756
aVmatric
p2757
aVencodabi
p2758
aVprotocol
p2759
aVmanual
p2760
aVdiscoveri
p2761
aVsort
p2762
aVcleaver
p2763
asI6960437
(lp2764
Vmicrofluid
p2765
aVreaction
p2766
aVtemperatur
p2767
aVcertaom
p2768
aVamplif
p2769
aVnucleic
p2770
aVchannel
p2771
aVrotari
p2772
aVregul
p2773
aVdiffer
p2774
asI5202231
(lp2775
Vsubclon
p2776
aVkbp
p2777
aVgenom
p2778
aVdna
p2779
aVhybrid
p2780
aVsequenc
p2781
aVphage
p2782
aV000
p2783
aVmillion
p2784
aVclone
p2785
asI5079352
(lp2786
Vthermost
p2787
aVpolymeras
p2788
aVdna
p2789
aVrecombin
p2790
aVaquaticus
p2791
aVthermus
p2792
aVvector
p2793
aVencod
p2794
aVdalton
p2795
aVproduct
p2796
asI5922617
(lp2797
Vheader
p2798
aVpreprepar
p2799
aVtrack
p2800
aVassay
p2801
aVrapid
p2802
aVsite
p2803
aVinteract
p2804
aVdisk
p2805
aVemit
p2806
aVinterpret
p2807
asI5660988
(lp2808
Vand
p2809
aVoncogen
p2810
aVmutant
p2811
aVprobe
p2812
aVthus
p2813
aVone
p2814
aVnucleic
p2815
aVsuch
p2816
aVregul
p2817
aVacid
p2818
asI6007690
(lp2819
Velectrophoret
p2820
aVflowpath
p2821
aVmicrofluid
p2822
aVbioresearch
p2823
aVenrich
p2824
aVmain
p2825
aVdiagnost
p2826
aVintegr
p2827
aVsubject
p2828
aVgenom
p2829
asI5455166
(lp2830
Vstrand
p2831
aVpolymeras
p2832
aVamplif
p2833
aVnick
p2834
aVendonucleas
p2835
aVpolymer
p2836
aVdisplac
p2837
aVwill
p2838
aVdigest
p2839
aVnewli
p2840
asI5547839
(lp2841
Vpolym
p2842
aVmicroflouresc
p2843
aVimmobil
p2844
aVlabel
p2845
aVmonom
p2846
aVmacromolecul
p2847
aVsequenc
p2848
aVsolid
p2849
aVchemistri
p2850
aVtermin
p2851
asI7494465
(lp2852
Vtranscutan
p2853
aVanalyt
p2854
aVhost
p2855
aVglucos
p2856
aVmeasur
p2857
aVpresent
p2858
aVrelat
p2859
aVinvent
p2860
aVsensor
p2861
aVgeneral
p2862
asI5948227
(lp2863
Velectrophoret
p2864
aVcapillari
p2865
aVcharg
p2866
aVmacromolecular
p2867
aVsurfac
p2868
aVchannel
p2869
aVadsorb
p2870
aVnet
p2871
aVspeci
p2872
aVsepar
p2873
asI4965188
(lp2874
Vnucleic
p2875
aVprimer
p2876
aVacid
p2877
aVsequenc
p2878
aVamplifi
p2879
aVenzym
p2880
aVcomplementari
p2881
aVhybrid
p2882
aVthermost
p2883
aVdenatur
p2884
asI6692457
(lp2885
Vdiaphragm
p2886
aVflow
p2887
aVsensor
p2888
aVpatient
p2889
aVassembl
p2890
aVpath
p2891
aVchamber
p2892
aVexit
p2893
aVsurfac
p2894
aVcondit
p2895
asI5726026
(lp2896
Vmesoscal
p2897
aVsampl
p2898
aVmicrovolum
p2899
aVfraction
p2900
aVanalys
p2901
aVenrich
p2902
aVcell
p2903
aVprepar
p2904
aVpolynucleotid
p2905
aVamplif
p2906
asI6210891
(lp2907
Vpyrophosph
p2908
aVdideoxynucleotid
p2909
aVdna
p2910
aVdeoxynucleotid
p2911
aVprimer
p2912
aVtarget
p2913
aVsampl
p2914
aVextens
p2915
aVpolymer
p2916
aVsequenc
p2917
asI5681484
(lp2918
Varray
p2919
aVsampl
p2920
aVchannel
p2921
aVmicrolaboratori
p2922
aVsynthes
p2923
aVmani
p2924
aVintersect
p2925
aVetch
p2926
aVtest
p2927
aVprocess
p2928
asI5989402
(lp2929
Vmicrofluid
p2930
aVmonitor
p2931
aVcontrol
p2932
aVancillari
p2933
aVsystem
p2934
aVinterfac
p2935
aVenvironment
p2936
aVperform
p2937
aVconjunct
p2938
aVtypic
p2939
asI6235471
(lp2940
Vbiochem
p2941
aVfluid
p2942
aVmicroscal
p2943
aVscreen
p2944
aVperform
p2945
aVmicrofluid
p2946
aVgenom
p2947
aViter
p2948
aVsystem
p2949
aVpurif
p2950
asI6210896
(lp2951
Vmolecular
p2952
aVpolym
p2953
aVmotor
p2954
aVstation
p2955
aVaris
p2956
aVanalysi
p2957
aVinteract
p2958
aVlinear
p2959
aVagent
p2960
aVspecif
p2961
asI5118801
(lp2962
Vprobe
p2963
aVnucleotid
p2964
aVswitch
p2965
aVsequenc
p2966
aVnucleic
p2967
aVmolecular
p2968
aVtarget
p2969
aVacid
p2970
aVassay
p2971
aVkit
p2972
asI7080786
(lp2973
Vbar
p2974
aVcode
p2975
aVread
p2976
aVsymbol
p2977
aVreprogram
p2978
aVdevic
p2979
aVembodi
p2980
aVway
p2981
aVprogram
p2982
aVdisplay
p2983
asI5554516
(lp2984
Vsequenc
p2985
aVnucleic
p2986
aVprimer
p2987
aVamplif
p2988
aVtarget
p2989
aVpromot
p2990
aVacid
p2991
aVkit
p2992
aVforens
p2993
aVtranscriptas
p2994
asI7198606
(lp2995
Vpenetr
p2996
aVcartridg
p2997
aVtissu
p2998
aVmember
p2999
aVanalyt
p3000
aVdriver
p3001
aVcouplabl
p3002
aVsingl
p3003
aVfluid
p3004
aVbodi
p3005
asI6221654
(lp3006
Vpolynucleotid
p3007
aVsort
p3008
aVmolecul
p3009
aVmicrofabr
p3010
aVsize
p3011
aVoptic
p3012
aVdevic
p3013
aVfluoresc
p3014
aVreport
p3015
aVbranch
p3016
asI5661016
(lp3017
Vimmunoglobulin
p3018
aVtransgen
p3019
aVheterolog
p3020
aVhuman
p3021
aVanim
p3022
aVendogen
p3023
aVantibodi
p3024
aVgene
p3025
aVimmort
p3026
aVnon
p3027
asI5716825
(lp3028
Vmaldi
p3029
aVtof
p3030
aVionize
p3031
aVanalysi
p3032
aVsampl
p3033
aVminiatur
p3034
aVintegr
p3035
aVanalyt
p3036
aVnucleic
p3037
aVmass
p3038
asI5720923
(lp3039
Vcapillari
p3040
aVreaction
p3041
aVsampl
p3042
aVtube
p3043
aVamplif
p3044
aVembodi
p3045
aVexchang
p3046
aVnucleic
p3047
aVtranslat
p3048
aVstationari
p3049
asI6074827
(lp3050
Velectrophoret
p3051
aVflowpath
p3052
aVmicrofluid
p3053
aVbioresearch
p3054
aVenrich
p3055
aVmain
p3056
aVnucleic
p3057
aVdiagnost
p3058
aVsubject
p3059
aVgenom
p3060
asI6578015
(lp3061
Vbill
p3062
aVformat
p3063
aVdata
p3064
aVpayment
p3065
aVcustom
p3066
aVvalid
p3067
aVbiller
p3068
aVdatabas
p3069
aVtemplat
p3070
aVpresent
p3071
asI5866336
(lp3072
Vamplif
p3073
aVoligonucleotid
p3074
aVacceptor
p3075
aVmoieti
p3076
aVprimer
p3077
aVdonor
p3078
aVfluorophor
p3079
aVlabel
p3080
aVnucleic
p3081
aVunincorpor
p3082
asI5885793
(lp3083
Vrgdp
p3084
aVantibodi
p3085
aVfragment
p3086
aVmammal
p3087
aVspeci
p3088
aVself
p3089
aVbind
p3090
aVlibrari
p3091
aVantigen
p3092
aVnucleic
p3093
asI5900130
(lp3094
Vmicrochannel
p3095
aVintersect
p3096
aVthird
p3097
aVfourth
p3098
aVliquid
p3099
aVmove
p3100
aVstage
p3101
aVsampl
p3102
aVcarrier
p3103
aVconcurr
p3104
asI5188963
(lp3105
Vmatrix
p3106
aVspecimen
p3107
aVanalysi
p3108
aVcarrier
p3109
aVelectrophoresi
p3110
aVtreat
p3111
aVsurveil
p3112
aVrna
p3113
aVgenet
p3114
aVamplif
p3115
asI6132580
(lp3116
Vminiatur
p3117
aVreaction
p3118
aVnucleic
p3119
aVchemic
p3120
aVpcr
p3121
aVanalys
p3122
aVchamber
p3123
aVacid
p3124
aVcarri
p3125
aVout
p3126
asI6669669
(lp3127
Vexit
p3128
aVlamin
p3129
aVpatient
p3130
aVport
p3131
aVpassageway
p3132
aVfluid
p3133
aVtranscutan
p3134
aVlend
p3135
aVassembl
p3136
aVdevic
p3137
asI7160678
(lp3138
Vmonolay
p3139
aVanalyt
p3140
aVoligom
p3141
aVdetect
p3142
aVself
p3143
aVtarget
p3144
aVmixtur
p3145
aVinsul
p3146
aVelectron
p3147
aVutil
p3148
asI6046056
(lp3149
Vscreen
p3150
aVthroughput
p3151
aVassay
p3152
aVmicroscal
p3153
aVbiochem
p3154
aVmicrofluid
p3155
aVfluidic
p3156
aVhigh
p3157
aVvarieti
p3158
aVdevic
p3159
asI6379324
(lp3160
Vmicroneedl
p3161
aVdrug
p3162
aVarray
p3163
aVskin
p3164
aVelectrod
p3165
aVhollow
p3166
aVbioelectrochem
p3167
aVelectr
p3168
aVfluid
p3169
aVintracutan
p3170
asI6355431
(lp3171
Vamplif
p3172
aVnucleic
p3173
aVtarget
p3174
aVquantifi
p3175
aVacid
p3176
aVbead
p3177
aVdetect
p3178
aVvarieti
p3179
aVtechniqu
p3180
aVreaction
p3181
asI7637868
(lp3182
Vimplant
p3183
aVbead
p3184
aVbeliev
p3185
aVcomposit
p3186
aVmateri
p3187
aVdevic
p3188
aVmatrix
p3189
aVhollow
p3190
aVmix
p3191
aVincorpor
p3192
asI5976336
(lp3193
Vmicrofluid
p3194
aVgeometri
p3195
aVincorpor
p3196
aVborn
p3197
aVmateri
p3198
aVchannel
p3199
aVthese
p3200
aVthroughput
p3201
aVdevic
p3202
aVimprov
p3203
asI5733743
(lp3204
Vsbp
p3205
aVrecombin
p3206
aVrgdps
p3207
aVmember
p3208
aVbind
p3209
aVloxp
p3210
aVpolypeptid
p3211
aVspecif
p3212
aVvector
p3213
aVdisplay
p3214
asI5346672
(lp3215
Vspecimen
p3216
aVreagent
p3217
aVvapor
p3218
aVchamber
p3219
aVcover
p3220
aVslide
p3221
aVevapor
p3222
aVloss
p3223
aVpipett
p3224
aVseal
p3225
asI7344499
(lp3226
Vmicroneedl
p3227
aVbiolog
p3228
aVfluid
p3229
aVcollect
p3230
aVantigen
p3231
aVprefer
p3232
aVwithdraw
p3233
aVsens
p3234
aVcarcinoembryon
p3235
aVpainless
p3236
asI6168948
(lp3237
Vnucleic
p3238
aVminiatur
p3239
aVacid
p3240
aVgenet
p3241
aVdiagnost
p3242
aVbind
p3243
aVsite
p3244
aVanalysi
p3245
aVzone
p3246
aVextract
p3247
asI7424318
(lp3248
Vanalyt
p3249
aVsensor
p3250
aVcontinu
p3251
aVmeasur
p3252
aVdata
p3253
aVsuch
p3254
aVglucos
p3255
aVelectrod
p3256
aVbackground
p3257
aVsuspend
p3258
asI7018360
(lp3259
Vflow
p3260
aVexit
p3261
aVpath
p3262
aVrestrict
p3263
aVpatient
p3264
aVair
p3265
aVfluid
p3266
aVport
p3267
aVdevic
p3268
aVtranscutan
p3269
asI5863801
(lp3270
Vnucleic
p3271
aVprepar
p3272
aVacid
p3273
aVcassett
p3274
aVbiolog
p3275
aVautom
p3276
aVstrip
p3277
aVsampl
p3278
aVtransfer
p3279
aVstorag
p3280
asI5698426
(lp3281
Vand
p3282
aVexhibit
p3283
aVcomposit
p3284
aVprocaryot
p3285
aVencod
p3286
aVpolypeptid
p3287
aVsecond
p3288
aVreceptor
p3289
aVlibrari
p3290
aVsurfac
p3291
asI5846396
(lp3292
Vfeeder
p3293
aVreservoir
p3294
aVchannel
p3295
aVdistribut
p3296
aVbeta
p3297
aValpha
p3298
aVfourth
p3299
aVthird
p3300
aVsecond
p3301
aVsituat
p3302
asI6054270
(lp3303
sI6256533
(lp3304
Vmicroneedl
p3305
aVdrug
p3306
aVfluid
p3307
aVsampl
p3308
aVbodi
p3309
aViontophoret
p3310
aVarray
p3311
aVdispens
p3312
aVelectrod
p3313
aVbioelectrochem
p3314
asI6530944
(lp3315
Vnanoparticl
p3316
aVlocal
p3317
aVtissu
p3318
aVoverprolifer
p3319
aVdiagnost
p3320
aVhyperthermia
p3321
aVdeliveri
p3322
aVinvolv
p3323
aVinflamm
p3324
aVvitro
p3325
asI5795714
(lp3326
Vprobe
p3327
aVreplic
p3328
aVarray
p3329
aVpcr
p3330
aVoverhang
p3331
aVtechnolog
p3332
aVnucleic
p3333
aVdiagnost
p3334
aVbiolog
p3335
aVaid
p3336
asI6540675
(lp3337
Vanalysi
p3338
aVneedl
p3339
aVsite
p3340
aVadapt
p3341
aVanalyt
p3342
aVlight
p3343
aVretract
p3344
aVhous
p3345
aVtip
p3346
aVposit
p3347
asI5770369
(lp3348
Vnucleic
p3349
aVcomplex
p3350
aVcoval
p3351
aVelectron
p3352
aVbioconductor
p3353
aVmoieti
p3354
aVbimolecular
p3355
aVacid
p3356
aVribos
p3357
aVphotoact
p3358
asI5580717
(lp3359
Vprotein
p3360
aVencod
p3361
aVsequenc
p3362
aVlibrari
p3363
aVbacteriophag
p3364
aVphage
p3365
aVnucleotid
p3366
aVdna
p3367
aVinterest
p3368
aVhybridoma
p3369
asI5872010
(lp3370
Vfluid
p3371
aVmicroscal
p3372
aVchip
p3373
aVmicrochip
p3374
aVsampl
p3375
aVhandl
p3376
aVport
p3377
aVpicolit
p3378
aVnanolit
p3379
aVoff
p3380
asI5849486
(lp3381
Vdna
p3382
aVfluidic
p3383
aVbiochip
p3384
aVfluoresc
p3385
aVdiagnost
p3386
aVhybrid
p3387
aVperturb
p3388
aVaflow
p3389
aVselfaddress
p3390
aVanalysi
p3391
asI5219727
(lp3392
Vsegment
p3393
aVnucleic
p3394
aVacid
p3395
aVmrna
p3396
aVpolymeras
p3397
aVstandard
p3398
aVquantit
p3399
aVamplif
p3400
aVtarget
p3401
aVsampl
p3402
asI5858195
(lp3403
Vmicrochip
p3404
aVanalyt
p3405
aVelectrochromatographi
p3406
aVintersect
p3407
aVmanipul
p3408
aVchannel
p3409
aVelectrokinet
p3410
aVchemic
p3411
aVmicrofluid
p3412
aVphotolithograph
p3413
asI6571651
(lp3414
Vwick
p3415
aVcapillari
p3416
aVfill
p3417
aVinterstiti
p3418
aVdevic
p3419
aVelectrochem
p3420
aVfulli
p3421
aVblood
p3422
aVensur
p3423
aVanalyz
p3424
asI6287765
(lp3425
Vmultimolecular
p3426
aVheteropolymer
p3427
aVnucleotid
p3428
aVmultival
p3429
aVnonoligonucleotid
p3430
aVnonaptamer
p3431
aVnonnucleotid
p3432
aVspecif
p3433
aVaptamer
p3434
aVpopul
p3435
asI6645142
(lp3436
Vinstrument
p3437
aVglucos
p3438
aVpractition
p3439
aVcomplianc
p3440
aVguidanc
p3441
aVmonitor
p3442
aVcalibr
p3443
aVnetwork
p3444
aVpatient
p3445
aVsupervisori
p3446
asI6043031
(lp3447
sI6139800
(lp3448
Vreceptor
p3449
aVlight
p3450
aVsampl
p3451
aVbiolog
p3452
aVwavelength
p3453
aVview
p3454
aVemit
p3455
aVfluoresc
p3456
aVfilter
p3457
aVchamber
p3458
asI6379929
(lp3459
Visotherm
p3460
aVmicrofabr
p3461
aVamplif
p3462
aVnucleic
p3463
aVgene
p3464
aVenvis
p3465
aVsubstrat
p3466
aVacid
p3467
aVcomposit
p3468
aVdiagnost
p3469
asI6946299
(lp3470
Vmeter
p3471
aVsampl
p3472
aVstrip
p3473
aVglucos
p3474
aVelectrod
p3475
aVblood
p3476
aVtest
p3477
aVcounter
p3478
aVauto
p3479
aVwork
p3480
asI5779868
(lp3481
Vmicrofluid
p3482
aVelectropipettor
p3483
aVtransport
p3484
aVmateri
p3485
aVionic
p3486
aVelectrophoret
p3487
aVchannel
p3488
aVconcentr
p3489
aVelectrophores
p3490
aVelectrokinet
p3491
asI7247155
(lp3492
Vtissu
p3493
aVablat
p3494
aVvirtual
p3495
aVfluid
p3496
aVsurfici
p3497
aVelectrod
p3498
aVcurrent
p3499
aVneoplasm
p3500
aVradio
p3501
aVdeliveri
p3502
asI5210015
(lp3503
Voligonucleotid
p3504
aVnucleas
p3505
aVlabel
p3506
aVnucleic
p3507
aVassay
p3508
aVacid
p3509
aVpcr
p3510
aVpolymeras
p3511
aVcleav
p3512
aVduplex
p3513
asI6214560
(lp3514
Vanalyt
p3515
aVscatter
p3516
aVparticl
p3517
aVlight
p3518
aVdetect
p3519
aVani
p3520
aVsampl
p3521
aVmore
p3522
aVspecif
p3523
aVmagnif
p3524
asI5605793
(lp3525
Vvitro
p3526
aVmutagenesi
p3527
aVfragment
p3528
aVrecombin
p3529
aVnucleic
p3530
aVprotein
p3531
aVshuffl
p3532
aVreassembl
p3533
aVevolut
p3534
aVmutant
p3535
asI5807522
(lp3536
Vmicroarray
p3537
aVbiolog
p3538
aVdispens
p3539
aVvolum
p3540
aVsampl
p3541
aVsupport
p3542
aVcapillari
p3543
aVtap
p3544
aVreagent
p3545
aVfashion
p3546
asI5679524
(lp3547
sI6377894
(lp3548
Vinstrument
p3549
aVstrip
p3550
aVtest
p3551
aVcalibr
p3552
aVinvalid
p3553
aVstorag
p3554
aVdate
p3555
aVparamet
p3556
aVanalyt
p3557
aVdata
p3558
asI6773671
(lp3559
Vmultichemistri
p3560
aVtest
p3561
aVstrip
p3562
aVmeasur
p3563
aVfunction
p3564
aVtype
p3565
aVmultipl
p3566
aVcombin
p3567
aVport
p3568
aVindic
p3569
asI6664104
(lp3570
Vmicrofluid
p3571
aVanalyt
p3572
aVlyse
p3573
aVchip
p3574
aVcartridg
p3575
aVelut
p3576
aVmicrostructur
p3577
aVfluid
p3578
aVsampl
p3579
aVwast
p3580
asI7366556
(lp3581
Vanalyt
p3582
aVsensor
p3583
aVcontinu
p3584
aVmeasur
p3585
aVdata
p3586
aVsuch
p3587
aVglucos
p3588
aVelectrod
p3589
aVbackground
p3590
aVsuspend
p3591
asI5656493
(lp3592
Vthermost
p3593
aVreaction
p3594
aVcool
p3595
aVamplif
p3596
aVheat
p3597
aVenzym
p3598
aVnucleic
p3599
aVmachin
p3600
aVchain
p3601
aVtriphosph
p3602
asI5856174
(lp3603
Vsampl
p3604
aVnucleic
p3605
aVdiagnost
p3606
aVintegr
p3607
aVacquisit
p3608
aVnovo
p3609
aVacid
p3610
aVapplic
p3611
aVanalysi
p3612
aVdevic
p3613
asI5928880
(lp3614
Vmesoscal
p3615
aVsampl
p3616
aVmicrovolum
p3617
aVfraction
p3618
aVanalys
p3619
aVenrich
p3620
aVcell
p3621
aVprepar
p3622
aVpolynucleotid
p3623
aVamplif
p3624
asI5043272
(lp3625
Vnucleic
p3626
aVtemplat
p3627
aVoligonucleotid
p3628
aVacid
p3629
aVprimer
p3630
aVamplif
p3631
aVsaid
p3632
aVrandom
p3633
aVapposit
p3634
aVsequenc
p3635
asI6130098
(lp3636
Vmicrodroplet
p3637
aVmicroscal
p3638
aVmicrochannel
p3639
aVelectrophoresi
p3640
aVchannel
p3641
aVdroplet
p3642
aVpropel
p3643
aVdiscret
p3644
aVsame
p3645
aVetch
p3646
asI5639603
(lp3647
Vsynthes
p3648
aVcompound
p3649
aVstochast
p3650
aVscreen
p3651
aVdivers
p3652
aVtag
p3653
aVmolecular
p3654
aVisol
p3655
aVcollect
p3656
aVlarg
p3657
asI5599668
(lp3658
Vscatter
p3659
aVwaveguid
p3660
aVbind
p3661
aVlight
p3662
aVlabel
p3663
aVhybrid
p3664
aVreal
p3665
aVgrabber
p3666
aVevanesc
p3667
aVselenium
p3668
asI6656158
(lp3669
Vreservoir
p3670
aVscrew
p3671
aVplunger
p3672
aVlead
p3673
aVlength
p3674
aVelement
p3675
aVexit
p3676
aVuncharg
p3677
aVwall
p3678
aVperipheri
p3679
asI6103479
(lp3680
sI6923764
(lp3681
Vanalysi
p3682
aVneedl
p3683
aVsite
p3684
aVadapt
p3685
aVanalyt
p3686
aVlight
p3687
aVretract
p3688
aVhous
p3689
aVtip
p3690
aVposit
p3691
asI6103199
(lp3692
Vmicrofluid
p3693
aVsampl
p3694
aVarray
p3695
aVelectroflow
p3696
aVplanar
p3697
aVprocess
p3698
aVnetwork
p3699
aVconduct
p3700
aVcaviti
p3701
aVchannel
p3702
asI7041468
(lp3703
Vglucos
p3704
aVtest
p3705
aVstrip
p3706
aVhous
p3707
aVreceptacl
p3708
aVhand
p3709
aVheld
p3710
aVconnector
p3711
aVmodul
p3712
aVamount
p3713
asI5632957
(lp3714
Vmicroloc
p3715
aVdna
p3716
aVreaction
p3717
aVdiagnost
p3718
aVbiolog
p3719
aVinterfac
p3720
aVcleav
p3721
aVmolecular
p3722
aVprefer
p3723
aVhybrid
p3724
asI7144384
(lp3725
Vscrew
p3726
aVlead
p3727
aVreservoir
p3728
aVtube
p3729
aVexit
p3730
aVpatient
p3731
aVoutlet
p3732
aVport
p3733
aVslot
p3734
aVlongitudin
p3735
asI4683202
(lp3736
Vnucleic
p3737
aVprimer
p3738
aVacid
p3739
aVsequenc
p3740
aVcomplementari
p3741
aVdesir
p3742
aVamplifi
p3743
aVstepwis
p3744
aVoligonucleotid
p3745
aVoften
p3746
asI5399491
(lp3747
Vnucleic
p3748
aVautocatalyt
p3749
aVcopi
p3750
aVsequenc
p3751
aVacid
p3752
aVtarget
p3753
aVforens
p3754
aVgenerat
p3755
aVclone
p3756
aVrna
p3757
asI5695940
(lp3758
Vhybrid
p3759
aVnucleic
p3760
aVoligonucleotid
p3761
aVacid
p3762
aVtarget
p3763
aVsequenc
p3764
aVprobe
p3765
aVgenom
p3766
aVmammalian
p3767
aVcondit
p3768
asI6327410
(lp3769
Vmicrospher
p3770
aVbioactiv
p3771
aVanalyt
p3772
aVarray
p3773
aVinterrogat
p3774
aVsubstrat
p3775
aVdiscret
p3776
aVagent
p3777
aVeither
p3778
aVrandom
p3779
asI5723591
(lp3780
Vmolecul
p3781
aVprobe
p3782
aVquencher
p3783
aVreport
p3784
aVunhybrid
p3785
aVfluoresc
p3786
aVquench
p3787
aVhybrid
p3788
aVoligonucleotid
p3789
aVconform
p3790
asI6043080
(lp3791
sI5928905
(lp3792
Vpolynucleotid
p3793
aVconcatem
p3794
aVnucleic
p3795
aVpcr
p3796
aVpolymeras
p3797
aVacid
p3798
aVamplif
p3799
aVfragment
p3800
aVcomplementari
p3801
aVoverlap
p3802
asI5957579
(lp3803
Vmicrofluid
p3804
aVchannel
p3805
aVvari
p3806
aVdepth
p3807
aVdescrib
p3808
aVprevious
p3809
aVincorpor
p3810
aVunexpect
p3811
aVbenefici
p3812
aVbenefit
p3813
asI5869004
(lp3814
Vmicrofluid
p3815
aVdilut
p3816
aVperfom
p3817
aVconcentr
p3818
aVsitu
p3819
aVgeneral
p3820
aVcontext
p3821
aVsystem
p3822
aVjust
p3823
aVapparatus
p3824
asI6132685
(lp3825
Vmicrofluid
p3826
aVmultiwel
p3827
aVconveyor
p3828
aVplate
p3829
aVstation
p3830
aVtest
p3831
aVsampl
p3832
aVsystem
p3833
aVmicrotit
p3834
aVclamshel
p3835
asI6174670
(lp3836
Vcy5
p3837
aVdna
p3838
aVreanneal
p3839
aVhybrid
p3840
aVfluorescein
p3841
aVpcr
p3842
aVpolymeras
p3843
aVmonitor
p3844
aVquantit
p3845
aVpuriti
p3846
asI6207369
(lp3847
Velectrochemiluminesc
p3848
aVmulti
p3849
aVspecif
p3850
aVecl
p3851
aVtest
p3852
aVarray
p3853
aVanalyt
p3854
aVassay
p3855
aVreagent
p3856
aVmultipli
p3857
asI6150097
(lp3858
Vprobe
p3859
aVfret
p3860
aVconform
p3861
aVassay
p3862
aVfluoresc
p3863
aVlabel
p3864
aVnucleic
p3865
aVinteract
p3866
aVchromophor
p3867
aVtarget
p3868
asI6541266
(lp3869
Vanalyt
p3870
aVtest
p3871
aVcalcul
p3872
aVglucos
p3873
aVascertain
p3874
aVpoint
p3875
aVlevel
p3876
aVmeasur
p3877
aVphotomet
p3878
aVsup
p3879
asI5192659
(lp3880
Vallel
p3881
aVdna
p3882
aVsequenc
p3883
aVintron
p3884
aVamplifi
p3885
aVgenet
p3886
aVdetect
p3887
aVgenom
p3888
aVprimer
p3889
aVnucleotid
p3890
asI5955028
(lp3891
Vanalyt
p3892
aVpreparatori
p3893
aVadapt
p3894
aVattach
p3895
aVsubstrat
p3896
aVunit
p3897
aVanalys
p3898
aVregion
p3899
aVbase
p3900
aVbiolog
p3901
asI6485461
(lp3902
Vinfus
p3903
aVbladder
p3904
aVcannula
p3905
aVdeliveri
p3906
aVliquid
p3907
aVneedl
p3908
aVhous
p3909
aVdeliv
p3910
aVinject
p3911
aVdispos
p3912
asI5525464
(lp3913
Vhybrid
p3914
aVnucleic
p3915
aVoligonucleotid
p3916
aVacid
p3917
aVtarget
p3918
aVsequenc
p3919
aVprobe
p3920
aVgenom
p3921
aVmammalian
p3922
aVcondit
p3923
asI7471972
(lp3924
Velectrod
p3925
aVimplant
p3926
aVcounter
p3927
aVbodi
p3928
aVwork
p3929
aVelectrochem
p3930
aVhead
p3931
aVreactiv
p3932
aVsensor
p3933
aVnonconduct
p3934
asI5852495
(lp3935
Vspeci
p3936
aVelectrophoret
p3937
aVmicrofluid
p3938
aVfourier
p3939
aVphotodetector
p3940
aVbiochemistri
p3941
aVchannel
p3942
aVbiotechnolog
p3943
aVanalysi
p3944
aVband
p3945
asI6355420
(lp3946
Vpolym
p3947
aVanalyz
p3948
aVproduct
p3949
aVmethod
p3950
aVproperti
p3951
aVvarious
p3952
aVstructur
p3953
aVdetermin
p3954
aVother
p3955
aVprovid
p3956
asI6233565
(lp3957
Vtransact
p3958
aVclient
p3959
aVserver
p3960
aVauthent
p3961
aVreceipt
p3962
aVmodul
p3963
aVexecut
p3964
aVinternet
p3965
aVpayment
p3966
aVparti
p3967
asI6830558
(lp3968
Vdiaphragm
p3969
aVsensor
p3970
aVflow
p3971
aVelectrod
p3972
aVassembl
p3973
aVpatient
p3974
aVpath
p3975
aVchamber
p3976
aVexit
p3977
aVcondit
p3978
asI7206768
(lp3979
Vdebt
p3980
aVparticip
p3981
aVaccount
p3982
aVpayabl
p3983
aVowe
p3984
aVoblig
p3985
aVpromissori
p3986
aVmultiparti
p3987
aVpayment
p3988
aVinvoic
p3989
asI6012902
(lp3990
Velectroosmot
p3991
aVmicropump
p3992
aVchannel
p3993
aVpump
p3994
aVflow
p3995
aVapplic
p3996
aVwhere
p3997
aVprohibit
p3998
aVdesir
p3999
aVfluid
p4000
asI5854033
(lp4001
Vamplif
p4002
aVprobe
p4003
aVreplic
p4004
aVsequenc
p4005
aVcircl
p4006
aVligat
p4007
aVdetect
p4008
aVdna
p4009
aVnucleic
p4010
aVcircular
p4011
asI6126899
(lp4012
Vanalyt
p4013
aVsampl
p4014
aVdetect
p4015
aVchamber
p4016
aVinlet
p4017
aVdevic
p4018
aVdead
p4019
aVquantit
p4020
aVreagent
p4021
aVabsenc
p4022
asI5503980
(lp4023
Vnucleic
p4024
aVsequenc
p4025
aVhybrid
p4026
aVacid
p4027
aVsampl
p4028
aVagricultur
p4029
aVnucleotid
p4030
aVcreation
p4031
aVdiagnost
p4032
aVbiolog
p4033
asI6334960
(lp4034
Vpolymeriz
p4035
aVrelief
p4036
aVpolymer
p4037
aVsolidifi
p4038
aVtransfer
p4039
aVfluid
p4040
aVmold
p4041
aVlayer
p4042
aVcomposit
p4043
aVmateri
p4044
asI5223409
(lp4045
Vbind
p4046
aVdomain
p4047
aVprotein
p4048
aVm13
p4049
aVfamili
p4050
aVgenet
p4051
aVphage
p4052
aVpotenti
p4053
aVpackag
p4054
aVmolecul
p4055
asI6096656
(lp4056
Vmicrochannel
p4057
aVoxynitrid
p4058
aVplasma
p4059
aVsilicon
p4060
aVdeposit
p4061
aVsubstrat
p4062
aVelectrokinet
p4063
aVtemperatur
p4064
aVcyclotron
p4065
aVformat
p4066
asI5858804
(lp4067
Vmoieti
p4068
aVbind
p4069
aVsampl
p4070
aVwell
p4071
aVfirst
p4072
aVchannel
p4073
aVprospect
p4074
aVsecond
p4075
aVcrossov
p4076
aVimmunolog
p4077
asI5981176
(lp4078
Vsequenc
p4079
aVprimer
p4080
aVnucleic
p4081
aVpreselect
p4082
aVacid
p4083
aVlabel
p4084
aVextens
p4085
aVtarget
p4086
aVdeoxynucleosid
p4087
aVportion
p4088
asI6264825
(lp4089
Vetm
p4090
aVanalyt
p4091
aVacceler
p4092
aVbind
p4093
aVdetect
p4094
aVtarget
p4095
aVelectron
p4096
aVproceed
p4097
aVindirect
p4098
aVligand
p4099
asI7467003
(lp4100
Vanalyt
p4101
aVsensor
p4102
aVcontinu
p4103
aVmeasur
p4104
aVdata
p4105
aVsuch
p4106
aVglucos
p4107
aVelectrod
p4108
aVbackground
p4109
aVsuspend
p4110
asI5130238
(lp4111
Vprimer
p4112
aVstrand
p4113
aVnucleic
p4114
aVsequenc
p4115
aVtemplat
p4116
aVamplif
p4117
aVdna
p4118
aVspecif
p4119
aVacid
p4120
aVrna
p4121
asI5699157
(lp4122
Vspeci
p4123
aVelectrophoret
p4124
aVmicrofluid
p4125
aVfourier
p4126
aVphotodetector
p4127
aVbiochemistri
p4128
aVchannel
p4129
aVbiotechnolog
p4130
aVanalysi
p4131
aVband
p4132
astp4133
.