((lp0
I4655771
aI4762128
aI4820298
aI4830003
aI4921484
aI4922905
aI4950227
aI4966604
aI4990155
aI4994069
aI4998539
aI5015253
aI5019090
aI5026377
aI5059211
aI5061275
aI5064435
aI5071407
aI5078736
aI5092877
aI5108416
aI5122154
aI5133732
aI5152777
aI5158548
aI5171262
aI5201757
aI5211658
aI5222971
aI5226911
aI5226913
aI5234456
aI5234457
aI5275622
aI5282823
aI5292331
aI5304220
aI5306286
aI5314472
aI5328471
aI5344426
aI5354308
aI5387235
aI5405377
aI5421955
aI5441515
aI5443496
aI5443498
aI5456667
aI5456712
aI5456713
aI5507767
aI5507769
aI5527337
aI5540712
aI5549626
aI5569295
aI5609627
aI5628788
aI5639278
aI5669924
aI5693085
aI5837313
aI6099562
aI6120536
aI6165212
aI6168614
aI6358556
aI6442413
aI6895265
aI4907336
aI5037427
aI5147370
aI5681282
aI5697909
aI5151105
aI5354295
aI5389106
aI5554181
aI5683451
aI5824040
aI5824041
aI6056746
aI4886062
aI4994071
aI4994077
aI5104404
aI5135536
aI5282824
aI5312415
aI5449373
aI5100423
aI5108419
aI5160342
aI5382259
aI5662671
aI5725552
aI6066149
aI6152144
aI6179859
aI6203561
aI5360443
aI5366504
aI5458615
aI5632772
aI5370685
aI5458597
aI5472441
aI5545214
aI5840081
aI5855601
aI5941869
aI5192297
aI5342348
aI5716981
aI5192301
aI5250071
aI5261916
aI5350397
aI5709224
aI6231561
aI5197971
aI5197978
aI5329942
aI5370657
aI5449372
aI5827324
aI5330500
aI5637113
aI5679400
aI5700286
aI5776184
aI5824048
aI5972027
aI5108407
aI5534007
aI5423885
aI5605696
aI5649977
aI6287628
aI6379381
aI6506437
aI5354309
aI5575818
aI5980972
aI5383892
aI5667523
aI6001118
aI6152946
aI6012457
aI6024740
aI5674242
aI5316023
aI5443500
aI5800457
aI5810874
aI5910154
aI5911734
aI6027520
aI6042598
aI5324304
aI5380299
aI5431676
aI5720764
aI6231600
aI6258121
aI6419692
aI5464650
aI5624411
aI5837008
aI6071305
aI5443458
aI5824049
aI5873904
aI6096070
aI6299604
aI5562728
aI5799661
aI5676697
aI5733925
aI5833650
aI6110188
aI6113629
aI5755778
aI5843172
aI5591197
aI6258115
aI6254632
aI5800525
aI5848964
aI5941896
aI6277139
aI5780807
aI6056993
aI6395326
aI5108420
aI5234437
aI5865791
aI5163958
aI5865814
aI6153252
aI5443497
aI5489295
aI5514154
aI5332402
aI5334217
aI5554185
aI5879366
aI6458153
aI6629534
aI5195984
aI5776161
aI5697971
aI5366490
aI5370675
aI5599345
aI5350398
aI6168579
aI5766151
aI5807395
aI6575969
aI5609629
aI6042875
aI5366478
aI5411520
aI5433727
aI5451235
aI5634936
aI5797960
aI5853422
aI5855614
aI6290674
aI6558400
aI5769816
aI5669933
aI6171327
aI6273913
aI6240616
aI5649959
aI5957949
aI6161543
aI6237605
aI6325797
aI5925063
aI5413571
aI5507744
aI5588579
aI5639008
aI5944738
aI6190353
aI5571215
aI5855597
aI6245102
aI5921982
aI5810764
aI5971983
aI6335029
aI5961440
a(lp1
(lp2
I4655771
aa(lp3
I4762128
aI4820298
aI4830003
aI4921484
aI4922905
aI4950227
aI4966604
aI4990155
aI4994069
aI4998539
aI5015253
aI5019090
aI5026377
aI5059211
aI5061275
aI5064435
aI5071407
aI5078736
aI5092877
aI5108416
aI5122154
aI5133732
aI5152777
aI5158548
aI5171262
aI5201757
aI5211658
aI5222971
aI5226911
aI5226913
aI5234456
aI5234457
aI5275622
aI5282823
aI5292331
aI5304220
aI5306286
aI5314472
aI5328471
aI5344426
aI5354308
aI5387235
aI5405377
aI5421955
aI5441515
aI5443496
aI5443498
aI5456667
aI5456712
aI5456713
aI5507767
aI5507769
aI5527337
aI5540712
aI5549626
aI5569295
aI5609627
aI5628788
aI5639278
aI5669924
aI5693085
aI5837313
aI6099562
aI6120536
aI6165212
aI6168614
aI6358556
aI6442413
aI6895265
aa(lp4
I4907336
aI5037427
aI5147370
aI5681282
aI5697909
aI5151105
aI5354295
aI5389106
aI5554181
aI5683451
aI5824040
aI5824041
aI6056746
aI4886062
aI4994071
aI4994077
aI5104404
aI5135536
aI5282824
aI5312415
aI5449373
aI5100423
aI5108419
aI5160342
aI5382259
aI5662671
aI5725552
aI6066149
aI6152144
aI6179859
aI6203561
aI5360443
aI5366504
aI5458615
aI5632772
aI5370685
aI5458597
aI5472441
aI5545214
aI5840081
aI5855601
aI5941869
aI5192297
aI5342348
aI5716981
aI5192301
aI5250071
aI5261916
aI5350397
aI5709224
aI6231561
aI5197971
aI5197978
aI5329942
aI5370657
aI5449372
aI5827324
aI5330500
aI5637113
aI5679400
aI5700286
aI5776184
aI5824048
aI5972027
aI5108407
aI5534007
aI5423885
aI5605696
aI5649977
aI6287628
aI6379381
aI6506437
aI5354309
aI5575818
aI5980972
aI5383892
aI5667523
aI6001118
aI6152946
aI6012457
aI6024740
aI5674242
aI5316023
aI5443500
aI5800457
aI5810874
aI5910154
aI5911734
aI6027520
aI6042598
aI5324304
aI5380299
aI5431676
aI5720764
aI6231600
aI6258121
aI6419692
aI5464650
aI5624411
aI5837008
aI6071305
aI5443458
aI5824049
aI5873904
aI6096070
aI6299604
aI5562728
aI5799661
aI5676697
aI5733925
aI5833650
aI6110188
aI6113629
aI5755778
aI5843172
aI5591197
aI6258115
aI6254632
aI5800525
aI5848964
aI5941896
aI6277139
aI5780807
aI6056993
aI6395326
aa(lp5
I5108420
aI5234437
aI5865791
aI5163958
aI5865814
aI6153252
aI5443497
aI5489295
aI5514154
aI5332402
aI5334217
aI5554185
aI5879366
aI6458153
aI6629534
aI5195984
aI5776161
aI5697971
aI5366490
aI5370675
aI5599345
aI5350398
aI6168579
aI5766151
aI5807395
aI6575969
aI5609629
aI6042875
aI5366478
aI5411520
aI5433727
aI5451235
aI5634936
aI5797960
aI5853422
aI5855614
aI6290674
aI6558400
aI5769816
aI5669933
aI6171327
aI6273913
aI6240616
aI5649959
aI5957949
aI6161543
aI6237605
aI6325797
aI5925063
aa(lp6
I5413571
aI5507744
aI5588579
aI5639008
aI5944738
aI6190353
aI5571215
aI5855597
aI6245102
aI5921982
aI5810764
aI5971983
aI6335029
aI5961440
aa(lp7
(I4655771
I4762128
tp8
a(I4655771
I4820298
tp9
a(I4655771
I4830003
tp10
a(I4655771
I4921484
tp11
a(I4655771
I4922905
tp12
a(I4655771
I4950227
tp13
a(I4655771
I4966604
tp14
a(I4655771
I4990155
tp15
a(I4655771
I4994069
tp16
a(I4655771
I4998539
tp17
a(I4655771
I5015253
tp18
a(I4655771
I5019090
tp19
a(I4655771
I5026377
tp20
a(I4655771
I5059211
tp21
a(I4655771
I5061275
tp22
a(I4655771
I5064435
tp23
a(I4655771
I5071407
tp24
a(I4655771
I5078736
tp25
a(I4655771
I5092877
tp26
a(I4655771
I5108416
tp27
a(I4655771
I5122154
tp28
a(I4655771
I5133732
tp29
a(I4655771
I5152777
tp30
a(I4655771
I5158548
tp31
a(I4655771
I5171262
tp32
a(I4655771
I5201757
tp33
a(I4655771
I5211658
tp34
a(I4655771
I5222971
tp35
a(I4655771
I5226911
tp36
a(I4655771
I5226913
tp37
a(I4655771
I5234456
tp38
a(I4655771
I5234457
tp39
a(I4655771
I5275622
tp40
a(I4655771
I5282823
tp41
a(I4655771
I5292331
tp42
a(I4655771
I5304220
tp43
a(I4655771
I5306286
tp44
a(I4655771
I5314472
tp45
a(I4655771
I5328471
tp46
a(I4655771
I5344426
tp47
a(I4655771
I5354308
tp48
a(I4655771
I5387235
tp49
a(I4655771
I5405377
tp50
a(I4655771
I5421955
tp51
a(I4655771
I5441515
tp52
a(I4655771
I5443496
tp53
a(I4655771
I5443498
tp54
a(I4655771
I5456667
tp55
a(I4655771
I5456712
tp56
a(I4655771
I5456713
tp57
a(I4655771
I5507767
tp58
a(I4655771
I5507769
tp59
a(I4655771
I5527337
tp60
a(I4655771
I5540712
tp61
a(I4655771
I5549626
tp62
a(I4655771
I5569295
tp63
a(I4655771
I5609627
tp64
a(I4655771
I5628788
tp65
a(I4655771
I5639278
tp66
a(I4655771
I5669924
tp67
a(I4655771
I5693085
tp68
a(I4655771
I5837313
tp69
a(I4655771
I6099562
tp70
a(I4655771
I6120536
tp71
a(I4655771
I6165212
tp72
a(I4655771
I6168614
tp73
a(I4655771
I6358556
tp74
a(I4655771
I6442413
tp75
a(I4655771
I6895265
tp76
a(I4762128
I4907336
tp77
a(I4762128
I4922905
tp78
a(I4762128
I4950227
tp79
a(I4762128
I5037427
tp80
a(I4762128
I5108416
tp81
a(I4762128
I5147370
tp82
a(I4762128
I5158548
tp83
a(I4762128
I5344426
tp84
a(I4762128
I5405377
tp85
a(I4762128
I5421955
tp86
a(I4762128
I5456667
tp87
a(I4762128
I5507769
tp88
a(I4762128
I5569295
tp89
a(I4762128
I5609627
tp90
a(I4762128
I5669924
tp91
a(I4762128
I5681282
tp92
a(I4762128
I5697909
tp93
a(I4820298
I5151105
tp94
a(I4820298
I5211658
tp95
a(I4820298
I5222971
tp96
a(I4820298
I5282823
tp97
a(I4820298
I5314472
tp98
a(I4820298
I5328471
tp99
a(I4820298
I5354295
tp100
a(I4820298
I5389106
tp101
a(I4820298
I5405377
tp102
a(I4820298
I5443498
tp103
a(I4820298
I5507767
tp104
a(I4820298
I5554181
tp105
a(I4820298
I5609627
tp106
a(I4820298
I5683451
tp107
a(I4820298
I5824040
tp108
a(I4820298
I5824041
tp109
a(I4820298
I6056746
tp110
a(I4820298
I6165212
tp111
a(I4830003
I4886062
tp112
a(I4830003
I4994071
tp113
a(I4830003
I4994077
tp114
a(I4830003
I5015253
tp115
a(I4830003
I5019090
tp116
a(I4830003
I5026377
tp117
a(I4830003
I5064435
tp118
a(I4830003
I5071407
tp119
a(I4830003
I5078736
tp120
a(I4830003
I5092877
tp121
a(I4830003
I5104404
tp122
a(I4830003
I5122154
tp123
a(I4830003
I5135536
tp124
a(I4830003
I5171262
tp125
a(I4830003
I5201757
tp126
a(I4830003
I5211658
tp127
a(I4830003
I5226911
tp128
a(I4830003
I5226913
tp129
a(I4830003
I5275622
tp130
a(I4830003
I5282824
tp131
a(I4830003
I5304220
tp132
a(I4830003
I5312415
tp133
a(I4830003
I5314472
tp134
a(I4830003
I5344426
tp135
a(I4830003
I5354308
tp136
a(I4830003
I5387235
tp137
a(I4830003
I5389106
tp138
a(I4830003
I5405377
tp139
a(I4830003
I5421955
tp140
a(I4830003
I5441515
tp141
a(I4830003
I5443498
tp142
a(I4830003
I5449373
tp143
a(I4830003
I5456667
tp144
a(I4830003
I5456712
tp145
a(I4830003
I5456713
tp146
a(I4830003
I5507767
tp147
a(I4830003
I5540712
tp148
a(I4830003
I5554181
tp149
a(I4830003
I5569295
tp150
a(I4830003
I5609627
tp151
a(I4830003
I5669924
tp152
a(I4921484
I5071407
tp153
a(I4921484
I5100423
tp154
a(I4921484
I5108419
tp155
a(I4921484
I5160342
tp156
a(I4921484
I5222971
tp157
a(I4921484
I5382259
tp158
a(I4921484
I5507769
tp159
a(I4921484
I5549626
tp160
a(I4921484
I5662671
tp161
a(I4921484
I5725552
tp162
a(I4921484
I6066149
tp163
a(I4921484
I6152144
tp164
a(I4921484
I6179859
tp165
a(I4921484
I6203561
tp166
a(I4922905
I5108416
tp167
a(I4922905
I5234457
tp168
a(I4922905
I5314472
tp169
a(I4922905
I5344426
tp170
a(I4922905
I5360443
tp171
a(I4922905
I5366504
tp172
a(I4922905
I5405377
tp173
a(I4922905
I5421955
tp174
a(I4922905
I5441515
tp175
a(I4922905
I5443498
tp176
a(I4922905
I5456667
tp177
a(I4922905
I5569295
tp178
a(I4922905
I5609627
tp179
a(I4922905
I5669924
tp180
a(I4950227
I5108416
tp181
a(I4950227
I5201757
tp182
a(I4950227
I5222971
tp183
a(I4950227
I5234457
tp184
a(I4950227
I5314472
tp185
a(I4950227
I5344426
tp186
a(I4950227
I5421955
tp187
a(I4950227
I5441515
tp188
a(I4950227
I5443498
tp189
a(I4950227
I5456667
tp190
a(I4950227
I5458615
tp191
a(I4950227
I5569295
tp192
a(I4950227
I5632772
tp193
a(I4950227
I5639278
tp194
a(I4950227
I5669924
tp195
a(I4950227
I5683451
tp196
a(I4950227
I5693085
tp197
a(I4950227
I5824041
tp198
a(I4950227
I6165212
tp199
a(I4966604
I5160342
tp200
a(I4966604
I5370685
tp201
a(I4966604
I5458597
tp202
a(I4966604
I5472441
tp203
a(I4966604
I5545214
tp204
a(I4966604
I5840081
tp205
a(I4966604
I5855601
tp206
a(I4966604
I5941869
tp207
a(I4966604
I6168614
tp208
a(I4990155
I5192297
tp209
a(I4990155
I5282823
tp210
a(I4990155
I5342348
tp211
a(I4990155
I5344426
tp212
a(I4990155
I5421955
tp213
a(I4990155
I5441515
tp214
a(I4990155
I5443496
tp215
a(I4990155
I5456667
tp216
a(I4990155
I5554181
tp217
a(I4990155
I5569295
tp218
a(I4990155
I5716981
tp219
a(I4994069
I5192301
tp220
a(I4994069
I5226911
tp221
a(I4994069
I5250071
tp222
a(I4994069
I5261916
tp223
a(I4994069
I5275622
tp224
a(I4994069
I5312415
tp225
a(I4994069
I5344426
tp226
a(I4994069
I5350397
tp227
a(I4994069
I5354295
tp228
a(I4994069
I5382259
tp229
a(I4994069
I5709224
tp230
a(I4994069
I6056746
tp231
a(I4994069
I6231561
tp232
a(I4998539
I5192297
tp233
a(I4998539
I5197971
tp234
a(I4998539
I5197978
tp235
a(I4998539
I5211658
tp236
a(I4998539
I5222971
tp237
a(I4998539
I5329942
tp238
a(I4998539
I5344426
tp239
a(I4998539
I5370657
tp240
a(I4998539
I5421955
tp241
a(I4998539
I5441515
tp242
a(I4998539
I5449372
tp243
a(I4998539
I5456667
tp244
a(I4998539
I5569295
tp245
a(I4998539
I5827324
tp246
a(I4998539
I6179859
tp247
a(I4998539
I6203561
tp248
a(I5015253
I5211658
tp249
a(I5015253
I5282823
tp250
a(I5015253
I5314472
tp251
a(I5015253
I5344426
tp252
a(I5015253
I5421955
tp253
a(I5015253
I5441515
tp254
a(I5015253
I5443496
tp255
a(I5015253
I5443498
tp256
a(I5015253
I5456667
tp257
a(I5015253
I5507767
tp258
a(I5015253
I5569295
tp259
a(I5019090
I5133732
tp260
a(I5019090
I5135536
tp261
a(I5019090
I5192297
tp262
a(I5019090
I5211658
tp263
a(I5019090
I5282823
tp264
a(I5019090
I5314472
tp265
a(I5019090
I5330500
tp266
a(I5019090
I5342348
tp267
a(I5019090
I5344426
tp268
a(I5019090
I5405377
tp269
a(I5019090
I5421955
tp270
a(I5019090
I5441515
tp271
a(I5019090
I5443496
tp272
a(I5019090
I5443498
tp273
a(I5019090
I5456667
tp274
a(I5019090
I5507767
tp275
a(I5019090
I5527337
tp276
a(I5019090
I5554181
tp277
a(I5019090
I5569295
tp278
a(I5019090
I5609627
tp279
a(I5019090
I5632772
tp280
a(I5019090
I5637113
tp281
a(I5019090
I5639278
tp282
a(I5019090
I5679400
tp283
a(I5019090
I5693085
tp284
a(I5019090
I5700286
tp285
a(I5019090
I5716981
tp286
a(I5019090
I5776184
tp287
a(I5019090
I5824040
tp288
a(I5019090
I5824048
tp289
a(I5019090
I5855601
tp290
a(I5019090
I5972027
tp291
a(I5019090
I6165212
tp292
a(I5026377
I5108407
tp293
a(I5026377
I5222971
tp294
a(I5026377
I5234457
tp295
a(I5026377
I5344426
tp296
a(I5026377
I5421955
tp297
a(I5026377
I5456667
tp298
a(I5026377
I5507767
tp299
a(I5026377
I5534007
tp300
a(I5026377
I5554181
tp301
a(I5026377
I5569295
tp302
a(I5026377
I5628788
tp303
a(I5059211
I5108407
tp304
a(I5059211
I5282823
tp305
a(I5059211
I5342348
tp306
a(I5059211
I5344426
tp307
a(I5059211
I5421955
tp308
a(I5059211
I5423885
tp309
a(I5059211
I5441515
tp310
a(I5059211
I5443496
tp311
a(I5059211
I5456667
tp312
a(I5059211
I5569295
tp313
a(I5059211
I5605696
tp314
a(I5059211
I5637113
tp315
a(I5059211
I5649977
tp316
a(I5059211
I5669924
tp317
a(I5059211
I5700286
tp318
a(I5059211
I5716981
tp319
a(I5059211
I6287628
tp320
a(I5059211
I6379381
tp321
a(I5059211
I6506437
tp322
a(I5061275
I5234457
tp323
a(I5061275
I5282823
tp324
a(I5061275
I5344426
tp325
a(I5061275
I5354309
tp326
a(I5061275
I5421955
tp327
a(I5061275
I5441515
tp328
a(I5061275
I5443496
tp329
a(I5061275
I5456667
tp330
a(I5061275
I5569295
tp331
a(I5061275
I5575818
tp332
a(I5061275
I5628788
tp333
a(I5061275
I5693085
tp334
a(I5061275
I5837313
tp335
a(I5061275
I5980972
tp336
a(I5061275
I6099562
tp337
a(I5061275
I6120536
tp338
a(I5061275
I6358556
tp339
a(I5064435
I5330500
tp340
a(I5064435
I5344426
tp341
a(I5064435
I5382259
tp342
a(I5064435
I5383892
tp343
a(I5064435
I5421955
tp344
a(I5064435
I5441515
tp345
a(I5064435
I5456667
tp346
a(I5064435
I5540712
tp347
a(I5064435
I5554181
tp348
a(I5064435
I5569295
tp349
a(I5064435
I5575818
tp350
a(I5064435
I5609627
tp351
a(I5064435
I5628788
tp352
a(I5064435
I5649977
tp353
a(I5064435
I5667523
tp354
a(I5064435
I5669924
tp355
a(I5064435
I5725552
tp356
a(I5064435
I5824040
tp357
a(I5064435
I6152144
tp358
a(I5064435
I6358556
tp359
a(I5071407
I5197978
tp360
a(I5071407
I5201757
tp361
a(I5071407
I5226911
tp362
a(I5071407
I5344426
tp363
a(I5071407
I5370657
tp364
a(I5071407
I5421955
tp365
a(I5071407
I5441515
tp366
a(I5071407
I5456667
tp367
a(I5071407
I5569295
tp368
a(I5071407
I5827324
tp369
a(I5071407
I6001118
tp370
a(I5071407
I6152946
tp371
a(I5071407
I6179859
tp372
a(I5071407
I6203561
tp373
a(I5078736
I5344426
tp374
a(I5078736
I5405377
tp375
a(I5078736
I5421955
tp376
a(I5078736
I5441515
tp377
a(I5078736
I5456667
tp378
a(I5078736
I5569295
tp379
a(I5078736
I5609627
tp380
a(I5078736
I5649977
tp381
a(I5078736
I6012457
tp382
a(I5078736
I6024740
tp383
a(I5078736
I6152144
tp384
a(I5092877
I5234457
tp385
a(I5092877
I5344426
tp386
a(I5092877
I5421955
tp387
a(I5092877
I5456667
tp388
a(I5092877
I5458615
tp389
a(I5092877
I5569295
tp390
a(I5092877
I5683451
tp391
a(I5092877
I5824041
tp392
a(I5092877
I5837313
tp393
a(I5092877
I5980972
tp394
a(I5092877
I6099562
tp395
a(I5092877
I6120536
tp396
a(I5092877
I6358556
tp397
a(I5108416
I5192297
tp398
a(I5108416
I5344426
tp399
a(I5108416
I5421955
tp400
a(I5108416
I5441515
tp401
a(I5108416
I5456667
tp402
a(I5108416
I5458615
tp403
a(I5108416
I5569295
tp404
a(I5108416
I5674242
tp405
a(I5122154
I5316023
tp406
a(I5122154
I5344426
tp407
a(I5122154
I5389106
tp408
a(I5122154
I5421955
tp409
a(I5122154
I5441515
tp410
a(I5122154
I5456667
tp411
a(I5122154
I5554181
tp412
a(I5122154
I5569295
tp413
a(I5133732
I5234457
tp414
a(I5133732
I5314472
tp415
a(I5133732
I5344426
tp416
a(I5133732
I5354309
tp417
a(I5133732
I5405377
tp418
a(I5133732
I5421955
tp419
a(I5133732
I5423885
tp420
a(I5133732
I5441515
tp421
a(I5133732
I5443498
tp422
a(I5133732
I5443500
tp423
a(I5133732
I5456667
tp424
a(I5133732
I5507767
tp425
a(I5133732
I5554181
tp426
a(I5133732
I5569295
tp427
a(I5133732
I5609627
tp428
a(I5152777
I5370657
tp429
a(I5152777
I5549626
tp430
a(I5152777
I5800457
tp431
a(I5152777
I5810874
tp432
a(I5152777
I5910154
tp433
a(I5152777
I5911734
tp434
a(I5152777
I6027520
tp435
a(I5152777
I6042598
tp436
a(I5158548
I5441515
tp437
a(I5158548
I5649977
tp438
a(I5158548
I5683451
tp439
a(I5158548
I5824041
tp440
a(I5171262
I5344426
tp441
a(I5171262
I5441515
tp442
a(I5171262
I5456667
tp443
a(I5171262
I5458615
tp444
a(I5171262
I5527337
tp445
a(I5171262
I5569295
tp446
a(I5171262
I5632772
tp447
a(I5171262
I5639278
tp448
a(I5171262
I5716981
tp449
a(I5171262
I6165212
tp450
a(I5201757
I5324304
tp451
a(I5201757
I5628788
tp452
a(I5201757
I5669924
tp453
a(I5201757
I5683451
tp454
a(I5201757
I5824041
tp455
a(I5211658
I5382259
tp456
a(I5211658
I5667523
tp457
a(I5211658
I5683451
tp458
a(I5211658
I5824040
tp459
a(I5211658
I5824041
tp460
a(I5222971
I5380299
tp461
a(I5222971
I5431676
tp462
a(I5222971
I5456667
tp463
a(I5222971
I5720764
tp464
a(I5222971
I5810874
tp465
a(I5222971
I5972027
tp466
a(I5222971
I6231600
tp467
a(I5222971
I6258121
tp468
a(I5222971
I6419692
tp469
a(I5226911
I5709224
tp470
a(I5226913
I5456667
tp471
a(I5226913
I5554181
tp472
a(I5226913
I5824040
tp473
a(I5226913
I5837313
tp474
a(I5226913
I5972027
tp475
a(I5226913
I5980972
tp476
a(I5226913
I6099562
tp477
a(I5226913
I6120536
tp478
a(I5226913
I6358556
tp479
a(I5234456
I5342348
tp480
a(I5234456
I5464650
tp481
a(I5234456
I5605696
tp482
a(I5234456
I5624411
tp483
a(I5234456
I5637113
tp484
a(I5234456
I5649977
tp485
a(I5234456
I5679400
tp486
a(I5234456
I5693085
tp487
a(I5234456
I5700286
tp488
a(I5234456
I5716981
tp489
a(I5234456
I5776184
tp490
a(I5234456
I5824048
tp491
a(I5234456
I5837008
tp492
a(I5234456
I6071305
tp493
a(I5234457
I5443458
tp494
a(I5234457
I5569295
tp495
a(I5234457
I5605696
tp496
a(I5234457
I5637113
tp497
a(I5234457
I5649977
tp498
a(I5234457
I5693085
tp499
a(I5234457
I5700286
tp500
a(I5275622
I5683451
tp501
a(I5275622
I5824041
tp502
a(I5282823
I5443496
tp503
a(I5282823
I5632772
tp504
a(I5282823
I5639278
tp505
a(I5282823
I5649977
tp506
a(I5282823
I5693085
tp507
a(I5282823
I5824049
tp508
a(I5282823
I5873904
tp509
a(I5282823
I6071305
tp510
a(I5282823
I6096070
tp511
a(I5282823
I6165212
tp512
a(I5282823
I6231600
tp513
a(I5282823
I6258121
tp514
a(I5282823
I6299604
tp515
a(I5282823
I6419692
tp516
a(I5292331
I5562728
tp517
a(I5304220
I5456712
tp518
a(I5304220
I5507769
tp519
a(I5304220
I5649977
tp520
a(I5304220
I5799661
tp521
a(I5306286
I5443458
tp522
a(I5306286
I5637113
tp523
a(I5306286
I5649977
tp524
a(I5306286
I5676697
tp525
a(I5306286
I5700286
tp526
a(I5306286
I5910154
tp527
a(I5306286
I5911734
tp528
a(I5306286
I6027520
tp529
a(I5306286
I6042598
tp530
a(I5306286
I6287628
tp531
a(I5306286
I6379381
tp532
a(I5306286
I6506437
tp533
a(I5314472
I5910154
tp534
a(I5314472
I5911734
tp535
a(I5314472
I6027520
tp536
a(I5314472
I6042598
tp537
a(I5328471
I5733925
tp538
a(I5328471
I5833650
tp539
a(I5328471
I6110188
tp540
a(I5328471
I6113629
tp541
a(I5344426
I5443500
tp542
a(I5344426
I5527337
tp543
a(I5344426
I5649977
tp544
a(I5354308
I5540712
tp545
a(I5354308
I5632772
tp546
a(I5354308
I5639278
tp547
a(I5354308
I5755778
tp548
a(I5354308
I5824040
tp549
a(I5354308
I6165212
tp550
a(I5387235
I5609627
tp551
a(I5387235
I5910154
tp552
a(I5387235
I5911734
tp553
a(I5387235
I6027520
tp554
a(I5387235
I6042598
tp555
a(I5405377
I5540712
tp556
a(I5405377
I5554181
tp557
a(I5405377
I5755778
tp558
a(I5405377
I5824040
tp559
a(I5405377
I5910154
tp560
a(I5405377
I5911734
tp561
a(I5405377
I6027520
tp562
a(I5405377
I6042598
tp563
a(I5421955
I6442413
tp564
a(I5421955
I6895265
tp565
a(I5441515
I5637113
tp566
a(I5441515
I5649977
tp567
a(I5441515
I5674242
tp568
a(I5441515
I5676697
tp569
a(I5441515
I5700286
tp570
a(I5441515
I5843172
tp571
a(I5441515
I6071305
tp572
a(I5443496
I5591197
tp573
a(I5443496
I5679400
tp574
a(I5443496
I5776184
tp575
a(I5443496
I5824040
tp576
a(I5443496
I5824048
tp577
a(I5443496
I6071305
tp578
a(I5443496
I6231600
tp579
a(I5443496
I6258121
tp580
a(I5443496
I6419692
tp581
a(I5443498
I5910154
tp582
a(I5443498
I5911734
tp583
a(I5443498
I6027520
tp584
a(I5443498
I6042598
tp585
a(I5456667
I5534007
tp586
a(I5456667
I6066149
tp587
a(I5456667
I6179859
tp588
a(I5456667
I6203561
tp589
a(I5456712
I5755778
tp590
a(I5456712
I5799661
tp591
a(I5456712
I6110188
tp592
a(I5456713
I5824040
tp593
a(I5507767
I5824040
tp594
a(I5507767
I5910154
tp595
a(I5507767
I5911734
tp596
a(I5507767
I6027520
tp597
a(I5507767
I6042598
tp598
a(I5507769
I5824040
tp599
a(I5507769
I6258115
tp600
a(I5527337
I6231600
tp601
a(I5527337
I6254632
tp602
a(I5527337
I6258121
tp603
a(I5527337
I6287628
tp604
a(I5527337
I6379381
tp605
a(I5527337
I6419692
tp606
a(I5527337
I6506437
tp607
a(I5549626
I5800457
tp608
a(I5549626
I5800525
tp609
a(I5549626
I5827324
tp610
a(I5549626
I5848964
tp611
a(I5549626
I5910154
tp612
a(I5549626
I5911734
tp613
a(I5549626
I5941896
tp614
a(I5549626
I6001118
tp615
a(I5549626
I6152946
tp616
a(I5549626
I6203561
tp617
a(I5549626
I6277139
tp618
a(I5569295
I5780807
tp619
a(I5639278
I5755778
tp620
a(I5837313
I6056993
tp621
a(I5837313
I6395326
tp622
a(I6099562
I6258121
tp623
a(I6120536
I6258121
tp624
a(I6120536
I6287628
tp625
a(I6120536
I6379381
tp626
a(I6120536
I6506437
tp627
a(I6442413
I6895265
tp628
a(I4907336
I5108416
tp629
a(I4907336
I5226913
tp630
a(I4907336
I5344426
tp631
a(I4907336
I5421955
tp632
a(I4907336
I5441515
tp633
a(I4907336
I5456667
tp634
a(I4907336
I5569295
tp635
a(I4907336
I5910154
tp636
a(I4907336
I5911734
tp637
a(I4907336
I6027520
tp638
a(I4907336
I6042598
tp639
a(I5037427
I5108407
tp640
a(I5037427
I5108420
tp641
a(I5037427
I5147370
tp642
a(I5037427
I5197978
tp643
a(I5037427
I5234437
tp644
a(I5037427
I5261916
tp645
a(I5037427
I5275622
tp646
a(I5037427
I5312415
tp647
a(I5037427
I5344426
tp648
a(I5037427
I5421955
tp649
a(I5037427
I5456667
tp650
a(I5037427
I5527337
tp651
a(I5037427
I5554181
tp652
a(I5037427
I5569295
tp653
a(I5037427
I5669924
tp654
a(I5037427
I5683451
tp655
a(I5037427
I5824041
tp656
a(I5147370
I5456667
tp657
a(I5147370
I5554181
tp658
a(I5147370
I5669924
tp659
a(I5147370
I5683451
tp660
a(I5147370
I5693085
tp661
a(I5147370
I5824041
tp662
a(I5697909
I6056746
tp663
a(I5151105
I5330500
tp664
a(I5151105
I5382259
tp665
a(I5151105
I5534007
tp666
a(I5151105
I5667523
tp667
a(I5151105
I5693085
tp668
a(I5354295
I5865791
tp669
a(I5354295
I6066149
tp670
a(I5389106
I5637113
tp671
a(I5389106
I5669924
tp672
a(I5389106
I5693085
tp673
a(I5389106
I5700286
tp674
a(I5554181
I5873904
tp675
a(I5554181
I6299604
tp676
a(I4886062
I5019090
tp677
a(I4886062
I5064435
tp678
a(I4886062
I5071407
tp679
a(I4886062
I5092877
tp680
a(I4886062
I5108416
tp681
a(I4886062
I5133732
tp682
a(I4886062
I5163958
tp683
a(I4886062
I5192297
tp684
a(I4886062
I5211658
tp685
a(I4886062
I5226913
tp686
a(I4886062
I5282823
tp687
a(I4886062
I5314472
tp688
a(I4886062
I5330500
tp689
a(I4886062
I5344426
tp690
a(I4886062
I5354308
tp691
a(I4886062
I5389106
tp692
a(I4886062
I5405377
tp693
a(I4886062
I5421955
tp694
a(I4886062
I5441515
tp695
a(I4886062
I5443498
tp696
a(I4886062
I5449373
tp697
a(I4886062
I5456667
tp698
a(I4886062
I5464650
tp699
a(I4886062
I5507767
tp700
a(I4886062
I5554181
tp701
a(I4886062
I5569295
tp702
a(I4886062
I5609627
tp703
a(I4886062
I5624411
tp704
a(I4886062
I5669924
tp705
a(I4886062
I5679400
tp706
a(I4886062
I5683451
tp707
a(I4886062
I5776184
tp708
a(I4886062
I5824041
tp709
a(I4886062
I5824048
tp710
a(I4886062
I5837008
tp711
a(I4886062
I5837313
tp712
a(I4886062
I5865814
tp713
a(I4886062
I5980972
tp714
a(I4886062
I6099562
tp715
a(I4886062
I6120536
tp716
a(I4886062
I6153252
tp717
a(I4886062
I6254632
tp718
a(I4886062
I6358556
tp719
a(I4886062
I6442413
tp720
a(I4886062
I6506437
tp721
a(I4886062
I6895265
tp722
a(I4994071
I5122154
tp723
a(I4994071
I5133732
tp724
a(I4994071
I5211658
tp725
a(I4994071
I5275622
tp726
a(I4994071
I5344426
tp727
a(I4994071
I5366504
tp728
a(I4994071
I5421955
tp729
a(I4994071
I5441515
tp730
a(I4994071
I5443497
tp731
a(I4994071
I5456667
tp732
a(I4994071
I5489295
tp733
a(I4994071
I5514154
tp734
a(I4994071
I5569295
tp735
a(I4994071
I5609627
tp736
a(I4994071
I5632772
tp737
a(I4994071
I5639278
tp738
a(I4994071
I5669924
tp739
a(I4994071
I5676697
tp740
a(I4994071
I5780807
tp741
a(I4994071
I5837313
tp742
a(I4994071
I5980972
tp743
a(I4994071
I6099562
tp744
a(I4994071
I6120536
tp745
a(I4994071
I6165212
tp746
a(I4994071
I6231600
tp747
a(I4994071
I6258121
tp748
a(I4994071
I6358556
tp749
a(I4994071
I6419692
tp750
a(I4994077
I5332402
tp751
a(I4994077
I5334217
tp752
a(I4994077
I5554185
tp753
a(I4994077
I5840081
tp754
a(I4994077
I5855601
tp755
a(I4994077
I5879366
tp756
a(I4994077
I6168614
tp757
a(I4994077
I6458153
tp758
a(I4994077
I6629534
tp759
a(I5104404
I5282824
tp760
a(I5104404
I5344426
tp761
a(I5104404
I5421955
tp762
a(I5104404
I5441515
tp763
a(I5104404
I5449373
tp764
a(I5104404
I5456667
tp765
a(I5104404
I5554181
tp766
a(I5104404
I5569295
tp767
a(I5135536
I5195984
tp768
a(I5135536
I5314472
tp769
a(I5135536
I5344426
tp770
a(I5135536
I5405377
tp771
a(I5135536
I5421955
tp772
a(I5135536
I5423885
tp773
a(I5135536
I5441515
tp774
a(I5135536
I5443498
tp775
a(I5135536
I5443500
tp776
a(I5135536
I5456667
tp777
a(I5135536
I5540712
tp778
a(I5135536
I5554181
tp779
a(I5135536
I5569295
tp780
a(I5135536
I5609627
tp781
a(I5282824
I5370657
tp782
a(I5282824
I5405377
tp783
a(I5282824
I5443496
tp784
a(I5282824
I5507767
tp785
a(I5282824
I5609627
tp786
a(I5282824
I5669924
tp787
a(I5282824
I5683451
tp788
a(I5282824
I5776161
tp789
a(I5282824
I5824040
tp790
a(I5282824
I5824041
tp791
a(I5282824
I6254632
tp792
a(I5312415
I5628788
tp793
a(I5312415
I5709224
tp794
a(I5449373
I5591197
tp795
a(I5449373
I5697971
tp796
a(I5449373
I5776161
tp797
a(I5100423
I5366490
tp798
a(I5100423
I5370675
tp799
a(I5100423
I5458597
tp800
a(I5100423
I5472441
tp801
a(I5100423
I5599345
tp802
a(I5100423
I5827324
tp803
a(I5100423
I6001118
tp804
a(I5100423
I6066149
tp805
a(I5100423
I6152946
tp806
a(I5108419
I5350398
tp807
a(I5108419
I5370657
tp808
a(I5108419
I5549626
tp809
a(I5108419
I5910154
tp810
a(I5108419
I5911734
tp811
a(I5108419
I6001118
tp812
a(I5108419
I6027520
tp813
a(I5108419
I6042598
tp814
a(I5108419
I6152946
tp815
a(I5108419
I6179859
tp816
a(I5108419
I6203561
tp817
a(I5108419
I6277139
tp818
a(I5160342
I5370657
tp819
a(I5160342
I5549626
tp820
a(I5160342
I5910154
tp821
a(I5160342
I5911734
tp822
a(I5160342
I5941869
tp823
a(I5160342
I6027520
tp824
a(I5160342
I6042598
tp825
a(I5382259
I6258115
tp826
a(I5662671
I6168579
tp827
a(I5662671
I6179859
tp828
a(I5662671
I6203561
tp829
a(I5725552
I6152144
tp830
a(I5725552
I6458153
tp831
a(I5360443
I5443497
tp832
a(I5360443
I5632772
tp833
a(I5360443
I5639278
tp834
a(I5360443
I5669924
tp835
a(I5360443
I5676697
tp836
a(I5360443
I5693085
tp837
a(I5360443
I5755778
tp838
a(I5360443
I5824040
tp839
a(I5360443
I6165212
tp840
a(I5366504
I5776184
tp841
a(I5366504
I5824040
tp842
a(I5632772
I5824040
tp843
a(I5370685
I5766151
tp844
a(I5370685
I5799661
tp845
a(I5370685
I5855601
tp846
a(I5370685
I6458153
tp847
a(I5458597
I5807395
tp848
a(I5458597
I6575969
tp849
a(I5472441
I6056746
tp850
a(I5472441
I6575969
tp851
a(I5545214
I5799661
tp852
a(I5545214
I6458153
tp853
a(I5840081
I6168614
tp854
a(I5840081
I6458153
tp855
a(I5840081
I6629534
tp856
a(I5855601
I6458153
tp857
a(I5192297
I5344426
tp858
a(I5192297
I5441515
tp859
a(I5192297
I5456667
tp860
a(I5192297
I5458615
tp861
a(I5192297
I5554181
tp862
a(I5192297
I5569295
tp863
a(I5192297
I5683451
tp864
a(I5192297
I5824041
tp865
a(I5342348
I5443458
tp866
a(I5342348
I5605696
tp867
a(I5342348
I5609629
tp868
a(I5342348
I5637113
tp869
a(I5342348
I5649977
tp870
a(I5342348
I5700286
tp871
a(I5342348
I5716981
tp872
a(I5342348
I5824049
tp873
a(I5342348
I5837313
tp874
a(I5342348
I5873904
tp875
a(I5342348
I5972027
tp876
a(I5342348
I5980972
tp877
a(I5342348
I6071305
tp878
a(I5342348
I6099562
tp879
a(I5342348
I6120536
tp880
a(I5342348
I6153252
tp881
a(I5342348
I6299604
tp882
a(I5342348
I6358556
tp883
a(I5716981
I5980972
tp884
a(I5716981
I6042875
tp885
a(I5716981
I6099562
tp886
a(I5716981
I6153252
tp887
a(I5716981
I6231600
tp888
a(I5716981
I6258121
tp889
a(I5716981
I6299604
tp890
a(I5716981
I6358556
tp891
a(I5716981
I6419692
tp892
a(I5192301
I5366478
tp893
a(I5192301
I5411520
tp894
a(I5192301
I5433727
tp895
a(I5192301
I5451235
tp896
a(I5192301
I5634936
tp897
a(I5192301
I5797960
tp898
a(I5192301
I5853422
tp899
a(I5192301
I5855614
tp900
a(I5192301
I6152144
tp901
a(I5250071
I5709224
tp902
a(I5261916
I5709224
tp903
a(I5709224
I6152144
tp904
a(I5709224
I6231561
tp905
a(I5709224
I6290674
tp906
a(I6231561
I6558400
tp907
a(I5197978
I5314472
tp908
a(I5197978
I5344426
tp909
a(I5197978
I5354309
tp910
a(I5197978
I5441515
tp911
a(I5197978
I5443498
tp912
a(I5197978
I5456667
tp913
a(I5197978
I5458615
tp914
a(I5197978
I5507769
tp915
a(I5197978
I5569295
tp916
a(I5197978
I5575818
tp917
a(I5197978
I5628788
tp918
a(I5197978
I5669924
tp919
a(I5197978
I5697971
tp920
a(I5197978
I6110188
tp921
a(I5329942
I5549626
tp922
a(I5329942
I5769816
tp923
a(I5329942
I5827324
tp924
a(I5329942
I5848964
tp925
a(I5329942
I5941896
tp926
a(I5329942
I6001118
tp927
a(I5329942
I6152946
tp928
a(I5329942
I6179859
tp929
a(I5329942
I6203561
tp930
a(I5370657
I5669933
tp931
a(I5370657
I5769816
tp932
a(I5370657
I6179859
tp933
a(I5370657
I6203561
tp934
a(I5449372
I5674242
tp935
a(I5449372
I5910154
tp936
a(I5449372
I5911734
tp937
a(I5449372
I6027520
tp938
a(I5449372
I6042598
tp939
a(I5449372
I6066149
tp940
a(I5449372
I6231600
tp941
a(I5449372
I6258121
tp942
a(I5449372
I6419692
tp943
a(I5827324
I6027520
tp944
a(I5827324
I6042598
tp945
a(I5827324
I6152946
tp946
a(I5827324
I6171327
tp947
a(I5827324
I6179859
tp948
a(I5827324
I6203561
tp949
a(I5827324
I6258115
tp950
a(I5330500
I5575818
tp951
a(I5330500
I5628788
tp952
a(I5330500
I5632772
tp953
a(I5330500
I5637113
tp954
a(I5330500
I5639278
tp955
a(I5330500
I5649977
tp956
a(I5330500
I5667523
tp957
a(I5330500
I5669924
tp958
a(I5330500
I5700286
tp959
a(I5330500
I5824040
tp960
a(I5330500
I5910154
tp961
a(I5330500
I5911734
tp962
a(I5330500
I6027520
tp963
a(I5330500
I6042598
tp964
a(I5330500
I6165212
tp965
a(I5637113
I5980972
tp966
a(I5637113
I6099562
tp967
a(I5637113
I6120536
tp968
a(I5637113
I6231600
tp969
a(I5637113
I6258121
tp970
a(I5637113
I6419692
tp971
a(I5679400
I5824048
tp972
a(I5679400
I6153252
tp973
a(I5679400
I6231600
tp974
a(I5679400
I6258121
tp975
a(I5679400
I6419692
tp976
a(I5700286
I6231600
tp977
a(I5700286
I6254632
tp978
a(I5700286
I6258121
tp979
a(I5700286
I6273913
tp980
a(I5700286
I6287628
tp981
a(I5700286
I6379381
tp982
a(I5700286
I6419692
tp983
a(I5700286
I6506437
tp984
a(I5776184
I6231600
tp985
a(I5776184
I6258121
tp986
a(I5776184
I6419692
tp987
a(I5824048
I6419692
tp988
a(I5972027
I6240616
tp989
a(I5972027
I6258121
tp990
a(I5972027
I6273913
tp991
a(I5108407
I5250071
tp992
a(I5108407
I5261916
tp993
a(I5108407
I5312415
tp994
a(I5108407
I5350397
tp995
a(I5108407
I5354295
tp996
a(I5108407
I5382259
tp997
a(I5108407
I5649959
tp998
a(I5108407
I5709224
tp999
a(I5108407
I6056746
tp1000
a(I5423885
I5910154
tp1001
a(I5423885
I5911734
tp1002
a(I5423885
I6027520
tp1003
a(I5423885
I6042598
tp1004
a(I5423885
I6071305
tp1005
a(I5423885
I6231600
tp1006
a(I5423885
I6258121
tp1007
a(I5423885
I6419692
tp1008
a(I5605696
I5824048
tp1009
a(I5605696
I5837313
tp1010
a(I5605696
I5865814
tp1011
a(I5605696
I5980972
tp1012
a(I5605696
I6056993
tp1013
a(I5605696
I6120536
tp1014
a(I5605696
I6231600
tp1015
a(I5605696
I6258121
tp1016
a(I5605696
I6358556
tp1017
a(I5605696
I6419692
tp1018
a(I5649977
I5824048
tp1019
a(I6287628
I6506437
tp1020
a(I6379381
I6506437
tp1021
a(I5354309
I5540712
tp1022
a(I5354309
I5554181
tp1023
a(I5575818
I6056993
tp1024
a(I5575818
I6153252
tp1025
a(I5383892
I5507769
tp1026
a(I5383892
I5575818
tp1027
a(I5383892
I5628788
tp1028
a(I5383892
I5697971
tp1029
a(I5383892
I5776161
tp1030
a(I5383892
I5910154
tp1031
a(I5383892
I5911734
tp1032
a(I5383892
I6027520
tp1033
a(I5383892
I6042598
tp1034
a(I5383892
I6258115
tp1035
a(I5667523
I5957949
tp1036
a(I6001118
I6179859
tp1037
a(I6001118
I6277139
tp1038
a(I6012457
I6161543
tp1039
a(I6012457
I6237605
tp1040
a(I6012457
I6325797
tp1041
a(I5674242
I6231600
tp1042
a(I5674242
I6258121
tp1043
a(I5674242
I6419692
tp1044
a(I5316023
I5669924
tp1045
a(I5316023
I5693085
tp1046
a(I5316023
I5824040
tp1047
a(I5443500
I5925063
tp1048
a(I5443500
I6895265
tp1049
a(I5800457
I5941896
tp1050
a(I5800457
I6203561
tp1051
a(I5810874
I5910154
tp1052
a(I5810874
I5911734
tp1053
a(I5810874
I6277139
tp1054
a(I5910154
I6168579
tp1055
a(I5911734
I6152946
tp1056
a(I5911734
I6277139
tp1057
a(I6027520
I6258115
tp1058
a(I5324304
I5549626
tp1059
a(I5324304
I5941896
tp1060
a(I5380299
I5605696
tp1061
a(I5380299
I5609629
tp1062
a(I5380299
I5679400
tp1063
a(I5380299
I5716981
tp1064
a(I5380299
I5776184
tp1065
a(I5380299
I5824048
tp1066
a(I5380299
I5824049
tp1067
a(I5380299
I5865814
tp1068
a(I5380299
I5873904
tp1069
a(I5380299
I5980972
tp1070
a(I5380299
I6042875
tp1071
a(I5380299
I6099562
tp1072
a(I5380299
I6120536
tp1073
a(I5380299
I6153252
tp1074
a(I5380299
I6231600
tp1075
a(I5380299
I6258121
tp1076
a(I5380299
I6299604
tp1077
a(I5380299
I6358556
tp1078
a(I5380299
I6419692
tp1079
a(I5720764
I6258115
tp1080
a(I5464650
I5624411
tp1081
a(I5464650
I5674242
tp1082
a(I5464650
I5693085
tp1083
a(I5464650
I5716981
tp1084
a(I5464650
I5824048
tp1085
a(I5464650
I5824049
tp1086
a(I5464650
I5837313
tp1087
a(I5464650
I5865814
tp1088
a(I5464650
I5873904
tp1089
a(I5464650
I5980972
tp1090
a(I5464650
I6096070
tp1091
a(I5464650
I6099562
tp1092
a(I5464650
I6120536
tp1093
a(I5464650
I6153252
tp1094
a(I5464650
I6231600
tp1095
a(I5464650
I6254632
tp1096
a(I5464650
I6258121
tp1097
a(I5464650
I6358556
tp1098
a(I5464650
I6395326
tp1099
a(I5464650
I6419692
tp1100
a(I5464650
I6506437
tp1101
a(I5624411
I5837313
tp1102
a(I5624411
I5843172
tp1103
a(I5624411
I5865814
tp1104
a(I5624411
I5980972
tp1105
a(I5624411
I6071305
tp1106
a(I5624411
I6099562
tp1107
a(I5624411
I6120536
tp1108
a(I5624411
I6231600
tp1109
a(I5624411
I6240616
tp1110
a(I5624411
I6258121
tp1111
a(I5624411
I6273913
tp1112
a(I5624411
I6358556
tp1113
a(I5624411
I6419692
tp1114
a(I5837008
I6231600
tp1115
a(I5837008
I6258121
tp1116
a(I5837008
I6419692
tp1117
a(I5443458
I5824049
tp1118
a(I5443458
I5873904
tp1119
a(I5443458
I6071305
tp1120
a(I5443458
I6096070
tp1121
a(I5443458
I6153252
tp1122
a(I5443458
I6231600
tp1123
a(I5443458
I6258121
tp1124
a(I5443458
I6299604
tp1125
a(I5443458
I6419692
tp1126
a(I5824049
I6299604
tp1127
a(I5873904
I6254632
tp1128
a(I5873904
I6287628
tp1129
a(I5873904
I6299604
tp1130
a(I5873904
I6379381
tp1131
a(I5873904
I6395326
tp1132
a(I5873904
I6506437
tp1133
a(I6096070
I6358556
tp1134
a(I6096070
I6395326
tp1135
a(I5676697
I5824040
tp1136
a(I5733925
I6231600
tp1137
a(I5733925
I6258121
tp1138
a(I5733925
I6419692
tp1139
a(I5833650
I6179859
tp1140
a(I5833650
I6203561
tp1141
a(I5843172
I5972027
tp1142
a(I5843172
I6071305
tp1143
a(I5843172
I6254632
tp1144
a(I5843172
I6273913
tp1145
a(I5843172
I6287628
tp1146
a(I5843172
I6379381
tp1147
a(I5843172
I6506437
tp1148
a(I5591197
I5776161
tp1149
a(I5591197
I6273913
tp1150
a(I6254632
I6506437
tp1151
a(I5800525
I5925063
tp1152
a(I5800525
I6203561
tp1153
a(I5848964
I6171327
tp1154
a(I5941896
I6277139
tp1155
a(I5108420
I5334217
tp1156
a(I5108420
I5411520
tp1157
a(I5108420
I5413571
tp1158
a(I5108420
I5433727
tp1159
a(I5108420
I5451235
tp1160
a(I5108420
I5507744
tp1161
a(I5108420
I5588579
tp1162
a(I5108420
I5634936
tp1163
a(I5108420
I5639008
tp1164
a(I5108420
I5725552
tp1165
a(I5108420
I5797960
tp1166
a(I5108420
I5853422
tp1167
a(I5108420
I5855614
tp1168
a(I5108420
I5879366
tp1169
a(I5108420
I5944738
tp1170
a(I5108420
I6152144
tp1171
a(I5108420
I6290674
tp1172
a(I5108420
I6458153
tp1173
a(I5234437
I5709224
tp1174
a(I5865791
I6152144
tp1175
a(I5865791
I6231561
tp1176
a(I5865791
I6290674
tp1177
a(I5163958
I5344426
tp1178
a(I5163958
I5441515
tp1179
a(I5163958
I5456667
tp1180
a(I5163958
I5458615
tp1181
a(I5163958
I5569295
tp1182
a(I5163958
I5637113
tp1183
a(I5163958
I5700286
tp1184
a(I5163958
I5824040
tp1185
a(I5163958
I5843172
tp1186
a(I5163958
I5972027
tp1187
a(I5163958
I6240616
tp1188
a(I5443497
I5755778
tp1189
a(I5443497
I6190353
tp1190
a(I5489295
I5676697
tp1191
a(I5489295
I5855601
tp1192
a(I5514154
I5776161
tp1193
a(I5514154
I6231600
tp1194
a(I5514154
I6258121
tp1195
a(I5514154
I6419692
tp1196
a(I5332402
I5571215
tp1197
a(I5332402
I5840081
tp1198
a(I5332402
I5855597
tp1199
a(I5332402
I5855601
tp1200
a(I5332402
I6245102
tp1201
a(I5332402
I6458153
tp1202
a(I5332402
I6629534
tp1203
a(I5334217
I5433727
tp1204
a(I5334217
I5725552
tp1205
a(I5334217
I5797960
tp1206
a(I5334217
I5855614
tp1207
a(I5334217
I5879366
tp1208
a(I5334217
I5944738
tp1209
a(I5334217
I6152144
tp1210
a(I5334217
I6458153
tp1211
a(I5554185
I6629534
tp1212
a(I5879366
I6231561
tp1213
a(I5879366
I6290674
tp1214
a(I5195984
I5316023
tp1215
a(I5195984
I5344426
tp1216
a(I5195984
I5354309
tp1217
a(I5195984
I5441515
tp1218
a(I5195984
I5449373
tp1219
a(I5195984
I5456667
tp1220
a(I5195984
I5458615
tp1221
a(I5195984
I5514154
tp1222
a(I5195984
I5569295
tp1223
a(I5195984
I5632772
tp1224
a(I5195984
I5639278
tp1225
a(I5195984
I5649977
tp1226
a(I5195984
I5674242
tp1227
a(I5195984
I5693085
tp1228
a(I5195984
I6165212
tp1229
a(I5195984
I6442413
tp1230
a(I5195984
I6895265
tp1231
a(I5776161
I5855597
tp1232
a(I5366490
I5709224
tp1233
a(I5366490
I5921982
tp1234
a(I5366490
I6190353
tp1235
a(I5370675
I5599345
tp1236
a(I5370675
I5697909
tp1237
a(I5370675
I5807395
tp1238
a(I5370675
I5810764
tp1239
a(I5370675
I5921982
tp1240
a(I5370675
I6056746
tp1241
a(I5370675
I6575969
tp1242
a(I5599345
I6056746
tp1243
a(I5599345
I6575969
tp1244
a(I5350398
I5910154
tp1245
a(I5350398
I5911734
tp1246
a(I5350398
I6027520
tp1247
a(I5350398
I6042598
tp1248
a(I5807395
I5971983
tp1249
a(I5807395
I6012457
tp1250
a(I5807395
I6024740
tp1251
a(I5609629
I5824048
tp1252
a(I5609629
I5865814
tp1253
a(I5609629
I6056993
tp1254
a(I5609629
I6231600
tp1255
a(I5609629
I6258121
tp1256
a(I5609629
I6299604
tp1257
a(I5609629
I6335029
tp1258
a(I5609629
I6419692
tp1259
a(I5433727
I5797960
tp1260
a(I5433727
I5855614
tp1261
a(I5433727
I5879366
tp1262
a(I5433727
I5961440
tp1263
a(I5433727
I6152144
tp1264
a(I5451235
I5725552
tp1265
a(I5451235
I5797960
tp1266
a(I5451235
I5855614
tp1267
a(I5451235
I5944738
tp1268
a(I5451235
I6152144
tp1269
a(I5634936
I5944738
tp1270
a(I5634936
I6113629
tp1271
a(I5634936
I6152144
tp1272
a(I5797960
I6629534
tp1273
a(I5855614
I6629534
tp1274
a(I5769816
I6152946
tp1275
a(I5769816
I6168579
tp1276
a(I5769816
I6179859
tp1277
a(I5769816
I6203561
tp1278
a(I5769816
I6258115
tp1279
a(I5769816
I6277139
tp1280
a(I5669933
I6203561
tp1281
a(I6171327
I6277139
tp1282
a(I5957949
I6458153
tp1283
a(I5925063
I6458153
tp1284
a(dp1285
I5837313
(lp1286
Vcoat
p1287
aVstent
p1288
aVprosthesi
p1289
aVcure
p1290
aVuncur
p1291
aVargon
p1292
aVpretreat
p1293
aVlattic
p1294
aVgamma
p1295
aVsteril
p1296
asI6168579
(lp1297
Vflush
p1298
aVcathet
p1299
aVfilter
p1300
aVlumen
p1301
aVendovascular
p1302
aVembol
p1303
aVguidewir
p1304
aVguid
p1305
aVatherectomi
p1306
aVdistal
p1307
asI5554181
(lp1308
Vstent
p1309
aVexpand
p1310
aVunconstrain
p1311
aVpatenc
p1312
aVwind
p1313
aVunexpand
p1314
aVwavi
p1315
aVself
p1316
aVdiamet
p1317
aVradial
p1318
asI5282823
(lp1319
Vstent
p1320
aVlumen
p1321
aVbodi
p1322
aVcylindr
p1323
aVconform
p1324
aVexpand
p1325
aVpolymer
p1326
aVangioplasti
p1327
aVintravascular
p1328
aVradial
p1329
asI5282824
(lp1330
Vstent
p1331
aVaneurysm
p1332
aVpassageway
p1333
aVsleev
p1334
aVrestenos
p1335
aVtumor
p1336
aVassembl
p1337
aVpostion
p1338
aVbiliari
p1339
aVexpand
p1340
asI5152777
(lp1341
Vemboli
p1342
aVblood
p1343
aVvessel
p1344
aVcomplaint
p1345
aVemplac
p1346
aVentail
p1347
aVprotect
p1348
aVocclus
p1349
aVprevent
p1350
aVtemporarili
p1351
asI5211658
(lp1352
Vblood
p1353
aVtubular
p1354
aVpercutan
p1355
aVskeleton
p1356
aVvessel
p1357
aVstructur
p1358
aVmembran
p1359
aVaneurysm
p1360
aVthin
p1361
aVwall
p1362
asI5092877
(lp1363
Vstent
p1364
aVcircumferenti
p1365
aVexpand
p1366
aVradial
p1367
aVendoprosthes
p1368
aVgeneral
p1369
aVendoprosthesi
p1370
aVsection
p1371
aVimpart
p1372
aVsegment
p1373
asI5971983
(lp1374
Vablat
p1375
aVostia
p1376
aVguidewir
p1377
aVanchor
p1378
aVvein
p1379
aVanatomi
p1380
aVpulmonari
p1381
aVtissu
p1382
aVstiffen
p1383
aVelement
p1384
asI4762128
(lp1385
Vprostat
p1386
aVhypertrophi
p1387
aVstent
p1388
aVgland
p1389
aVurethr
p1390
aVlumen
p1391
aVexpand
p1392
aVtubular
p1393
aVurethra
p1394
aVcathet
p1395
asI5769816
(lp1396
Vblood
p1397
aVmesh
p1398
aVvessel
p1399
aVentrap
p1400
aVfiltrat
p1401
aVfilter
p1402
aVaorta
p1403
aVembol
p1404
aVwithin
p1405
aVcannula
p1406
asI6179859
(lp1407
Vemboli
p1408
aVfiltrat
p1409
aVwire
p1410
aVfilter
p1411
aVguid
p1412
aVelement
p1413
aVdislodg
p1414
aVocclus
p1415
aVrotat
p1416
aVtranslat
p1417
asI4994069
(lp1418
Vvessel
p1419
aVwire
p1420
aVvaso
p1421
aVhelic
p1422
aVocclus
p1423
aVwind
p1424
aVrelax
p1425
aVcoil
p1426
aVcondit
p1427
aVstretch
p1428
asI5329942
(lp1429
Vblood
p1430
aVcathet
p1431
aVvessel
p1432
aVfilter
p1433
aVassembl
p1434
aVreposit
p1435
aVposit
p1436
aVthen
p1437
aVrelock
p1438
aVwithin
p1439
asI4994071
(lp1440
Vstent
p1441
aVvessel
p1442
aVbifurc
p1443
aVimplant
p1444
aVballoon
p1445
aVexpand
p1446
aVdeflat
p1447
aVinsert
p1448
aVwithdrawn
p1449
aVcathet
p1450
asI4922905
(lp1451
Vcathet
p1452
aVendoprosthesi
p1453
aVimplant
p1454
aVradial
p1455
aVexpans
p1456
aVessentailli
p1457
aVplay
p1458
aVretain
p1459
aVaxial
p1460
aVdilat
p1461
asI6358556
(lp1462
Vcoat
p1463
aVstent
p1464
aVprosthesi
p1465
aVcure
p1466
aVuncur
p1467
aVargon
p1468
aVpretreat
p1469
aVlattic
p1470
aVgamma
p1471
aVsteril
p1472
asI4994077
(lp1473
Vblood
p1474
aVheart
p1475
aVvessel
p1476
aVvalv
p1477
aVanchor
p1478
aVartifici
p1479
aVflap
p1480
aVeb
p1481
aVbent
p1482
aVsnag
p1483
asI6056993
(lp1484
Vprosthesi
p1485
aVprothes
p1486
aVporous
p1487
aVfibrous
p1488
aVprecursor
p1489
aVsynthet
p1490
aVwater
p1491
aVsolubl
p1492
aVtubular
p1493
aVinsolubl
p1494
asI5669924
(lp1495
Vstent
p1496
aVbifurc
p1497
aVshuttl
p1498
aVdeploy
p1499
aVvessel
p1500
aVdeliveri
p1501
aVsegment
p1502
aVcathet
p1503
aVbranch
p1504
aVexpand
p1505
asI5733925
(lp1506
Vvascular
p1507
aVmuscl
p1508
aVsmooth
p1509
aVtherapeut
p1510
aVcell
p1511
aVagent
p1512
aVinhibit
p1513
aVdosag
p1514
aVhost
p1515
aVstenosi
p1516
asI6168614
(lp1517
Vapic
p1518
aVvalv
p1519
aVstent
p1520
aVprosthesi
p1521
aVcommissur
p1522
aVimplant
p1523
aVcathet
p1524
aVbodi
p1525
aVcollaps
p1526
aVexpand
p1527
asI5649959
(lp1528
Vpunctur
p1529
aVincis
p1530
aVvessel
p1531
aVpatient
p1532
aVlumen
p1533
aVduct
p1534
aVseal
p1535
aVblood
p1536
aVbioabsorb
p1537
aVgelatin
p1538
asI5824040
(lp1539
Vlumen
p1540
aVtrunk
p1541
aVbranch
p1542
aVendolumin
p1543
aVprosthes
p1544
aVprosthet
p1545
aVexpand
p1546
aVportion
p1547
aValthough
p1548
aVtubular
p1549
asI5824041
(lp1550
Vprosthesi
p1551
aVsheath
p1552
aVcathet
p1553
aVshaft
p1554
aVrecaptur
p1555
aVdistal
p1556
aVintralumin
p1557
aVradial
p1558
aVcompress
p1559
aVelong
p1560
asI5766151
(lp1561
Vcathet
p1562
aVarteri
p1563
aVcardiopleg
p1564
aVheart
p1565
aVballoon
p1566
aVaorta
p1567
aVcoronari
p1568
aVarrest
p1569
aVtip
p1570
aVpatient
p1571
asI5332402
(lp1572
Vpercutan
p1573
aVcardiac
p1574
aVcold
p1575
aVvalv
p1576
aVinsert
p1577
aVtemperatur
p1578
aVheart
p1579
aVsheath
p1580
aVwithdraw
p1581
aVcollaps
p1582
asI4886062
(lp1583
Vstent
p1584
aVimplant
p1585
aVtransluminar
p1586
aVcoronari
p1587
aVexpand
p1588
aVvascular
p1589
aVradial
p1590
aVpatenc
p1591
aVlarger
p1592
aVangioplasti
p1593
asI5071407
(lp1594
Vfixat
p1595
aVelement
p1596
aVcathet
p1597
aVdilat
p1598
aVdistal
p1599
aVdeform
p1600
aVballoon
p1601
aVsurround
p1602
aVsheath
p1603
aVapproach
p1604
asI5824048
(lp1605
Vstent
p1606
aVtherapeut
p1607
aVsubstanc
p1608
aVcoat
p1609
aVlumen
p1610
aVpolym
p1611
aVdexamethason
p1612
aVporous
p1613
aVexpans
p1614
aVdeliv
p1615
asI5824049
(lp1616
Vbioactiv
p1617
aVparylen
p1618
aVmedic
p1619
aVtract
p1620
aVlayer
p1621
aVstructur
p1622
aVporous
p1623
aVbiliari
p1624
aVimplant
p1625
aVvapor
p1626
asI6071305
(lp1627
Vdrug
p1628
aVstent
p1629
aVdeliveri
p1630
aVagent
p1631
aVdirect
p1632
aVreservoir
p1633
aVanti
p1634
aVthrombot
p1635
aVactiv
p1636
aVosmot
p1637
asI6335029
(lp1638
Vbioactiv
p1639
aVlayer
p1640
aVagent
p1641
aVplasma
p1642
aVbarrier
p1643
aVmedic
p1644
aVimplant
p1645
aVpolymer
p1646
aVcomposit
p1647
aVstructur
p1648
asI6231561
(lp1649
Vtissu
p1650
aVcathet
p1651
aVdeploy
p1652
aVanchor
p1653
aVclosur
p1654
aVclose
p1655
aVbodi
p1656
aVcaviti
p1657
aVappendag
p1658
aVatrial
p1659
asI5649977
(lp1660
Vstent
p1661
aVthin
p1662
aVmetal
p1663
aVpolym
p1664
aVsheet
p1665
aVreinforc
p1666
aVplanar
p1667
aVcontract
p1668
aVdrug
p1669
aVblood
p1670
asI5549626
(lp1671
Vcathet
p1672
aVfilter
p1673
aVsyring
p1674
aVcaval
p1675
aVinner
p1676
aVblood
p1677
aVouter
p1678
aVvena
p1679
aVvessel
p1680
aVdistal
p1681
asI5222971
(lp1682
Vstent
p1683
aVvessel
p1684
aVportion
p1685
aVperfus
p1686
aVsize
p1687
aVsupport
p1688
aVtemporari
p1689
aVend
p1690
aVexpand
p1691
aVproxim
p1692
asI5171262
(lp1693
Vendoprosthesi
p1694
aVwoven
p1695
aVstent
p1696
aVnon
p1697
aVstrand
p1698
aVsite
p1699
aVstructur
p1700
aVsomewhat
p1701
aVfrangibl
p1702
aVgeneral
p1703
asI6240616
(lp1704
Vstent
p1705
aVvasculatur
p1706
aVprosthesi
p1707
aVmetal
p1708
aVporous
p1709
aVtherapeut
p1710
aVmedic
p1711
aVagent
p1712
aVmanufactur
p1713
aVpore
p1714
asI5330500
(lp1715
Vstent
p1716
aVstructur
p1717
aVunit
p1718
aVframe
p1719
aVexpand
p1720
aVendovascular
p1721
aVsilicon
p1722
aVzag
p1723
aVzig
p1724
aVcoat
p1725
asI5911734
(lp1726
Vcathet
p1727
aVstent
p1728
aVfilter
p1729
aVvessel
p1730
aVguidewir
p1731
aVpercutan
p1732
aVstenos
p1733
aVblood
p1734
aVaortic
p1735
aVframe
p1736
asI5879366
(lp1737
Vdefect
p1738
aVseptal
p1739
aVexpand
p1740
aVself
p1741
aVfluoropolym
p1742
aVseal
p1743
aVpresent
p1744
aVdevic
p1745
aVcathet
p1746
aVinvent
p1747
asI5797960
(lp1748
Vheart
p1749
aVseptal
p1750
aVmuscular
p1751
aVaccess
p1752
aVpenetr
p1753
aVintercost
p1754
aVdefect
p1755
aVdevic
p1756
aVlumen
p1757
aVtubular
p1758
asI5026377
(lp1759
Vstent
p1760
aVsleev
p1761
aVgrip
p1762
aVinstrument
p1763
aVexpand
p1764
aVself
p1765
aVelong
p1766
aVcanal
p1767
aVouter
p1768
aVsaid
p1769
asI5464650
(lp1770
Vstent
p1771
aVdrug
p1772
aVsolvent
p1773
aVintravascular
p1774
aVpolym
p1775
aVbiostabl
p1776
aVdexamethason
p1777
aVexpans
p1778
aVbioabsorb
p1779
aVsolut
p1780
asI5458615
(lp1781
Vstent
p1782
aVcathet
p1783
aVsheath
p1784
aVlumen
p1785
aVexpand
p1786
aVdeliveri
p1787
aVguidewir
p1788
aVdistal
p1789
aVmember
p1790
aVcone
p1791
asI5810764
(lp1792
Velectrod
p1793
aVresect
p1794
aVtissu
p1795
aVloop
p1796
aVelectrosurg
p1797
aVactiv
p1798
aVresectoscop
p1799
aVportion
p1800
aVorient
p1801
aVcut
p1802
asI5800525
(lp1803
Vfilter
p1804
aVframework
p1805
aVintralumen
p1806
aVdeploy
p1807
aVelast
p1808
aVtubular
p1809
aVbodili
p1810
aVresum
p1811
aVfilament
p1812
aVtrap
p1813
asI5423885
(lp1814
Vstent
p1815
aVprotrus
p1816
aVarteri
p1817
aVexpand
p1818
aVballoon
p1819
aVcathet
p1820
aVbodi
p1821
aVvacat
p1822
aVbioabsorb
p1823
aVapertur
p1824
asI5514154
(lp1825
Vstent
p1826
aVexpand
p1827
aVcylindr
p1828
aVinterconnect
p1829
aVradial
p1830
aVelement
p1831
aVundul
p1832
aVconsist
p1833
aVarteri
p1834
aVribbon
p1835
asI5328471
(lp1836
Vdiseas
p1837
aVlumen
p1838
aVfocal
p1839
aVintroduct
p1840
aVtherapeut
p1841
aVaccomplish
p1842
aVtissu
p1843
aVadvantag
p1844
aVtubular
p1845
aVhollow
p1846
asI6120536
(lp1847
Vthrombogen
p1848
aVcoat
p1849
aVheparin
p1850
aVbiostabl
p1851
aVfluorosilicon
p1852
aVelectroneg
p1853
aVnon
p1854
aVprosthes
p1855
aVelut
p1856
aVpeg
p1857
asI5624411
(lp1858
Vstent
p1859
aVdrug
p1860
aVintravascular
p1861
aVpolym
p1862
aVbiostabl
p1863
aVporous
p1864
aVtherapeut
p1865
aVsubstanc
p1866
aVbioabsorb
p1867
aVoverco
p1868
asI5261916
(lp1869
Vpusher
p1870
aVcoil
p1871
aVkeyway
p1872
aVvasoocclus
p1873
aVenlarg
p1874
aVsleev
p1875
aVassembl
p1876
aVinterlock
p1877
aVmember
p1878
aVdetach
p1879
asI5324304
(lp1880
Vmember
p1881
aVcathet
p1882
aVimplant
p1883
aVretain
p1884
aVanchor
p1885
aVleg
p1886
aVtubular
p1887
aVsheath
p1888
aVdisplac
p1889
aVend
p1890
asI5588579
(lp1891
Vanvil
p1892
aVinstrument
p1893
aVstapler
p1894
aVknife
p1895
aVslope
p1896
aVsurgic
p1897
aVdure
p1898
aVcircular
p1899
aVsever
p1900
aVfasten
p1901
asI5192297
(lp1902
Vstent
p1903
aVcathet
p1904
aVimplant
p1905
aVdilat
p1906
aVguid
p1907
aVballoon
p1908
aVplacement
p1909
aVrout
p1910
aVvessel
p1911
aVwithin
p1912
asI6099562
(lp1913
Vtopcoat
p1914
aVcoat
p1915
aVundercoat
p1916
aVmateri
p1917
aVpolymer
p1918
aVporosigen
p1919
aVbiostabl
p1920
aVbiolog
p1921
aVthrombogen
p1922
aVheparin
p1923
asI5941869
(lp1924
Vstenot
p1925
aVstent
p1926
aVremov
p1927
aVrecan
p1928
aVarteri
p1929
aVmateri
p1930
aVcathet
p1931
aVsens
p1932
aVmechan
p1933
aVrestenos
p1934
asI5639278
(lp1935
Vgraft
p1936
aVendolumin
p1937
aVexpand
p1938
aVbifurc
p1939
aVendoprosthesi
p1940
aVsupport
p1941
aVdiamet
p1942
aVliner
p1943
aVvessel
p1944
aVstenosi
p1945
asI5562728
(lp1946
Vcapsul
p1947
aVgraft
p1948
aVdistal
p1949
aVendovascular
p1950
aVtubular
p1951
aVcathet
p1952
aVproxim
p1953
aVunitari
p1954
aVextrem
p1955
aVwrap
p1956
asI5382259
(lp1957
Vvasoocclus
p1958
aVbraid
p1959
aVwoven
p1960
aVfibrous
p1961
aVtubular
p1962
aVcoil
p1963
aVattach
p1964
aVsegment
p1965
aVonto
p1966
aVfield
p1967
asI5921982
(lp1968
Vtissu
p1969
aVprobe
p1970
aVregion
p1971
aVhous
p1972
aVport
p1973
aVelement
p1974
aVwithin
p1975
aVcannula
p1976
aVablat
p1977
aVend
p1978
asI5669933
(lp1979
Vfilter
p1980
aVlongitudin
p1981
aVblood
p1982
aVexpand
p1983
aVclot
p1984
aVtoward
p1985
aVbasket
p1986
aVaxi
p1987
aVoutward
p1988
aVembolus
p1989
asI6171327
(lp1990
Vfilter
p1991
aVcathet
p1992
aVatraumat
p1993
aVdistal
p1994
aVintravascular
p1995
aVguidewir
p1996
aVhous
p1997
aVretriev
p1998
aVsite
p1999
aVdeliv
p2000
asI5122154
(lp2001
Vsleev
p2002
aVgraft
p2003
aVstent
p2004
aVsection
p2005
aVexpand
p2006
aVstate
p2007
aVlumen
p2008
aVduct
p2009
aVblood
p2010
aVcompact
p2011
asI6277139
(lp2012
Vloop
p2013
aVembol
p2014
aVsheath
p2015
aVguidewir
p2016
aVconic
p2017
aVcathet
p2018
aVdiscontinu
p2019
aVfilter
p2020
aVmateri
p2021
aVdistal
p2022
asI5108420
(lp2023
Vwire
p2024
aVapertur
p2025
aVpreprogram
p2026
aVocclus
p2027
aVconfigur
p2028
aVseptal
p2029
aVbodi
p2030
aVatrial
p2031
aVelong
p2032
aVventricular
p2033
asI5681282
(lp2034
Velectrosurg
p2035
aVarray
p2036
aVprobe
p2037
aVablat
p2038
aVelectrod
p2039
aVdistal
p2040
aVsuppli
p2041
aVmucos
p2042
aVpower
p2043
aVprostat
p2044
asI6161543
(lp2045
Vheart
p2046
aVablat
p2047
aVprobe
p2048
aVelong
p2049
aVepicardi
p2050
aVtissu
p2051
aVhemostat
p2052
aVlesion
p2053
aVshaft
p2054
aVchest
p2055
asI5941896
(lp2056
Vfilter
p2057
aVendovascular
p2058
aVemboli
p2059
aVcathet
p2060
aVguidewir
p2061
aVprocedur
p2062
aVtrap
p2063
aVcollaps
p2064
aVporous
p2065
aVbloodstream
p2066
asI5575818
(lp2067
Vbraid
p2068
aVstent
p2069
aVring
p2070
aVlock
p2071
aVportion
p2072
aVpitch
p2073
aVbarb
p2074
aVangl
p2075
aVendovascular
p2076
aVingrowth
p2077
asI5059211
(lp2078
Vstent
p2079
aVcite
p2080
aVexpand
p2081
aVcathet
p2082
aVarteri
p2083
aVobstruct
p2084
aVstenot
p2085
aVdeliveri
p2086
aVbioabsorb
p2087
aVingrowth
p2088
asI4921484
(lp2089
Vmesh
p2090
aVcathet
p2091
aVtubular
p2092
aVballoon
p2093
aVdistal
p2094
aVend
p2095
aVproxim
p2096
aVtube
p2097
aVinterlac
p2098
aVwoven
p2099
asI5192301
(lp2100
Vplug
p2101
aVclose
p2102
aVdefect
p2103
aVinsert
p2104
aVshape
p2105
aVfacilit
p2106
aVwire
p2107
aVpercutan
p2108
aVdegre
p2109
aVdevic
p2110
asI6558400
(lp2111
Vstomach
p2112
aVgastric
p2113
aVpouch
p2114
aVcalor
p2115
aVtreatment
p2116
aVobes
p2117
aVprocedur
p2118
aVpyloroplasti
p2119
aVdone
p2120
aVmay
p2121
asI5342348
(lp2122
Vbioactiv
p2123
aVlumen
p2124
aVdilat
p2125
aVsubstanc
p2126
aVmatric
p2127
aVdeliveri
p2128
aVstent
p2129
aVfilament
p2130
aVstenosi
p2131
aVerod
p2132
asI5197971
(lp2133
Vretractor
p2134
aVtissu
p2135
aVexpand
p2136
aVarthroscop
p2137
aVsub
p2138
aVpercutan
p2139
aVsurgeon
p2140
aVportal
p2141
aVcannula
p2142
aVagainst
p2143
asI5158548
(lp2144
Vstent
p2145
aVexpand
p2146
aVcathet
p2147
aVdistal
p2148
aVguidewir
p2149
aVsheath
p2150
aVbodi
p2151
aVlumen
p2152
aVcontract
p2153
aVmember
p2154
asI5554185
(lp2155
Vcardiovascular
p2156
aVinflat
p2157
aVvalv
p2158
aVprosthet
p2159
aVintend
p2160
aVtranslumin
p2161
aVassimil
p2162
aVpercutan
p2163
aVdeflat
p2164
aVlumen
p2165
asI5380299
(lp2166
Vthrombolyt
p2167
aVmedic
p2168
aVagent
p2169
aVintravascular
p2170
aVthrombus
p2171
aVdip
p2172
aVvascular
p2173
aVdevic
p2174
aVantithrombogen
p2175
aVmateri
p2176
asI5676697
(lp2177
Vgraft
p2178
aVintralumin
p2179
aVvessel
p2180
aVbifurc
p2181
aVwaist
p2182
aVtrunk
p2183
aVlumen
p2184
aVaneurysm
p2185
aVcollaps
p2186
aVexpand
p2187
asI5197978
(lp2188
Vtissu
p2189
aVexpand
p2190
aVangioplasti
p2191
aVrecover
p2192
aVstent
p2193
aVlike
p2194
aVheat
p2195
aVremov
p2196
aVrecoveri
p2197
aVsupport
p2198
asI5061275
(lp2199
Vprosthesi
p2200
aVbodi
p2201
aVelement
p2202
aVhelix
p2203
aVexpand
p2204
aVthread
p2205
aVtubular
p2206
aVself
p2207
aVdiamet
p2208
aVunload
p2209
asI5449372
(lp2210
Vstent
p2211
aVvessel
p2212
aVperfus
p2213
aVportion
p2214
aVtemporari
p2215
aVcomposit
p2216
aVvasospasm
p2217
aVvasoconstrict
p2218
aVsupport
p2219
aVpatenc
p2220
asI5693085
(lp2221
Vcollagen
p2222
aVstent
p2223
aVbiocompat
p2224
aVvascular
p2225
aVfind
p2226
aVstem
p2227
aVimplant
p2228
aVtreatment
p2229
aVincreas
p2230
aVappli
p2231
asI6629534
(lp2232
Vvalv
p2233
aVatrioventricular
p2234
aVleaflet
p2235
aVrepair
p2236
aVcardiac
p2237
aVmodifi
p2238
aVheart
p2239
aVchorda
p2240
aVtemporarili
p2241
aVpapillari
p2242
asI5507744
(lp2243
Vpunctur
p2244
aVvascular
p2245
aVtissu
p2246
aVseal
p2247
aVthermal
p2248
aVenergi
p2249
aVfuse
p2250
aVocclud
p2251
aVtogeth
p2252
aVclose
p2253
asI6895265
(lp2254
Vglucos
p2255
aVanalyt
p2256
aVblood
p2257
aVimplant
p2258
aVextern
p2259
aVinsulin
p2260
aVsensor
p2261
aVworn
p2262
aVvessel
p2263
aVdisclos
p2264
asI5709224
(lp2265
Vcollaps
p2266
aVvessel
p2267
aVblood
p2268
aVocclus
p2269
aVlumen
p2270
aVmonopolar
p2271
aVspreadabl
p2272
aVmechan
p2273
aVradiofrequ
p2274
aVappli
p2275
asI5458597
(lp2276
Vtissu
p2277
aVfluid
p2278
aVelectrod
p2279
aVdistribut
p2280
aVstylet
p2281
aVport
p2282
aVmalign
p2283
aVtreat
p2284
aVbodi
p2285
aVcapsul
p2286
asI5599345
(lp2287
Vneedl
p2288
aVelectrod
p2289
aVlumen
p2290
aVcathet
p2291
aVintroduc
p2292
aVsensor
p2293
aVdistal
p2294
aVslidabl
p2295
aVpower
p2296
aVposit
p2297
asI6203561
(lp2298
Vvascular
p2299
aVhoop
p2300
aVthrombectomi
p2301
aVthrombus
p2302
aVsac
p2303
aVpermeabl
p2304
aVblood
p2305
aVfilter
p2306
aVsupport
p2307
aVemboli
p2308
asI5344426
(lp2309
Vstent
p2310
aVexpand
p2311
aVcathet
p2312
aVdistal
p2313
aVguidewir
p2314
aVsheath
p2315
aVbodi
p2316
aVlumen
p2317
aVcontract
p2318
aVmember
p2319
asI5925063
(lp2320
Vflap
p2321
aVbiocompat
p2322
aVinterior
p2323
aVlumen
p2324
aVsheet
p2325
aVdeploy
p2326
aVtranslumin
p2327
aVinward
p2328
aVcoil
p2329
aVradial
p2330
asI5195984
(lp2331
Vgraft
p2332
aVexpand
p2333
aVintralumin
p2334
aVtubular
p2335
aVblood
p2336
aVmember
p2337
aVvessel
p2338
aVangioplasti
p2339
aVdilat
p2340
aVlongitudin
p2341
asI5135536
(lp2342
Vstent
p2343
aVwire
p2344
aVendovascular
p2345
aVdiamet
p2346
aVballoon
p2347
aVmandrel
p2348
aVcathet
p2349
aVbent
p2350
aVjunction
p2351
aVtight
p2352
asI5667523
(lp2353
Vgraft
p2354
aVstent
p2355
aVintralumin
p2356
aVptfe
p2357
aVsupport
p2358
aVstructur
p2359
aVinsepar
p2360
aVdual
p2361
aVconcentr
p2362
aVlayer
p2363
asI5507767
(lp2364
Vstent
p2365
aVzigzag
p2366
aVbend
p2367
aVpattern
p2368
aVpassageway
p2369
aVstraight
p2370
aVwire
p2371
aVhelix
p2372
aVexpand
p2373
aVtubular
p2374
asI5507769
(lp2375
Vgraftstent
p2376
aVcephal
p2377
aVvessel
p2378
aVendolumin
p2379
aVaneurysm
p2380
aVbranch
p2381
aVblood
p2382
aVstent
p2383
aVcomplex
p2384
aVcommon
p2385
asI5810874
(lp2386
Vcathet
p2387
aVbasic
p2388
aVdistal
p2389
aVfilter
p2390
aVstrip
p2391
aVend
p2392
aVbodi
p2393
aVtemporari
p2394
aVconnect
p2395
aVcircumfer
p2396
asI5720764
(lp2397
Vsleev
p2398
aVcathet
p2399
aVguid
p2400
aVcava
p2401
aVwire
p2402
aVvena
p2403
aVthrombus
p2404
aVvein
p2405
aVflexibl
p2406
aVtube
p2407
asI5700286
(lp2408
Vstent
p2409
aVlubrici
p2410
aVexpand
p2411
aVwrap
p2412
aVpolyethylen
p2413
aVstructur
p2414
aVmateri
p2415
aVpolyvinyl
p2416
aVpolymer
p2417
aVmember
p2418
asI6379381
(lp2419
Vdepot
p2420
aVprosthesi
p2421
aVsubstanc
p2422
aVpore
p2423
aVpreselect
p2424
aVshape
p2425
aVtherapeut
p2426
aVpolymer
p2427
aVradiopaqu
p2428
aVcylindr
p2429
asI5108416
(lp2430
Vstent
p2431
aVballoon
p2432
aVcathet
p2433
aVinflat
p2434
aVstenosi
p2435
aVexpand
p2436
aVpatient
p2437
aVintroduc
p2438
aVretain
p2439
aVdeflat
p2440
asI5405377
(lp2441
Vstent
p2442
aVintralumin
p2443
aVapic
p2444
aVzag
p2445
aVzig
p2446
aVcompress
p2447
aVwire
p2448
aVhelix
p2449
aVimplant
p2450
aVconfigur
p2451
asI5108419
(lp2452
Varteri
p2453
aVfilter
p2454
aVstenosi
p2455
aVendovascular
p2456
aVplaqu
p2457
aVblood
p2458
aVelement
p2459
aVstock
p2460
aVmouth
p2461
aVparticl
p2462
asI5591197
(lp2463
Vstent
p2464
aVlumen
p2465
aVbarb
p2466
aVintralumin
p2467
aVbodi
p2468
aVproject
p2469
aVimplant
p2470
aVunexpand
p2471
aVexpand
p2472
aVdiamet
p2473
asI6096070
(lp2474
Vbioactiv
p2475
aVparylen
p2476
aVmedic
p2477
aVtract
p2478
aVlayer
p2479
aVstructur
p2480
aVporous
p2481
aVbiliari
p2482
aVimplant
p2483
aVvapor
p2484
asI5776161
(lp2485
Vstent
p2486
aVexpans
p2487
aVexpand
p2488
aVstrain
p2489
aVminim
p2490
aVlongitudin
p2491
aVflexibl
p2492
aVtube
p2493
aVfilm
p2494
aVballoon
p2495
asI5334217
(lp2496
Vdisk
p2497
aVdefect
p2498
aVseptal
p2499
aVmembran
p2500
aVcathet
p2501
aVconjoint
p2502
aVtaut
p2503
aVclosur
p2504
aVocclud
p2505
aVelast
p2506
asI4990155
(lp2507
Vstent
p2508
aVcoil
p2509
aVdiamet
p2510
aVvessel
p2511
aVdeliveri
p2512
aVrestenosi
p2513
aVarteri
p2514
aVgiven
p2515
aVinher
p2516
aVsubstanti
p2517
asI4966604
(lp2518
Vtorqu
p2519
aVblade
p2520
aVtip
p2521
aVbow
p2522
aVtube
p2523
aVexpand
p2524
aVflexibl
p2525
aVatherectomi
p2526
aVoutward
p2527
aVdesmodrom
p2528
asI5366478
(lp2529
Vendoscop
p2530
aVabdomin
p2531
aVtoroid
p2532
aVseal
p2533
aVlumen
p2534
aVsurgic
p2535
aVinflat
p2536
aVinstrument
p2537
aVsection
p2538
aVhand
p2539
asI5078736
(lp2540
Vdisrupt
p2541
aVpatenc
p2542
aVexcis
p2543
aVpassag
p2544
aVgrowth
p2545
aVradio
p2546
aVmechan
p2547
aVcellular
p2548
aVmesh
p2549
aVfrequenc
p2550
asI5840081
(lp2551
Vapic
p2552
aVvalv
p2553
aVstent
p2554
aVcommissur
p2555
aVimplant
p2556
aVprosthesi
p2557
aVcardiac
p2558
aVcathet
p2559
aVcollaps
p2560
aVexpand
p2561
asI4950227
(lp2562
Vstent
p2563
aVcathet
p2564
aVcontract
p2565
aVmargin
p2566
aVexpans
p2567
aVexpand
p2568
aVstate
p2569
aVcondit
p2570
aVdistal
p2571
aVsleev
p2572
asI5383892
(lp2573
Vstent
p2574
aVaxial
p2575
aVcylindr
p2576
aVpart
p2577
aVrigid
p2578
aVflexibl
p2579
aVtranslumin
p2580
aVexpand
p2581
aVjuxtaposit
p2582
aVradial
p2583
asI5015253
(lp2584
Vendoprosthesi
p2585
aVwoven
p2586
aVstent
p2587
aVnon
p2588
aVstrand
p2589
aVsite
p2590
aVstructur
p2591
aVsomewhat
p2592
aVfrangibl
p2593
aVgeneral
p2594
asI6273913
(lp2595
Vstent
p2596
aVrestenosi
p2597
aVneointim
p2598
aVrapamycin
p2599
aVinhibit
p2600
aVdeliveri
p2601
aVintravascular
p2602
aVmicropor
p2603
aVprolifer
p2604
aVstrut
p2605
asI6024740
(lp2606
sI5366490
(lp2607
Vstylet
p2608
aVtissu
p2609
aVcathet
p2610
aVport
p2611
aVconductor
p2612
aVtarget
p2613
aVprobe
p2614
aVguid
p2615
aVinterven
p2616
aVlumen
p2617
asI6165212
(lp2618
Vgraft
p2619
aVexpand
p2620
aVendolumin
p2621
aVendoprosthesi
p2622
aVliner
p2623
aVdiamet
p2624
aVelastomer
p2625
aVsupport
p2626
aVstenosi
p2627
aVbifurc
p2628
asI6325797
(lp2629
Vcathet
p2630
aVostium
p2631
aVvessel
p2632
aVvein
p2633
aVpulmonari
p2634
aVportion
p2635
aVablat
p2636
aVloop
p2637
aVisol
p2638
aVintermedi
p2639
asI5961440
(lp2640
Vheart
p2641
aVtension
p2642
aVwall
p2643
aVapparatus
p2644
aVfail
p2645
aVdraw
p2646
aVreduct
p2647
aVtreatment
p2648
aVtherein
p2649
aVtoward
p2650
asI5837008
(lp2651
Vstent
p2652
aVdrug
p2653
aVsolvent
p2654
aVintravascular
p2655
aVpolym
p2656
aVbiostabl
p2657
aVdexamethason
p2658
aVexpans
p2659
aVbioabsorb
p2660
aVsolut
p2661
asI5843172
(lp2662
Vstent
p2663
aVvasculatur
p2664
aVmedic
p2665
aVpore
p2666
aVmetal
p2667
aVdiseas
p2668
aVdeploy
p2669
aVporous
p2670
aVsite
p2671
aVdeliv
p2672
asI5366504
(lp2673
Vprosthesi
p2674
aVstrand
p2675
aVtubular
p2676
aVknit
p2677
aVlumen
p2678
aVloop
p2679
aVmateri
p2680
aVwall
p2681
aVloos
p2682
aVshape
p2683
asI5147370
(lp2684
Vstent
p2685
aVplacement
p2686
aVmandril
p2687
aVnitinol
p2688
aVmaniupl
p2689
aVshape
p2690
aVradiologist
p2691
aVdevic
p2692
aVhollow
p2693
aVend
p2694
asI6419692
(lp2695
Vcoat
p2696
aVballoon
p2697
aVportion
p2698
aVlumen
p2699
aVbodi
p2700
aVdrug
p2701
aVelut
p2702
aVtherapeut
p2703
aVsubstanc
p2704
aVmedic
p2705
asI5799661
(lp2706
Varteri
p2707
aVgraft
p2708
aVcabg
p2709
aVcoronari
p2710
aVretractor
p2711
aVport
p2712
aVmultivessel
p2713
aVaccess
p2714
aVchest
p2715
aVintercost
p2716
asI5853422
(lp2717
Vseptal
p2718
aVcathet
p2719
aVstrut
p2720
aVdefect
p2721
aVgrowth
p2722
aVfactor
p2723
aVmitogen
p2724
aVdevic
p2725
aVtissu
p2726
aVingrowth
p2727
asI5873904
(lp2728
Vbioactiv
p2729
aVsilver
p2730
aVparylen
p2731
aVmedic
p2732
aVtract
p2733
aVimplant
p2734
aVmateri
p2735
aVstent
p2736
aVlayer
p2737
aVstructur
p2738
asI6254632
(lp2739
Vprotrud
p2740
aVstent
p2741
aVstructur
p2742
aVovular
p2743
aVcan
p2744
aVcover
p2745
aVsubstanc
p2746
aVmedic
p2747
aVimplant
p2748
aVgrit
p2749
asI6152946
(lp2750
Vvessel
p2751
aVdeploy
p2752
aVcollaps
p2753
aVprofil
p2754
aVdebri
p2755
aVbodi
p2756
aVfilter
p2757
aVtaper
p2758
aVfloat
p2759
aVemboli
p2760
asI5064435
(lp2761
Vstent
p2762
aVsegment
p2763
aVaxial
p2764
aVcontract
p2765
aVlength
p2766
aVexpand
p2767
aVfixat
p2768
aVradial
p2769
aVopposit
p2770
aVoverlap
p2771
asI5609627
(lp2772
Vendolumin
p2773
aVbifurc
p2774
aVprosthesi
p2775
aVdeliv
p2776
aVmethod
p2777
aVfor
p2778
asI6012457
(lp2779
sI5683451
(lp2780
Vprosthesi
p2781
aVrunner
p2782
aVretract
p2783
aVcover
p2784
aVcathet
p2785
aVhard
p2786
aVtubular
p2787
aVintralumin
p2788
aVproxim
p2789
aVprosthes
p2790
asI5827324
(lp2791
Vemboli
p2792
aVguidewir
p2793
aVcaptur
p2794
aVexpand
p2795
aVlumen
p2796
aVdistal
p2797
aVvasculatur
p2798
aVmember
p2799
aVcoupl
p2800
aVdeploy
p2801
asI5545214
(lp2802
Vvalv
p2803
aVendovascular
p2804
aVreplac
p2805
aVprosthet
p2806
aVheart
p2807
aVprocedur
p2808
aVintralumin
p2809
aVaortic
p2810
aVmalfunct
p2811
aVcapsul
p2812
asI6027520
(lp2813
Vcathet
p2814
aVstent
p2815
aVfilter
p2816
aVvessel
p2817
aVguidewir
p2818
aVpercutan
p2819
aVstenos
p2820
aVblood
p2821
aVaortic
p2822
aVframe
p2823
asI5674242
(lp2824
Vendoprosthet
p2825
aVcoexpans
p2826
aVpolym
p2827
aVstimulus
p2828
aVmember
p2829
aVtherapeut
p2830
aVexpos
p2831
aVvascular
p2832
aVdevic
p2833
aVcompound
p2834
asI5632772
(lp2835
Vgraft
p2836
aVendolumin
p2837
aVexpand
p2838
aVendoprosthesi
p2839
aVbranch
p2840
aVsupport
p2841
aVdiamet
p2842
aVvessel
p2843
aVstenosi
p2844
aVcompon
p2845
asI5234437
(lp2846
Vpusher
p2847
aVcoil
p2848
aVvasoocclus
p2849
aVdetach
p2850
aVdistal
p2851
aVthread
p2852
aVassembl
p2853
aVsite
p2854
aVend
p2855
aVproxim
p2856
asI6287628
(lp2857
Vprosthesi
p2858
aVsubstanc
p2859
aVfluid
p2860
aVporous
p2861
aVpore
p2862
aVapplic
p2863
aVpenetr
p2864
aVcapabl
p2865
aVperturb
p2866
aVthird
p2867
asI5108407
(lp2868
Vembol
p2869
aVconnector
p2870
aVtherapeut
p2871
aVcabl
p2872
aVprobe
p2873
aVcrimp
p2874
aVcoil
p2875
aVheat
p2876
aVadhes
p2877
aVfiber
p2878
asI5569295
(lp2879
Vstent
p2880
aVexpand
p2881
aVradial
p2882
aVexpans
p2883
aVcylindr
p2884
aVinterconnect
p2885
aVserpentin
p2886
aVlongitudin
p2887
aVarteri
p2888
aVgeneral
p2889
asI6190353
(lp2890
Vextravascular
p2891
aVvascular
p2892
aVpassageway
p2893
aVrevascular
p2894
aVprocedur
p2895
aVblood
p2896
aVintracorpor
p2897
aVmedic
p2898
aVnon
p2899
aVperform
p2900
asI5104404
(lp2901
Vstent
p2902
aVsegment
p2903
aVarticul
p2904
aVhing
p2905
aVwire
p2906
aVarteri
p2907
aVweld
p2908
aVnecessari
p2909
aVbetween
p2910
aVadjac
p2911
asI6042875
(lp2912
Vdrug
p2913
aVionic
p2914
aVmedic
p2915
aVcoat
p2916
aVsurfact
p2917
aVpharmacolog
p2918
aVlayer
p2919
aVreleas
p2920
aVvacant
p2921
aVbound
p2922
asI5234456
(lp2923
Vhollow
p2924
aVstent
p2925
aVwall
p2926
aVhydrophil
p2927
aVplacement
p2928
aVmembran
p2929
aVswell
p2930
aVinflat
p2931
aVsite
p2932
aVcan
p2933
asI5234457
(lp2934
Vstent
p2935
aVimpregn
p2936
aVdissolv
p2937
aVcompact
p2938
aVvessel
p2939
aVdeliveri
p2940
aVmateri
p2941
aVliquid
p2942
aVassembl
p2943
aVit
p2944
asI5456667
(lp2945
Vcathet
p2946
aVexpand
p2947
aVarteri
p2948
aVvascular
p2949
aVfluid
p2950
aVprocedur
p2951
aVregion
p2952
aVangioplasti
p2953
aVpiec
p2954
aVintravascular
p2955
asI5411520
(lp2956
Vpunctur
p2957
aVtract
p2958
aVanchor
p2959
aVplug
p2960
aVclosur
p2961
aVintroduc
p2962
aVdome
p2963
aVcarrier
p2964
aVvessel
p2965
aVhemostat
p2966
asI5370657
(lp2967
Vthrombosi
p2968
aVvein
p2969
aVfilter
p2970
aVendoven
p2971
aVneointima
p2972
aVimpal
p2973
aVwall
p2974
aVcore
p2975
aVrecover
p2976
aVunit
p2977
asI5807395
(lp2978
Vtissu
p2979
aVneedl
p2980
aVcathet
p2981
aVablat
p2982
aVelectrod
p2983
aVtreat
p2984
aVhypertherm
p2985
aVinfus
p2986
aVhyperthermia
p2987
aVhollow
p2988
asI5800457
(lp2989
Vfilter
p2990
aVintravascular
p2991
aVdownstream
p2992
aVbodi
p2993
aVdebri
p2994
aVtaper
p2995
aVinstrument
p2996
aVbevel
p2997
aVend
p2998
aVport
p2999
asI5755778
(lp3000
Vanastomosi
p3001
aVvessel
p3002
aVbodi
p3003
aVmember
p3004
aVlumin
p3005
aVbio
p3006
aVimpervi
p3007
aVtwo
p3008
aVwall
p3009
aVgraft
p3010
asI5679400
(lp3011
Vstent
p3012
aVdrug
p3013
aVsolvent
p3014
aVintravascular
p3015
aVpolym
p3016
aVbiostabl
p3017
aVdexamethason
p3018
aVexpans
p3019
aVbioabsorb
p3020
aVsolut
p3021
asI5527337
(lp3022
Vbioabsorb
p3023
aVstent
p3024
aVstenot
p3025
aVencapsul
p3026
aVdisadvantag
p3027
aVchronic
p3028
aVaneur
p3029
aVblood
p3030
aVvessel
p3031
aVimplant
p3032
asI6056746
(lp3033
Velectrod
p3034
aVelectrosurg
p3035
aVexpos
p3036
aVreturn
p3037
aVinsul
p3038
aVinstrument
p3039
aVfluid
p3040
aVactiv
p3041
aVtreatment
p3042
aVconduct
p3043
asI5292331
(lp3044
Vendovascular
p3045
aVvessel
p3046
aVwirelik
p3047
aVaffect
p3048
aVrestenosi
p3049
aVcoronari
p3050
aVsupport
p3051
aVchronic
p3052
aVvascular
p3053
aVdevic
p3054
asI5980972
(lp3055
Vdrug
p3056
aVsolvent
p3057
aVcoat
p3058
aVpolym
p3059
aVcan
p3060
aVsystem
p3061
aVappli
p3062
aVdissolv
p3063
aVspray
p3064
aVsuspend
p3065
asI6458153
(lp3066
Vvenous
p3067
aVprosthet
p3068
aVcardiac
p3069
aVvalvuloplasti
p3070
aVvalv
p3071
aVtranslumin
p3072
aVendolumin
p3073
aVprosthes
p3074
aVpercutan
p3075
aVinvas
p3076
asI5609629
(lp3077
Vdexamethason
p3078
aVbioactiv
p3079
aVheparin
p3080
aVlayer
p3081
aVparylen
p3082
aVmateri
p3083
aVtract
p3084
aVporous
p3085
aVbiliari
p3086
aVmedic
p3087
asI5389106
(lp3088
Vsection
p3089
aVexpand
p3090
aVcircumferenti
p3091
aVstent
p3092
aVimperm
p3093
aVintravascular
p3094
aVradial
p3095
aVframe
p3096
aVmembran
p3097
aVexpans
p3098
asI4830003
(lp3099
Vstent
p3100
aVwire
p3101
aVcathet
p3102
aVweld
p3103
aVrestenosi
p3104
aVcompress
p3105
aVbiocompat
p3106
aVarteri
p3107
aVacut
p3108
aVpair
p3109
asI5413571
(lp3110
Vincis
p3111
aVhemostat
p3112
aVseal
p3113
aVpatient
p3114
aVballoon
p3115
aVmember
p3116
aVbioabsorb
p3117
aVbodi
p3118
aVdevic
p3119
aVcollagen
p3120
asI6113629
(lp3121
sI5354295
(lp3122
Vmicrocathet
p3123
aVtip
p3124
aVcaviti
p3125
aVendovascular
p3126
aVwire
p3127
aVvascular
p3128
aVpack
p3129
aVblood
p3130
aVocclus
p3131
aVarteri
p3132
asI5776184
(lp3133
Vdrug
p3134
aVstent
p3135
aVintravasoular
p3136
aVpolym
p3137
aVbiostabl
p3138
aVbioabsorb
p3139
aVintim
p3140
aVlumen
p3141
aVadministr
p3142
aVtherapeut
p3143
asI5360443
(lp3144
Vaortic
p3145
aVgraft
p3146
aVaorta
p3147
aVaneurysm
p3148
aVabdomin
p3149
aVrepair
p3150
aVtubular
p3151
aVintralumin
p3152
aVexpans
p3153
aVdeform
p3154
asI5370685
(lp3155
Vvalv
p3156
aVendovascular
p3157
aVreplac
p3158
aVprosthet
p3159
aVheart
p3160
aVprocedur
p3161
aVintralumin
p3162
aVaortic
p3163
aVmalfunct
p3164
aVcapsul
p3165
asI5865791
(lp3166
Vappendag
p3167
aVatrial
p3168
aVreposit
p3169
aVloop
p3170
aVdevic
p3171
aVperimet
p3172
aVstasi
p3173
aVdeploy
p3174
aVaffect
p3175
aVcarri
p3176
asI5605696
(lp3177
Vdrug
p3178
aVstent
p3179
aVtherapeut
p3180
aVpolymer
p3181
aVmateri
p3182
aVload
p3183
aVcoextrus
p3184
aVincorpor
p3185
aVintravascular
p3186
aVlayer
p3187
asI5354308
(lp3188
Vframe
p3189
aVstent
p3190
aVcondit
p3191
aVassum
p3192
aVsubstanti
p3193
aVskelet
p3194
aVdevoid
p3195
aVwire
p3196
aVwall
p3197
aVadapt
p3198
asI5354309
(lp3199
Vwiden
p3200
aVstenosi
p3201
aVtemperatur
p3202
aVcontour
p3203
aVuret
p3204
aVtransit
p3205
aVbile
p3206
aVbodi
p3207
aVcaviti
p3208
aVcylindr
p3209
asI5780807
(lp3210
Vstent
p3211
aVcut
p3212
aVtube
p3213
aVexpand
p3214
aVlaser
p3215
aVelement
p3216
aVcylindr
p3217
aVinterconnect
p3218
aVradial
p3219
aVundul
p3220
asI4907336
(lp3221
Vwire
p3222
aVcylindr
p3223
aVtrough
p3224
aVserpentin
p3225
aVstent
p3226
aVbar
p3227
aVloop
p3228
aVexpos
p3229
aVshape
p3230
aVcathet
p3231
asI5456713
(lp3232
Vgraft
p3233
aVprothesi
p3234
aVprosthesi
p3235
aVtranslumin
p3236
aVlumen
p3237
aVprosthei
p3238
aVtubular
p3239
aVapertur
p3240
aVcarrier
p3241
aVsheath
p3242
asI4820298
(lp3243
Vhelix
p3244
aVstylet
p3245
aVbodi
p3246
aVassum
p3247
aVmedic
p3248
aVingrowth
p3249
aVtubular
p3250
aVaneurysm
p3251
aVclot
p3252
aVdilat
p3253
asI5534007
(lp3254
Vstent
p3255
aVsheath
p3256
aVcathet
p3257
aVdistal
p3258
aVdeliveri
p3259
aVcollaps
p3260
aVretract
p3261
aVpull
p3262
aVproxim
p3263
aVconcentr
p3264
asI5451235
(lp3265
Vocclud
p3266
aVvascular
p3267
aVdefect
p3268
aVseptal
p3269
aVintracardiac
p3270
aVtranslumin
p3271
aVfluoroscop
p3272
aVpercutan
p3273
aVocclus
p3274
aVcardiac
p3275
asI5865814
(lp3276
Vheparin
p3277
aVblood
p3278
aVcontact
p3279
aVcoat
p3280
aVbiostabl
p3281
aVporous
p3282
aVmedic
p3283
aVbioabsorb
p3284
aVpolym
p3285
aVoverlaid
p3286
asI5489295
(lp3287
Vbifurc
p3288
aVleg
p3289
aVmain
p3290
aVbodi
p3291
aVgraft
p3292
aVopen
p3293
aVexpand
p3294
aVendovascular
p3295
aVtubular
p3296
aVsaid
p3297
asI5201757
(lp3298
Vstent
p3299
aVsleev
p3300
aVcathet
p3301
aVmedial
p3302
aVradial
p3303
aVaxial
p3304
aVanoth
p3305
aVexpand
p3306
aVself
p3307
aVregion
p3308
asI6153252
(lp3309
Vstent
p3310
aVbiocompat
p3311
aVcoat
p3312
aVpassag
p3313
aVpolym
p3314
aVfilm
p3315
aVblockag
p3316
aVprocess
p3317
aVsaid
p3318
aVbridg
p3319
asI5639008
(lp3320
Vanvil
p3321
aVinstrument
p3322
aVstapler
p3323
aVknife
p3324
aVslope
p3325
aVsurgic
p3326
aVdure
p3327
aVcircular
p3328
aVsever
p3329
aVfasten
p3330
asI6575969
(lp3331
Vcool
p3332
aVablat
p3333
aVradiofrequ
p3334
aVtip
p3335
aVelectrod
p3336
aVwill
p3337
aVfrequenc
p3338
aVpatent
p3339
aVworkstion
p3340
aVmonitor
p3341
asI5972027
(lp3342
Vstent
p3343
aVdrug
p3344
aVcast
p3345
aVporous
p3346
aVpowder
p3347
aVintralumin
p3348
aVpolym
p3349
aVtreatment
p3350
aVporos
p3351
aVpore
p3352
asI6042598
(lp3353
Vcathet
p3354
aVstent
p3355
aVvessel
p3356
aVfilter
p3357
aVstenos
p3358
aVblood
p3359
aVaortic
p3360
aVembol
p3361
aVframe
p3362
aVguidewir
p3363
asI5540712
(lp3364
Vframe
p3365
aVstent
p3366
aVcondit
p3367
aVassum
p3368
aVsubstanti
p3369
aVskelet
p3370
aVdevoid
p3371
aVwall
p3372
aVadapt
p3373
aVconfigur
p3374
asI6290674
(lp3375
Vseptal
p3376
aVatrial
p3377
aVtissu
p3378
aVforeman
p3379
aVcathet
p3380
aVdefect
p3381
aVclosur
p3382
aVintracardiac
p3383
aVclose
p3384
aVappendag
p3385
asI5957949
(lp3386
Vartifici
p3387
aVgraft
p3388
aVvalv
p3389
aVballoon
p3390
aVcathet
p3391
aVpassag
p3392
aVmicroembol
p3393
aVtissu
p3394
aVstent
p3395
aVtubular
p3396
asI5725552
(lp3397
Vfabric
p3398
aVmedic
p3399
aVmetal
p3400
aVmold
p3401
aVcathet
p3402
aVdeform
p3403
aVintravascular
p3404
aVdevic
p3405
aVpercutan
p3406
aVelement
p3407
asI5855601
(lp3408
Vstent
p3409
aVvalv
p3410
aVleaflet
p3411
aVmember
p3412
aVcylindr
p3413
aVcircular
p3414
aVartifici
p3415
aVheart
p3416
aVshape
p3417
aVdiamet
p3418
asI5037427
(lp3419
Vinstrument
p3420
aVtubular
p3421
aVorgan
p3422
aVcathet
p3423
aVexpand
p3424
aVmount
p3425
aVwithin
p3426
aVshrink
p3427
aVstent
p3428
aVsaid
p3429
asI5628788
(lp3430
Vstent
p3431
aVgraft
p3432
aVelastomer
p3433
aVtubular
p3434
aVadhes
p3435
aVdeform
p3436
aVendolumin
p3437
aVexpand
p3438
aVmateri
p3439
aVself
p3440
asI5697909
(lp3441
sI5634936
(lp3442
Vdefect
p3443
aVseptal
p3444
aVharden
p3445
aVcathet
p3446
aVtissu
p3447
aVprecipit
p3448
aVgrowth
p3449
aVfactor
p3450
aVmitogen
p3451
aVingrowth
p3452
asI6231600
(lp3453
Vcoat
p3454
aVheparin
p3455
aVstent
p3456
aVcrosslink
p3457
aVclot
p3458
aVpolym
p3459
aVagent
p3460
aVrestenosi
p3461
aVpacitaxel
p3462
aVinhibit
p3463
asI5431676
(lp3464
Vdilat
p3465
aVtrocar
p3466
aVbraid
p3467
aVexpans
p3468
aVlumen
p3469
aVabdomen
p3470
aVlaparoscop
p3471
aVpercutan
p3472
aVmember
p3473
aVexpand
p3474
asI5855614
(lp3475
Vheart
p3476
aVseptal
p3477
aVmuscular
p3478
aVaccess
p3479
aVpenetr
p3480
aVintercost
p3481
aVdefect
p3482
aVdevic
p3483
aVlumen
p3484
aVtubular
p3485
asI5433727
(lp3486
Vocclud
p3487
aVdefect
p3488
aVbutton
p3489
aVseptal
p3490
aVcenter
p3491
aVatrial
p3492
aVcounter
p3493
aVocclus
p3494
aVlarg
p3495
aVheart
p3496
asI5151105
(lp3497
Vsleev
p3498
aVtack
p3499
aVaorta
p3500
aVcollaps
p3501
aVaneurysm
p3502
aVbarb
p3503
aVarteri
p3504
aVimplant
p3505
aVfemor
p3506
aVthroacic
p3507
asI5443458
(lp3508
Vstent
p3509
aVmultilay
p3510
aVdrug
p3511
aVlayer
p3512
aVresorb
p3513
aVeventu
p3514
aVreleas
p3515
aVbiodegrad
p3516
aVpredict
p3517
aVstructur
p3518
asI5421955
(lp3519
Vstent
p3520
aVtube
p3521
aVexpand
p3522
aVcoat
p3523
aVpattern
p3524
aVremov
p3525
aVcylindr
p3526
aVinterconnect
p3527
aVradial
p3528
aVexpos
p3529
asI5848964
(lp3530
Vcuff
p3531
aVcava
p3532
aVvena
p3533
aVlumen
p3534
aVinflat
p3535
aVcathet
p3536
aVfilter
p3537
aVfilament
p3538
aVguidewir
p3539
aVcentral
p3540
asI5100423
(lp3541
Vbasket
p3542
aVwire
p3543
aVvessel
p3544
aVcut
p3545
aVobstruct
p3546
aVsheath
p3547
aVcathet
p3548
aVshaft
p3549
aVablat
p3550
aVintima
p3551
asI4998539
(lp3552
Varteri
p3553
aVcuff
p3554
aVendo
p3555
aVrepair
p3556
aVdetach
p3557
aVballoon
p3558
aVwal
p3559
aVwire
p3560
aVcathet
p3561
aVinflat
p3562
asI5571215
(lp3563
Vchest
p3564
aVintercost
p3565
aVpatient
p3566
aVpenetr
p3567
aVheart
p3568
aVpercutan
p3569
aVintern
p3570
aVintervent
p3571
aVvessel
p3572
aVmitral
p3573
asI6245102
(lp3574
Vstent
p3575
aVstar
p3576
aVgraft
p3577
aVshape
p3578
aVchain
p3579
aVinterconnect
p3580
aVmember
p3581
aVpoint
p3582
aVinward
p3583
aVreplac
p3584
asI5160342
(lp3585
Varteri
p3586
aVfilter
p3587
aVstenosi
p3588
aVendovascular
p3589
aVplaqu
p3590
aVblood
p3591
aVelement
p3592
aVstock
p3593
aVmouth
p3594
aVparticl
p3595
asI5855597
(lp3596
Vstar
p3597
aVstent
p3598
aVcuspid
p3599
aVvalv
p3600
aVshape
p3601
aVaortic
p3602
aVchain
p3603
aVtri
p3604
aVreplac
p3605
aVgraft
p3606
asI5250071
(lp3607
Vembol
p3608
aVcoil
p3609
aVcathet
p3610
aVclasp
p3611
aVinterlock
p3612
aVvasculatur
p3613
aVwire
p3614
aVuncoupl
p3615
aVbodi
p3616
aVsurgic
p3617
asI5370675
(lp3618
Vstylet
p3619
aVcathet
p3620
aVtissu
p3621
aVport
p3622
aVguid
p3623
aVconductor
p3624
aVtarget
p3625
aVprobe
p3626
aVinterven
p3627
aVcan
p3628
asI5304220
(lp3629
Vgraft
p3630
aVblood
p3631
aVvessel
p3632
aVarteriotomi
p3633
aVstent
p3634
aVanastomos
p3635
aVflang
p3636
aVend
p3637
aVsidewal
p3638
aVportion
p3639
asI5226911
(lp3640
Vfibrous
p3641
aVcoil
p3642
aVvasoocclus
p3643
aVelement
p3644
aVocclud
p3645
aVsinusoid
p3646
aVattach
p3647
aVhelic
p3648
aVblood
p3649
aVextend
p3650
asI5226913
(lp3651
Vstent
p3652
aVcircumferenti
p3653
aVexpand
p3654
aVradial
p3655
aVendoprosthes
p3656
aVgeneral
p3657
aVprosthesi
p3658
aVsection
p3659
aVimpart
p3660
aVsegment
p3661
asI5944738
(lp3662
Vmedic
p3663
aVcathet
p3664
aVocclud
p3665
aVdevic
p3666
aVparadox
p3667
aVshape
p3668
aVfabric
p3669
aVpfo
p3670
aVcollaps
p3671
aVdesir
p3672
asI4655771
(lp3673
Vtranslumin
p3674
aVprosthesi
p3675
aVaxial
p3676
aVbodi
p3677
aVbut
p3678
aVimplant
p3679
aVwind
p3680
aVcontractil
p3681
aVtubular
p3682
aVdisplac
p3683
asI5133732
(lp3684
Vstent
p3685
aVimplant
p3686
aVbodi
p3687
aVzag
p3688
aVzig
p3689
aVintravascular
p3690
aVballoon
p3691
aVstretch
p3692
aVmean
p3693
aVexpans
p3694
asI6237605
(lp3695
Vtransmur
p3696
aVlesion
p3697
aVepicardi
p3698
aVablat
p3699
aVpericardi
p3700
aVmyocardium
p3701
aVatrial
p3702
aVfibril
p3703
aVvein
p3704
aVpulmonari
p3705
asI5910154
(lp3706
Vcathet
p3707
aVstent
p3708
aVfilter
p3709
aVvessel
p3710
aVguidewir
p3711
aVpercutan
p3712
aVstenos
p3713
aVblood
p3714
aVaortic
p3715
aVframe
p3716
asI5314472
(lp3717
Vfilament
p3718
aVstent
p3719
aVvascular
p3720
aVspiral
p3721
aVhoop
p3722
aVshape
p3723
aVwound
p3724
aVwave
p3725
aVend
p3726
aVslide
p3727
asI5443497
(lp3728
Vstent
p3729
aVdistal
p3730
aVprosthet
p3731
aVpassag
p3732
aVproxim
p3733
aVlumen
p3734
aVflow
p3735
aVcentral
p3736
aVsidewal
p3737
aVmember
p3738
asI5443498
(lp3739
Vstent
p3740
aVcell
p3741
aVoblong
p3742
aVvacsular
p3743
aVbodi
p3744
aVvascular
p3745
aVunexpand
p3746
aVtubular
p3747
aVlongitudin
p3748
aVside
p3749
asI5443500
(lp3750
Vballoon
p3751
aVintravascular
p3752
aVdeflat
p3753
aVvessel
p3754
aVstent
p3755
aVroll
p3756
aVtie
p3757
aVlink
p3758
aVsheet
p3759
aVstenot
p3760
asI6442413
(lp3761
Vglucos
p3762
aVanalyt
p3763
aVblood
p3764
aVimplant
p3765
aVextern
p3766
aVinsulin
p3767
aVsensor
p3768
aVworn
p3769
aVvessel
p3770
aVdisclos
p3771
asI5306286
(lp3772
Vstent
p3773
aVcite
p3774
aVexpand
p3775
aVcathet
p3776
aVarteri
p3777
aVobstruct
p3778
aVstenot
p3779
aVdeliveri
p3780
aVbioabsorb
p3781
aVingrowth
p3782
asI5449373
(lp3783
Vstent
p3784
aVarticul
p3785
aVcurv
p3786
aVsegment
p3787
aVconnector
p3788
aVbodili
p3789
aVcoronari
p3790
aVarteri
p3791
aVrelax
p3792
aVflex
p3793
asI5456712
(lp3794
Vgraft
p3795
aVstent
p3796
aVblood
p3797
aVsidewal
p3798
aVvessel
p3799
aVarteriotomi
p3800
aVorific
p3801
aVposition
p3802
aVassembl
p3803
aVportion
p3804
asI5833650
(lp3805
Vlumen
p3806
aVballoon
p3807
aVdistal
p3808
aVstenosi
p3809
aVextrem
p3810
aVperfus
p3811
aVvessel
p3812
aVtubular
p3813
aVinflat
p3814
aVocclus
p3815
asI5697971
(lp3816
sI5163958
(lp3817
Vendoprosthesi
p3818
aVcarbon
p3819
aVstent
p3820
aVcoat
p3821
aVantithrombogen
p3822
aVporous
p3823
aVimplant
p3824
aVingrowth
p3825
aVtubular
p3826
aVunderlay
p3827
asI5316023
(lp3828
Vaortic
p3829
aVaorta
p3830
aVbilater
p3831
aVintra
p3832
aVgraft
p3833
aVbypass
p3834
aVdeform
p3835
aVtubular
p3836
aVintralumin
p3837
aVaneurysm
p3838
asI5472441
(lp3839
sI5312415
(lp3840
Vembol
p3841
aVcoil
p3842
aVcathet
p3843
aVplacement
p3844
aVguidewir
p3845
aVlumen
p3846
aVvasculatur
p3847
aVconstrict
p3848
aVpusher
p3849
aVspecif
p3850
asI6395326
(lp3851
Vcoat
p3852
aVpattern
p3853
aVstent
p3854
aVprosthesi
p3855
aVdisclos
p3856
aVdeposit
p3857
aVonto
p3858
aVexampl
p3859
aVapparatus
p3860
aVform
p3861
asI6258115
(lp3862
Vstent
p3863
aVbifurc
p3864
aVbranch
p3865
aVstenot
p3866
aVdistal
p3867
aVscaffold
p3868
aVprotect
p3869
aVporos
p3870
aVallow
p3871
aVstill
p3872
asI6506437
(lp3873
Vdepot
p3874
aVimplant
p3875
aVcoat
p3876
aVcomposit
p3877
aVgas
p3878
aVsolvent
p3879
aVpressur
p3880
aVdevic
p3881
aVstent
p3882
aVmethod
p3883
asI6258121
(lp3884
Vstent
p3885
aVreleas
p3886
aVpolymer
p3887
aVtaxol
p3888
aVpla
p3889
aVcoat
p3890
aVslower
p3891
aVagent
p3892
aVfaster
p3893
aValon
p3894
asI5662671
(lp3895
Vplaqu
p3896
aVatherectomi
p3897
aVexcis
p3898
aVtrap
p3899
aVarteri
p3900
aVaorta
p3901
aVcathet
p3902
aVremov
p3903
aVfiltrat
p3904
aVinterest
p3905
asI6152144
(lp3906
Vappendag
p3907
aVatrial
p3908
aVocclud
p3909
aVleft
p3910
aVobliter
p3911
aVintraop
p3912
aVpatient
p3913
aVembol
p3914
aVpercutan
p3915
aVocclus
p3916
asI5019090
(lp3917
Vstent
p3918
aVcircumferenti
p3919
aVexpand
p3920
aVradial
p3921
aVendoprosthes
p3922
aVgeneral
p3923
aVendoprosthesi
p3924
aVsection
p3925
aVimpart
p3926
aVsegment
p3927
asI6299604
(lp3928
Vbioactiv
p3929
aVlayer
p3930
aVcoat
p3931
aVparylen
p3932
aVporous
p3933
aVtract
p3934
aVpolym
p3935
aVmateri
p3936
aVreleas
p3937
aVbiliari
p3938
asI6001118
(lp3939
Vemboli
p3940
aVcaptur
p3941
aVdistal
p3942
aVexpand
p3943
aVradial
p3944
aVelong
p3945
aVlumen
p3946
aVproxim
p3947
aVend
p3948
aVmember
p3949
asI5387235
(lp3950
Vipsilater
p3951
aVcontralater
p3952
aVgraft
p3953
aVtranslumin
p3954
aVprosthesi
p3955
aVbifurc
p3956
aVassembl
p3957
aVlimb
p3958
aViliac
p3959
aVspring
p3960
asI6066149
(lp3961
Vthrombus
p3962
aVcage
p3963
aVclot
p3964
aVdistal
p3965
aVproxim
p3966
aVexpand
p3967
aVself
p3968
aVcore
p3969
aVfilter
p3970
aVtreatment
p3971
asI5275622
(lp3972
Vcapsul
p3973
aVgraft
p3974
aVdistal
p3975
aVendovascular
p3976
aVtubular
p3977
aVcathet
p3978
aVproxim
p3979
aVunitari
p3980
aVextrem
p3981
aVwrap
p3982
asI5441515
(lp3983
Vstent
p3984
aVoverlapplng
p3985
aVexpand
p3986
aVratchet
p3987
aVinterlock
p3988
aVerod
p3989
aVintravascular
p3990
aVbio
p3991
aVbiocompat
p3992
aVarteri
p3993
asI6110188
(lp3994
sI5443496
(lp3995
Vstent
p3996
aVlumen
p3997
aVbodi
p3998
aVcylindr
p3999
aVconform
p4000
aVexpand
p4001
aVpolymer
p4002
aVangioplasti
p4003
aVintravascular
p4004
aVradial
p4005
asI5716981
(lp4006
Vangiogen
p4007
aVanti
p4008
aVfactor
p4009
aVpaclitaxel
p4010
aVbiliari
p4011
aVretino
p4012
aVtracheal
p4013
aVbronchial
p4014
aVurethr
p4015
aVesophag
p4016
asI5637113
(lp4017
Vstent
p4018
aVlubrici
p4019
aVexpand
p4020
aVwrap
p4021
aVpolyethylen
p4022
aVstructur
p4023
aVmateri
p4024
aVpolyvinyl
p4025
aVpolymer
p4026
aVmember
p4027
asI5350397
(lp4028
Vembol
p4029
aVcoil
p4030
aVenlarg
p4031
aVpusher
p4032
aVcathet
p4033
aVsurgic
p4034
aVassembl
p4035
aVsocket
p4036
aVsituat
p4037
aVmember
p4038
asI5350398
(lp4039
Vpercutan
p4040
aVfilter
p4041
aVstent
p4042
aVflexibl
p4043
aVpassageway
p4044
aVcava
p4045
aVvena
p4046
aVexpand
p4047
aVinsert
p4048
aVfiltrat
p4049
astp4050
.