((lp0
I4655771
aI4762128
aI4820298
aI4830003
aI4921484
aI4922905
aI4950227
aI4966604
aI4994069
aI4998539
aI5015253
aI5019090
aI5026377
aI5059211
aI5061275
aI5064435
aI5071407
aI5078736
aI5092877
aI5108416
aI5122154
aI5133732
aI5152777
aI5158548
aI5201757
aI5211658
aI5222971
aI5226911
aI5226913
aI5234456
aI5234457
aI5275622
aI5282823
aI5292331
aI5306286
aI5314472
aI5328471
aI5344426
aI5387235
aI5405377
aI5421955
aI5441515
aI5443496
aI5443498
aI5456667
aI5456712
aI5507767
aI5507769
aI5527337
aI5540712
aI5549626
aI5569295
aI5609627
aI5628788
aI5639278
aI5669924
aI5693085
aI5837313
aI6099562
aI6120536
aI6165212
aI6168614
aI6358556
aI4907336
aI5037427
aI5147370
aI5681282
aI5697909
aI5151105
aI5354295
aI5389106
aI5683451
aI5824041
aI4886062
aI4994071
aI5104404
aI5135536
aI5282824
aI5312415
aI5449373
aI5100423
aI5108419
aI5160342
aI5382259
aI5662671
aI5725552
aI6152144
aI6179859
aI5360443
aI5366504
aI5370685
aI5458597
aI5472441
aI5545214
aI5840081
aI5855601
aI5941869
aI5192301
aI5250071
aI5261916
aI5350397
aI5709224
aI6231561
aI5192297
aI5197971
aI5197978
aI5329942
aI5370657
aI5449372
aI5827324
aI5330500
aI5342348
aI5637113
aI5679400
aI5700286
aI5716981
aI5776184
aI5824048
aI5972027
aI5108407
aI5534007
aI5423885
aI5605696
aI5649977
aI6379381
aI5354309
aI5575818
aI5980972
aI5383892
aI5667523
aI6001118
aI6152946
aI6012457
aI6024740
aI5674242
aI5316023
aI5443500
aI5800457
aI5810874
aI5910154
aI5911734
aI6027520
aI6042598
aI5380299
aI6231600
aI6258121
aI5464650
aI5624411
aI6071305
aI5824049
aI5873904
aI6096070
aI6299604
aI5562728
aI5676697
aI5733925
aI5833650
aI6110188
aI5755778
aI5843172
aI5591197
aI5799661
aI6258115
aI6254632
aI6056993
aI6395326
aI5108420
aI5865791
aI5163958
aI5865814
aI6153252
aI5443497
aI5489295
aI5514154
aI5195984
aI5776161
aI5697971
aI5366490
aI5370675
aI5599345
aI5350398
aI6168579
aI6458153
aI5766151
aI5807395
aI6575969
aI6629534
aI5411520
aI5433727
aI5634936
aI5797960
aI5855614
aI6290674
aI5769816
aI5669933
aI6171327
aI5609629
aI6273913
aI6042875
aI6240616
aI5649959
aI5957949
aI6161543
aI6237605
aI5925063
aI5334217
aI5413571
aI5507744
aI5588579
aI5639008
aI5879366
aI5944738
aI6190353
aI5855597
aI5921982
aI5810764
aI5971983
aI6335029
a(lp1
(lp2
I4655771
aa(lp3
I4762128
aI4820298
aI4830003
aI4921484
aI4922905
aI4950227
aI4966604
aI4994069
aI4998539
aI5015253
aI5019090
aI5026377
aI5059211
aI5061275
aI5064435
aI5071407
aI5078736
aI5092877
aI5108416
aI5122154
aI5133732
aI5152777
aI5158548
aI5201757
aI5211658
aI5222971
aI5226911
aI5226913
aI5234456
aI5234457
aI5275622
aI5282823
aI5292331
aI5306286
aI5314472
aI5328471
aI5344426
aI5387235
aI5405377
aI5421955
aI5441515
aI5443496
aI5443498
aI5456667
aI5456712
aI5507767
aI5507769
aI5527337
aI5540712
aI5549626
aI5569295
aI5609627
aI5628788
aI5639278
aI5669924
aI5693085
aI5837313
aI6099562
aI6120536
aI6165212
aI6168614
aI6358556
aa(lp4
I4907336
aI5037427
aI5147370
aI5681282
aI5697909
aI5151105
aI5354295
aI5389106
aI5683451
aI5824041
aI4886062
aI4994071
aI5104404
aI5135536
aI5282824
aI5312415
aI5449373
aI5100423
aI5108419
aI5160342
aI5382259
aI5662671
aI5725552
aI6152144
aI6179859
aI5360443
aI5366504
aI5370685
aI5458597
aI5472441
aI5545214
aI5840081
aI5855601
aI5941869
aI5192301
aI5250071
aI5261916
aI5350397
aI5709224
aI6231561
aI5192297
aI5197971
aI5197978
aI5329942
aI5370657
aI5449372
aI5827324
aI5330500
aI5342348
aI5637113
aI5679400
aI5700286
aI5716981
aI5776184
aI5824048
aI5972027
aI5108407
aI5534007
aI5423885
aI5605696
aI5649977
aI6379381
aI5354309
aI5575818
aI5980972
aI5383892
aI5667523
aI6001118
aI6152946
aI6012457
aI6024740
aI5674242
aI5316023
aI5443500
aI5800457
aI5810874
aI5910154
aI5911734
aI6027520
aI6042598
aI5380299
aI6231600
aI6258121
aI5464650
aI5624411
aI6071305
aI5824049
aI5873904
aI6096070
aI6299604
aI5562728
aI5676697
aI5733925
aI5833650
aI6110188
aI5755778
aI5843172
aI5591197
aI5799661
aI6258115
aI6254632
aI6056993
aI6395326
aa(lp5
I5108420
aI5865791
aI5163958
aI5865814
aI6153252
aI5443497
aI5489295
aI5514154
aI5195984
aI5776161
aI5697971
aI5366490
aI5370675
aI5599345
aI5350398
aI6168579
aI6458153
aI5766151
aI5807395
aI6575969
aI6629534
aI5411520
aI5433727
aI5634936
aI5797960
aI5855614
aI6290674
aI5769816
aI5669933
aI6171327
aI5609629
aI6273913
aI6042875
aI6240616
aI5649959
aI5957949
aI6161543
aI6237605
aI5925063
aa(lp6
I5334217
aI5413571
aI5507744
aI5588579
aI5639008
aI5879366
aI5944738
aI6190353
aI5855597
aI5921982
aI5810764
aI5971983
aI6335029
aa(lp7
(I4655771
I4762128
tp8
a(I4655771
I4820298
tp9
a(I4655771
I4830003
tp10
a(I4655771
I4921484
tp11
a(I4655771
I4922905
tp12
a(I4655771
I4950227
tp13
a(I4655771
I4966604
tp14
a(I4655771
I4994069
tp15
a(I4655771
I4998539
tp16
a(I4655771
I5015253
tp17
a(I4655771
I5019090
tp18
a(I4655771
I5026377
tp19
a(I4655771
I5059211
tp20
a(I4655771
I5061275
tp21
a(I4655771
I5064435
tp22
a(I4655771
I5071407
tp23
a(I4655771
I5078736
tp24
a(I4655771
I5092877
tp25
a(I4655771
I5108416
tp26
a(I4655771
I5122154
tp27
a(I4655771
I5133732
tp28
a(I4655771
I5152777
tp29
a(I4655771
I5158548
tp30
a(I4655771
I5201757
tp31
a(I4655771
I5211658
tp32
a(I4655771
I5222971
tp33
a(I4655771
I5226911
tp34
a(I4655771
I5226913
tp35
a(I4655771
I5234456
tp36
a(I4655771
I5234457
tp37
a(I4655771
I5275622
tp38
a(I4655771
I5282823
tp39
a(I4655771
I5292331
tp40
a(I4655771
I5306286
tp41
a(I4655771
I5314472
tp42
a(I4655771
I5328471
tp43
a(I4655771
I5344426
tp44
a(I4655771
I5387235
tp45
a(I4655771
I5405377
tp46
a(I4655771
I5421955
tp47
a(I4655771
I5441515
tp48
a(I4655771
I5443496
tp49
a(I4655771
I5443498
tp50
a(I4655771
I5456667
tp51
a(I4655771
I5456712
tp52
a(I4655771
I5507767
tp53
a(I4655771
I5507769
tp54
a(I4655771
I5527337
tp55
a(I4655771
I5540712
tp56
a(I4655771
I5549626
tp57
a(I4655771
I5569295
tp58
a(I4655771
I5609627
tp59
a(I4655771
I5628788
tp60
a(I4655771
I5639278
tp61
a(I4655771
I5669924
tp62
a(I4655771
I5693085
tp63
a(I4655771
I5837313
tp64
a(I4655771
I6099562
tp65
a(I4655771
I6120536
tp66
a(I4655771
I6165212
tp67
a(I4655771
I6168614
tp68
a(I4655771
I6358556
tp69
a(I4762128
I4907336
tp70
a(I4762128
I4922905
tp71
a(I4762128
I4950227
tp72
a(I4762128
I5037427
tp73
a(I4762128
I5108416
tp74
a(I4762128
I5147370
tp75
a(I4762128
I5158548
tp76
a(I4762128
I5344426
tp77
a(I4762128
I5405377
tp78
a(I4762128
I5421955
tp79
a(I4762128
I5456667
tp80
a(I4762128
I5507769
tp81
a(I4762128
I5569295
tp82
a(I4762128
I5609627
tp83
a(I4762128
I5669924
tp84
a(I4762128
I5681282
tp85
a(I4762128
I5697909
tp86
a(I4820298
I5151105
tp87
a(I4820298
I5211658
tp88
a(I4820298
I5222971
tp89
a(I4820298
I5282823
tp90
a(I4820298
I5314472
tp91
a(I4820298
I5328471
tp92
a(I4820298
I5354295
tp93
a(I4820298
I5389106
tp94
a(I4820298
I5405377
tp95
a(I4820298
I5443498
tp96
a(I4820298
I5507767
tp97
a(I4820298
I5609627
tp98
a(I4820298
I5683451
tp99
a(I4820298
I5824041
tp100
a(I4820298
I6165212
tp101
a(I4830003
I4886062
tp102
a(I4830003
I4994071
tp103
a(I4830003
I5015253
tp104
a(I4830003
I5019090
tp105
a(I4830003
I5026377
tp106
a(I4830003
I5064435
tp107
a(I4830003
I5071407
tp108
a(I4830003
I5078736
tp109
a(I4830003
I5092877
tp110
a(I4830003
I5104404
tp111
a(I4830003
I5122154
tp112
a(I4830003
I5135536
tp113
a(I4830003
I5201757
tp114
a(I4830003
I5211658
tp115
a(I4830003
I5226911
tp116
a(I4830003
I5226913
tp117
a(I4830003
I5275622
tp118
a(I4830003
I5282824
tp119
a(I4830003
I5312415
tp120
a(I4830003
I5314472
tp121
a(I4830003
I5344426
tp122
a(I4830003
I5387235
tp123
a(I4830003
I5389106
tp124
a(I4830003
I5405377
tp125
a(I4830003
I5421955
tp126
a(I4830003
I5441515
tp127
a(I4830003
I5443498
tp128
a(I4830003
I5449373
tp129
a(I4830003
I5456667
tp130
a(I4830003
I5456712
tp131
a(I4830003
I5507767
tp132
a(I4830003
I5540712
tp133
a(I4830003
I5569295
tp134
a(I4830003
I5609627
tp135
a(I4830003
I5669924
tp136
a(I4921484
I5071407
tp137
a(I4921484
I5100423
tp138
a(I4921484
I5108419
tp139
a(I4921484
I5160342
tp140
a(I4921484
I5222971
tp141
a(I4921484
I5382259
tp142
a(I4921484
I5507769
tp143
a(I4921484
I5549626
tp144
a(I4921484
I5662671
tp145
a(I4921484
I5725552
tp146
a(I4921484
I6152144
tp147
a(I4921484
I6179859
tp148
a(I4922905
I5108416
tp149
a(I4922905
I5234457
tp150
a(I4922905
I5314472
tp151
a(I4922905
I5344426
tp152
a(I4922905
I5360443
tp153
a(I4922905
I5366504
tp154
a(I4922905
I5405377
tp155
a(I4922905
I5421955
tp156
a(I4922905
I5441515
tp157
a(I4922905
I5443498
tp158
a(I4922905
I5456667
tp159
a(I4922905
I5569295
tp160
a(I4922905
I5609627
tp161
a(I4922905
I5669924
tp162
a(I4950227
I5108416
tp163
a(I4950227
I5201757
tp164
a(I4950227
I5222971
tp165
a(I4950227
I5234457
tp166
a(I4950227
I5314472
tp167
a(I4950227
I5344426
tp168
a(I4950227
I5421955
tp169
a(I4950227
I5441515
tp170
a(I4950227
I5443498
tp171
a(I4950227
I5456667
tp172
a(I4950227
I5569295
tp173
a(I4950227
I5639278
tp174
a(I4950227
I5669924
tp175
a(I4950227
I5683451
tp176
a(I4950227
I5693085
tp177
a(I4950227
I5824041
tp178
a(I4950227
I6165212
tp179
a(I4966604
I5160342
tp180
a(I4966604
I5370685
tp181
a(I4966604
I5458597
tp182
a(I4966604
I5472441
tp183
a(I4966604
I5545214
tp184
a(I4966604
I5840081
tp185
a(I4966604
I5855601
tp186
a(I4966604
I5941869
tp187
a(I4966604
I6168614
tp188
a(I4994069
I5192301
tp189
a(I4994069
I5226911
tp190
a(I4994069
I5250071
tp191
a(I4994069
I5261916
tp192
a(I4994069
I5275622
tp193
a(I4994069
I5312415
tp194
a(I4994069
I5344426
tp195
a(I4994069
I5350397
tp196
a(I4994069
I5354295
tp197
a(I4994069
I5382259
tp198
a(I4994069
I5709224
tp199
a(I4994069
I6231561
tp200
a(I4998539
I5192297
tp201
a(I4998539
I5197971
tp202
a(I4998539
I5197978
tp203
a(I4998539
I5211658
tp204
a(I4998539
I5222971
tp205
a(I4998539
I5329942
tp206
a(I4998539
I5344426
tp207
a(I4998539
I5370657
tp208
a(I4998539
I5421955
tp209
a(I4998539
I5441515
tp210
a(I4998539
I5449372
tp211
a(I4998539
I5456667
tp212
a(I4998539
I5569295
tp213
a(I4998539
I5827324
tp214
a(I4998539
I6179859
tp215
a(I5015253
I5211658
tp216
a(I5015253
I5282823
tp217
a(I5015253
I5314472
tp218
a(I5015253
I5344426
tp219
a(I5015253
I5421955
tp220
a(I5015253
I5441515
tp221
a(I5015253
I5443496
tp222
a(I5015253
I5443498
tp223
a(I5015253
I5456667
tp224
a(I5015253
I5507767
tp225
a(I5015253
I5569295
tp226
a(I5019090
I5133732
tp227
a(I5019090
I5135536
tp228
a(I5019090
I5192297
tp229
a(I5019090
I5211658
tp230
a(I5019090
I5282823
tp231
a(I5019090
I5314472
tp232
a(I5019090
I5330500
tp233
a(I5019090
I5342348
tp234
a(I5019090
I5344426
tp235
a(I5019090
I5405377
tp236
a(I5019090
I5421955
tp237
a(I5019090
I5441515
tp238
a(I5019090
I5443496
tp239
a(I5019090
I5443498
tp240
a(I5019090
I5456667
tp241
a(I5019090
I5507767
tp242
a(I5019090
I5527337
tp243
a(I5019090
I5569295
tp244
a(I5019090
I5609627
tp245
a(I5019090
I5637113
tp246
a(I5019090
I5639278
tp247
a(I5019090
I5679400
tp248
a(I5019090
I5693085
tp249
a(I5019090
I5700286
tp250
a(I5019090
I5716981
tp251
a(I5019090
I5776184
tp252
a(I5019090
I5824048
tp253
a(I5019090
I5855601
tp254
a(I5019090
I5972027
tp255
a(I5019090
I6165212
tp256
a(I5026377
I5108407
tp257
a(I5026377
I5222971
tp258
a(I5026377
I5234457
tp259
a(I5026377
I5344426
tp260
a(I5026377
I5421955
tp261
a(I5026377
I5456667
tp262
a(I5026377
I5507767
tp263
a(I5026377
I5534007
tp264
a(I5026377
I5569295
tp265
a(I5026377
I5628788
tp266
a(I5059211
I5108407
tp267
a(I5059211
I5282823
tp268
a(I5059211
I5342348
tp269
a(I5059211
I5344426
tp270
a(I5059211
I5421955
tp271
a(I5059211
I5423885
tp272
a(I5059211
I5441515
tp273
a(I5059211
I5443496
tp274
a(I5059211
I5456667
tp275
a(I5059211
I5569295
tp276
a(I5059211
I5605696
tp277
a(I5059211
I5637113
tp278
a(I5059211
I5649977
tp279
a(I5059211
I5669924
tp280
a(I5059211
I5700286
tp281
a(I5059211
I5716981
tp282
a(I5059211
I6379381
tp283
a(I5061275
I5234457
tp284
a(I5061275
I5282823
tp285
a(I5061275
I5344426
tp286
a(I5061275
I5354309
tp287
a(I5061275
I5421955
tp288
a(I5061275
I5441515
tp289
a(I5061275
I5443496
tp290
a(I5061275
I5456667
tp291
a(I5061275
I5569295
tp292
a(I5061275
I5575818
tp293
a(I5061275
I5628788
tp294
a(I5061275
I5693085
tp295
a(I5061275
I5837313
tp296
a(I5061275
I5980972
tp297
a(I5061275
I6099562
tp298
a(I5061275
I6120536
tp299
a(I5061275
I6358556
tp300
a(I5064435
I5330500
tp301
a(I5064435
I5344426
tp302
a(I5064435
I5382259
tp303
a(I5064435
I5383892
tp304
a(I5064435
I5421955
tp305
a(I5064435
I5441515
tp306
a(I5064435
I5456667
tp307
a(I5064435
I5540712
tp308
a(I5064435
I5569295
tp309
a(I5064435
I5575818
tp310
a(I5064435
I5609627
tp311
a(I5064435
I5628788
tp312
a(I5064435
I5649977
tp313
a(I5064435
I5667523
tp314
a(I5064435
I5669924
tp315
a(I5064435
I5725552
tp316
a(I5064435
I6152144
tp317
a(I5064435
I6358556
tp318
a(I5071407
I5197978
tp319
a(I5071407
I5201757
tp320
a(I5071407
I5226911
tp321
a(I5071407
I5344426
tp322
a(I5071407
I5370657
tp323
a(I5071407
I5421955
tp324
a(I5071407
I5441515
tp325
a(I5071407
I5456667
tp326
a(I5071407
I5569295
tp327
a(I5071407
I5827324
tp328
a(I5071407
I6001118
tp329
a(I5071407
I6152946
tp330
a(I5071407
I6179859
tp331
a(I5078736
I5344426
tp332
a(I5078736
I5405377
tp333
a(I5078736
I5421955
tp334
a(I5078736
I5441515
tp335
a(I5078736
I5456667
tp336
a(I5078736
I5569295
tp337
a(I5078736
I5609627
tp338
a(I5078736
I5649977
tp339
a(I5078736
I6012457
tp340
a(I5078736
I6024740
tp341
a(I5078736
I6152144
tp342
a(I5092877
I5234457
tp343
a(I5092877
I5344426
tp344
a(I5092877
I5421955
tp345
a(I5092877
I5456667
tp346
a(I5092877
I5569295
tp347
a(I5092877
I5683451
tp348
a(I5092877
I5824041
tp349
a(I5092877
I5837313
tp350
a(I5092877
I5980972
tp351
a(I5092877
I6099562
tp352
a(I5092877
I6120536
tp353
a(I5092877
I6358556
tp354
a(I5108416
I5192297
tp355
a(I5108416
I5344426
tp356
a(I5108416
I5421955
tp357
a(I5108416
I5441515
tp358
a(I5108416
I5456667
tp359
a(I5108416
I5569295
tp360
a(I5108416
I5674242
tp361
a(I5122154
I5316023
tp362
a(I5122154
I5344426
tp363
a(I5122154
I5389106
tp364
a(I5122154
I5421955
tp365
a(I5122154
I5441515
tp366
a(I5122154
I5456667
tp367
a(I5122154
I5569295
tp368
a(I5133732
I5234457
tp369
a(I5133732
I5314472
tp370
a(I5133732
I5344426
tp371
a(I5133732
I5354309
tp372
a(I5133732
I5405377
tp373
a(I5133732
I5421955
tp374
a(I5133732
I5423885
tp375
a(I5133732
I5441515
tp376
a(I5133732
I5443498
tp377
a(I5133732
I5443500
tp378
a(I5133732
I5456667
tp379
a(I5133732
I5507767
tp380
a(I5133732
I5569295
tp381
a(I5133732
I5609627
tp382
a(I5152777
I5370657
tp383
a(I5152777
I5549626
tp384
a(I5152777
I5800457
tp385
a(I5152777
I5810874
tp386
a(I5152777
I5910154
tp387
a(I5152777
I5911734
tp388
a(I5152777
I6027520
tp389
a(I5152777
I6042598
tp390
a(I5158548
I5441515
tp391
a(I5158548
I5649977
tp392
a(I5158548
I5683451
tp393
a(I5158548
I5824041
tp394
a(I5201757
I5628788
tp395
a(I5201757
I5669924
tp396
a(I5201757
I5683451
tp397
a(I5201757
I5824041
tp398
a(I5211658
I5382259
tp399
a(I5211658
I5667523
tp400
a(I5211658
I5683451
tp401
a(I5211658
I5824041
tp402
a(I5222971
I5380299
tp403
a(I5222971
I5456667
tp404
a(I5222971
I5810874
tp405
a(I5222971
I5972027
tp406
a(I5222971
I6231600
tp407
a(I5222971
I6258121
tp408
a(I5226911
I5709224
tp409
a(I5226913
I5456667
tp410
a(I5226913
I5837313
tp411
a(I5226913
I5972027
tp412
a(I5226913
I5980972
tp413
a(I5226913
I6099562
tp414
a(I5226913
I6120536
tp415
a(I5226913
I6358556
tp416
a(I5234456
I5342348
tp417
a(I5234456
I5464650
tp418
a(I5234456
I5605696
tp419
a(I5234456
I5624411
tp420
a(I5234456
I5637113
tp421
a(I5234456
I5649977
tp422
a(I5234456
I5679400
tp423
a(I5234456
I5693085
tp424
a(I5234456
I5700286
tp425
a(I5234456
I5716981
tp426
a(I5234456
I5776184
tp427
a(I5234456
I5824048
tp428
a(I5234456
I6071305
tp429
a(I5234457
I5569295
tp430
a(I5234457
I5605696
tp431
a(I5234457
I5637113
tp432
a(I5234457
I5649977
tp433
a(I5234457
I5693085
tp434
a(I5234457
I5700286
tp435
a(I5275622
I5683451
tp436
a(I5275622
I5824041
tp437
a(I5282823
I5443496
tp438
a(I5282823
I5639278
tp439
a(I5282823
I5649977
tp440
a(I5282823
I5693085
tp441
a(I5282823
I5824049
tp442
a(I5282823
I5873904
tp443
a(I5282823
I6071305
tp444
a(I5282823
I6096070
tp445
a(I5282823
I6165212
tp446
a(I5282823
I6231600
tp447
a(I5282823
I6258121
tp448
a(I5282823
I6299604
tp449
a(I5292331
I5562728
tp450
a(I5306286
I5637113
tp451
a(I5306286
I5649977
tp452
a(I5306286
I5676697
tp453
a(I5306286
I5700286
tp454
a(I5306286
I5910154
tp455
a(I5306286
I5911734
tp456
a(I5306286
I6027520
tp457
a(I5306286
I6042598
tp458
a(I5306286
I6379381
tp459
a(I5314472
I5910154
tp460
a(I5314472
I5911734
tp461
a(I5314472
I6027520
tp462
a(I5314472
I6042598
tp463
a(I5328471
I5733925
tp464
a(I5328471
I5833650
tp465
a(I5328471
I6110188
tp466
a(I5344426
I5443500
tp467
a(I5344426
I5527337
tp468
a(I5344426
I5649977
tp469
a(I5387235
I5609627
tp470
a(I5387235
I5910154
tp471
a(I5387235
I5911734
tp472
a(I5387235
I6027520
tp473
a(I5387235
I6042598
tp474
a(I5405377
I5540712
tp475
a(I5405377
I5755778
tp476
a(I5405377
I5910154
tp477
a(I5405377
I5911734
tp478
a(I5405377
I6027520
tp479
a(I5405377
I6042598
tp480
a(I5441515
I5637113
tp481
a(I5441515
I5649977
tp482
a(I5441515
I5674242
tp483
a(I5441515
I5676697
tp484
a(I5441515
I5700286
tp485
a(I5441515
I5843172
tp486
a(I5441515
I6071305
tp487
a(I5443496
I5591197
tp488
a(I5443496
I5679400
tp489
a(I5443496
I5776184
tp490
a(I5443496
I5824048
tp491
a(I5443496
I6071305
tp492
a(I5443496
I6231600
tp493
a(I5443496
I6258121
tp494
a(I5443498
I5910154
tp495
a(I5443498
I5911734
tp496
a(I5443498
I6027520
tp497
a(I5443498
I6042598
tp498
a(I5456667
I5534007
tp499
a(I5456667
I6179859
tp500
a(I5456712
I5755778
tp501
a(I5456712
I5799661
tp502
a(I5456712
I6110188
tp503
a(I5507767
I5910154
tp504
a(I5507767
I5911734
tp505
a(I5507767
I6027520
tp506
a(I5507767
I6042598
tp507
a(I5507769
I6258115
tp508
a(I5527337
I6231600
tp509
a(I5527337
I6254632
tp510
a(I5527337
I6258121
tp511
a(I5527337
I6379381
tp512
a(I5549626
I5800457
tp513
a(I5549626
I5827324
tp514
a(I5549626
I5910154
tp515
a(I5549626
I5911734
tp516
a(I5549626
I6001118
tp517
a(I5549626
I6152946
tp518
a(I5639278
I5755778
tp519
a(I5837313
I6056993
tp520
a(I5837313
I6395326
tp521
a(I6099562
I6258121
tp522
a(I6120536
I6258121
tp523
a(I6120536
I6379381
tp524
a(I4907336
I5108416
tp525
a(I4907336
I5226913
tp526
a(I4907336
I5344426
tp527
a(I4907336
I5421955
tp528
a(I4907336
I5441515
tp529
a(I4907336
I5456667
tp530
a(I4907336
I5569295
tp531
a(I4907336
I5910154
tp532
a(I4907336
I5911734
tp533
a(I4907336
I6027520
tp534
a(I4907336
I6042598
tp535
a(I5037427
I5108407
tp536
a(I5037427
I5108420
tp537
a(I5037427
I5147370
tp538
a(I5037427
I5197978
tp539
a(I5037427
I5261916
tp540
a(I5037427
I5275622
tp541
a(I5037427
I5312415
tp542
a(I5037427
I5344426
tp543
a(I5037427
I5421955
tp544
a(I5037427
I5456667
tp545
a(I5037427
I5527337
tp546
a(I5037427
I5569295
tp547
a(I5037427
I5669924
tp548
a(I5037427
I5683451
tp549
a(I5037427
I5824041
tp550
a(I5147370
I5456667
tp551
a(I5147370
I5669924
tp552
a(I5147370
I5683451
tp553
a(I5147370
I5693085
tp554
a(I5147370
I5824041
tp555
a(I5151105
I5330500
tp556
a(I5151105
I5382259
tp557
a(I5151105
I5534007
tp558
a(I5151105
I5667523
tp559
a(I5151105
I5693085
tp560
a(I5354295
I5865791
tp561
a(I5389106
I5637113
tp562
a(I5389106
I5669924
tp563
a(I5389106
I5693085
tp564
a(I5389106
I5700286
tp565
a(I4886062
I5019090
tp566
a(I4886062
I5064435
tp567
a(I4886062
I5071407
tp568
a(I4886062
I5092877
tp569
a(I4886062
I5108416
tp570
a(I4886062
I5133732
tp571
a(I4886062
I5163958
tp572
a(I4886062
I5192297
tp573
a(I4886062
I5211658
tp574
a(I4886062
I5226913
tp575
a(I4886062
I5282823
tp576
a(I4886062
I5314472
tp577
a(I4886062
I5330500
tp578
a(I4886062
I5344426
tp579
a(I4886062
I5389106
tp580
a(I4886062
I5405377
tp581
a(I4886062
I5421955
tp582
a(I4886062
I5441515
tp583
a(I4886062
I5443498
tp584
a(I4886062
I5449373
tp585
a(I4886062
I5456667
tp586
a(I4886062
I5464650
tp587
a(I4886062
I5507767
tp588
a(I4886062
I5569295
tp589
a(I4886062
I5609627
tp590
a(I4886062
I5624411
tp591
a(I4886062
I5669924
tp592
a(I4886062
I5679400
tp593
a(I4886062
I5683451
tp594
a(I4886062
I5776184
tp595
a(I4886062
I5824041
tp596
a(I4886062
I5824048
tp597
a(I4886062
I5837313
tp598
a(I4886062
I5865814
tp599
a(I4886062
I5980972
tp600
a(I4886062
I6099562
tp601
a(I4886062
I6120536
tp602
a(I4886062
I6153252
tp603
a(I4886062
I6254632
tp604
a(I4886062
I6358556
tp605
a(I4994071
I5122154
tp606
a(I4994071
I5133732
tp607
a(I4994071
I5211658
tp608
a(I4994071
I5275622
tp609
a(I4994071
I5344426
tp610
a(I4994071
I5366504
tp611
a(I4994071
I5421955
tp612
a(I4994071
I5441515
tp613
a(I4994071
I5443497
tp614
a(I4994071
I5456667
tp615
a(I4994071
I5489295
tp616
a(I4994071
I5514154
tp617
a(I4994071
I5569295
tp618
a(I4994071
I5609627
tp619
a(I4994071
I5639278
tp620
a(I4994071
I5669924
tp621
a(I4994071
I5676697
tp622
a(I4994071
I5837313
tp623
a(I4994071
I5980972
tp624
a(I4994071
I6099562
tp625
a(I4994071
I6120536
tp626
a(I4994071
I6165212
tp627
a(I4994071
I6231600
tp628
a(I4994071
I6258121
tp629
a(I4994071
I6358556
tp630
a(I5104404
I5282824
tp631
a(I5104404
I5344426
tp632
a(I5104404
I5421955
tp633
a(I5104404
I5441515
tp634
a(I5104404
I5449373
tp635
a(I5104404
I5456667
tp636
a(I5104404
I5569295
tp637
a(I5135536
I5195984
tp638
a(I5135536
I5314472
tp639
a(I5135536
I5344426
tp640
a(I5135536
I5405377
tp641
a(I5135536
I5421955
tp642
a(I5135536
I5423885
tp643
a(I5135536
I5441515
tp644
a(I5135536
I5443498
tp645
a(I5135536
I5443500
tp646
a(I5135536
I5456667
tp647
a(I5135536
I5540712
tp648
a(I5135536
I5569295
tp649
a(I5135536
I5609627
tp650
a(I5282824
I5370657
tp651
a(I5282824
I5405377
tp652
a(I5282824
I5443496
tp653
a(I5282824
I5507767
tp654
a(I5282824
I5609627
tp655
a(I5282824
I5669924
tp656
a(I5282824
I5683451
tp657
a(I5282824
I5776161
tp658
a(I5282824
I5824041
tp659
a(I5282824
I6254632
tp660
a(I5312415
I5628788
tp661
a(I5312415
I5709224
tp662
a(I5449373
I5591197
tp663
a(I5449373
I5697971
tp664
a(I5449373
I5776161
tp665
a(I5100423
I5366490
tp666
a(I5100423
I5370675
tp667
a(I5100423
I5458597
tp668
a(I5100423
I5472441
tp669
a(I5100423
I5599345
tp670
a(I5100423
I5827324
tp671
a(I5100423
I6001118
tp672
a(I5100423
I6152946
tp673
a(I5108419
I5350398
tp674
a(I5108419
I5370657
tp675
a(I5108419
I5549626
tp676
a(I5108419
I5910154
tp677
a(I5108419
I5911734
tp678
a(I5108419
I6001118
tp679
a(I5108419
I6027520
tp680
a(I5108419
I6042598
tp681
a(I5108419
I6152946
tp682
a(I5108419
I6179859
tp683
a(I5160342
I5370657
tp684
a(I5160342
I5549626
tp685
a(I5160342
I5910154
tp686
a(I5160342
I5911734
tp687
a(I5160342
I5941869
tp688
a(I5160342
I6027520
tp689
a(I5160342
I6042598
tp690
a(I5382259
I6258115
tp691
a(I5662671
I6168579
tp692
a(I5662671
I6179859
tp693
a(I5725552
I6152144
tp694
a(I5725552
I6458153
tp695
a(I5360443
I5443497
tp696
a(I5360443
I5639278
tp697
a(I5360443
I5669924
tp698
a(I5360443
I5676697
tp699
a(I5360443
I5693085
tp700
a(I5360443
I5755778
tp701
a(I5360443
I6165212
tp702
a(I5366504
I5776184
tp703
a(I5370685
I5766151
tp704
a(I5370685
I5799661
tp705
a(I5370685
I5855601
tp706
a(I5370685
I6458153
tp707
a(I5458597
I5807395
tp708
a(I5458597
I6575969
tp709
a(I5472441
I6575969
tp710
a(I5545214
I5799661
tp711
a(I5545214
I6458153
tp712
a(I5840081
I6168614
tp713
a(I5840081
I6458153
tp714
a(I5840081
I6629534
tp715
a(I5855601
I6458153
tp716
a(I5192301
I5411520
tp717
a(I5192301
I5433727
tp718
a(I5192301
I5634936
tp719
a(I5192301
I5797960
tp720
a(I5192301
I5855614
tp721
a(I5192301
I6152144
tp722
a(I5250071
I5709224
tp723
a(I5261916
I5709224
tp724
a(I5709224
I6152144
tp725
a(I5709224
I6231561
tp726
a(I5709224
I6290674
tp727
a(I5192297
I5344426
tp728
a(I5192297
I5441515
tp729
a(I5192297
I5456667
tp730
a(I5192297
I5569295
tp731
a(I5192297
I5683451
tp732
a(I5192297
I5824041
tp733
a(I5197978
I5314472
tp734
a(I5197978
I5344426
tp735
a(I5197978
I5354309
tp736
a(I5197978
I5441515
tp737
a(I5197978
I5443498
tp738
a(I5197978
I5456667
tp739
a(I5197978
I5507769
tp740
a(I5197978
I5569295
tp741
a(I5197978
I5575818
tp742
a(I5197978
I5628788
tp743
a(I5197978
I5669924
tp744
a(I5197978
I5697971
tp745
a(I5197978
I6110188
tp746
a(I5329942
I5549626
tp747
a(I5329942
I5769816
tp748
a(I5329942
I5827324
tp749
a(I5329942
I6001118
tp750
a(I5329942
I6152946
tp751
a(I5329942
I6179859
tp752
a(I5370657
I5669933
tp753
a(I5370657
I5769816
tp754
a(I5370657
I6179859
tp755
a(I5449372
I5674242
tp756
a(I5449372
I5910154
tp757
a(I5449372
I5911734
tp758
a(I5449372
I6027520
tp759
a(I5449372
I6042598
tp760
a(I5449372
I6231600
tp761
a(I5449372
I6258121
tp762
a(I5827324
I6027520
tp763
a(I5827324
I6042598
tp764
a(I5827324
I6152946
tp765
a(I5827324
I6171327
tp766
a(I5827324
I6179859
tp767
a(I5827324
I6258115
tp768
a(I5330500
I5575818
tp769
a(I5330500
I5628788
tp770
a(I5330500
I5637113
tp771
a(I5330500
I5639278
tp772
a(I5330500
I5649977
tp773
a(I5330500
I5667523
tp774
a(I5330500
I5669924
tp775
a(I5330500
I5700286
tp776
a(I5330500
I5910154
tp777
a(I5330500
I5911734
tp778
a(I5330500
I6027520
tp779
a(I5330500
I6042598
tp780
a(I5330500
I6165212
tp781
a(I5342348
I5605696
tp782
a(I5342348
I5609629
tp783
a(I5342348
I5637113
tp784
a(I5342348
I5649977
tp785
a(I5342348
I5700286
tp786
a(I5342348
I5716981
tp787
a(I5342348
I5824049
tp788
a(I5342348
I5837313
tp789
a(I5342348
I5873904
tp790
a(I5342348
I5972027
tp791
a(I5342348
I5980972
tp792
a(I5342348
I6071305
tp793
a(I5342348
I6099562
tp794
a(I5342348
I6120536
tp795
a(I5342348
I6153252
tp796
a(I5342348
I6299604
tp797
a(I5342348
I6358556
tp798
a(I5637113
I5980972
tp799
a(I5637113
I6099562
tp800
a(I5637113
I6120536
tp801
a(I5637113
I6231600
tp802
a(I5637113
I6258121
tp803
a(I5679400
I5824048
tp804
a(I5679400
I6153252
tp805
a(I5679400
I6231600
tp806
a(I5679400
I6258121
tp807
a(I5700286
I6231600
tp808
a(I5700286
I6254632
tp809
a(I5700286
I6258121
tp810
a(I5700286
I6273913
tp811
a(I5700286
I6379381
tp812
a(I5716981
I5980972
tp813
a(I5716981
I6042875
tp814
a(I5716981
I6099562
tp815
a(I5716981
I6153252
tp816
a(I5716981
I6231600
tp817
a(I5716981
I6258121
tp818
a(I5716981
I6299604
tp819
a(I5716981
I6358556
tp820
a(I5776184
I6231600
tp821
a(I5776184
I6258121
tp822
a(I5972027
I6240616
tp823
a(I5972027
I6258121
tp824
a(I5972027
I6273913
tp825
a(I5108407
I5250071
tp826
a(I5108407
I5261916
tp827
a(I5108407
I5312415
tp828
a(I5108407
I5350397
tp829
a(I5108407
I5354295
tp830
a(I5108407
I5382259
tp831
a(I5108407
I5649959
tp832
a(I5108407
I5709224
tp833
a(I5423885
I5910154
tp834
a(I5423885
I5911734
tp835
a(I5423885
I6027520
tp836
a(I5423885
I6042598
tp837
a(I5423885
I6071305
tp838
a(I5423885
I6231600
tp839
a(I5423885
I6258121
tp840
a(I5605696
I5824048
tp841
a(I5605696
I5837313
tp842
a(I5605696
I5865814
tp843
a(I5605696
I5980972
tp844
a(I5605696
I6056993
tp845
a(I5605696
I6120536
tp846
a(I5605696
I6231600
tp847
a(I5605696
I6258121
tp848
a(I5605696
I6358556
tp849
a(I5649977
I5824048
tp850
a(I5354309
I5540712
tp851
a(I5575818
I6056993
tp852
a(I5575818
I6153252
tp853
a(I5383892
I5507769
tp854
a(I5383892
I5575818
tp855
a(I5383892
I5628788
tp856
a(I5383892
I5697971
tp857
a(I5383892
I5776161
tp858
a(I5383892
I5910154
tp859
a(I5383892
I5911734
tp860
a(I5383892
I6027520
tp861
a(I5383892
I6042598
tp862
a(I5383892
I6258115
tp863
a(I5667523
I5957949
tp864
a(I6001118
I6179859
tp865
a(I6012457
I6161543
tp866
a(I6012457
I6237605
tp867
a(I5674242
I6231600
tp868
a(I5674242
I6258121
tp869
a(I5316023
I5669924
tp870
a(I5316023
I5693085
tp871
a(I5443500
I5925063
tp872
a(I5810874
I5910154
tp873
a(I5810874
I5911734
tp874
a(I5910154
I6168579
tp875
a(I5911734
I6152946
tp876
a(I6027520
I6258115
tp877
a(I5380299
I5605696
tp878
a(I5380299
I5609629
tp879
a(I5380299
I5679400
tp880
a(I5380299
I5716981
tp881
a(I5380299
I5776184
tp882
a(I5380299
I5824048
tp883
a(I5380299
I5824049
tp884
a(I5380299
I5865814
tp885
a(I5380299
I5873904
tp886
a(I5380299
I5980972
tp887
a(I5380299
I6042875
tp888
a(I5380299
I6099562
tp889
a(I5380299
I6120536
tp890
a(I5380299
I6153252
tp891
a(I5380299
I6231600
tp892
a(I5380299
I6258121
tp893
a(I5380299
I6299604
tp894
a(I5380299
I6358556
tp895
a(I5464650
I5624411
tp896
a(I5464650
I5674242
tp897
a(I5464650
I5693085
tp898
a(I5464650
I5716981
tp899
a(I5464650
I5824048
tp900
a(I5464650
I5824049
tp901
a(I5464650
I5837313
tp902
a(I5464650
I5865814
tp903
a(I5464650
I5873904
tp904
a(I5464650
I5980972
tp905
a(I5464650
I6096070
tp906
a(I5464650
I6099562
tp907
a(I5464650
I6120536
tp908
a(I5464650
I6153252
tp909
a(I5464650
I6231600
tp910
a(I5464650
I6254632
tp911
a(I5464650
I6258121
tp912
a(I5464650
I6358556
tp913
a(I5464650
I6395326
tp914
a(I5624411
I5837313
tp915
a(I5624411
I5843172
tp916
a(I5624411
I5865814
tp917
a(I5624411
I5980972
tp918
a(I5624411
I6071305
tp919
a(I5624411
I6099562
tp920
a(I5624411
I6120536
tp921
a(I5624411
I6231600
tp922
a(I5624411
I6240616
tp923
a(I5624411
I6258121
tp924
a(I5624411
I6273913
tp925
a(I5624411
I6358556
tp926
a(I5824049
I6299604
tp927
a(I5873904
I6254632
tp928
a(I5873904
I6299604
tp929
a(I5873904
I6379381
tp930
a(I5873904
I6395326
tp931
a(I6096070
I6358556
tp932
a(I6096070
I6395326
tp933
a(I5733925
I6231600
tp934
a(I5733925
I6258121
tp935
a(I5833650
I6179859
tp936
a(I5843172
I5972027
tp937
a(I5843172
I6071305
tp938
a(I5843172
I6254632
tp939
a(I5843172
I6273913
tp940
a(I5843172
I6379381
tp941
a(I5591197
I5776161
tp942
a(I5591197
I6273913
tp943
a(I5108420
I5334217
tp944
a(I5108420
I5411520
tp945
a(I5108420
I5413571
tp946
a(I5108420
I5433727
tp947
a(I5108420
I5507744
tp948
a(I5108420
I5588579
tp949
a(I5108420
I5634936
tp950
a(I5108420
I5639008
tp951
a(I5108420
I5725552
tp952
a(I5108420
I5797960
tp953
a(I5108420
I5855614
tp954
a(I5108420
I5879366
tp955
a(I5108420
I5944738
tp956
a(I5108420
I6152144
tp957
a(I5108420
I6290674
tp958
a(I5108420
I6458153
tp959
a(I5865791
I6152144
tp960
a(I5865791
I6231561
tp961
a(I5865791
I6290674
tp962
a(I5163958
I5344426
tp963
a(I5163958
I5441515
tp964
a(I5163958
I5456667
tp965
a(I5163958
I5569295
tp966
a(I5163958
I5637113
tp967
a(I5163958
I5700286
tp968
a(I5163958
I5843172
tp969
a(I5163958
I5972027
tp970
a(I5163958
I6240616
tp971
a(I5443497
I5755778
tp972
a(I5443497
I6190353
tp973
a(I5489295
I5676697
tp974
a(I5489295
I5855601
tp975
a(I5514154
I5776161
tp976
a(I5514154
I6231600
tp977
a(I5514154
I6258121
tp978
a(I5195984
I5316023
tp979
a(I5195984
I5344426
tp980
a(I5195984
I5354309
tp981
a(I5195984
I5441515
tp982
a(I5195984
I5449373
tp983
a(I5195984
I5456667
tp984
a(I5195984
I5514154
tp985
a(I5195984
I5569295
tp986
a(I5195984
I5639278
tp987
a(I5195984
I5649977
tp988
a(I5195984
I5674242
tp989
a(I5195984
I5693085
tp990
a(I5195984
I6165212
tp991
a(I5776161
I5855597
tp992
a(I5366490
I5709224
tp993
a(I5366490
I5921982
tp994
a(I5366490
I6190353
tp995
a(I5370675
I5599345
tp996
a(I5370675
I5697909
tp997
a(I5370675
I5807395
tp998
a(I5370675
I5810764
tp999
a(I5370675
I5921982
tp1000
a(I5370675
I6575969
tp1001
a(I5599345
I6575969
tp1002
a(I5350398
I5910154
tp1003
a(I5350398
I5911734
tp1004
a(I5350398
I6027520
tp1005
a(I5350398
I6042598
tp1006
a(I5807395
I5971983
tp1007
a(I5807395
I6012457
tp1008
a(I5807395
I6024740
tp1009
a(I5433727
I5797960
tp1010
a(I5433727
I5855614
tp1011
a(I5433727
I5879366
tp1012
a(I5433727
I6152144
tp1013
a(I5634936
I5944738
tp1014
a(I5634936
I6152144
tp1015
a(I5797960
I6629534
tp1016
a(I5855614
I6629534
tp1017
a(I5769816
I6152946
tp1018
a(I5769816
I6168579
tp1019
a(I5769816
I6179859
tp1020
a(I5769816
I6258115
tp1021
a(I5609629
I5824048
tp1022
a(I5609629
I5865814
tp1023
a(I5609629
I6056993
tp1024
a(I5609629
I6231600
tp1025
a(I5609629
I6258121
tp1026
a(I5609629
I6299604
tp1027
a(I5609629
I6335029
tp1028
a(I5957949
I6458153
tp1029
a(I5925063
I6458153
tp1030
a(dp1031
I5837313
(lp1032
Vcoat
p1033
aVstent
p1034
aVprosthesi
p1035
aVcure
p1036
aVuncur
p1037
aVargon
p1038
aVpretreat
p1039
aVlattic
p1040
aVgamma
p1041
aVsteril
p1042
asI6168579
(lp1043
Vflush
p1044
aVcathet
p1045
aVfilter
p1046
aVlumen
p1047
aVendovascular
p1048
aVembol
p1049
aVguidewir
p1050
aVguid
p1051
aVatherectomi
p1052
aVdistal
p1053
asI5591197
(lp1054
Vstent
p1055
aVlumen
p1056
aVbarb
p1057
aVintralumin
p1058
aVbodi
p1059
aVproject
p1060
aVimplant
p1061
aVunexpand
p1062
aVexpand
p1063
aVdiamet
p1064
asI5282823
(lp1065
Vstent
p1066
aVlumen
p1067
aVbodi
p1068
aVcylindr
p1069
aVconform
p1070
aVexpand
p1071
aVpolymer
p1072
aVangioplasti
p1073
aVintravascular
p1074
aVradial
p1075
asI5282824
(lp1076
Vstent
p1077
aVaneurysm
p1078
aVpassageway
p1079
aVsleev
p1080
aVrestenos
p1081
aVtumor
p1082
aVassembl
p1083
aVpostion
p1084
aVbiliari
p1085
aVexpand
p1086
asI5152777
(lp1087
Vemboli
p1088
aVblood
p1089
aVvessel
p1090
aVcomplaint
p1091
aVemplac
p1092
aVentail
p1093
aVprotect
p1094
aVocclus
p1095
aVprevent
p1096
aVtemporarili
p1097
asI5211658
(lp1098
Vblood
p1099
aVtubular
p1100
aVpercutan
p1101
aVskeleton
p1102
aVvessel
p1103
aVstructur
p1104
aVmembran
p1105
aVaneurysm
p1106
aVthin
p1107
aVwall
p1108
asI5092877
(lp1109
Vstent
p1110
aVcircumferenti
p1111
aVexpand
p1112
aVradial
p1113
aVendoprosthes
p1114
aVgeneral
p1115
aVendoprosthesi
p1116
aVsection
p1117
aVimpart
p1118
aVsegment
p1119
asI5971983
(lp1120
Vablat
p1121
aVostia
p1122
aVguidewir
p1123
aVanchor
p1124
aVvein
p1125
aVanatomi
p1126
aVpulmonari
p1127
aVtissu
p1128
aVstiffen
p1129
aVelement
p1130
asI4762128
(lp1131
Vprostat
p1132
aVhypertrophi
p1133
aVstent
p1134
aVgland
p1135
aVurethr
p1136
aVlumen
p1137
aVexpand
p1138
aVtubular
p1139
aVurethra
p1140
aVcathet
p1141
asI5769816
(lp1142
Vblood
p1143
aVmesh
p1144
aVvessel
p1145
aVentrap
p1146
aVfiltrat
p1147
aVfilter
p1148
aVaorta
p1149
aVembol
p1150
aVwithin
p1151
aVcannula
p1152
asI6179859
(lp1153
Vemboli
p1154
aVfiltrat
p1155
aVwire
p1156
aVfilter
p1157
aVguid
p1158
aVelement
p1159
aVdislodg
p1160
aVocclus
p1161
aVrotat
p1162
aVtranslat
p1163
asI4994069
(lp1164
Vvessel
p1165
aVwire
p1166
aVvaso
p1167
aVhelic
p1168
aVocclus
p1169
aVwind
p1170
aVrelax
p1171
aVcoil
p1172
aVcondit
p1173
aVstretch
p1174
asI5329942
(lp1175
Vblood
p1176
aVcathet
p1177
aVvessel
p1178
aVfilter
p1179
aVassembl
p1180
aVreposit
p1181
aVposit
p1182
aVthen
p1183
aVrelock
p1184
aVwithin
p1185
asI4994071
(lp1186
Vstent
p1187
aVvessel
p1188
aVbifurc
p1189
aVimplant
p1190
aVballoon
p1191
aVexpand
p1192
aVdeflat
p1193
aVinsert
p1194
aVwithdrawn
p1195
aVcathet
p1196
asI4922905
(lp1197
Vcathet
p1198
aVendoprosthesi
p1199
aVimplant
p1200
aVradial
p1201
aVexpans
p1202
aVessentailli
p1203
aVplay
p1204
aVretain
p1205
aVaxial
p1206
aVdilat
p1207
asI6358556
(lp1208
Vcoat
p1209
aVstent
p1210
aVprosthesi
p1211
aVcure
p1212
aVuncur
p1213
aVargon
p1214
aVpretreat
p1215
aVlattic
p1216
aVgamma
p1217
aVsteril
p1218
asI6056993
(lp1219
Vprosthesi
p1220
aVprothes
p1221
aVporous
p1222
aVfibrous
p1223
aVprecursor
p1224
aVsynthet
p1225
aVwater
p1226
aVsolubl
p1227
aVtubular
p1228
aVinsolubl
p1229
asI5669924
(lp1230
Vstent
p1231
aVbifurc
p1232
aVshuttl
p1233
aVdeploy
p1234
aVvessel
p1235
aVdeliveri
p1236
aVsegment
p1237
aVcathet
p1238
aVbranch
p1239
aVexpand
p1240
asI5733925
(lp1241
Vvascular
p1242
aVmuscl
p1243
aVsmooth
p1244
aVtherapeut
p1245
aVcell
p1246
aVagent
p1247
aVinhibit
p1248
aVdosag
p1249
aVhost
p1250
aVstenosi
p1251
asI6168614
(lp1252
Vapic
p1253
aVvalv
p1254
aVstent
p1255
aVprosthesi
p1256
aVcommissur
p1257
aVimplant
p1258
aVcathet
p1259
aVbodi
p1260
aVcollaps
p1261
aVexpand
p1262
asI5649959
(lp1263
Vpunctur
p1264
aVincis
p1265
aVvessel
p1266
aVpatient
p1267
aVlumen
p1268
aVduct
p1269
aVseal
p1270
aVblood
p1271
aVbioabsorb
p1272
aVgelatin
p1273
asI6254632
(lp1274
Vprotrud
p1275
aVstent
p1276
aVstructur
p1277
aVovular
p1278
aVcan
p1279
aVcover
p1280
aVsubstanc
p1281
aVmedic
p1282
aVimplant
p1283
aVgrit
p1284
asI5824041
(lp1285
Vprosthesi
p1286
aVsheath
p1287
aVcathet
p1288
aVshaft
p1289
aVrecaptur
p1290
aVdistal
p1291
aVintralumin
p1292
aVradial
p1293
aVcompress
p1294
aVelong
p1295
asI5766151
(lp1296
Vcathet
p1297
aVarteri
p1298
aVcardiopleg
p1299
aVheart
p1300
aVballoon
p1301
aVaorta
p1302
aVcoronari
p1303
aVarrest
p1304
aVtip
p1305
aVpatient
p1306
asI5669933
(lp1307
Vfilter
p1308
aVlongitudin
p1309
aVblood
p1310
aVexpand
p1311
aVclot
p1312
aVtoward
p1313
aVbasket
p1314
aVaxi
p1315
aVoutward
p1316
aVembolus
p1317
asI4886062
(lp1318
Vstent
p1319
aVimplant
p1320
aVtransluminar
p1321
aVcoronari
p1322
aVexpand
p1323
aVvascular
p1324
aVradial
p1325
aVpatenc
p1326
aVlarger
p1327
aVangioplasti
p1328
asI5071407
(lp1329
Vfixat
p1330
aVelement
p1331
aVcathet
p1332
aVdilat
p1333
aVdistal
p1334
aVdeform
p1335
aVballoon
p1336
aVsurround
p1337
aVsheath
p1338
aVapproach
p1339
asI5824048
(lp1340
Vstent
p1341
aVtherapeut
p1342
aVsubstanc
p1343
aVcoat
p1344
aVlumen
p1345
aVpolym
p1346
aVdexamethason
p1347
aVporous
p1348
aVexpans
p1349
aVdeliv
p1350
asI5824049
(lp1351
Vbioactiv
p1352
aVparylen
p1353
aVmedic
p1354
aVtract
p1355
aVlayer
p1356
aVstructur
p1357
aVporous
p1358
aVbiliari
p1359
aVimplant
p1360
aVvapor
p1361
asI6071305
(lp1362
Vdrug
p1363
aVstent
p1364
aVdeliveri
p1365
aVagent
p1366
aVdirect
p1367
aVreservoir
p1368
aVanti
p1369
aVthrombot
p1370
aVactiv
p1371
aVosmot
p1372
asI6335029
(lp1373
Vbioactiv
p1374
aVlayer
p1375
aVagent
p1376
aVplasma
p1377
aVbarrier
p1378
aVmedic
p1379
aVimplant
p1380
aVpolymer
p1381
aVcomposit
p1382
aVstructur
p1383
asI6231561
(lp1384
Vtissu
p1385
aVcathet
p1386
aVdeploy
p1387
aVanchor
p1388
aVclosur
p1389
aVclose
p1390
aVbodi
p1391
aVcaviti
p1392
aVappendag
p1393
aVatrial
p1394
asI5649977
(lp1395
Vstent
p1396
aVthin
p1397
aVmetal
p1398
aVpolym
p1399
aVsheet
p1400
aVreinforc
p1401
aVplanar
p1402
aVcontract
p1403
aVdrug
p1404
aVblood
p1405
asI5549626
(lp1406
Vcathet
p1407
aVfilter
p1408
aVsyring
p1409
aVcaval
p1410
aVinner
p1411
aVblood
p1412
aVouter
p1413
aVvena
p1414
aVvessel
p1415
aVdistal
p1416
asI5222971
(lp1417
Vstent
p1418
aVvessel
p1419
aVportion
p1420
aVperfus
p1421
aVsize
p1422
aVsupport
p1423
aVtemporari
p1424
aVend
p1425
aVexpand
p1426
aVproxim
p1427
asI6240616
(lp1428
Vstent
p1429
aVvasculatur
p1430
aVprosthesi
p1431
aVmetal
p1432
aVporous
p1433
aVtherapeut
p1434
aVmedic
p1435
aVagent
p1436
aVmanufactur
p1437
aVpore
p1438
asI5330500
(lp1439
Vstent
p1440
aVstructur
p1441
aVunit
p1442
aVframe
p1443
aVexpand
p1444
aVendovascular
p1445
aVsilicon
p1446
aVzag
p1447
aVzig
p1448
aVcoat
p1449
asI5911734
(lp1450
Vcathet
p1451
aVstent
p1452
aVfilter
p1453
aVvessel
p1454
aVguidewir
p1455
aVpercutan
p1456
aVstenos
p1457
aVblood
p1458
aVaortic
p1459
aVframe
p1460
asI5879366
(lp1461
Vdefect
p1462
aVseptal
p1463
aVexpand
p1464
aVself
p1465
aVfluoropolym
p1466
aVseal
p1467
aVpresent
p1468
aVdevic
p1469
aVcathet
p1470
aVinvent
p1471
asI5797960
(lp1472
Vheart
p1473
aVseptal
p1474
aVmuscular
p1475
aVaccess
p1476
aVpenetr
p1477
aVintercost
p1478
aVdefect
p1479
aVdevic
p1480
aVlumen
p1481
aVtubular
p1482
asI5026377
(lp1483
Vstent
p1484
aVsleev
p1485
aVgrip
p1486
aVinstrument
p1487
aVexpand
p1488
aVself
p1489
aVelong
p1490
aVcanal
p1491
aVouter
p1492
aVsaid
p1493
asI5464650
(lp1494
Vstent
p1495
aVdrug
p1496
aVsolvent
p1497
aVintravascular
p1498
aVpolym
p1499
aVbiostabl
p1500
aVdexamethason
p1501
aVexpans
p1502
aVbioabsorb
p1503
aVsolut
p1504
asI5108407
(lp1505
Vembol
p1506
aVconnector
p1507
aVtherapeut
p1508
aVcabl
p1509
aVprobe
p1510
aVcrimp
p1511
aVcoil
p1512
aVheat
p1513
aVadhes
p1514
aVfiber
p1515
asI5810764
(lp1516
Velectrod
p1517
aVresect
p1518
aVtissu
p1519
aVloop
p1520
aVelectrosurg
p1521
aVactiv
p1522
aVresectoscop
p1523
aVportion
p1524
aVorient
p1525
aVcut
p1526
asI5514154
(lp1527
Vstent
p1528
aVexpand
p1529
aVcylindr
p1530
aVinterconnect
p1531
aVradial
p1532
aVelement
p1533
aVundul
p1534
aVconsist
p1535
aVarteri
p1536
aVribbon
p1537
asI5328471
(lp1538
Vdiseas
p1539
aVlumen
p1540
aVfocal
p1541
aVintroduct
p1542
aVtherapeut
p1543
aVaccomplish
p1544
aVtissu
p1545
aVadvantag
p1546
aVtubular
p1547
aVhollow
p1548
asI6120536
(lp1549
Vthrombogen
p1550
aVcoat
p1551
aVheparin
p1552
aVbiostabl
p1553
aVfluorosilicon
p1554
aVelectroneg
p1555
aVnon
p1556
aVprosthes
p1557
aVelut
p1558
aVpeg
p1559
asI5624411
(lp1560
Vstent
p1561
aVdrug
p1562
aVintravascular
p1563
aVpolym
p1564
aVbiostabl
p1565
aVporous
p1566
aVtherapeut
p1567
aVsubstanc
p1568
aVbioabsorb
p1569
aVoverco
p1570
asI5261916
(lp1571
Vpusher
p1572
aVcoil
p1573
aVkeyway
p1574
aVvasoocclus
p1575
aVenlarg
p1576
aVsleev
p1577
aVassembl
p1578
aVinterlock
p1579
aVmember
p1580
aVdetach
p1581
asI5588579
(lp1582
Vanvil
p1583
aVinstrument
p1584
aVstapler
p1585
aVknife
p1586
aVslope
p1587
aVsurgic
p1588
aVdure
p1589
aVcircular
p1590
aVsever
p1591
aVfasten
p1592
asI5192297
(lp1593
Vstent
p1594
aVcathet
p1595
aVimplant
p1596
aVdilat
p1597
aVguid
p1598
aVballoon
p1599
aVplacement
p1600
aVrout
p1601
aVvessel
p1602
aVwithin
p1603
asI6099562
(lp1604
Vtopcoat
p1605
aVcoat
p1606
aVundercoat
p1607
aVmateri
p1608
aVpolymer
p1609
aVporosigen
p1610
aVbiostabl
p1611
aVbiolog
p1612
aVthrombogen
p1613
aVheparin
p1614
asI5941869
(lp1615
Vstenot
p1616
aVstent
p1617
aVremov
p1618
aVrecan
p1619
aVarteri
p1620
aVmateri
p1621
aVcathet
p1622
aVsens
p1623
aVmechan
p1624
aVrestenos
p1625
asI5639278
(lp1626
Vgraft
p1627
aVendolumin
p1628
aVexpand
p1629
aVbifurc
p1630
aVendoprosthesi
p1631
aVsupport
p1632
aVdiamet
p1633
aVliner
p1634
aVvessel
p1635
aVstenosi
p1636
asI5562728
(lp1637
Vcapsul
p1638
aVgraft
p1639
aVdistal
p1640
aVendovascular
p1641
aVtubular
p1642
aVcathet
p1643
aVproxim
p1644
aVunitari
p1645
aVextrem
p1646
aVwrap
p1647
asI5382259
(lp1648
Vvasoocclus
p1649
aVbraid
p1650
aVwoven
p1651
aVfibrous
p1652
aVtubular
p1653
aVcoil
p1654
aVattach
p1655
aVsegment
p1656
aVonto
p1657
aVfield
p1658
asI5921982
(lp1659
Vtissu
p1660
aVprobe
p1661
aVregion
p1662
aVhous
p1663
aVport
p1664
aVelement
p1665
aVwithin
p1666
aVcannula
p1667
aVablat
p1668
aVend
p1669
asI6171327
(lp1670
Vfilter
p1671
aVcathet
p1672
aVatraumat
p1673
aVdistal
p1674
aVintravascular
p1675
aVguidewir
p1676
aVhous
p1677
aVretriev
p1678
aVsite
p1679
aVdeliv
p1680
asI5122154
(lp1681
Vsleev
p1682
aVgraft
p1683
aVstent
p1684
aVsection
p1685
aVexpand
p1686
aVstate
p1687
aVlumen
p1688
aVduct
p1689
aVblood
p1690
aVcompact
p1691
asI5411520
(lp1692
Vpunctur
p1693
aVtract
p1694
aVanchor
p1695
aVplug
p1696
aVclosur
p1697
aVintroduc
p1698
aVdome
p1699
aVcarrier
p1700
aVvessel
p1701
aVhemostat
p1702
asI5681282
(lp1703
Velectrosurg
p1704
aVarray
p1705
aVprobe
p1706
aVablat
p1707
aVelectrod
p1708
aVdistal
p1709
aVsuppli
p1710
aVmucos
p1711
aVpower
p1712
aVprostat
p1713
asI6161543
(lp1714
Vheart
p1715
aVablat
p1716
aVprobe
p1717
aVelong
p1718
aVepicardi
p1719
aVtissu
p1720
aVhemostat
p1721
aVlesion
p1722
aVshaft
p1723
aVchest
p1724
asI5575818
(lp1725
Vbraid
p1726
aVstent
p1727
aVring
p1728
aVlock
p1729
aVportion
p1730
aVpitch
p1731
aVbarb
p1732
aVangl
p1733
aVendovascular
p1734
aVingrowth
p1735
asI5059211
(lp1736
Vstent
p1737
aVcite
p1738
aVexpand
p1739
aVcathet
p1740
aVarteri
p1741
aVobstruct
p1742
aVstenot
p1743
aVdeliveri
p1744
aVbioabsorb
p1745
aVingrowth
p1746
asI4921484
(lp1747
Vmesh
p1748
aVcathet
p1749
aVtubular
p1750
aVballoon
p1751
aVdistal
p1752
aVend
p1753
aVproxim
p1754
aVtube
p1755
aVinterlac
p1756
aVwoven
p1757
asI5192301
(lp1758
Vplug
p1759
aVclose
p1760
aVdefect
p1761
aVinsert
p1762
aVshape
p1763
aVfacilit
p1764
aVwire
p1765
aVpercutan
p1766
aVdegre
p1767
aVdevic
p1768
asI5197971
(lp1769
Vretractor
p1770
aVtissu
p1771
aVexpand
p1772
aVarthroscop
p1773
aVsub
p1774
aVpercutan
p1775
aVsurgeon
p1776
aVportal
p1777
aVcannula
p1778
aVagainst
p1779
asI5158548
(lp1780
Vstent
p1781
aVexpand
p1782
aVcathet
p1783
aVdistal
p1784
aVguidewir
p1785
aVsheath
p1786
aVbodi
p1787
aVlumen
p1788
aVcontract
p1789
aVmember
p1790
asI5676697
(lp1791
Vgraft
p1792
aVintralumin
p1793
aVvessel
p1794
aVbifurc
p1795
aVwaist
p1796
aVtrunk
p1797
aVlumen
p1798
aVaneurysm
p1799
aVcollaps
p1800
aVexpand
p1801
asI5197978
(lp1802
Vtissu
p1803
aVexpand
p1804
aVangioplasti
p1805
aVrecover
p1806
aVstent
p1807
aVlike
p1808
aVheat
p1809
aVremov
p1810
aVrecoveri
p1811
aVsupport
p1812
asI5061275
(lp1813
Vprosthesi
p1814
aVbodi
p1815
aVelement
p1816
aVhelix
p1817
aVexpand
p1818
aVthread
p1819
aVtubular
p1820
aVself
p1821
aVdiamet
p1822
aVunload
p1823
asI5449372
(lp1824
Vstent
p1825
aVvessel
p1826
aVperfus
p1827
aVportion
p1828
aVtemporari
p1829
aVcomposit
p1830
aVvasospasm
p1831
aVvasoconstrict
p1832
aVsupport
p1833
aVpatenc
p1834
asI5693085
(lp1835
Vcollagen
p1836
aVstent
p1837
aVbiocompat
p1838
aVvascular
p1839
aVfind
p1840
aVstem
p1841
aVimplant
p1842
aVtreatment
p1843
aVincreas
p1844
aVappli
p1845
asI6629534
(lp1846
Vvalv
p1847
aVatrioventricular
p1848
aVleaflet
p1849
aVrepair
p1850
aVcardiac
p1851
aVmodifi
p1852
aVheart
p1853
aVchorda
p1854
aVtemporarili
p1855
aVpapillari
p1856
asI5507744
(lp1857
Vpunctur
p1858
aVvascular
p1859
aVtissu
p1860
aVseal
p1861
aVthermal
p1862
aVenergi
p1863
aVfuse
p1864
aVocclud
p1865
aVtogeth
p1866
aVclose
p1867
asI5709224
(lp1868
Vcollaps
p1869
aVvessel
p1870
aVblood
p1871
aVocclus
p1872
aVlumen
p1873
aVmonopolar
p1874
aVspreadabl
p1875
aVmechan
p1876
aVradiofrequ
p1877
aVappli
p1878
asI5458597
(lp1879
Vtissu
p1880
aVfluid
p1881
aVelectrod
p1882
aVdistribut
p1883
aVstylet
p1884
aVport
p1885
aVmalign
p1886
aVtreat
p1887
aVbodi
p1888
aVcapsul
p1889
asI5599345
(lp1890
Vneedl
p1891
aVelectrod
p1892
aVlumen
p1893
aVcathet
p1894
aVintroduc
p1895
aVsensor
p1896
aVdistal
p1897
aVslidabl
p1898
aVpower
p1899
aVposit
p1900
asI5344426
(lp1901
Vstent
p1902
aVexpand
p1903
aVcathet
p1904
aVdistal
p1905
aVguidewir
p1906
aVsheath
p1907
aVbodi
p1908
aVlumen
p1909
aVcontract
p1910
aVmember
p1911
asI5925063
(lp1912
Vflap
p1913
aVbiocompat
p1914
aVinterior
p1915
aVlumen
p1916
aVsheet
p1917
aVdeploy
p1918
aVtranslumin
p1919
aVinward
p1920
aVcoil
p1921
aVradial
p1922
asI5135536
(lp1923
Vstent
p1924
aVwire
p1925
aVendovascular
p1926
aVdiamet
p1927
aVballoon
p1928
aVmandrel
p1929
aVcathet
p1930
aVbent
p1931
aVjunction
p1932
aVtight
p1933
asI5667523
(lp1934
Vgraft
p1935
aVstent
p1936
aVintralumin
p1937
aVptfe
p1938
aVsupport
p1939
aVstructur
p1940
aVinsepar
p1941
aVdual
p1942
aVconcentr
p1943
aVlayer
p1944
asI5507767
(lp1945
Vstent
p1946
aVzigzag
p1947
aVbend
p1948
aVpattern
p1949
aVpassageway
p1950
aVstraight
p1951
aVwire
p1952
aVhelix
p1953
aVexpand
p1954
aVtubular
p1955
asI5507769
(lp1956
Vgraftstent
p1957
aVcephal
p1958
aVvessel
p1959
aVendolumin
p1960
aVaneurysm
p1961
aVbranch
p1962
aVblood
p1963
aVstent
p1964
aVcomplex
p1965
aVcommon
p1966
asI5810874
(lp1967
Vcathet
p1968
aVbasic
p1969
aVdistal
p1970
aVfilter
p1971
aVstrip
p1972
aVend
p1973
aVbodi
p1974
aVtemporari
p1975
aVconnect
p1976
aVcircumfer
p1977
asI5700286
(lp1978
Vstent
p1979
aVlubrici
p1980
aVexpand
p1981
aVwrap
p1982
aVpolyethylen
p1983
aVstructur
p1984
aVmateri
p1985
aVpolyvinyl
p1986
aVpolymer
p1987
aVmember
p1988
asI6379381
(lp1989
Vdepot
p1990
aVprosthesi
p1991
aVsubstanc
p1992
aVpore
p1993
aVpreselect
p1994
aVshape
p1995
aVtherapeut
p1996
aVpolymer
p1997
aVradiopaqu
p1998
aVcylindr
p1999
asI5108416
(lp2000
Vstent
p2001
aVballoon
p2002
aVcathet
p2003
aVinflat
p2004
aVstenosi
p2005
aVexpand
p2006
aVpatient
p2007
aVintroduc
p2008
aVretain
p2009
aVdeflat
p2010
asI5405377
(lp2011
Vstent
p2012
aVintralumin
p2013
aVapic
p2014
aVzag
p2015
aVzig
p2016
aVcompress
p2017
aVwire
p2018
aVhelix
p2019
aVimplant
p2020
aVconfigur
p2021
asI5108419
(lp2022
Varteri
p2023
aVfilter
p2024
aVstenosi
p2025
aVendovascular
p2026
aVplaqu
p2027
aVblood
p2028
aVelement
p2029
aVstock
p2030
aVmouth
p2031
aVparticl
p2032
asI5108420
(lp2033
Vwire
p2034
aVapertur
p2035
aVpreprogram
p2036
aVocclus
p2037
aVconfigur
p2038
aVseptal
p2039
aVbodi
p2040
aVatrial
p2041
aVelong
p2042
aVventricular
p2043
asI6096070
(lp2044
Vbioactiv
p2045
aVparylen
p2046
aVmedic
p2047
aVtract
p2048
aVlayer
p2049
aVstructur
p2050
aVporous
p2051
aVbiliari
p2052
aVimplant
p2053
aVvapor
p2054
asI5776161
(lp2055
Vstent
p2056
aVexpans
p2057
aVexpand
p2058
aVstrain
p2059
aVminim
p2060
aVlongitudin
p2061
aVflexibl
p2062
aVtube
p2063
aVfilm
p2064
aVballoon
p2065
asI5334217
(lp2066
Vdisk
p2067
aVdefect
p2068
aVseptal
p2069
aVmembran
p2070
aVcathet
p2071
aVconjoint
p2072
aVtaut
p2073
aVclosur
p2074
aVocclud
p2075
aVelast
p2076
asI5380299
(lp2077
Vthrombolyt
p2078
aVmedic
p2079
aVagent
p2080
aVintravascular
p2081
aVthrombus
p2082
aVdip
p2083
aVvascular
p2084
aVdevic
p2085
aVantithrombogen
p2086
aVmateri
p2087
asI4966604
(lp2088
Vtorqu
p2089
aVblade
p2090
aVtip
p2091
aVbow
p2092
aVtube
p2093
aVexpand
p2094
aVflexibl
p2095
aVatherectomi
p2096
aVoutward
p2097
aVdesmodrom
p2098
asI5078736
(lp2099
Vdisrupt
p2100
aVpatenc
p2101
aVexcis
p2102
aVpassag
p2103
aVgrowth
p2104
aVradio
p2105
aVmechan
p2106
aVcellular
p2107
aVmesh
p2108
aVfrequenc
p2109
asI5840081
(lp2110
Vapic
p2111
aVvalv
p2112
aVstent
p2113
aVcommissur
p2114
aVimplant
p2115
aVprosthesi
p2116
aVcardiac
p2117
aVcathet
p2118
aVcollaps
p2119
aVexpand
p2120
asI4950227
(lp2121
Vstent
p2122
aVcathet
p2123
aVcontract
p2124
aVmargin
p2125
aVexpans
p2126
aVexpand
p2127
aVstate
p2128
aVcondit
p2129
aVdistal
p2130
aVsleev
p2131
asI5383892
(lp2132
Vstent
p2133
aVaxial
p2134
aVcylindr
p2135
aVpart
p2136
aVrigid
p2137
aVflexibl
p2138
aVtranslumin
p2139
aVexpand
p2140
aVjuxtaposit
p2141
aVradial
p2142
asI5015253
(lp2143
Vendoprosthesi
p2144
aVwoven
p2145
aVstent
p2146
aVnon
p2147
aVstrand
p2148
aVsite
p2149
aVstructur
p2150
aVsomewhat
p2151
aVfrangibl
p2152
aVgeneral
p2153
asI6273913
(lp2154
Vstent
p2155
aVrestenosi
p2156
aVneointim
p2157
aVrapamycin
p2158
aVinhibit
p2159
aVdeliveri
p2160
aVintravascular
p2161
aVmicropor
p2162
aVprolifer
p2163
aVstrut
p2164
asI6024740
(lp2165
sI5366490
(lp2166
Vstylet
p2167
aVtissu
p2168
aVcathet
p2169
aVport
p2170
aVconductor
p2171
aVtarget
p2172
aVprobe
p2173
aVguid
p2174
aVinterven
p2175
aVlumen
p2176
asI6165212
(lp2177
Vgraft
p2178
aVexpand
p2179
aVendolumin
p2180
aVendoprosthesi
p2181
aVliner
p2182
aVdiamet
p2183
aVelastomer
p2184
aVsupport
p2185
aVstenosi
p2186
aVbifurc
p2187
asI5195984
(lp2188
Vgraft
p2189
aVexpand
p2190
aVintralumin
p2191
aVtubular
p2192
aVblood
p2193
aVmember
p2194
aVvessel
p2195
aVangioplasti
p2196
aVdilat
p2197
aVlongitudin
p2198
asI5843172
(lp2199
Vstent
p2200
aVvasculatur
p2201
aVmedic
p2202
aVpore
p2203
aVmetal
p2204
aVdiseas
p2205
aVdeploy
p2206
aVporous
p2207
aVsite
p2208
aVdeliv
p2209
asI5366504
(lp2210
Vprosthesi
p2211
aVstrand
p2212
aVtubular
p2213
aVknit
p2214
aVlumen
p2215
aVloop
p2216
aVmateri
p2217
aVwall
p2218
aVloos
p2219
aVshape
p2220
asI5147370
(lp2221
Vstent
p2222
aVplacement
p2223
aVmandril
p2224
aVnitinol
p2225
aVmaniupl
p2226
aVshape
p2227
aVradiologist
p2228
aVdevic
p2229
aVhollow
p2230
aVend
p2231
asI5799661
(lp2232
Varteri
p2233
aVgraft
p2234
aVcabg
p2235
aVcoronari
p2236
aVretractor
p2237
aVport
p2238
aVmultivessel
p2239
aVaccess
p2240
aVchest
p2241
aVintercost
p2242
asI5873904
(lp2243
Vbioactiv
p2244
aVsilver
p2245
aVparylen
p2246
aVmedic
p2247
aVtract
p2248
aVimplant
p2249
aVmateri
p2250
aVstent
p2251
aVlayer
p2252
aVstructur
p2253
asI6152946
(lp2254
Vvessel
p2255
aVdeploy
p2256
aVcollaps
p2257
aVprofil
p2258
aVdebri
p2259
aVbodi
p2260
aVfilter
p2261
aVtaper
p2262
aVfloat
p2263
aVemboli
p2264
asI5064435
(lp2265
Vstent
p2266
aVsegment
p2267
aVaxial
p2268
aVcontract
p2269
aVlength
p2270
aVexpand
p2271
aVfixat
p2272
aVradial
p2273
aVopposit
p2274
aVoverlap
p2275
asI5609627
(lp2276
Vendolumin
p2277
aVbifurc
p2278
aVprosthesi
p2279
aVdeliv
p2280
aVmethod
p2281
aVfor
p2282
asI6012457
(lp2283
sI5683451
(lp2284
Vprosthesi
p2285
aVrunner
p2286
aVretract
p2287
aVcover
p2288
aVcathet
p2289
aVhard
p2290
aVtubular
p2291
aVintralumin
p2292
aVproxim
p2293
aVprosthes
p2294
asI5827324
(lp2295
Vemboli
p2296
aVguidewir
p2297
aVcaptur
p2298
aVexpand
p2299
aVlumen
p2300
aVdistal
p2301
aVvasculatur
p2302
aVmember
p2303
aVcoupl
p2304
aVdeploy
p2305
asI5545214
(lp2306
Vvalv
p2307
aVendovascular
p2308
aVreplac
p2309
aVprosthet
p2310
aVheart
p2311
aVprocedur
p2312
aVintralumin
p2313
aVaortic
p2314
aVmalfunct
p2315
aVcapsul
p2316
asI6027520
(lp2317
Vcathet
p2318
aVstent
p2319
aVfilter
p2320
aVvessel
p2321
aVguidewir
p2322
aVpercutan
p2323
aVstenos
p2324
aVblood
p2325
aVaortic
p2326
aVframe
p2327
asI5674242
(lp2328
Vendoprosthet
p2329
aVcoexpans
p2330
aVpolym
p2331
aVstimulus
p2332
aVmember
p2333
aVtherapeut
p2334
aVexpos
p2335
aVvascular
p2336
aVdevic
p2337
aVcompound
p2338
asI5423885
(lp2339
Vstent
p2340
aVprotrus
p2341
aVarteri
p2342
aVexpand
p2343
aVballoon
p2344
aVcathet
p2345
aVbodi
p2346
aVvacat
p2347
aVbioabsorb
p2348
aVapertur
p2349
asI5569295
(lp2350
Vstent
p2351
aVexpand
p2352
aVradial
p2353
aVexpans
p2354
aVcylindr
p2355
aVinterconnect
p2356
aVserpentin
p2357
aVlongitudin
p2358
aVarteri
p2359
aVgeneral
p2360
asI6190353
(lp2361
Vextravascular
p2362
aVvascular
p2363
aVpassageway
p2364
aVrevascular
p2365
aVprocedur
p2366
aVblood
p2367
aVintracorpor
p2368
aVmedic
p2369
aVnon
p2370
aVperform
p2371
asI5104404
(lp2372
Vstent
p2373
aVsegment
p2374
aVarticul
p2375
aVhing
p2376
aVwire
p2377
aVarteri
p2378
aVweld
p2379
aVnecessari
p2380
aVbetween
p2381
aVadjac
p2382
asI6042875
(lp2383
Vdrug
p2384
aVionic
p2385
aVmedic
p2386
aVcoat
p2387
aVsurfact
p2388
aVpharmacolog
p2389
aVlayer
p2390
aVreleas
p2391
aVvacant
p2392
aVbound
p2393
asI5234456
(lp2394
Vhollow
p2395
aVstent
p2396
aVwall
p2397
aVhydrophil
p2398
aVplacement
p2399
aVmembran
p2400
aVswell
p2401
aVinflat
p2402
aVsite
p2403
aVcan
p2404
asI5234457
(lp2405
Vstent
p2406
aVimpregn
p2407
aVdissolv
p2408
aVcompact
p2409
aVvessel
p2410
aVdeliveri
p2411
aVmateri
p2412
aVliquid
p2413
aVassembl
p2414
aVit
p2415
asI5456667
(lp2416
Vcathet
p2417
aVexpand
p2418
aVarteri
p2419
aVvascular
p2420
aVfluid
p2421
aVprocedur
p2422
aVregion
p2423
aVangioplasti
p2424
aVpiec
p2425
aVintravascular
p2426
asI5370657
(lp2427
Vthrombosi
p2428
aVvein
p2429
aVfilter
p2430
aVendoven
p2431
aVneointima
p2432
aVimpal
p2433
aVwall
p2434
aVcore
p2435
aVrecover
p2436
aVunit
p2437
asI5807395
(lp2438
Vtissu
p2439
aVneedl
p2440
aVcathet
p2441
aVablat
p2442
aVelectrod
p2443
aVtreat
p2444
aVhypertherm
p2445
aVinfus
p2446
aVhyperthermia
p2447
aVhollow
p2448
asI5800457
(lp2449
Vfilter
p2450
aVintravascular
p2451
aVdownstream
p2452
aVbodi
p2453
aVdebri
p2454
aVtaper
p2455
aVinstrument
p2456
aVbevel
p2457
aVend
p2458
aVport
p2459
asI5679400
(lp2460
Vstent
p2461
aVdrug
p2462
aVsolvent
p2463
aVintravascular
p2464
aVpolym
p2465
aVbiostabl
p2466
aVdexamethason
p2467
aVexpans
p2468
aVbioabsorb
p2469
aVsolut
p2470
asI5527337
(lp2471
Vbioabsorb
p2472
aVstent
p2473
aVstenot
p2474
aVencapsul
p2475
aVdisadvantag
p2476
aVchronic
p2477
aVaneur
p2478
aVblood
p2479
aVvessel
p2480
aVimplant
p2481
asI5292331
(lp2482
Vendovascular
p2483
aVvessel
p2484
aVwirelik
p2485
aVaffect
p2486
aVrestenosi
p2487
aVcoronari
p2488
aVsupport
p2489
aVchronic
p2490
aVvascular
p2491
aVdevic
p2492
asI5980972
(lp2493
Vdrug
p2494
aVsolvent
p2495
aVcoat
p2496
aVpolym
p2497
aVcan
p2498
aVsystem
p2499
aVappli
p2500
aVdissolv
p2501
aVspray
p2502
aVsuspend
p2503
asI6458153
(lp2504
Vvenous
p2505
aVprosthet
p2506
aVcardiac
p2507
aVvalvuloplasti
p2508
aVvalv
p2509
aVtranslumin
p2510
aVendolumin
p2511
aVprosthes
p2512
aVpercutan
p2513
aVinvas
p2514
asI5609629
(lp2515
Vdexamethason
p2516
aVbioactiv
p2517
aVheparin
p2518
aVlayer
p2519
aVparylen
p2520
aVmateri
p2521
aVtract
p2522
aVporous
p2523
aVbiliari
p2524
aVmedic
p2525
asI5389106
(lp2526
Vsection
p2527
aVexpand
p2528
aVcircumferenti
p2529
aVstent
p2530
aVimperm
p2531
aVintravascular
p2532
aVradial
p2533
aVframe
p2534
aVmembran
p2535
aVexpans
p2536
asI4830003
(lp2537
Vstent
p2538
aVwire
p2539
aVcathet
p2540
aVweld
p2541
aVrestenosi
p2542
aVcompress
p2543
aVbiocompat
p2544
aVarteri
p2545
aVacut
p2546
aVpair
p2547
asI5413571
(lp2548
Vincis
p2549
aVhemostat
p2550
aVseal
p2551
aVpatient
p2552
aVballoon
p2553
aVmember
p2554
aVbioabsorb
p2555
aVbodi
p2556
aVdevic
p2557
aVcollagen
p2558
asI5354295
(lp2559
Vmicrocathet
p2560
aVtip
p2561
aVcaviti
p2562
aVendovascular
p2563
aVwire
p2564
aVvascular
p2565
aVpack
p2566
aVblood
p2567
aVocclus
p2568
aVarteri
p2569
asI5776184
(lp2570
Vdrug
p2571
aVstent
p2572
aVintravasoular
p2573
aVpolym
p2574
aVbiostabl
p2575
aVbioabsorb
p2576
aVintim
p2577
aVlumen
p2578
aVadministr
p2579
aVtherapeut
p2580
asI5360443
(lp2581
Vaortic
p2582
aVgraft
p2583
aVaorta
p2584
aVaneurysm
p2585
aVabdomin
p2586
aVrepair
p2587
aVtubular
p2588
aVintralumin
p2589
aVexpans
p2590
aVdeform
p2591
asI5370685
(lp2592
Vvalv
p2593
aVendovascular
p2594
aVreplac
p2595
aVprosthet
p2596
aVheart
p2597
aVprocedur
p2598
aVintralumin
p2599
aVaortic
p2600
aVmalfunct
p2601
aVcapsul
p2602
asI5865791
(lp2603
Vappendag
p2604
aVatrial
p2605
aVreposit
p2606
aVloop
p2607
aVdevic
p2608
aVperimet
p2609
aVstasi
p2610
aVdeploy
p2611
aVaffect
p2612
aVcarri
p2613
asI5605696
(lp2614
Vdrug
p2615
aVstent
p2616
aVtherapeut
p2617
aVpolymer
p2618
aVmateri
p2619
aVload
p2620
aVcoextrus
p2621
aVincorpor
p2622
aVintravascular
p2623
aVlayer
p2624
asI5354309
(lp2625
Vwiden
p2626
aVstenosi
p2627
aVtemperatur
p2628
aVcontour
p2629
aVuret
p2630
aVtransit
p2631
aVbile
p2632
aVbodi
p2633
aVcaviti
p2634
aVcylindr
p2635
asI4907336
(lp2636
Vwire
p2637
aVcylindr
p2638
aVtrough
p2639
aVserpentin
p2640
aVstent
p2641
aVbar
p2642
aVloop
p2643
aVexpos
p2644
aVshape
p2645
aVcathet
p2646
asI5342348
(lp2647
Vbioactiv
p2648
aVlumen
p2649
aVdilat
p2650
aVsubstanc
p2651
aVmatric
p2652
aVdeliveri
p2653
aVstent
p2654
aVfilament
p2655
aVstenosi
p2656
aVerod
p2657
asI4820298
(lp2658
Vhelix
p2659
aVstylet
p2660
aVbodi
p2661
aVassum
p2662
aVmedic
p2663
aVingrowth
p2664
aVtubular
p2665
aVaneurysm
p2666
aVclot
p2667
aVdilat
p2668
asI5534007
(lp2669
Vstent
p2670
aVsheath
p2671
aVcathet
p2672
aVdistal
p2673
aVdeliveri
p2674
aVcollaps
p2675
aVretract
p2676
aVpull
p2677
aVproxim
p2678
aVconcentr
p2679
asI5865814
(lp2680
Vheparin
p2681
aVblood
p2682
aVcontact
p2683
aVcoat
p2684
aVbiostabl
p2685
aVporous
p2686
aVmedic
p2687
aVbioabsorb
p2688
aVpolym
p2689
aVoverlaid
p2690
asI5489295
(lp2691
Vbifurc
p2692
aVleg
p2693
aVmain
p2694
aVbodi
p2695
aVgraft
p2696
aVopen
p2697
aVexpand
p2698
aVendovascular
p2699
aVtubular
p2700
aVsaid
p2701
asI5201757
(lp2702
Vstent
p2703
aVsleev
p2704
aVcathet
p2705
aVmedial
p2706
aVradial
p2707
aVaxial
p2708
aVanoth
p2709
aVexpand
p2710
aVself
p2711
aVregion
p2712
asI6153252
(lp2713
Vstent
p2714
aVbiocompat
p2715
aVcoat
p2716
aVpassag
p2717
aVpolym
p2718
aVfilm
p2719
aVblockag
p2720
aVprocess
p2721
aVsaid
p2722
aVbridg
p2723
asI5639008
(lp2724
Vanvil
p2725
aVinstrument
p2726
aVstapler
p2727
aVknife
p2728
aVslope
p2729
aVsurgic
p2730
aVdure
p2731
aVcircular
p2732
aVsever
p2733
aVfasten
p2734
asI6575969
(lp2735
Vcool
p2736
aVablat
p2737
aVradiofrequ
p2738
aVtip
p2739
aVelectrod
p2740
aVwill
p2741
aVfrequenc
p2742
aVpatent
p2743
aVworkstion
p2744
aVmonitor
p2745
asI5972027
(lp2746
Vstent
p2747
aVdrug
p2748
aVcast
p2749
aVporous
p2750
aVpowder
p2751
aVintralumin
p2752
aVpolym
p2753
aVtreatment
p2754
aVporos
p2755
aVpore
p2756
asI6042598
(lp2757
Vcathet
p2758
aVstent
p2759
aVvessel
p2760
aVfilter
p2761
aVstenos
p2762
aVblood
p2763
aVaortic
p2764
aVembol
p2765
aVframe
p2766
aVguidewir
p2767
asI5540712
(lp2768
Vframe
p2769
aVstent
p2770
aVcondit
p2771
aVassum
p2772
aVsubstanti
p2773
aVskelet
p2774
aVdevoid
p2775
aVwall
p2776
aVadapt
p2777
aVconfigur
p2778
asI5855597
(lp2779
Vstar
p2780
aVstent
p2781
aVcuspid
p2782
aVvalv
p2783
aVshape
p2784
aVaortic
p2785
aVchain
p2786
aVtri
p2787
aVreplac
p2788
aVgraft
p2789
asI5957949
(lp2790
Vartifici
p2791
aVgraft
p2792
aVvalv
p2793
aVballoon
p2794
aVcathet
p2795
aVpassag
p2796
aVmicroembol
p2797
aVtissu
p2798
aVstent
p2799
aVtubular
p2800
asI5725552
(lp2801
Vfabric
p2802
aVmedic
p2803
aVmetal
p2804
aVmold
p2805
aVcathet
p2806
aVdeform
p2807
aVintravascular
p2808
aVdevic
p2809
aVpercutan
p2810
aVelement
p2811
asI5855601
(lp2812
Vstent
p2813
aVvalv
p2814
aVleaflet
p2815
aVmember
p2816
aVcylindr
p2817
aVcircular
p2818
aVartifici
p2819
aVheart
p2820
aVshape
p2821
aVdiamet
p2822
asI5037427
(lp2823
Vinstrument
p2824
aVtubular
p2825
aVorgan
p2826
aVcathet
p2827
aVexpand
p2828
aVmount
p2829
aVwithin
p2830
aVshrink
p2831
aVstent
p2832
aVsaid
p2833
asI5628788
(lp2834
Vstent
p2835
aVgraft
p2836
aVelastomer
p2837
aVtubular
p2838
aVadhes
p2839
aVdeform
p2840
aVendolumin
p2841
aVexpand
p2842
aVmateri
p2843
aVself
p2844
asI5697909
(lp2845
sI5634936
(lp2846
Vdefect
p2847
aVseptal
p2848
aVharden
p2849
aVcathet
p2850
aVtissu
p2851
aVprecipit
p2852
aVgrowth
p2853
aVfactor
p2854
aVmitogen
p2855
aVingrowth
p2856
asI6231600
(lp2857
Vcoat
p2858
aVheparin
p2859
aVstent
p2860
aVcrosslink
p2861
aVclot
p2862
aVpolym
p2863
aVagent
p2864
aVrestenosi
p2865
aVpacitaxel
p2866
aVinhibit
p2867
asI5855614
(lp2868
Vheart
p2869
aVseptal
p2870
aVmuscular
p2871
aVaccess
p2872
aVpenetr
p2873
aVintercost
p2874
aVdefect
p2875
aVdevic
p2876
aVlumen
p2877
aVtubular
p2878
asI5433727
(lp2879
Vocclud
p2880
aVdefect
p2881
aVbutton
p2882
aVseptal
p2883
aVcenter
p2884
aVatrial
p2885
aVcounter
p2886
aVocclus
p2887
aVlarg
p2888
aVheart
p2889
asI5151105
(lp2890
Vsleev
p2891
aVtack
p2892
aVaorta
p2893
aVcollaps
p2894
aVaneurysm
p2895
aVbarb
p2896
aVarteri
p2897
aVimplant
p2898
aVfemor
p2899
aVthroacic
p2900
asI5755778
(lp2901
Vanastomosi
p2902
aVvessel
p2903
aVbodi
p2904
aVmember
p2905
aVlumin
p2906
aVbio
p2907
aVimpervi
p2908
aVtwo
p2909
aVwall
p2910
aVgraft
p2911
asI5421955
(lp2912
Vstent
p2913
aVtube
p2914
aVexpand
p2915
aVcoat
p2916
aVpattern
p2917
aVremov
p2918
aVcylindr
p2919
aVinterconnect
p2920
aVradial
p2921
aVexpos
p2922
asI5100423
(lp2923
Vbasket
p2924
aVwire
p2925
aVvessel
p2926
aVcut
p2927
aVobstruct
p2928
aVsheath
p2929
aVcathet
p2930
aVshaft
p2931
aVablat
p2932
aVintima
p2933
asI4998539
(lp2934
Varteri
p2935
aVcuff
p2936
aVendo
p2937
aVrepair
p2938
aVdetach
p2939
aVballoon
p2940
aVwal
p2941
aVwire
p2942
aVcathet
p2943
aVinflat
p2944
asI5160342
(lp2945
Varteri
p2946
aVfilter
p2947
aVstenosi
p2948
aVendovascular
p2949
aVplaqu
p2950
aVblood
p2951
aVelement
p2952
aVstock
p2953
aVmouth
p2954
aVparticl
p2955
asI5250071
(lp2956
Vembol
p2957
aVcoil
p2958
aVcathet
p2959
aVclasp
p2960
aVinterlock
p2961
aVvasculatur
p2962
aVwire
p2963
aVuncoupl
p2964
aVbodi
p2965
aVsurgic
p2966
asI5370675
(lp2967
Vstylet
p2968
aVcathet
p2969
aVtissu
p2970
aVport
p2971
aVguid
p2972
aVconductor
p2973
aVtarget
p2974
aVprobe
p2975
aVinterven
p2976
aVcan
p2977
asI5226911
(lp2978
Vfibrous
p2979
aVcoil
p2980
aVvasoocclus
p2981
aVelement
p2982
aVocclud
p2983
aVsinusoid
p2984
aVattach
p2985
aVhelic
p2986
aVblood
p2987
aVextend
p2988
asI5226913
(lp2989
Vstent
p2990
aVcircumferenti
p2991
aVexpand
p2992
aVradial
p2993
aVendoprosthes
p2994
aVgeneral
p2995
aVprosthesi
p2996
aVsection
p2997
aVimpart
p2998
aVsegment
p2999
asI5944738
(lp3000
Vmedic
p3001
aVcathet
p3002
aVocclud
p3003
aVdevic
p3004
aVparadox
p3005
aVshape
p3006
aVfabric
p3007
aVpfo
p3008
aVcollaps
p3009
aVdesir
p3010
asI4655771
(lp3011
Vtranslumin
p3012
aVprosthesi
p3013
aVaxial
p3014
aVbodi
p3015
aVbut
p3016
aVimplant
p3017
aVwind
p3018
aVcontractil
p3019
aVtubular
p3020
aVdisplac
p3021
asI5133732
(lp3022
Vstent
p3023
aVimplant
p3024
aVbodi
p3025
aVzag
p3026
aVzig
p3027
aVintravascular
p3028
aVballoon
p3029
aVstretch
p3030
aVmean
p3031
aVexpans
p3032
asI6237605
(lp3033
Vtransmur
p3034
aVlesion
p3035
aVepicardi
p3036
aVablat
p3037
aVpericardi
p3038
aVmyocardium
p3039
aVatrial
p3040
aVfibril
p3041
aVvein
p3042
aVpulmonari
p3043
asI5910154
(lp3044
Vcathet
p3045
aVstent
p3046
aVfilter
p3047
aVvessel
p3048
aVguidewir
p3049
aVpercutan
p3050
aVstenos
p3051
aVblood
p3052
aVaortic
p3053
aVframe
p3054
asI5314472
(lp3055
Vfilament
p3056
aVstent
p3057
aVvascular
p3058
aVspiral
p3059
aVhoop
p3060
aVshape
p3061
aVwound
p3062
aVwave
p3063
aVend
p3064
aVslide
p3065
asI5443497
(lp3066
Vstent
p3067
aVdistal
p3068
aVprosthet
p3069
aVpassag
p3070
aVproxim
p3071
aVlumen
p3072
aVflow
p3073
aVcentral
p3074
aVsidewal
p3075
aVmember
p3076
asI5443498
(lp3077
Vstent
p3078
aVcell
p3079
aVoblong
p3080
aVvacsular
p3081
aVbodi
p3082
aVvascular
p3083
aVunexpand
p3084
aVtubular
p3085
aVlongitudin
p3086
aVside
p3087
asI5443500
(lp3088
Vballoon
p3089
aVintravascular
p3090
aVdeflat
p3091
aVvessel
p3092
aVstent
p3093
aVroll
p3094
aVtie
p3095
aVlink
p3096
aVsheet
p3097
aVstenot
p3098
asI6290674
(lp3099
Vseptal
p3100
aVatrial
p3101
aVtissu
p3102
aVforeman
p3103
aVcathet
p3104
aVdefect
p3105
aVclosur
p3106
aVintracardiac
p3107
aVclose
p3108
aVappendag
p3109
asI5306286
(lp3110
Vstent
p3111
aVcite
p3112
aVexpand
p3113
aVcathet
p3114
aVarteri
p3115
aVobstruct
p3116
aVstenot
p3117
aVdeliveri
p3118
aVbioabsorb
p3119
aVingrowth
p3120
asI5449373
(lp3121
Vstent
p3122
aVarticul
p3123
aVcurv
p3124
aVsegment
p3125
aVconnector
p3126
aVbodili
p3127
aVcoronari
p3128
aVarteri
p3129
aVrelax
p3130
aVflex
p3131
asI5456712
(lp3132
Vgraft
p3133
aVstent
p3134
aVblood
p3135
aVsidewal
p3136
aVvessel
p3137
aVarteriotomi
p3138
aVorific
p3139
aVposition
p3140
aVassembl
p3141
aVportion
p3142
asI5833650
(lp3143
Vlumen
p3144
aVballoon
p3145
aVdistal
p3146
aVstenosi
p3147
aVextrem
p3148
aVperfus
p3149
aVvessel
p3150
aVtubular
p3151
aVinflat
p3152
aVocclus
p3153
asI5697971
(lp3154
sI5163958
(lp3155
Vendoprosthesi
p3156
aVcarbon
p3157
aVstent
p3158
aVcoat
p3159
aVantithrombogen
p3160
aVporous
p3161
aVimplant
p3162
aVingrowth
p3163
aVtubular
p3164
aVunderlay
p3165
asI5316023
(lp3166
Vaortic
p3167
aVaorta
p3168
aVbilater
p3169
aVintra
p3170
aVgraft
p3171
aVbypass
p3172
aVdeform
p3173
aVtubular
p3174
aVintralumin
p3175
aVaneurysm
p3176
asI5472441
(lp3177
sI5312415
(lp3178
Vembol
p3179
aVcoil
p3180
aVcathet
p3181
aVplacement
p3182
aVguidewir
p3183
aVlumen
p3184
aVvasculatur
p3185
aVconstrict
p3186
aVpusher
p3187
aVspecif
p3188
asI6395326
(lp3189
Vcoat
p3190
aVpattern
p3191
aVstent
p3192
aVprosthesi
p3193
aVdisclos
p3194
aVdeposit
p3195
aVonto
p3196
aVexampl
p3197
aVapparatus
p3198
aVform
p3199
asI6258115
(lp3200
Vstent
p3201
aVbifurc
p3202
aVbranch
p3203
aVstenot
p3204
aVdistal
p3205
aVscaffold
p3206
aVprotect
p3207
aVporos
p3208
aVallow
p3209
aVstill
p3210
asI6258121
(lp3211
Vstent
p3212
aVreleas
p3213
aVpolymer
p3214
aVtaxol
p3215
aVpla
p3216
aVcoat
p3217
aVslower
p3218
aVagent
p3219
aVfaster
p3220
aValon
p3221
asI5662671
(lp3222
Vplaqu
p3223
aVatherectomi
p3224
aVexcis
p3225
aVtrap
p3226
aVarteri
p3227
aVaorta
p3228
aVcathet
p3229
aVremov
p3230
aVfiltrat
p3231
aVinterest
p3232
asI6152144
(lp3233
Vappendag
p3234
aVatrial
p3235
aVocclud
p3236
aVleft
p3237
aVobliter
p3238
aVintraop
p3239
aVpatient
p3240
aVembol
p3241
aVpercutan
p3242
aVocclus
p3243
asI5019090
(lp3244
Vstent
p3245
aVcircumferenti
p3246
aVexpand
p3247
aVradial
p3248
aVendoprosthes
p3249
aVgeneral
p3250
aVendoprosthesi
p3251
aVsection
p3252
aVimpart
p3253
aVsegment
p3254
asI6299604
(lp3255
Vbioactiv
p3256
aVlayer
p3257
aVcoat
p3258
aVparylen
p3259
aVporous
p3260
aVtract
p3261
aVpolym
p3262
aVmateri
p3263
aVreleas
p3264
aVbiliari
p3265
asI6001118
(lp3266
Vemboli
p3267
aVcaptur
p3268
aVdistal
p3269
aVexpand
p3270
aVradial
p3271
aVelong
p3272
aVlumen
p3273
aVproxim
p3274
aVend
p3275
aVmember
p3276
asI5387235
(lp3277
Vipsilater
p3278
aVcontralater
p3279
aVgraft
p3280
aVtranslumin
p3281
aVprosthesi
p3282
aVbifurc
p3283
aVassembl
p3284
aVlimb
p3285
aViliac
p3286
aVspring
p3287
asI5275622
(lp3288
Vcapsul
p3289
aVgraft
p3290
aVdistal
p3291
aVendovascular
p3292
aVtubular
p3293
aVcathet
p3294
aVproxim
p3295
aVunitari
p3296
aVextrem
p3297
aVwrap
p3298
asI5441515
(lp3299
Vstent
p3300
aVoverlapplng
p3301
aVexpand
p3302
aVratchet
p3303
aVinterlock
p3304
aVerod
p3305
aVintravascular
p3306
aVbio
p3307
aVbiocompat
p3308
aVarteri
p3309
asI6110188
(lp3310
sI5443496
(lp3311
Vstent
p3312
aVlumen
p3313
aVbodi
p3314
aVcylindr
p3315
aVconform
p3316
aVexpand
p3317
aVpolymer
p3318
aVangioplasti
p3319
aVintravascular
p3320
aVradial
p3321
asI5716981
(lp3322
Vangiogen
p3323
aVanti
p3324
aVfactor
p3325
aVpaclitaxel
p3326
aVbiliari
p3327
aVretino
p3328
aVtracheal
p3329
aVbronchial
p3330
aVurethr
p3331
aVesophag
p3332
asI5637113
(lp3333
Vstent
p3334
aVlubrici
p3335
aVexpand
p3336
aVwrap
p3337
aVpolyethylen
p3338
aVstructur
p3339
aVmateri
p3340
aVpolyvinyl
p3341
aVpolymer
p3342
aVmember
p3343
asI5350397
(lp3344
Vembol
p3345
aVcoil
p3346
aVenlarg
p3347
aVpusher
p3348
aVcathet
p3349
aVsurgic
p3350
aVassembl
p3351
aVsocket
p3352
aVsituat
p3353
aVmember
p3354
asI5350398
(lp3355
Vpercutan
p3356
aVfilter
p3357
aVstent
p3358
aVflexibl
p3359
aVpassageway
p3360
aVcava
p3361
aVvena
p3362
aVexpand
p3363
aVinsert
p3364
aVfiltrat
p3365
astp3366
.