((lp0
I4061724
aI4310440
aI4410501
aI4440871
aI4826497
aI5125231
aI5288619
aI4500651
aI4554143
aI4567029
aI4793984
aI5057296
aI5098684
aI5126308
aI5191141
aI7533719
aI7540324
aI7549470
aI7556095
aI7556096
aI7559367
aI7559368
aI7562706
aI7562707
aI7581589
aI7584789
aI7591310
aI7597147
aI7604052
aI7610962
aI7631689
aI7631690
aI7635023
aI7635024
aI7635025
aI7644765
aI7673681
aI7673786
aI7677310
aI7677314
aI7681647
aI7683296
aI7703513
aI7717171
aI7730945
aI7730946
aI7730947
aI7735935
aI7785427
aI7793722
aI7798220
aI7832484
aI7841401
aI7841408
aI7841425
aI7845411
aI7849922
aI7866385
aI7866386
aI7866388
aI7931086
aI4686029
aI4677242
aI4861938
aI5095163
aI5246566
aI5282958
aI5714662
aI6121504
aI5407442
aI5331809
aI5544482
aI6171556
aI6182443
aI4752651
aI5364797
aI5858457
aI6329017
aI6166282
aI7640980
aI7798221
aI7831133
aI7831134
aI7860377
aI5135638
aI6090989
aI6165949
aI5733272
aI5916678
aI6121170
aI5437153
aI5448887
aI5473887
aI6568177
aI5711149
aI6167696
aI4873390
aI5741462
aI5751629
aI5874214
aI6017496
aI6251260
aI6299757
aI6329139
aI6338790
aI6461496
aI6591125
aI6592745
aI6616819
aI6618934
aI6654625
aI6682899
aI6749740
aI6942518
aI6975893
aI7041468
aI7058437
aI7225535
aI6270846
aI6387453
aI6225243
aI6617490
aI5595060
aI5713199
aI5715679
aI5735119
aI5740669
aI5743084
aI5771685
aI5832722
aI5992142
aI5732554
aI5771686
aI5974793
aI6014859
aI6109024
aI5996338
aI6622480
a(lp1
(lp2
I4061724
aa(lp3
I4310440
aI4410501
aI4440871
aI4826497
aI5125231
aI5288619
aa(lp4
I4500651
aI4554143
aI4567029
aI4793984
aI5057296
aI5098684
aI5126308
aI5191141
aI7533719
aI7540324
aI7549470
aI7556095
aI7556096
aI7559367
aI7559368
aI7562706
aI7562707
aI7581589
aI7584789
aI7591310
aI7597147
aI7604052
aI7610962
aI7631689
aI7631690
aI7635023
aI7635024
aI7635025
aI7644765
aI7673681
aI7673786
aI7677310
aI7677314
aI7681647
aI7683296
aI7703513
aI7717171
aI7730945
aI7730946
aI7730947
aI7735935
aI7785427
aI7793722
aI7798220
aI7832484
aI7841401
aI7841408
aI7841425
aI7845411
aI7849922
aI7866385
aI7866386
aI7866388
aI7931086
aI4686029
aI4677242
aI4861938
aI5095163
aI5246566
aI5282958
aI5714662
aI6121504
aI5407442
aI5331809
aI5544482
aI6171556
aI6182443
aa(lp5
I4752651
aI5364797
aI5858457
aI6329017
aI6166282
aI7640980
aI7798221
aI7831133
aI7831134
aI7860377
aI5135638
aI6090989
aI6165949
aI5733272
aI5916678
aI6121170
aI5437153
aI5448887
aI5473887
aI6568177
aI5711149
aI6167696
aa(lp6
I4873390
aI5741462
aI5751629
aI5874214
aI6017496
aI6251260
aI6299757
aI6329139
aI6338790
aI6461496
aI6591125
aI6592745
aI6616819
aI6618934
aI6654625
aI6682899
aI6749740
aI6942518
aI6975893
aI7041468
aI7058437
aI7225535
aI6270846
aI6387453
aI6225243
aI6617490
aI5595060
aI5713199
aI5715679
aI5735119
aI5740669
aI5743084
aI5771685
aI5832722
aI5992142
aI5732554
aI5771686
aI5974793
aI6014859
aI6109024
aI5996338
aI6622480
aa(lp7
(I4061724
I4310440
tp8
a(I4061724
I4410501
tp9
a(I4061724
I4440871
tp10
a(I4061724
I4826497
tp11
a(I4061724
I5125231
tp12
a(I4061724
I5288619
tp13
a(I4310440
I4440871
tp14
a(I4310440
I4500651
tp15
a(I4310440
I4554143
tp16
a(I4310440
I4567029
tp17
a(I4310440
I4793984
tp18
a(I4310440
I5057296
tp19
a(I4310440
I5098684
tp20
a(I4310440
I5126308
tp21
a(I4310440
I5191141
tp22
a(I4310440
I7533719
tp23
a(I4310440
I7540324
tp24
a(I4310440
I7549470
tp25
a(I4310440
I7556095
tp26
a(I4310440
I7556096
tp27
a(I4310440
I7559367
tp28
a(I4310440
I7559368
tp29
a(I4310440
I7562706
tp30
a(I4310440
I7562707
tp31
a(I4310440
I7581589
tp32
a(I4310440
I7584789
tp33
a(I4310440
I7591310
tp34
a(I4310440
I7597147
tp35
a(I4310440
I7604052
tp36
a(I4310440
I7610962
tp37
a(I4310440
I7631689
tp38
a(I4310440
I7631690
tp39
a(I4310440
I7635023
tp40
a(I4310440
I7635024
tp41
a(I4310440
I7635025
tp42
a(I4310440
I7644765
tp43
a(I4310440
I7673681
tp44
a(I4310440
I7673786
tp45
a(I4310440
I7677310
tp46
a(I4310440
I7677314
tp47
a(I4310440
I7681647
tp48
a(I4310440
I7683296
tp49
a(I4310440
I7703513
tp50
a(I4310440
I7717171
tp51
a(I4310440
I7730945
tp52
a(I4310440
I7730946
tp53
a(I4310440
I7730947
tp54
a(I4310440
I7735935
tp55
a(I4310440
I7785427
tp56
a(I4310440
I7793722
tp57
a(I4310440
I7798220
tp58
a(I4310440
I7832484
tp59
a(I4310440
I7841401
tp60
a(I4310440
I7841408
tp61
a(I4310440
I7841425
tp62
a(I4310440
I7845411
tp63
a(I4310440
I7849922
tp64
a(I4310440
I7866385
tp65
a(I4310440
I7866386
tp66
a(I4310440
I7866388
tp67
a(I4310440
I7931086
tp68
a(I4410501
I4686029
tp69
a(I4440871
I4554143
tp70
a(I4440871
I4567029
tp71
a(I4440871
I4677242
tp72
a(I4440871
I4686029
tp73
a(I4440871
I4793984
tp74
a(I4440871
I4861938
tp75
a(I4440871
I5057296
tp76
a(I4440871
I5095163
tp77
a(I4440871
I5098684
tp78
a(I4440871
I5126308
tp79
a(I4440871
I5191141
tp80
a(I4440871
I5246566
tp81
a(I4440871
I5282958
tp82
a(I4440871
I5714662
tp83
a(I4440871
I6121504
tp84
a(I4440871
I7533719
tp85
a(I4440871
I7540324
tp86
a(I4440871
I7549470
tp87
a(I4440871
I7556095
tp88
a(I4440871
I7556096
tp89
a(I4440871
I7559367
tp90
a(I4440871
I7559368
tp91
a(I4440871
I7562706
tp92
a(I4440871
I7562707
tp93
a(I4440871
I7581589
tp94
a(I4440871
I7584789
tp95
a(I4440871
I7591310
tp96
a(I4440871
I7597147
tp97
a(I4440871
I7604052
tp98
a(I4440871
I7610962
tp99
a(I4440871
I7631689
tp100
a(I4440871
I7631690
tp101
a(I4440871
I7635023
tp102
a(I4440871
I7635024
tp103
a(I4440871
I7635025
tp104
a(I4440871
I7644765
tp105
a(I4440871
I7673681
tp106
a(I4440871
I7673786
tp107
a(I4440871
I7677310
tp108
a(I4440871
I7677314
tp109
a(I4440871
I7681647
tp110
a(I4440871
I7683296
tp111
a(I4440871
I7703513
tp112
a(I4440871
I7717171
tp113
a(I4440871
I7730945
tp114
a(I4440871
I7730946
tp115
a(I4440871
I7730947
tp116
a(I4440871
I7735935
tp117
a(I4440871
I7785427
tp118
a(I4440871
I7793722
tp119
a(I4440871
I7798220
tp120
a(I4440871
I7832484
tp121
a(I4440871
I7841401
tp122
a(I4440871
I7841408
tp123
a(I4440871
I7841425
tp124
a(I4440871
I7845411
tp125
a(I4440871
I7849922
tp126
a(I4440871
I7866385
tp127
a(I4440871
I7866386
tp128
a(I4440871
I7866388
tp129
a(I4440871
I7931086
tp130
a(I4826497
I5407442
tp131
a(I5125231
I5331809
tp132
a(I5125231
I5544482
tp133
a(I5125231
I6171556
tp134
a(I5125231
I6182443
tp135
a(I4500651
I4554143
tp136
a(I4500651
I4567029
tp137
a(I4500651
I4793984
tp138
a(I4500651
I7533719
tp139
a(I4500651
I7540324
tp140
a(I4500651
I7549470
tp141
a(I4500651
I7556095
tp142
a(I4500651
I7556096
tp143
a(I4500651
I7559367
tp144
a(I4500651
I7559368
tp145
a(I4500651
I7562706
tp146
a(I4500651
I7562707
tp147
a(I4500651
I7581589
tp148
a(I4500651
I7584789
tp149
a(I4500651
I7591310
tp150
a(I4500651
I7597147
tp151
a(I4500651
I7604052
tp152
a(I4500651
I7610962
tp153
a(I4500651
I7631689
tp154
a(I4500651
I7631690
tp155
a(I4500651
I7635023
tp156
a(I4500651
I7635024
tp157
a(I4500651
I7635025
tp158
a(I4500651
I7644765
tp159
a(I4500651
I7673681
tp160
a(I4500651
I7673786
tp161
a(I4500651
I7677310
tp162
a(I4500651
I7677314
tp163
a(I4500651
I7681647
tp164
a(I4500651
I7683296
tp165
a(I4500651
I7703513
tp166
a(I4500651
I7717171
tp167
a(I4500651
I7730945
tp168
a(I4500651
I7730946
tp169
a(I4500651
I7730947
tp170
a(I4500651
I7735935
tp171
a(I4500651
I7785427
tp172
a(I4500651
I7793722
tp173
a(I4500651
I7798220
tp174
a(I4500651
I7832484
tp175
a(I4500651
I7841401
tp176
a(I4500651
I7841408
tp177
a(I4500651
I7841425
tp178
a(I4500651
I7845411
tp179
a(I4500651
I7849922
tp180
a(I4500651
I7866385
tp181
a(I4500651
I7866386
tp182
a(I4500651
I7866388
tp183
a(I4500651
I7931086
tp184
a(I4554143
I4752651
tp185
a(I4554143
I4793984
tp186
a(I4554143
I5126308
tp187
a(I4554143
I5191141
tp188
a(I4567029
I4752651
tp189
a(I4567029
I4793984
tp190
a(I4567029
I6121504
tp191
a(I4793984
I5126308
tp192
a(I4793984
I5191141
tp193
a(I5057296
I5364797
tp194
a(I5057296
I5858457
tp195
a(I5057296
I6329017
tp196
a(I5098684
I5364797
tp197
a(I5098684
I5858457
tp198
a(I5098684
I6329017
tp199
a(I5126308
I5191141
tp200
a(I5126308
I5714662
tp201
a(I5126308
I6121504
tp202
a(I5126308
I6166282
tp203
a(I5191141
I5714662
tp204
a(I5191141
I6121504
tp205
a(I5191141
I6166282
tp206
a(I7533719
I7597147
tp207
a(I7533719
I7604052
tp208
a(I7533719
I7610962
tp209
a(I7533719
I7640980
tp210
a(I7533719
I7673681
tp211
a(I7533719
I7673786
tp212
a(I7533719
I7677310
tp213
a(I7533719
I7677314
tp214
a(I7533719
I7681647
tp215
a(I7533719
I7683296
tp216
a(I7533719
I7703513
tp217
a(I7533719
I7717171
tp218
a(I7533719
I7730945
tp219
a(I7533719
I7730946
tp220
a(I7533719
I7730947
tp221
a(I7533719
I7735935
tp222
a(I7533719
I7785427
tp223
a(I7533719
I7798220
tp224
a(I7533719
I7798221
tp225
a(I7533719
I7831133
tp226
a(I7533719
I7831134
tp227
a(I7533719
I7832484
tp228
a(I7533719
I7841401
tp229
a(I7533719
I7841408
tp230
a(I7533719
I7845411
tp231
a(I7533719
I7849922
tp232
a(I7533719
I7860377
tp233
a(I7533719
I7866385
tp234
a(I7533719
I7866386
tp235
a(I7533719
I7866388
tp236
a(I7533719
I7931086
tp237
a(I7540324
I7604052
tp238
a(I7540324
I7610962
tp239
a(I7540324
I7640980
tp240
a(I7540324
I7673681
tp241
a(I7540324
I7673786
tp242
a(I7540324
I7677310
tp243
a(I7540324
I7677314
tp244
a(I7540324
I7681647
tp245
a(I7540324
I7683296
tp246
a(I7540324
I7703513
tp247
a(I7540324
I7717171
tp248
a(I7540324
I7730945
tp249
a(I7540324
I7730946
tp250
a(I7540324
I7730947
tp251
a(I7540324
I7735935
tp252
a(I7540324
I7785427
tp253
a(I7540324
I7793722
tp254
a(I7540324
I7798220
tp255
a(I7540324
I7798221
tp256
a(I7540324
I7831133
tp257
a(I7540324
I7831134
tp258
a(I7540324
I7832484
tp259
a(I7540324
I7841401
tp260
a(I7540324
I7841408
tp261
a(I7540324
I7845411
tp262
a(I7540324
I7849922
tp263
a(I7540324
I7860377
tp264
a(I7540324
I7866385
tp265
a(I7540324
I7866386
tp266
a(I7540324
I7866388
tp267
a(I7540324
I7931086
tp268
a(I7549470
I7610962
tp269
a(I7549470
I7640980
tp270
a(I7549470
I7673681
tp271
a(I7549470
I7673786
tp272
a(I7549470
I7677310
tp273
a(I7549470
I7677314
tp274
a(I7549470
I7681647
tp275
a(I7549470
I7703513
tp276
a(I7549470
I7717171
tp277
a(I7549470
I7730945
tp278
a(I7549470
I7730946
tp279
a(I7549470
I7730947
tp280
a(I7549470
I7735935
tp281
a(I7549470
I7785427
tp282
a(I7549470
I7793722
tp283
a(I7549470
I7798220
tp284
a(I7549470
I7798221
tp285
a(I7549470
I7831133
tp286
a(I7549470
I7831134
tp287
a(I7549470
I7832484
tp288
a(I7549470
I7841401
tp289
a(I7549470
I7841408
tp290
a(I7549470
I7845411
tp291
a(I7549470
I7849922
tp292
a(I7549470
I7860377
tp293
a(I7549470
I7866385
tp294
a(I7549470
I7866386
tp295
a(I7549470
I7866388
tp296
a(I7549470
I7931086
tp297
a(I7556095
I7604052
tp298
a(I7556095
I7610962
tp299
a(I7556095
I7640980
tp300
a(I7556095
I7673681
tp301
a(I7556095
I7673786
tp302
a(I7556095
I7677310
tp303
a(I7556095
I7677314
tp304
a(I7556095
I7681647
tp305
a(I7556095
I7703513
tp306
a(I7556095
I7717171
tp307
a(I7556095
I7730945
tp308
a(I7556095
I7730946
tp309
a(I7556095
I7730947
tp310
a(I7556095
I7735935
tp311
a(I7556095
I7785427
tp312
a(I7556095
I7793722
tp313
a(I7556095
I7798220
tp314
a(I7556095
I7798221
tp315
a(I7556095
I7831133
tp316
a(I7556095
I7831134
tp317
a(I7556095
I7832484
tp318
a(I7556095
I7841401
tp319
a(I7556095
I7841408
tp320
a(I7556095
I7845411
tp321
a(I7556095
I7849922
tp322
a(I7556095
I7860377
tp323
a(I7556095
I7866385
tp324
a(I7556095
I7866386
tp325
a(I7556095
I7866388
tp326
a(I7556095
I7931086
tp327
a(I7556096
I7604052
tp328
a(I7556096
I7610962
tp329
a(I7556096
I7640980
tp330
a(I7556096
I7673681
tp331
a(I7556096
I7673786
tp332
a(I7556096
I7677310
tp333
a(I7556096
I7677314
tp334
a(I7556096
I7681647
tp335
a(I7556096
I7703513
tp336
a(I7556096
I7717171
tp337
a(I7556096
I7730945
tp338
a(I7556096
I7730946
tp339
a(I7556096
I7730947
tp340
a(I7556096
I7735935
tp341
a(I7556096
I7785427
tp342
a(I7556096
I7793722
tp343
a(I7556096
I7798220
tp344
a(I7556096
I7798221
tp345
a(I7556096
I7831133
tp346
a(I7556096
I7831134
tp347
a(I7556096
I7832484
tp348
a(I7556096
I7841401
tp349
a(I7556096
I7841408
tp350
a(I7556096
I7845411
tp351
a(I7556096
I7849922
tp352
a(I7556096
I7860377
tp353
a(I7556096
I7866385
tp354
a(I7556096
I7866386
tp355
a(I7556096
I7866388
tp356
a(I7556096
I7931086
tp357
a(I7559367
I7673681
tp358
a(I7559367
I7673786
tp359
a(I7559367
I7677310
tp360
a(I7559367
I7677314
tp361
a(I7559367
I7681647
tp362
a(I7559367
I7703513
tp363
a(I7559367
I7717171
tp364
a(I7559367
I7730945
tp365
a(I7559367
I7730946
tp366
a(I7559367
I7730947
tp367
a(I7559367
I7735935
tp368
a(I7559367
I7785427
tp369
a(I7559367
I7793722
tp370
a(I7559367
I7798220
tp371
a(I7559367
I7798221
tp372
a(I7559367
I7831133
tp373
a(I7559367
I7831134
tp374
a(I7559367
I7832484
tp375
a(I7559367
I7841401
tp376
a(I7559367
I7841408
tp377
a(I7559367
I7845411
tp378
a(I7559367
I7849922
tp379
a(I7559367
I7860377
tp380
a(I7559367
I7866385
tp381
a(I7559367
I7866386
tp382
a(I7559367
I7866388
tp383
a(I7559367
I7931086
tp384
a(I7559368
I7673681
tp385
a(I7559368
I7673786
tp386
a(I7559368
I7677310
tp387
a(I7559368
I7677314
tp388
a(I7559368
I7681647
tp389
a(I7559368
I7703513
tp390
a(I7559368
I7717171
tp391
a(I7559368
I7730945
tp392
a(I7559368
I7730946
tp393
a(I7559368
I7730947
tp394
a(I7559368
I7735935
tp395
a(I7559368
I7785427
tp396
a(I7559368
I7793722
tp397
a(I7559368
I7798220
tp398
a(I7559368
I7798221
tp399
a(I7559368
I7831133
tp400
a(I7559368
I7831134
tp401
a(I7559368
I7832484
tp402
a(I7559368
I7841401
tp403
a(I7559368
I7841408
tp404
a(I7559368
I7845411
tp405
a(I7559368
I7849922
tp406
a(I7559368
I7860377
tp407
a(I7559368
I7866385
tp408
a(I7559368
I7866386
tp409
a(I7559368
I7866388
tp410
a(I7559368
I7931086
tp411
a(I7562706
I7673681
tp412
a(I7562706
I7673786
tp413
a(I7562706
I7677310
tp414
a(I7562706
I7677314
tp415
a(I7562706
I7681647
tp416
a(I7562706
I7703513
tp417
a(I7562706
I7717171
tp418
a(I7562706
I7730945
tp419
a(I7562706
I7730946
tp420
a(I7562706
I7730947
tp421
a(I7562706
I7735935
tp422
a(I7562706
I7785427
tp423
a(I7562706
I7793722
tp424
a(I7562706
I7798220
tp425
a(I7562706
I7798221
tp426
a(I7562706
I7831133
tp427
a(I7562706
I7831134
tp428
a(I7562706
I7832484
tp429
a(I7562706
I7841401
tp430
a(I7562706
I7841408
tp431
a(I7562706
I7845411
tp432
a(I7562706
I7849922
tp433
a(I7562706
I7860377
tp434
a(I7562706
I7866385
tp435
a(I7562706
I7866386
tp436
a(I7562706
I7866388
tp437
a(I7562706
I7931086
tp438
a(I7562707
I7673681
tp439
a(I7562707
I7673786
tp440
a(I7562707
I7677310
tp441
a(I7562707
I7677314
tp442
a(I7562707
I7681647
tp443
a(I7562707
I7703513
tp444
a(I7562707
I7717171
tp445
a(I7562707
I7730945
tp446
a(I7562707
I7730946
tp447
a(I7562707
I7730947
tp448
a(I7562707
I7735935
tp449
a(I7562707
I7785427
tp450
a(I7562707
I7793722
tp451
a(I7562707
I7798220
tp452
a(I7562707
I7798221
tp453
a(I7562707
I7831133
tp454
a(I7562707
I7831134
tp455
a(I7562707
I7832484
tp456
a(I7562707
I7841401
tp457
a(I7562707
I7841408
tp458
a(I7562707
I7845411
tp459
a(I7562707
I7849922
tp460
a(I7562707
I7860377
tp461
a(I7562707
I7866385
tp462
a(I7562707
I7866386
tp463
a(I7562707
I7866388
tp464
a(I7562707
I7931086
tp465
a(I7581589
I7673681
tp466
a(I7581589
I7673786
tp467
a(I7581589
I7677310
tp468
a(I7581589
I7677314
tp469
a(I7581589
I7681647
tp470
a(I7581589
I7703513
tp471
a(I7581589
I7717171
tp472
a(I7581589
I7730945
tp473
a(I7581589
I7730946
tp474
a(I7581589
I7730947
tp475
a(I7581589
I7735935
tp476
a(I7581589
I7785427
tp477
a(I7581589
I7793722
tp478
a(I7581589
I7798220
tp479
a(I7581589
I7798221
tp480
a(I7581589
I7831133
tp481
a(I7581589
I7831134
tp482
a(I7581589
I7832484
tp483
a(I7581589
I7841401
tp484
a(I7581589
I7841408
tp485
a(I7581589
I7845411
tp486
a(I7581589
I7849922
tp487
a(I7581589
I7860377
tp488
a(I7581589
I7866385
tp489
a(I7581589
I7866386
tp490
a(I7581589
I7866388
tp491
a(I7581589
I7931086
tp492
a(I7584789
I7673681
tp493
a(I7584789
I7677310
tp494
a(I7584789
I7677314
tp495
a(I7584789
I7681647
tp496
a(I7584789
I7703513
tp497
a(I7584789
I7717171
tp498
a(I7584789
I7730945
tp499
a(I7584789
I7730946
tp500
a(I7584789
I7730947
tp501
a(I7584789
I7785427
tp502
a(I7584789
I7793722
tp503
a(I7584789
I7798220
tp504
a(I7584789
I7798221
tp505
a(I7584789
I7831133
tp506
a(I7584789
I7831134
tp507
a(I7584789
I7832484
tp508
a(I7584789
I7841401
tp509
a(I7584789
I7841408
tp510
a(I7584789
I7845411
tp511
a(I7584789
I7849922
tp512
a(I7584789
I7866385
tp513
a(I7584789
I7866386
tp514
a(I7584789
I7866388
tp515
a(I7584789
I7931086
tp516
a(I7591310
I7673681
tp517
a(I7591310
I7677310
tp518
a(I7591310
I7677314
tp519
a(I7591310
I7681647
tp520
a(I7591310
I7703513
tp521
a(I7591310
I7717171
tp522
a(I7591310
I7730945
tp523
a(I7591310
I7730946
tp524
a(I7591310
I7730947
tp525
a(I7591310
I7785427
tp526
a(I7591310
I7793722
tp527
a(I7591310
I7798220
tp528
a(I7591310
I7798221
tp529
a(I7591310
I7831133
tp530
a(I7591310
I7831134
tp531
a(I7591310
I7832484
tp532
a(I7591310
I7841401
tp533
a(I7591310
I7841408
tp534
a(I7591310
I7845411
tp535
a(I7591310
I7849922
tp536
a(I7591310
I7866385
tp537
a(I7591310
I7866386
tp538
a(I7591310
I7866388
tp539
a(I7591310
I7931086
tp540
a(I7597147
I7673681
tp541
a(I7597147
I7677310
tp542
a(I7597147
I7677314
tp543
a(I7597147
I7681647
tp544
a(I7597147
I7703513
tp545
a(I7597147
I7717171
tp546
a(I7597147
I7730946
tp547
a(I7597147
I7730947
tp548
a(I7597147
I7785427
tp549
a(I7597147
I7793722
tp550
a(I7597147
I7798220
tp551
a(I7597147
I7798221
tp552
a(I7597147
I7831133
tp553
a(I7597147
I7831134
tp554
a(I7597147
I7832484
tp555
a(I7597147
I7841401
tp556
a(I7597147
I7841408
tp557
a(I7597147
I7845411
tp558
a(I7597147
I7849922
tp559
a(I7597147
I7866385
tp560
a(I7597147
I7866386
tp561
a(I7597147
I7866388
tp562
a(I7597147
I7931086
tp563
a(I7604052
I7677310
tp564
a(I7604052
I7677314
tp565
a(I7604052
I7681647
tp566
a(I7604052
I7703513
tp567
a(I7604052
I7717171
tp568
a(I7604052
I7730945
tp569
a(I7604052
I7730947
tp570
a(I7604052
I7785427
tp571
a(I7604052
I7793722
tp572
a(I7604052
I7798220
tp573
a(I7604052
I7798221
tp574
a(I7604052
I7831133
tp575
a(I7604052
I7831134
tp576
a(I7604052
I7832484
tp577
a(I7604052
I7841401
tp578
a(I7604052
I7841408
tp579
a(I7604052
I7845411
tp580
a(I7604052
I7849922
tp581
a(I7604052
I7866385
tp582
a(I7604052
I7866386
tp583
a(I7604052
I7866388
tp584
a(I7604052
I7931086
tp585
a(I7610962
I7785427
tp586
a(I7610962
I7798220
tp587
a(I7610962
I7831134
tp588
a(I7610962
I7832484
tp589
a(I7610962
I7849922
tp590
a(I7610962
I7866385
tp591
a(I7610962
I7866388
tp592
a(I7610962
I7931086
tp593
a(I7631689
I7785427
tp594
a(I7631689
I7793722
tp595
a(I7631689
I7798220
tp596
a(I7631689
I7798221
tp597
a(I7631689
I7831133
tp598
a(I7631689
I7831134
tp599
a(I7631689
I7832484
tp600
a(I7631689
I7841401
tp601
a(I7631689
I7841408
tp602
a(I7631689
I7845411
tp603
a(I7631689
I7849922
tp604
a(I7631689
I7866385
tp605
a(I7631689
I7866386
tp606
a(I7631689
I7866388
tp607
a(I7631689
I7931086
tp608
a(I7631690
I7785427
tp609
a(I7631690
I7793722
tp610
a(I7631690
I7798220
tp611
a(I7631690
I7798221
tp612
a(I7631690
I7831133
tp613
a(I7631690
I7831134
tp614
a(I7631690
I7832484
tp615
a(I7631690
I7841401
tp616
a(I7631690
I7841408
tp617
a(I7631690
I7845411
tp618
a(I7631690
I7849922
tp619
a(I7631690
I7866385
tp620
a(I7631690
I7866386
tp621
a(I7631690
I7866388
tp622
a(I7631690
I7931086
tp623
a(I7635023
I7785427
tp624
a(I7635023
I7793722
tp625
a(I7635023
I7798220
tp626
a(I7635023
I7798221
tp627
a(I7635023
I7831133
tp628
a(I7635023
I7831134
tp629
a(I7635023
I7832484
tp630
a(I7635023
I7841401
tp631
a(I7635023
I7841408
tp632
a(I7635023
I7845411
tp633
a(I7635023
I7849922
tp634
a(I7635023
I7866385
tp635
a(I7635023
I7866386
tp636
a(I7635023
I7866388
tp637
a(I7635023
I7931086
tp638
a(I7635024
I7785427
tp639
a(I7635024
I7793722
tp640
a(I7635024
I7798221
tp641
a(I7635024
I7831133
tp642
a(I7635024
I7832484
tp643
a(I7635024
I7841401
tp644
a(I7635024
I7841408
tp645
a(I7635024
I7845411
tp646
a(I7635024
I7849922
tp647
a(I7635024
I7866385
tp648
a(I7635024
I7866386
tp649
a(I7635024
I7866388
tp650
a(I7635024
I7931086
tp651
a(I7635025
I7785427
tp652
a(I7635025
I7793722
tp653
a(I7635025
I7798220
tp654
a(I7635025
I7798221
tp655
a(I7635025
I7831133
tp656
a(I7635025
I7831134
tp657
a(I7635025
I7832484
tp658
a(I7635025
I7841401
tp659
a(I7635025
I7841408
tp660
a(I7635025
I7845411
tp661
a(I7635025
I7849922
tp662
a(I7635025
I7866385
tp663
a(I7635025
I7866386
tp664
a(I7635025
I7866388
tp665
a(I7635025
I7931086
tp666
a(I7644765
I7798220
tp667
a(I7644765
I7798221
tp668
a(I7644765
I7831133
tp669
a(I7644765
I7831134
tp670
a(I7644765
I7832484
tp671
a(I7644765
I7841408
tp672
a(I7644765
I7845411
tp673
a(I7644765
I7849922
tp674
a(I7644765
I7866385
tp675
a(I7644765
I7866386
tp676
a(I7644765
I7866388
tp677
a(I7644765
I7931086
tp678
a(I7673681
I7845411
tp679
a(I7673681
I7849922
tp680
a(I7673681
I7931086
tp681
a(I7673786
I7798220
tp682
a(I7673786
I7798221
tp683
a(I7673786
I7831133
tp684
a(I7673786
I7831134
tp685
a(I7673786
I7832484
tp686
a(I7673786
I7841408
tp687
a(I7673786
I7845411
tp688
a(I7673786
I7849922
tp689
a(I7673786
I7860377
tp690
a(I7673786
I7866385
tp691
a(I7673786
I7866386
tp692
a(I7673786
I7866388
tp693
a(I7673786
I7931086
tp694
a(I7677310
I7845411
tp695
a(I7677310
I7849922
tp696
a(I7677310
I7931086
tp697
a(I7677314
I7931086
tp698
a(I7681647
I7798220
tp699
a(I7681647
I7798221
tp700
a(I7681647
I7831133
tp701
a(I7681647
I7831134
tp702
a(I7681647
I7832484
tp703
a(I7681647
I7841408
tp704
a(I7681647
I7845411
tp705
a(I7681647
I7849922
tp706
a(I7681647
I7860377
tp707
a(I7681647
I7866385
tp708
a(I7681647
I7866386
tp709
a(I7681647
I7866388
tp710
a(I7681647
I7931086
tp711
a(I7683296
I7798220
tp712
a(I7683296
I7798221
tp713
a(I7683296
I7831133
tp714
a(I7683296
I7831134
tp715
a(I7683296
I7832484
tp716
a(I7683296
I7841408
tp717
a(I7683296
I7845411
tp718
a(I7683296
I7849922
tp719
a(I7683296
I7860377
tp720
a(I7683296
I7866385
tp721
a(I7683296
I7866386
tp722
a(I7683296
I7866388
tp723
a(I7683296
I7931086
tp724
a(I7703513
I7798220
tp725
a(I7703513
I7798221
tp726
a(I7703513
I7831133
tp727
a(I7703513
I7831134
tp728
a(I7703513
I7832484
tp729
a(I7703513
I7841408
tp730
a(I7703513
I7849922
tp731
a(I7703513
I7860377
tp732
a(I7703513
I7866385
tp733
a(I7703513
I7866386
tp734
a(I7703513
I7866388
tp735
a(I7703513
I7931086
tp736
a(I7717171
I7798221
tp737
a(I7717171
I7831133
tp738
a(I7717171
I7831134
tp739
a(I7717171
I7841408
tp740
a(I7717171
I7845411
tp741
a(I7717171
I7860377
tp742
a(I7717171
I7866385
tp743
a(I7717171
I7866388
tp744
a(I7717171
I7931086
tp745
a(I7730945
I7845411
tp746
a(I7730945
I7849922
tp747
a(I7730945
I7866385
tp748
a(I7730945
I7866388
tp749
a(I7730945
I7931086
tp750
a(I7730946
I7845411
tp751
a(I7730946
I7849922
tp752
a(I7730946
I7866385
tp753
a(I7730946
I7866388
tp754
a(I7730946
I7931086
tp755
a(I7730947
I7845411
tp756
a(I7730947
I7849922
tp757
a(I7730947
I7866385
tp758
a(I7730947
I7866388
tp759
a(I7730947
I7931086
tp760
a(I7735935
I7845411
tp761
a(I7735935
I7849922
tp762
a(I7735935
I7931086
tp763
a(I4686029
I5135638
tp764
a(I4686029
I5246566
tp765
a(I4686029
I7533719
tp766
a(I4686029
I7540324
tp767
a(I4686029
I7549470
tp768
a(I4686029
I7556095
tp769
a(I4686029
I7556096
tp770
a(I4686029
I7559367
tp771
a(I4686029
I7559368
tp772
a(I4686029
I7562706
tp773
a(I4686029
I7562707
tp774
a(I4686029
I7581589
tp775
a(I4686029
I7584789
tp776
a(I4686029
I7591310
tp777
a(I4686029
I7597147
tp778
a(I4686029
I7604052
tp779
a(I4686029
I7610962
tp780
a(I4686029
I7631689
tp781
a(I4686029
I7631690
tp782
a(I4686029
I7635023
tp783
a(I4686029
I7635024
tp784
a(I4686029
I7635025
tp785
a(I4686029
I7644765
tp786
a(I4686029
I7673681
tp787
a(I4686029
I7673786
tp788
a(I4686029
I7677310
tp789
a(I4686029
I7677314
tp790
a(I4686029
I7681647
tp791
a(I4686029
I7683296
tp792
a(I4686029
I7703513
tp793
a(I4686029
I7717171
tp794
a(I4686029
I7730945
tp795
a(I4686029
I7730946
tp796
a(I4686029
I7730947
tp797
a(I4686029
I7735935
tp798
a(I4686029
I7785427
tp799
a(I4686029
I7793722
tp800
a(I4686029
I7798220
tp801
a(I4686029
I7832484
tp802
a(I4686029
I7841401
tp803
a(I4686029
I7841408
tp804
a(I4686029
I7841425
tp805
a(I4686029
I7845411
tp806
a(I4686029
I7849922
tp807
a(I4686029
I7866385
tp808
a(I4686029
I7866386
tp809
a(I4686029
I7866388
tp810
a(I4686029
I7931086
tp811
a(I4677242
I4752651
tp812
a(I4677242
I4861938
tp813
a(I4677242
I5714662
tp814
a(I4677242
I6166282
tp815
a(I4861938
I5714662
tp816
a(I4861938
I6121504
tp817
a(I4861938
I6166282
tp818
a(I5095163
I5191141
tp819
a(I5095163
I5714662
tp820
a(I5095163
I6121504
tp821
a(I5095163
I6166282
tp822
a(I5246566
I6090989
tp823
a(I5246566
I6165949
tp824
a(I5282958
I6090989
tp825
a(I5714662
I6121504
tp826
a(I5407442
I5733272
tp827
a(I5407442
I5916678
tp828
a(I5407442
I6121170
tp829
a(I5331809
I5437153
tp830
a(I5331809
I5448887
tp831
a(I5331809
I5473887
tp832
a(I5331809
I6568177
tp833
a(I5544482
I5711149
tp834
a(I5544482
I6167696
tp835
a(I5544482
I6568177
tp836
a(I4752651
I4873390
tp837
a(I4752651
I5126308
tp838
a(I4752651
I5191141
tp839
a(I5364797
I5741462
tp840
a(I5364797
I5751629
tp841
a(I5364797
I5874214
tp842
a(I5364797
I6017496
tp843
a(I5364797
I6251260
tp844
a(I5364797
I6299757
tp845
a(I5364797
I6329017
tp846
a(I5364797
I6329139
tp847
a(I5364797
I6338790
tp848
a(I5364797
I6461496
tp849
a(I5364797
I6591125
tp850
a(I5364797
I6592745
tp851
a(I5364797
I6616819
tp852
a(I5364797
I6618934
tp853
a(I5364797
I6654625
tp854
a(I5364797
I6682899
tp855
a(I5364797
I6749740
tp856
a(I5364797
I6942518
tp857
a(I5364797
I6975893
tp858
a(I5364797
I7041468
tp859
a(I5364797
I7058437
tp860
a(I5364797
I7225535
tp861
a(I5858457
I6270846
tp862
a(I5858457
I6329017
tp863
a(I5858457
I6387453
tp864
a(I7640980
I7798220
tp865
a(I7640980
I7798221
tp866
a(I7640980
I7831133
tp867
a(I7640980
I7831134
tp868
a(I7640980
I7832484
tp869
a(I7640980
I7841408
tp870
a(I7640980
I7845411
tp871
a(I7640980
I7849922
tp872
a(I7640980
I7860377
tp873
a(I7640980
I7866385
tp874
a(I7640980
I7866386
tp875
a(I7640980
I7931086
tp876
a(I5135638
I5246566
tp877
a(I5135638
I5282958
tp878
a(I5135638
I6090989
tp879
a(I5916678
I6225243
tp880
a(I5916678
I6617490
tp881
a(I5437153
I5595060
tp882
a(I5437153
I5713199
tp883
a(I5437153
I5715679
tp884
a(I5437153
I5735119
tp885
a(I5437153
I5740669
tp886
a(I5437153
I5743084
tp887
a(I5437153
I5771685
tp888
a(I5437153
I5832722
tp889
a(I5437153
I6568177
tp890
a(I5448887
I5832722
tp891
a(I5448887
I5992142
tp892
a(I5448887
I6568177
tp893
a(I5473887
I5713199
tp894
a(I5473887
I5715679
tp895
a(I5473887
I5732554
tp896
a(I5473887
I5735119
tp897
a(I5473887
I5743084
tp898
a(I5473887
I5771686
tp899
a(I5473887
I5832722
tp900
a(I5473887
I5974793
tp901
a(I5473887
I5992142
tp902
a(I5473887
I6014859
tp903
a(I5473887
I6109024
tp904
a(I5473887
I6182443
tp905
a(I5473887
I6568177
tp906
a(I5711149
I5996338
tp907
a(I5711149
I6622480
tp908
a(dp909
I7556096
(lp910
Vdawsonit
p911
aVformat
p912
aVzone
p913
aVheat
p914
aVheater
p915
aVshale
p916
aVassess
p917
aVcomposit
p918
aVdiffer
p919
aVhydrocarbon
p920
asI4500651
(lp921
Vsiev
p922
aVmolecular
p923
aVtitanium
p924
aVhydrocarbon
p925
aVconvers
p926
aVcatalyst
p927
aVcontain
p928
aVcomposit
p929
aVdisclos
p930
aVother
p931
asI7058437
(lp932
Vskin
p933
aVfingertip
p934
aVstimul
p935
aVglucos
p936
aVfluid
p937
aVanalyt
p938
aVbodi
p939
aVconcentr
p940
aVtest
p941
aVlanc
p942
asI5916678
(lp943
Vfiber
p944
aVmulticompon
p945
aVnonwoven
p946
aVcare
p947
aVdegrad
p948
aVcompon
p949
aVwipe
p950
aVhealth
p951
aVthemselv
p952
aVfibrous
p953
asI7866385
(lp954
Vformat
p955
aVkalina
p956
aVheat
p957
aVfluid
p958
aVtreat
p959
aVsubsurfac
p960
aVheater
p961
aVproduc
p962
aVhydrocarbon
p963
aVherein
p964
asI7866386
(lp965
Vportion
p966
aVformat
p967
aVoxid
p968
aVhydrocarbon
p969
aVproduc
p970
aVfirst
p971
aVheater
p972
aVwell
p973
aVfluid
p974
aVheat
p975
asI7866388
(lp976
Vstream
p977
aVmolecular
p978
aVoxygen
p979
aVgas
p980
aVformat
p981
aVfluid
p982
aVcombin
p983
aVhydrogen
p984
aVsubsurfac
p985
aVdownhol
p986
asI7584789
(lp987
Vcrude
p988
aVstream
p989
aVproduct
p990
aV343
p991
aVboil
p992
aVd5307
p993
aVproduc
p994
aVgas
p995
aVcrack
p996
aVaddit
p997
asI4061724
(lp998
Vsilica
p999
aVcrystallin
p1000
aValkylonium
p1001
aVsilic
p1002
aVpore
p1003
aVuniform
p1004
aVhydrotherm
p1005
aVangstrom
p1006
aVneither
p1007
aVcalcin
p1008
asI7549470
(lp1009
Vnahcolit
p1010
aVformat
p1011
aVfluid
p1012
aVhydrocarbon
p1013
aVshale
p1014
aVtreat
p1015
aVoxid
p1016
aVmine
p1017
aVportion
p1018
aVdissolv
p1019
asI6121504
(lp1020
Volefin
p1021
aVoxygen
p1022
aVconvert
p1023
aVfeedstock
p1024
aVquench
p1025
aVheat
p1026
aVproduct
p1027
aVcatalyt
p1028
aVrecoveri
p1029
aVdirect
p1030
asI5544482
(lp1031
sI7845411
(lp1032
Vheat
p1033
aVsitu
p1034
aVtreatment
p1035
aVcircul
p1036
aVpipe
p1037
aVformat
p1038
aVwellbor
p1039
aVtransfer
p1040
aVutil
p1041
aVsystem
p1042
asI5874214
(lp1043
Vmemori
p1044
aVmatrix
p1045
aVmacromolecul
p1046
aVbiolog
p1047
aVcombin
p1048
aVimmunoassay
p1049
aVmolecul
p1050
aVmatric
p1051
aVremot
p1052
aVparticl
p1053
asI6182443
(lp1054
Vcatalyst
p1055
aVexhaust
p1056
aVnitrogen
p1057
aVdiesel
p1058
aVoxid
p1059
aVengin
p1060
aVcompon
p1061
aVgase
p1062
aVreduct
p1063
aVnitrous
p1064
asI6749740
(lp1065
Vanalyt
p1066
aVsensor
p1067
aVdetermin
p1068
aVcharg
p1069
aVcoulometri
p1070
aVpotentiometri
p1071
aVamperometri
p1072
aVamount
p1073
aVlactat
p1074
aVvolum
p1075
asI7644765
(lp1076
Vformat
p1077
aVtar
p1078
aVhydrocarbon
p1079
aVpressur
p1080
aVsand
p1081
aVsection
p1082
aVmajor
p1083
aVtemperatur
p1084
aVmay
p1085
aVbelow
p1086
asI6461496
(lp1087
Vleachabl
p1088
aVsensor
p1089
aVbiomolecul
p1090
aVredox
p1091
aVdiffus
p1092
aVmediat
p1093
aVanalyt
p1094
aVcoulometri
p1095
aVpotentiometri
p1096
aVamperometri
p1097
asI7841408
(lp1098
Vhydrocarbon
p1099
aVformat
p1100
aVlayer
p1101
aVtar
p1102
aVsand
p1103
aVsome
p1104
aVmobil
p1105
aVsecond
p1106
aVheat
p1107
aVsitu
p1108
asI5364797
(lp1109
Vcrystallin
p1110
aVm41s
p1111
aVpore
p1112
aVmateri
p1113
aVmesopor
p1114
aVquantifi
p1115
aVsensor
p1116
aVultra
p1117
aVdetect
p1118
aVbiolog
p1119
asI7635023
(lp1120
Vhydrocarbon
p1121
aVheater
p1122
aVhorizont
p1123
aVinclin
p1124
aVformat
p1125
aVopen
p1126
aVportion
p1127
aVlayer
p1128
aVisol
p1129
aVheat
p1130
asI7635024
(lp1131
Vvisbreak
p1132
aVformat
p1133
aVtar
p1134
aVhydrocarbon
p1135
aVsand
p1136
aVvisbroken
p1137
aVsection
p1138
aVheat
p1139
aVsome
p1140
aV240
p1141
asI7635025
(lp1142
Vcogener
p1143
aVhydrocarbon
p1144
aVsteam
p1145
aVformat
p1146
aVfacil
p1147
aVelectr
p1148
aVwell
p1149
aVportion
p1150
aVproduct
p1151
aVlocat
p1152
asI7610962
(lp1153
Vformat
p1154
aVsubsurfac
p1155
aVlithostat
p1156
aVacid
p1157
aVheater
p1158
aVgase
p1159
aVgas
p1160
aVsour
p1161
aVheat
p1162
aVherein
p1163
asI7597147
(lp1164
Vheater
p1165
aVferromagnet
p1166
aVconductor
p1167
aVtemperatur
p1168
aVtransform
p1169
aVherein
p1170
aVelectr
p1171
aVsubsurfac
p1172
aVphase
p1173
aVamount
p1174
asI7831133
(lp1175
Vheater
p1176
aVsubsurfac
p1177
aVwye
p1178
aVelectr
p1179
aVconductor
p1180
aVsheath
p1181
aVthird
p1182
aVcoupl
p1183
aVinsul
p1184
aVheat
p1185
asI7831134
(lp1186
Vheater
p1187
aVformat
p1188
aVgroup
p1189
aVuncas
p1190
aVhydrocarbon
p1191
aVtwo
p1192
aVmore
p1193
aVwellbor
p1194
aVconfigur
p1195
aVelectr
p1196
asI5473887
(lp1197
sI6622480
(lp1198
Vpes
p1199
aVregener
p1200
aVparticul
p1201
aVexhaust
p1202
aVfilter
p1203
aVash
p1204
aVres
p1205
aVdiesel
p1206
aVfiler
p1207
aVjudg
p1208
asI7540324
(lp1209
Vsection
p1210
aVhydrocarbon
p1211
aVheat
p1212
aVcheckerboard
p1213
aVheater
p1214
aVformat
p1215
aVfirst
p1216
aVmore
p1217
aVmobil
p1218
aVsecond
p1219
asI5246566
(lp1220
Vsapo
p1221
aVang
p1222
aVzsm
p1223
aVisomer
p1224
aVcatalyst
p1225
aVabout
p1226
aVpore
p1227
aVviscos
p1228
aVlube
p1229
aVwaxi
p1230
asI6299757
(lp1231
Vleachabl
p1232
aVsensor
p1233
aVbiomolecul
p1234
aVredox
p1235
aVdiffus
p1236
aVmediat
p1237
aVanalyt
p1238
aVcoulometri
p1239
aVpotentiometri
p1240
aVamperometri
p1241
asI7681647
(lp1242
Vformat
p1243
aVvisbroken
p1244
aVtar
p1245
aVsand
p1246
aVpyrolyz
p1247
aVhydrocarbon
p1248
aVsitu
p1249
aVheater
p1250
aVfluid
p1251
aVdrive
p1252
asI7841401
(lp1253
Vtreatment
p1254
aVsitu
p1255
aVformat
p1256
aVsubsurfac
p1257
aVmigrat
p1258
aVinhibit
p1259
aVheat
p1260
aVtreat
p1261
aVfluid
p1262
aVarea
p1263
asI4677242
(lp1264
Volefin
p1265
aVfeedstock
p1266
aVsilicoaluminophosph
p1267
aVlight
p1268
aVhetero
p1269
aVsiev
p1270
aVdiluent
p1271
aValiphat
p1272
aVproduct
p1273
aVaromat
p1274
asI5740669
(lp1275
Vsub
p1276
aVabsorb
p1277
aVexhaust
p1278
aVregener
p1279
aVgas
p1280
aVoutflow
p1281
aVrich
p1282
aVfuel
p1283
aVtemperatur
p1284
aVratio
p1285
asI7735935
(lp1286
Vformat
p1287
aVsitu
p1288
aVshale
p1289
aVminer
p1290
aVportion
p1291
aVoil
p1292
aVcarbon
p1293
aVdissoci
p1294
aVfluid
p1295
aVtemperatur
p1296
asI4793984
(lp1297
Vsiev
p1298
aVmolecular
p1299
aVsub
p1300
aVframework
p1301
aVelo
p1302
aValo
p1303
aVempir
p1304
aVmicropor
p1305
aVanhydr
p1306
aVsio
p1307
asI4410501
(lp1308
Vand
p1309
aVoxid
p1310
aVinvent
p1311
aVsynthes
p1312
aVtitanium
p1313
aVsynthet
p1314
aVconstitut
p1315
aVuse
p1316
aVsaid
p1317
aVfor
p1318
asI5282958
(lp1319
Vpsig
p1320
aVhexadecan
p1321
aVisomer
p1322
aVdewax
p1323
aVpore
p1324
aVfeed
p1325
aVang
p1326
aVsiev
p1327
aVmolecular
p1328
aV370
p1329
asI6167696
(lp1330
Vtrap
p1331
aVexhaust
p1332
aVsub
p1333
aVcatalyst
p1334
aVparticul
p1335
aVhydrocarbon
p1336
aVpurif
p1337
aVburn
p1338
aVmatter
p1339
aVcold
p1340
asI7841425
(lp1341
Vdrill
p1342
aVwellbor
p1343
aVtubular
p1344
aVbit
p1345
aVcut
p1346
aVstructur
p1347
aVsubsurfac
p1348
aVcoupl
p1349
aVformat
p1350
aVabov
p1351
asI6591125
(lp1352
Vskin
p1353
aVanalyt
p1354
aVfingertip
p1355
aVstimul
p1356
aVfluid
p1357
aVbodi
p1358
aVleachabl
p1359
aVtest
p1360
aVlanc
p1361
aVredox
p1362
asI7533719
(lp1363
Vwellhead
p1364
aVsubsurfac
p1365
aVheater
p1366
aVferromagnet
p1367
aVwellbor
p1368
aVformat
p1369
aVherein
p1370
aVcoupl
p1371
aVdescrib
p1372
aVnon
p1373
asI5858457
(lp1374
Vfilm
p1375
aVmicrostructur
p1376
aVpore
p1377
aVmesostructur
p1378
aVmicellar
p1379
aVexhibit
p1380
aVuni
p1381
aVmodal
p1382
aVcoat
p1383
aVsize
p1384
asI6171556
(lp1385
Vexhaust
p1386
aVadsorb
p1387
aVstream
p1388
aVzone
p1389
aVpollut
p1390
aVgas
p1391
aVcatalyst
p1392
aVinnocu
p1393
aVdischarg
p1394
aVzeolit
p1395
asI6654625
(lp1396
Vanalyt
p1397
aVsensor
p1398
aVsens
p1399
aVmass
p1400
aVvivo
p1401
aVmammal
p1402
aVtransport
p1403
aVlayer
p1404
aVedg
p1405
aVwork
p1406
asI5126308
(lp1407
Valuminophosph
p1408
aVcatalyst
p1409
aVparticl
p1410
aVmetal
p1411
aVsiev
p1412
aVsub
p1413
aVmethanol
p1414
aVmole
p1415
aVolefin
p1416
aVfraction
p1417
asI5288619
(lp1418
Vstearic
p1419
aVtransesterifi
p1420
aVacid
p1421
aVtransesterif
p1422
aVoil
p1423
aVveget
p1424
aVreaction
p1425
aVrecycl
p1426
aVmargarin
p1427
aVzone
p1428
asI4873390
(lp1429
Vfeedstock
p1430
aVcatalyt
p1431
aVconvers
p1432
aVchemic
p1433
aVprocess
p1434
aVconvert
p1435
aVproduct
p1436
aVinto
p1437
aVcompris
p1438
aVwhich
p1439
asI5448887
(lp1440
Vexhaust
p1441
aVfuel
p1442
aVratio
p1443
aVsub
p1444
aVgas
p1445
aVair
p1446
aVabsorb
p1447
aVcatalyst
p1448
aVlean
p1449
aVthree
p1450
asI6329017
(lp1451
Vmesopor
p1452
aVfilm
p1453
aVsilica
p1454
aVsurfact
p1455
aVdielectr
p1456
aVconstant
p1457
aVsolut
p1458
aVhydroxyl
p1459
aVdehydroxyl
p1460
aVspin
p1461
asI5098684
(lp1462
Vangstrom
p1463
aVhexagon
p1464
aVbenzen
p1465
aVgram
p1466
aVpore
p1467
aVcrystalin
p1468
aVcrystallin
p1469
aVsynthet
p1470
aVcapac
p1471
aV100
p1472
asI7225535
(lp1473
Vsensor
p1474
aVelectrod
p1475
aVelectrochem
p1476
aVcoulometri
p1477
aVpotentiometri
p1478
aVamperometri
p1479
aVlactat
p1480
aVbiomolecul
p1481
aVwork
p1482
aVsampl
p1483
asI7559367
(lp1484
Vconduit
p1485
aVelectr
p1486
aVconductor
p1487
aVcurrent
p1488
aVformat
p1489
aVflow
p1490
aVsubstanti
p1491
aVheat
p1492
aVnear
p1493
aVinsid
p1494
asI7559368
(lp1495
Vinject
p1496
aVfluid
p1497
aVnahcolit
p1498
aVformat
p1499
aVwell
p1500
aVinterconnect
p1501
aVhydrocarbon
p1502
aVleast
p1503
aVshale
p1504
aVproduc
p1505
asI5732554
(lp1506
Vcombust
p1507
aVengin
p1508
aVdiesel
p1509
aVexhaust
p1510
aVdomin
p1511
aVsub
p1512
aVgas
p1513
aVabsorb
p1514
aVpurif
p1515
aVratio
p1516
asI4686029
(lp1517
Vtitanoaluminosil
p1518
aVdewax
p1519
aVfeedstock
p1520
aVhydrocarbon
p1521
aVcatalyst
p1522
aVpour
p1523
aVinstant
p1524
aVprocess
p1525
aVcharacter
p1526
aVnovel
p1527
asI7931086
(lp1528
Vheat
p1529
aVconduit
p1530
aVsubsurfac
p1531
aVformat
p1532
aVseal
p1533
aVtransfer
p1534
aVvapor
p1535
aVfluid
p1536
aVliquid
p1537
aVsourc
p1538
asI5735119
(lp1539
Vsub
p1540
aVabsorb
p1541
aVexhaust
p1542
aVrich
p1543
aVdeterior
p1544
aVpurif
p1545
aVengin
p1546
aVfuel
p1547
aVpassag
p1548
aVsensor
p1549
asI5407442
(lp1550
Vcarbon
p1551
aVparticl
p1552
aVodor
p1553
aVlighter
p1554
aVcatameni
p1555
aVmalodor
p1556
aVbandag
p1557
aVcomposit
p1558
aVcolor
p1559
aVdiaper
p1560
asI5992142
(lp1561
Vzone
p1562
aVexhaust
p1563
aVlayer
p1564
aVengin
p1565
aVnobl
p1566
aVsub
p1567
aVlean
p1568
aVdiesel
p1569
aVstorag
p1570
aVgamma
p1571
asI5715679
(lp1572
Vsub
p1573
aVabsorb
p1574
aVexhaust
p1575
aVamount
p1576
aVpurif
p1577
aVengin
p1578
aVactual
p1579
aVestim
p1580
aVbasi
p1581
aVpassag
p1582
asI7683296
(lp1583
Vheater
p1584
aVcuri
p1585
aVtemperatur
p1586
aVsection
p1587
aV740
p1588
aVherein
p1589
aVsubsurfac
p1590
aVdescrib
p1591
aVcobalt
p1592
aViron
p1593
asI5437153
(lp1594
Vabsorb
p1595
aVsub
p1596
aVexhaust
p1597
aVengin
p1598
aVrich
p1599
aVfuel
p1600
aVratio
p1601
aVgas
p1602
aVair
p1603
aVestim
p1604
asI5125231
(lp1605
Vhydrocarbon
p1606
aVconvert
p1607
aVengin
p1608
aVsiev
p1609
aVexhaust
p1610
aVcatalyst
p1611
aVcatalyt
p1612
aVwithheld
p1613
aVchamber
p1614
aVemiss
p1615
asI5714662
(lp1616
Voxygen
p1617
aVproduct
p1618
aVmethanol
p1619
aVzone
p1620
aVolefin
p1621
aVcost
p1622
aVcatalyst
p1623
aVoctan
p1624
aVlight
p1625
aVcrude
p1626
asI6592745
(lp1627
Vsensor
p1628
aVleachabl
p1629
aVbiomolecul
p1630
aVdiffus
p1631
aVmediat
p1632
aVanalyt
p1633
aVcoulometri
p1634
aVpotentiometri
p1635
aVamperometri
p1636
aVelectrooxid
p1637
asI5832722
(lp1638
Vsub
p1639
aVpurg
p1640
aVestim
p1641
aVtrap
p1642
aVmode
p1643
aVengin
p1644
aVcumul
p1645
aVstorag
p1646
aVlevel
p1647
aVaccumul
p1648
asI6090989
(lp1649
Vbranch
p1650
aVpercentag
p1651
aVbasestock
p1652
aVhydrocarbon
p1653
aVisoparaffin
p1654
aVlube
p1655
aVcarbon
p1656
aVrecur
p1657
aVparaffin
p1658
aVmethylen
p1659
asI6568177
(lp1660
Vfuel
p1661
aVpurg
p1662
aVcontrol
p1663
aVengin
p1664
aVlean
p1665
aVair
p1666
aVcatalyst
p1667
aVcylind
p1668
aVemiss
p1669
aVvapor
p1670
asI7785427
(lp1671
Valloy
p1672
aVmetal
p1673
aVstrength
p1674
aVleast
p1675
aVheater
p1676
aVherein
p1677
aVpartial
p1678
aVniobium
p1679
aVhigh
p1680
aVcanist
p1681
asI6270846
(lp1682
Vinterstiti
p1683
aVporos
p1684
aVfilm
p1685
aVthin
p1686
aVsurfact
p1687
aVdielectr
p1688
aVconstant
p1689
aVtemplat
p1690
aVevapor
p1691
aVcompound
p1692
asI5095163
(lp1693
Vsapo
p1694
aVmethanol
p1695
aVcatalyst
p1696
aVolefin
p1697
aVsilicoaluminophosph
p1698
aVhydrotherm
p1699
aVuntreat
p1700
aVparaffin
p1701
aV700
p1702
aVsiev
p1703
asI6251260
(lp1704
Vpotentiometr
p1705
aVanalyt
p1706
aVsampl
p1707
aVelectrod
p1708
aVcorrel
p1709
aVdetermin
p1710
aVpotenti
p1711
aVlinear
p1712
aVconcentr
p1713
aVsensor
p1714
asI6387453
(lp1715
Vinterstiti
p1716
aVsurfact
p1717
aVmesostructur
p1718
aVfilm
p1719
aVthin
p1720
aVtemplat
p1721
aVframework
p1722
aVevapor
p1723
aVdisord
p1724
aVmesophas
p1725
asI7730945
(lp1726
Vgeotherm
p1727
aVsubsurfac
p1728
aVheat
p1729
aVtreatment
p1730
aVformat
p1731
aVenergi
p1732
aVhydrocarbon
p1733
aVfluid
p1734
aVarea
p1735
aVtreat
p1736
asI7730946
(lp1737
Vdolomit
p1738
aVtar
p1739
aVformat
p1740
aVsand
p1741
aVhydrocarbon
p1742
aVsome
p1743
aVtreat
p1744
aVdecomposit
p1745
aVfluid
p1746
aVmay
p1747
asI7730947
(lp1748
Vtar
p1749
aVinject
p1750
aVsand
p1751
aVzone
p1752
aVfluid
p1753
aVformat
p1754
aVpermeabl
p1755
aVportion
p1756
aVhydrocarbon
p1757
aVtreat
p1758
asI5974793
(lp1759
Vexhaust
p1760
aVgas
p1761
aVlean
p1762
aVsub
p1763
aVcylind
p1764
aVcatalyst
p1765
aVfuel
p1766
aVratio
p1767
aVrich
p1768
aVair
p1769
asI6166282
(lp1770
Vzone
p1771
aVdisengag
p1772
aVdens
p1773
aVreaction
p1774
aVcatalyst
p1775
aVtransit
p1776
aVconvers
p1777
aVreactor
p1778
aVbed
p1779
aVphase
p1780
asI4752651
(lp1781
Volefin
p1782
aVfeedstock
p1783
aVlight
p1784
aVhetero
p1785
aVsiev
p1786
aVdiluent
p1787
aVzeolit
p1788
aValiphat
p1789
aVproduct
p1790
aVaromat
p1791
asI5057296
(lp1792
Vcrystallin
p1793
aVbenzen
p1794
aVgram
p1795
aVpore
p1796
aVsynthes
p1797
aVcapac
p1798
aVmesopor
p1799
aVsorption
p1800
aVtorr
p1801
aVlarg
p1802
asI6017496
(lp1803
sI6682899
(lp1804
Vbioluminesc
p1805
aVbiominer
p1806
aVsynaps
p1807
aVinfecti
p1808
aValso
p1809
aVanalyt
p1810
aVdetect
p1811
aVbiolog
p1812
aVsynthet
p1813
aVidentif
p1814
asI5135638
(lp1815
Vsapo
p1816
aVang
p1817
aVzsm
p1818
aVisomer
p1819
aVcatalyst
p1820
aVabout
p1821
aVpore
p1822
aVviscos
p1823
aVlube
p1824
aVwaxi
p1825
asI6329139
(lp1826
Vautom
p1827
aVmemori
p1828
aVmicrovessel
p1829
aVmatric
p1830
aVencodabi
p1831
aVprotocol
p1832
aVmanual
p1833
aVdiscoveri
p1834
aVsort
p1835
aVcleaver
p1836
asI4440871
(lp1837
Vsilicoaluminophosph
p1838
aVclass
p1839
aVcrystallin
p1840
aVmolecular
p1841
aVhydrotherm
p1842
aVcrystal
p1843
aVsomewhat
p1844
aVmicropor
p1845
aVsiev
p1846
aVzeolit
p1847
asI5711149
(lp1848
Vdiesel
p1849
aVfuel
p1850
aVexhaust
p1851
aVcatalyst
p1852
aVsuppli
p1853
aVfilter
p1854
aVoxid
p1855
aVregener
p1856
aVmust
p1857
aVpurifi
p1858
asI5713199
(lp1859
Vsub
p1860
aVabsorb
p1861
aValmost
p1862
aVamount
p1863
aVfuel
p1864
aVdeterior
p1865
aVdetect
p1866
aVzero
p1867
aVair
p1868
aVexhaust
p1869
asI5996338
(lp1870
Vexhaust
p1871
aVpurifi
p1872
aVcatalyst
p1873
aVadsorb
p1874
aVgas
p1875
aVtemperatur
p1876
aVsub
p1877
aVcapac
p1878
aVinflow
p1879
aVheater
p1880
asI7717171
(lp1881
Vhydrocarbon
p1882
aVportion
p1883
aVthird
p1884
aVformat
p1885
aVtar
p1886
aVfluid
p1887
aVsand
p1888
aVheater
p1889
aVfirst
p1890
aVheat
p1891
asI6618934
(lp1892
Vsensor
p1893
aVleachabl
p1894
aVbiomolecul
p1895
aVmediat
p1896
aVanalyt
p1897
aVcoulometri
p1898
aVpotentiometri
p1899
aVamperometri
p1900
aVelectrooxid
p1901
aVelectroreduct
p1902
asI6942518
(lp1903
Vanalyt
p1904
aVsensor
p1905
aVdetermin
p1906
aVcharg
p1907
aVcoulometri
p1908
aVpotentiometri
p1909
aVamperometri
p1910
aVamount
p1911
aVlactat
p1912
aVvolum
p1913
asI7631689
(lp1914
Vsulfur
p1915
aVformat
p1916
aVbarrier
p1917
aVdarci
p1918
aVsubsurfac
p1919
aVtreatment
p1920
aVwellbor
p1921
aVcooler
p1922
aVsolidifi
p1923
aVarea
p1924
asI7631690
(lp1925
Vzone
p1926
aVtreatment
p1927
aVtreat
p1928
aVspiral
p1929
aVbegin
p1930
aVformat
p1931
aVsuccess
p1932
aVmay
p1933
aVhydrocarbon
p1934
aVprevious
p1935
asI5751629
(lp1936
Vmatrix
p1937
aVmacromolecul
p1938
aVmemori
p1939
aVbiolog
p1940
aVcombin
p1941
aVimmunoassay
p1942
aVmolecul
p1943
aVelectroniclli
p1944
aVmatric
p1945
aVremot
p1946
asI7673681
(lp1947
Vkarst
p1948
aVtar
p1949
aVsand
p1950
aVformat
p1951
aVzone
p1952
aVmobil
p1953
aVtreat
p1954
aVmore
p1955
aVfluid
p1956
aVmay
p1957
asI7604052
(lp1958
Vsubsurfac
p1959
aVformat
p1960
aVparticl
p1961
aVcenospher
p1962
aVheat
p1963
aVsitu
p1964
aVproduc
p1965
aVhydrocarbon
p1966
aVmicromet
p1967
aVtreatment
p1968
asI6225243
(lp1969
Vcompon
p1970
aVpolymer
p1971
aVstrand
p1972
aVnonwoven
p1973
aVweb
p1974
aVelast
p1975
aVzone
p1976
aVsticki
p1977
aVsecond
p1978
aVovercom
p1979
asI7793722
(lp1980
Voverburden
p1981
aVheater
p1982
aVwellbor
p1983
aVferromagnet
p1984
aVsubsurfac
p1985
aVcase
p1986
aVformat
p1987
aVinsul
p1988
aVdescrib
p1989
aVnon
p1990
asI6109024
(lp1991
sI5331809
(lp1992
Vcours
p1993
aVrise
p1994
aVcatalyst
p1995
aVexhaust
p1996
aVpurif
p1997
aVtemperatur
p1998
aVengin
p1999
aVgas
p2000
aVoxid
p2001
aVnitrogen
p2002
asI6338790
(lp2003
Vleachabl
p2004
aVsensor
p2005
aVbiomolecul
p2006
aVredox
p2007
aVdiffus
p2008
aVmediat
p2009
aVanalyt
p2010
aVcoulometri
p2011
aVpotentiometri
p2012
aVamperometri
p2013
asI7677310
(lp2014
Vformat
p2015
aVtar
p2016
aVsand
p2017
aVhydrocarbon
p2018
aVcap
p2019
aVtreat
p2020
aVgas
p2021
aVupper
p2022
aVportion
p2023
aVheater
p2024
asI6975893
(lp2025
Vanalyt
p2026
aVsensor
p2027
aVsens
p2028
aVmass
p2029
aVvivo
p2030
aVmammal
p2031
aVtransport
p2032
aVlayer
p2033
aVedg
p2034
aVwork
p2035
asI4826497
(lp2036
Vdeodor
p2037
aVabsorb
p2038
aVfibrous
p2039
aVunderwear
p2040
aVcatameni
p2041
aVarticl
p2042
aVbandag
p2043
aVproperti
p2044
aVangstrom
p2045
aVincontin
p2046
asI7677314
(lp2047
Vformat
p2048
aVtar
p2049
aVheater
p2050
aVsand
p2051
aVcondens
p2052
aVvapor
p2053
aVmay
p2054
aVtreat
p2055
aVwater
p2056
aVportion
p2057
asI6014859
(lp2058
sI7591310
(lp2059
Vhydrotr
p2060
aVstream
p2061
aVclog
p2062
aVliquid
p2063
aVsitu
p2064
aVtreatment
p2065
aVheat
p2066
aVremov
p2067
aVformat
p2068
aVproduc
p2069
asI6617490
(lp2070
Vmold
p2071
aVweb
p2072
aVairlaid
p2073
aVhump
p2074
aVarticl
p2075
aVenergi
p2076
aVabsorb
p2077
aVimprov
p2078
aVfit
p2079
aVcentral
p2080
asI7640980
(lp2081
Vsubsurfac
p2082
aVformat
p2083
aVhydrocarbon
p2084
aVheat
p2085
aVheater
p2086
aVpyrolyz
p2087
aVmay
p2088
aVsome
p2089
aVmore
p2090
aVprocess
p2091
asI7581589
(lp2092
Vstream
p2093
aValkyl
p2094
aVgas
p2095
aVhydrocarbon
p2096
aVproduc
p2097
aVsitu
p2098
aVolefin
p2099
aVliquid
p2100
aVformat
p2101
aVsubsurfac
p2102
asI5741462
(lp2103
Vmatrix
p2104
aVmacromolecul
p2105
aVmemori
p2106
aVcombin
p2107
aVmatric
p2108
aVremot
p2109
aVbiolog
p2110
aVprogramm
p2111
aVmolecul
p2112
aVphage
p2113
asI7860377
(lp2114
Vheater
p2115
aVsubsurfac
p2116
aVexpos
p2117
aVformat
p2118
aVelong
p2119
aVopen
p2120
aVfirst
p2121
aVportion
p2122
aVsection
p2123
aVbelow
p2124
asI5733272
(lp2125
Vscent
p2126
aVodor
p2127
aVperfum
p2128
aVpantilin
p2129
aVcatameni
p2130
aVunderarm
p2131
aVpleasant
p2132
aVarticl
p2133
aVcyclodextrin
p2134
aVmicrocapsul
p2135
asI4554143
(lp2136
Vferroaluminophosph
p2137
aVcrystallin
p2138
aVtetrahedr
p2139
aVhydrotherm
p2140
aValo
p2141
aVferric
p2142
aVmicropor
p2143
aVferrous
p2144
aVsub
p2145
aVlattic
p2146
asI7832484
(lp2147
Vsubsurfac
p2148
aVconduit
p2149
aVformat
p2150
aVheat
p2151
aVconductor
p2152
aVfluid
p2153
aVinsul
p2154
aVsalt
p2155
aVmateri
p2156
aVtransfer
p2157
asI5771685
(lp2158
Vtrap
p2159
aVsub
p2160
aVlean
p2161
aVpurg
p2162
aVhego
p2163
aVcruis
p2164
aVrich
p2165
aVtime
p2166
aVperform
p2167
aVsulfur
p2168
asI5771686
(lp2169
Vexhaust
p2170
aVdiesel
p2171
aVlambda
p2172
aVengin
p2173
aVoper
p2174
aVcatalyst
p2175
aVsub
p2176
aVstorag
p2177
aVfeedback
p2178
aVfunction
p2179
asI4310440
(lp2180
Valuminophosph
p2181
aVcrystallin
p2182
aVmicropor
p2183
aVmolecular
p2184
aVsiev
p2185
aVfamili
p2186
aVmetallophosph
p2187
aVintracrystallin
p2188
aVadsorb
p2189
aVspeci
p2190
asI6616819
(lp2191
Vanalyt
p2192
aVsensor
p2193
aVdetermin
p2194
aVcharg
p2195
aVcoulometri
p2196
aVpotentiometri
p2197
aVamperometri
p2198
aVamount
p2199
aVlactat
p2200
aVvolum
p2201
asI5595060
(lp2202
Vnitrogen
p2203
aVengin
p2204
aVcatalyt
p2205
aVoxid
p2206
aVcombust
p2207
aVadsorb
p2208
aVdeterior
p2209
aVexhaust
p2210
aVlean
p2211
aVpurifi
p2212
asI7673786
(lp2213
Vshield
p2214
aVinert
p2215
aVportion
p2216
aVheater
p2217
aVweld
p2218
aVconfigur
p2219
aVend
p2220
aVgas
p2221
aVdoor
p2222
aVhing
p2223
asI7041468
(lp2224
Vglucos
p2225
aVtest
p2226
aVstrip
p2227
aVhous
p2228
aVreceptacl
p2229
aVhand
p2230
aVheld
p2231
aVconnector
p2232
aVmodul
p2233
aVamount
p2234
asI6165949
(lp2235
Vdialkyldithiophosph
p2236
aVantiwear
p2237
aVstock
p2238
aVmetal
p2239
aVpremium
p2240
aVtropsch
p2241
aVfischer
p2242
aVethoxyl
p2243
aVlubric
p2244
aVsynthet
p2245
asI7849922
(lp2246
Vsection
p2247
aVformat
p2248
aVhydrocarbon
p2249
aVheat
p2250
aVheater
p2251
aVresidu
p2252
aVfirst
p2253
aVtar
p2254
aVsolvat
p2255
aVtransfer
p2256
asI7798220
(lp2257
Vhydrocarbon
p2258
aVtar
p2259
aVformat
p2260
aVsand
p2261
aVsome
p2262
aVlayer
p2263
aVdrive
p2264
aVproduc
p2265
aVtreatment
p2266
aVupgrad
p2267
asI7798221
(lp2268
Vformat
p2269
aVhydrocarbon
p2270
aVpyrolysi
p2271
aVcondens
p2272
aVmay
p2273
aVsitu
p2274
aVrais
p2275
aVtemperatur
p2276
aVoil
p2277
aVshale
p2278
asI7562706
(lp2279
Vhydrocarbon
p2280
aVdrainag
p2281
aVtar
p2282
aVheater
p2283
aVformat
p2284
aVsand
p2285
aVheat
p2286
aVpartial
p2287
aVconverg
p2288
aVpath
p2289
asI7562707
(lp2290
Vsection
p2291
aVhydrocarbon
p2292
aVheat
p2293
aVfirst
p2294
aVheater
p2295
aVformat
p2296
aVmobil
p2297
aVsecond
p2298
aVmay
p2299
aVsome
p2300
asI6121170
(lp2301
Vwater
p2302
aVdispers
p2303
aVsensit
p2304
aVproduct
p2305
aVflushabl
p2306
aVfeminin
p2307
aVnapkin
p2308
aVcomposit
p2309
aVfiber
p2310
aVthermoform
p2311
asI7703513
(lp2312
Vbarrier
p2313
aVwax
p2314
aVformat
p2315
aVcongeal
p2316
aVintroduc
p2317
aVsubsurfac
p2318
aVwellbor
p2319
aVsitu
p2320
aVmore
p2321
aVmateri
p2322
asI5191141
(lp2323
Vparticl
p2324
aVmetal
p2325
aVsiev
p2326
aVsub
p2327
aVmethanol
p2328
aVelapo
p2329
aVmole
p2330
aVcatalyst
p2331
aVolefin
p2332
aVfraction
p2333
asI5743084
(lp2334
Vtrap
p2335
aVsub
p2336
aVlean
p2337
aVpurg
p2338
aVhego
p2339
aVcruis
p2340
aVrich
p2341
aVtime
p2342
aVperform
p2343
aVsulfur
p2344
asI4861938
(lp2345
Vsolid
p2346
aVregener
p2347
aVfeedstock
p2348
aVcomposit
p2349
aVdeactiv
p2350
aVcondit
p2351
aVstep
p2352
aVconvers
p2353
aVcontact
p2354
aVpartial
p2355
asI4567029
(lp2356
Valuminophosph
p2357
aVcrystallin
p2358
aVtetrahedr
p2359
aVmetal
p2360
aVhydrotherm
p2361
aValo
p2362
aVmicropor
p2363
aVsub
p2364
aVlattic
p2365
aVadsorb
p2366
asI7556095
(lp2367
Vdawsonit
p2368
aVformat
p2369
aVchelat
p2370
aVdecomposit
p2371
aVdissolv
p2372
aVhydrocarbon
p2373
aVheat
p2374
aVshale
p2375
aVsome
p2376
aVagent
p2377
astp2378
.