((lp0
I4061724
aI4208305
aI4269813
aI4310440
aI4410501
aI4440871
aI4740219
aI4795482
aI4826497
aI5125231
aI5127925
aI5288619
aI6329062
aI4554143
aI4576805
aI5362378
aI4500651
aI4567029
aI4629717
aI4673559
aI4686093
aI4790982
aI4793984
aI4861743
aI5057296
aI5098684
aI5108725
aI5126308
aI5191141
aI5198203
aI7533719
aI7540324
aI7549470
aI7556095
aI7556096
aI7559367
aI7559368
aI7562706
aI7562707
aI7581589
aI7584789
aI7591310
aI7597147
aI7604052
aI7610962
aI7631689
aI7631690
aI7635023
aI7635024
aI7635025
aI7644765
aI7673681
aI7673786
aI7677310
aI7677314
aI7681647
aI7683296
aI7703513
aI7717171
aI7730945
aI7730946
aI7730947
aI7735935
aI7785427
aI7793722
aI7798220
aI7832484
aI7841401
aI7841408
aI7841425
aI7845411
aI7849922
aI7866385
aI7866386
aI7866388
aI7912358
aI7931086
aI7950453
aI8042610
aI4686029
aI4824976
aI4677242
aI4859311
aI4861938
aI4921594
aI4943424
aI5095163
aI5096684
aI5246566
aI5282958
aI5714662
aI5744680
aI5952538
aI6023005
aI6121504
aI6509290
aI6812372
aI7361794
aI4925459
aI5019263
aI6315815
aI4934142
aI5161686
aI5407442
aI5019062
aI5315824
aI5331809
aI5538697
aI5544482
aI6093378
aI6171556
aI6182443
aI5332424
aI7176144
aI4752651
aI5349113
aI6090989
aI6103099
aI6165949
aI5911937
aI5849258
aI5364797
aI5622684
aI5795559
aI5858457
aI6096469
aI6329017
aI6383466
aI6592764
aI5958367
aI5914433
aI6049017
aI6166282
aI5895263
aI6093636
aI7640980
aI7798221
aI7831133
aI7831134
aI7860377
aI7942197
aI7942203
aI7986869
aI8027571
aI5135638
aI4973792
aI6274540
aI7732301
aI5104425
aI5151110
aI5177008
aI6265093
aI6913697
aI5750026
aI6622480
aI7229597
aI5300192
aI5308896
aI5352480
aI5484645
aI5543215
aI5547541
aI5547745
aI5571618
aI5589256
aI5609727
aI5614570
aI5693411
aI5789326
aI5807364
aI5733272
aI5916678
aI5973221
aI5976694
aI6121170
aI6429261
aI6548592
aI6602955
aI5135521
aI5415640
aI5817394
aI5856245
aI5874164
aI5876792
aI6040251
aI6047544
aI5423181
aI5437153
aI5448887
aI5473887
aI6161378
aI6568177
aI6735938
aI6736121
aI5792436
aI5711149
aI5894725
aI6167696
aI7052532
aI6732507
aI6928806
aI7375049
aI5435836
aI4873390
aI6696258
aI5741462
aI5751629
aI5874214
aI6017496
aI6251260
aI6299757
aI6329139
aI6338790
aI6461496
aI6591125
aI6592745
aI6616819
aI6618934
aI6654625
aI6682899
aI6749740
aI6942518
aI6975893
aI7041468
aI7058437
aI7106513
aI7225535
aI7587287
aI6310110
aI6413489
aI6890624
aI6270846
aI6365266
aI6387453
aI6518194
aI6548113
aI6271273
aI6420441
aI6596467
aI6873087
aI6900881
aI6908861
aI6916584
aI6916585
aI6921615
aI6932934
aI7056840
aI7070405
aI7077992
aI6391932
aI6742774
aI7190049
aI5354547
aI5451444
aI5589396
aI5753014
aI5880552
aI7744727
aI6348085
aI6368374
aI6043317
aI6753454
aI5998511
aI6417425
aI5605746
aI6015764
aI6037281
aI6111163
aI6068620
aI6617490
aI6599631
aI6229062
aI6225243
aI5364382
aI5383870
aI5387209
aI5401267
aI5429629
aI5437653
aI5509915
aI5514104
aI5536555
aI5545156
aI5607414
aI5624423
aI5643240
aI5941864
aI6096668
aI5647863
aI5865824
aI6576006
aI6713660
aI5832722
aI5595060
aI5713199
aI5715679
aI5735119
aI5740669
aI5743084
aI5771685
aI5848529
aI6832473
aI5992142
aI5732554
aI5771686
aI5974793
aI6014859
aI6047542
aI6109024
aI6345496
aI6375910
aI5996338
aI6293096
aI6871489
aI6560958
aI7062904
a(lp1
(lp2
I4061724
aa(lp3
I4208305
aI4269813
aI4310440
aI4410501
aI4440871
aI4740219
aI4795482
aI4826497
aI5125231
aI5127925
aI5288619
aI6329062
aa(lp4
I4554143
aI4576805
aI5362378
aI4500651
aI4567029
aI4629717
aI4673559
aI4686093
aI4790982
aI4793984
aI4861743
aI5057296
aI5098684
aI5108725
aI5126308
aI5191141
aI5198203
aI7533719
aI7540324
aI7549470
aI7556095
aI7556096
aI7559367
aI7559368
aI7562706
aI7562707
aI7581589
aI7584789
aI7591310
aI7597147
aI7604052
aI7610962
aI7631689
aI7631690
aI7635023
aI7635024
aI7635025
aI7644765
aI7673681
aI7673786
aI7677310
aI7677314
aI7681647
aI7683296
aI7703513
aI7717171
aI7730945
aI7730946
aI7730947
aI7735935
aI7785427
aI7793722
aI7798220
aI7832484
aI7841401
aI7841408
aI7841425
aI7845411
aI7849922
aI7866385
aI7866386
aI7866388
aI7912358
aI7931086
aI7950453
aI8042610
aI4686029
aI4824976
aI4677242
aI4859311
aI4861938
aI4921594
aI4943424
aI5095163
aI5096684
aI5246566
aI5282958
aI5714662
aI5744680
aI5952538
aI6023005
aI6121504
aI6509290
aI6812372
aI7361794
aI4925459
aI5019263
aI6315815
aI4934142
aI5161686
aI5407442
aI5019062
aI5315824
aI5331809
aI5538697
aI5544482
aI6093378
aI6171556
aI6182443
aI5332424
aI7176144
aa(lp5
I4752651
aI5349113
aI6090989
aI6103099
aI6165949
aI5911937
aI5849258
aI5364797
aI5622684
aI5795559
aI5858457
aI6096469
aI6329017
aI6383466
aI6592764
aI5958367
aI5914433
aI6049017
aI6166282
aI5895263
aI6093636
aI7640980
aI7798221
aI7831133
aI7831134
aI7860377
aI7942197
aI7942203
aI7986869
aI8027571
aI5135638
aI4973792
aI6274540
aI7732301
aI5104425
aI5151110
aI5177008
aI6265093
aI6913697
aI5750026
aI6622480
aI7229597
aI5300192
aI5308896
aI5352480
aI5484645
aI5543215
aI5547541
aI5547745
aI5571618
aI5589256
aI5609727
aI5614570
aI5693411
aI5789326
aI5807364
aI5733272
aI5916678
aI5973221
aI5976694
aI6121170
aI6429261
aI6548592
aI6602955
aI5135521
aI5415640
aI5817394
aI5856245
aI5874164
aI5876792
aI6040251
aI6047544
aI5423181
aI5437153
aI5448887
aI5473887
aI6161378
aI6568177
aI6735938
aI6736121
aI5792436
aI5711149
aI5894725
aI6167696
aI7052532
aI6732507
aI6928806
aI7375049
aI5435836
aa(lp6
I4873390
aI6696258
aI5741462
aI5751629
aI5874214
aI6017496
aI6251260
aI6299757
aI6329139
aI6338790
aI6461496
aI6591125
aI6592745
aI6616819
aI6618934
aI6654625
aI6682899
aI6749740
aI6942518
aI6975893
aI7041468
aI7058437
aI7106513
aI7225535
aI7587287
aI6310110
aI6413489
aI6890624
aI6270846
aI6365266
aI6387453
aI6518194
aI6548113
aI6271273
aI6420441
aI6596467
aI6873087
aI6900881
aI6908861
aI6916584
aI6916585
aI6921615
aI6932934
aI7056840
aI7070405
aI7077992
aI6391932
aI6742774
aI7190049
aI5354547
aI5451444
aI5589396
aI5753014
aI5880552
aI7744727
aI6348085
aI6368374
aI6043317
aI6753454
aI5998511
aI6417425
aI5605746
aI6015764
aI6037281
aI6111163
aI6068620
aI6617490
aI6599631
aI6229062
aI6225243
aI5364382
aI5383870
aI5387209
aI5401267
aI5429629
aI5437653
aI5509915
aI5514104
aI5536555
aI5545156
aI5607414
aI5624423
aI5643240
aI5941864
aI6096668
aI5647863
aI5865824
aI6576006
aI6713660
aI5832722
aI5595060
aI5713199
aI5715679
aI5735119
aI5740669
aI5743084
aI5771685
aI5848529
aI6832473
aI5992142
aI5732554
aI5771686
aI5974793
aI6014859
aI6047542
aI6109024
aI6345496
aI6375910
aI5996338
aI6293096
aI6871489
aI6560958
aI7062904
aa(lp7
(I4061724
I4208305
tp8
a(I4061724
I4269813
tp9
a(I4061724
I4310440
tp10
a(I4061724
I4410501
tp11
a(I4061724
I4440871
tp12
a(I4061724
I4740219
tp13
a(I4061724
I4795482
tp14
a(I4061724
I4826497
tp15
a(I4061724
I5125231
tp16
a(I4061724
I5127925
tp17
a(I4061724
I5288619
tp18
a(I4061724
I6329062
tp19
a(I4208305
I4410501
tp20
a(I4208305
I4554143
tp21
a(I4208305
I4576805
tp22
a(I4269813
I5362378
tp23
a(I4310440
I4440871
tp24
a(I4310440
I4500651
tp25
a(I4310440
I4554143
tp26
a(I4310440
I4567029
tp27
a(I4310440
I4629717
tp28
a(I4310440
I4673559
tp29
a(I4310440
I4686093
tp30
a(I4310440
I4790982
tp31
a(I4310440
I4793984
tp32
a(I4310440
I4861743
tp33
a(I4310440
I5057296
tp34
a(I4310440
I5098684
tp35
a(I4310440
I5108725
tp36
a(I4310440
I5126308
tp37
a(I4310440
I5191141
tp38
a(I4310440
I5198203
tp39
a(I4310440
I7533719
tp40
a(I4310440
I7540324
tp41
a(I4310440
I7549470
tp42
a(I4310440
I7556095
tp43
a(I4310440
I7556096
tp44
a(I4310440
I7559367
tp45
a(I4310440
I7559368
tp46
a(I4310440
I7562706
tp47
a(I4310440
I7562707
tp48
a(I4310440
I7581589
tp49
a(I4310440
I7584789
tp50
a(I4310440
I7591310
tp51
a(I4310440
I7597147
tp52
a(I4310440
I7604052
tp53
a(I4310440
I7610962
tp54
a(I4310440
I7631689
tp55
a(I4310440
I7631690
tp56
a(I4310440
I7635023
tp57
a(I4310440
I7635024
tp58
a(I4310440
I7635025
tp59
a(I4310440
I7644765
tp60
a(I4310440
I7673681
tp61
a(I4310440
I7673786
tp62
a(I4310440
I7677310
tp63
a(I4310440
I7677314
tp64
a(I4310440
I7681647
tp65
a(I4310440
I7683296
tp66
a(I4310440
I7703513
tp67
a(I4310440
I7717171
tp68
a(I4310440
I7730945
tp69
a(I4310440
I7730946
tp70
a(I4310440
I7730947
tp71
a(I4310440
I7735935
tp72
a(I4310440
I7785427
tp73
a(I4310440
I7793722
tp74
a(I4310440
I7798220
tp75
a(I4310440
I7832484
tp76
a(I4310440
I7841401
tp77
a(I4310440
I7841408
tp78
a(I4310440
I7841425
tp79
a(I4310440
I7845411
tp80
a(I4310440
I7849922
tp81
a(I4310440
I7866385
tp82
a(I4310440
I7866386
tp83
a(I4310440
I7866388
tp84
a(I4310440
I7912358
tp85
a(I4310440
I7931086
tp86
a(I4310440
I7950453
tp87
a(I4310440
I8042610
tp88
a(I4410501
I4686029
tp89
a(I4410501
I4824976
tp90
a(I4440871
I4554143
tp91
a(I4440871
I4567029
tp92
a(I4440871
I4673559
tp93
a(I4440871
I4677242
tp94
a(I4440871
I4686029
tp95
a(I4440871
I4686093
tp96
a(I4440871
I4790982
tp97
a(I4440871
I4793984
tp98
a(I4440871
I4859311
tp99
a(I4440871
I4861743
tp100
a(I4440871
I4861938
tp101
a(I4440871
I4921594
tp102
a(I4440871
I4943424
tp103
a(I4440871
I5057296
tp104
a(I4440871
I5095163
tp105
a(I4440871
I5096684
tp106
a(I4440871
I5098684
tp107
a(I4440871
I5108725
tp108
a(I4440871
I5126308
tp109
a(I4440871
I5191141
tp110
a(I4440871
I5198203
tp111
a(I4440871
I5246566
tp112
a(I4440871
I5282958
tp113
a(I4440871
I5714662
tp114
a(I4440871
I5744680
tp115
a(I4440871
I5952538
tp116
a(I4440871
I6023005
tp117
a(I4440871
I6121504
tp118
a(I4440871
I6509290
tp119
a(I4440871
I6812372
tp120
a(I4440871
I7361794
tp121
a(I4440871
I7533719
tp122
a(I4440871
I7540324
tp123
a(I4440871
I7549470
tp124
a(I4440871
I7556095
tp125
a(I4440871
I7556096
tp126
a(I4440871
I7559367
tp127
a(I4440871
I7559368
tp128
a(I4440871
I7562706
tp129
a(I4440871
I7562707
tp130
a(I4440871
I7581589
tp131
a(I4440871
I7584789
tp132
a(I4440871
I7591310
tp133
a(I4440871
I7597147
tp134
a(I4440871
I7604052
tp135
a(I4440871
I7610962
tp136
a(I4440871
I7631689
tp137
a(I4440871
I7631690
tp138
a(I4440871
I7635023
tp139
a(I4440871
I7635024
tp140
a(I4440871
I7635025
tp141
a(I4440871
I7644765
tp142
a(I4440871
I7673681
tp143
a(I4440871
I7673786
tp144
a(I4440871
I7677310
tp145
a(I4440871
I7677314
tp146
a(I4440871
I7681647
tp147
a(I4440871
I7683296
tp148
a(I4440871
I7703513
tp149
a(I4440871
I7717171
tp150
a(I4440871
I7730945
tp151
a(I4440871
I7730946
tp152
a(I4440871
I7730947
tp153
a(I4440871
I7735935
tp154
a(I4440871
I7785427
tp155
a(I4440871
I7793722
tp156
a(I4440871
I7798220
tp157
a(I4440871
I7832484
tp158
a(I4440871
I7841401
tp159
a(I4440871
I7841408
tp160
a(I4440871
I7841425
tp161
a(I4440871
I7845411
tp162
a(I4440871
I7849922
tp163
a(I4440871
I7866385
tp164
a(I4440871
I7866386
tp165
a(I4440871
I7866388
tp166
a(I4440871
I7912358
tp167
a(I4440871
I7931086
tp168
a(I4440871
I7950453
tp169
a(I4440871
I8042610
tp170
a(I4740219
I4925459
tp171
a(I4740219
I5019263
tp172
a(I4740219
I6315815
tp173
a(I4795482
I4826497
tp174
a(I4795482
I4934142
tp175
a(I4795482
I5161686
tp176
a(I4795482
I5407442
tp177
a(I4826497
I5019062
tp178
a(I4826497
I5407442
tp179
a(I5125231
I5315824
tp180
a(I5125231
I5331809
tp181
a(I5125231
I5538697
tp182
a(I5125231
I5544482
tp183
a(I5125231
I6093378
tp184
a(I5125231
I6171556
tp185
a(I5125231
I6182443
tp186
a(I5127925
I5332424
tp187
a(I6329062
I7176144
tp188
a(I4554143
I4752651
tp189
a(I4554143
I4793984
tp190
a(I4554143
I4861743
tp191
a(I4554143
I5126308
tp192
a(I4554143
I5191141
tp193
a(I4576805
I5349113
tp194
a(I5362378
I6090989
tp195
a(I5362378
I6103099
tp196
a(I5362378
I6165949
tp197
a(I4500651
I4554143
tp198
a(I4500651
I4567029
tp199
a(I4500651
I4686093
tp200
a(I4500651
I4790982
tp201
a(I4500651
I4793984
tp202
a(I4500651
I4861743
tp203
a(I4500651
I7533719
tp204
a(I4500651
I7540324
tp205
a(I4500651
I7549470
tp206
a(I4500651
I7556095
tp207
a(I4500651
I7556096
tp208
a(I4500651
I7559367
tp209
a(I4500651
I7559368
tp210
a(I4500651
I7562706
tp211
a(I4500651
I7562707
tp212
a(I4500651
I7581589
tp213
a(I4500651
I7584789
tp214
a(I4500651
I7591310
tp215
a(I4500651
I7597147
tp216
a(I4500651
I7604052
tp217
a(I4500651
I7610962
tp218
a(I4500651
I7631689
tp219
a(I4500651
I7631690
tp220
a(I4500651
I7635023
tp221
a(I4500651
I7635024
tp222
a(I4500651
I7635025
tp223
a(I4500651
I7644765
tp224
a(I4500651
I7673681
tp225
a(I4500651
I7673786
tp226
a(I4500651
I7677310
tp227
a(I4500651
I7677314
tp228
a(I4500651
I7681647
tp229
a(I4500651
I7683296
tp230
a(I4500651
I7703513
tp231
a(I4500651
I7717171
tp232
a(I4500651
I7730945
tp233
a(I4500651
I7730946
tp234
a(I4500651
I7730947
tp235
a(I4500651
I7735935
tp236
a(I4500651
I7785427
tp237
a(I4500651
I7793722
tp238
a(I4500651
I7798220
tp239
a(I4500651
I7832484
tp240
a(I4500651
I7841401
tp241
a(I4500651
I7841408
tp242
a(I4500651
I7841425
tp243
a(I4500651
I7845411
tp244
a(I4500651
I7849922
tp245
a(I4500651
I7866385
tp246
a(I4500651
I7866386
tp247
a(I4500651
I7866388
tp248
a(I4500651
I7912358
tp249
a(I4500651
I7931086
tp250
a(I4500651
I7950453
tp251
a(I4500651
I8042610
tp252
a(I4567029
I4686093
tp253
a(I4567029
I4752651
tp254
a(I4567029
I4793984
tp255
a(I4567029
I4861743
tp256
a(I4567029
I6121504
tp257
a(I4673559
I5057296
tp258
a(I4673559
I5096684
tp259
a(I4673559
I5098684
tp260
a(I4673559
I5108725
tp261
a(I4673559
I5198203
tp262
a(I4686093
I4752651
tp263
a(I4686093
I5911937
tp264
a(I4793984
I5126308
tp265
a(I4793984
I5191141
tp266
a(I4793984
I5849258
tp267
a(I4861743
I6121504
tp268
a(I5057296
I5198203
tp269
a(I5057296
I5364797
tp270
a(I5057296
I5622684
tp271
a(I5057296
I5795559
tp272
a(I5057296
I5858457
tp273
a(I5057296
I6096469
tp274
a(I5057296
I6329017
tp275
a(I5057296
I6383466
tp276
a(I5057296
I6592764
tp277
a(I5098684
I5364797
tp278
a(I5098684
I5622684
tp279
a(I5098684
I5795559
tp280
a(I5098684
I5858457
tp281
a(I5098684
I5958367
tp282
a(I5098684
I6096469
tp283
a(I5098684
I6329017
tp284
a(I5098684
I6383466
tp285
a(I5108725
I6096469
tp286
a(I5108725
I6329017
tp287
a(I5108725
I6383466
tp288
a(I5126308
I5191141
tp289
a(I5126308
I5714662
tp290
a(I5126308
I5744680
tp291
a(I5126308
I5914433
tp292
a(I5126308
I5952538
tp293
a(I5126308
I6049017
tp294
a(I5126308
I6121504
tp295
a(I5126308
I6166282
tp296
a(I5191141
I5714662
tp297
a(I5191141
I5744680
tp298
a(I5191141
I5914433
tp299
a(I5191141
I6023005
tp300
a(I5191141
I6049017
tp301
a(I5191141
I6121504
tp302
a(I5191141
I6166282
tp303
a(I5198203
I5895263
tp304
a(I5198203
I6093636
tp305
a(I5198203
I6096469
tp306
a(I5198203
I6329017
tp307
a(I5198203
I6383466
tp308
a(I5198203
I6592764
tp309
a(I7533719
I7597147
tp310
a(I7533719
I7604052
tp311
a(I7533719
I7610962
tp312
a(I7533719
I7640980
tp313
a(I7533719
I7673681
tp314
a(I7533719
I7673786
tp315
a(I7533719
I7677310
tp316
a(I7533719
I7677314
tp317
a(I7533719
I7681647
tp318
a(I7533719
I7683296
tp319
a(I7533719
I7703513
tp320
a(I7533719
I7717171
tp321
a(I7533719
I7730945
tp322
a(I7533719
I7730946
tp323
a(I7533719
I7730947
tp324
a(I7533719
I7735935
tp325
a(I7533719
I7785427
tp326
a(I7533719
I7798220
tp327
a(I7533719
I7798221
tp328
a(I7533719
I7831133
tp329
a(I7533719
I7831134
tp330
a(I7533719
I7832484
tp331
a(I7533719
I7841401
tp332
a(I7533719
I7841408
tp333
a(I7533719
I7845411
tp334
a(I7533719
I7849922
tp335
a(I7533719
I7860377
tp336
a(I7533719
I7866385
tp337
a(I7533719
I7866386
tp338
a(I7533719
I7866388
tp339
a(I7533719
I7912358
tp340
a(I7533719
I7931086
tp341
a(I7533719
I7942197
tp342
a(I7533719
I7942203
tp343
a(I7533719
I7950453
tp344
a(I7533719
I7986869
tp345
a(I7533719
I8027571
tp346
a(I7533719
I8042610
tp347
a(I7540324
I7604052
tp348
a(I7540324
I7610962
tp349
a(I7540324
I7640980
tp350
a(I7540324
I7673681
tp351
a(I7540324
I7673786
tp352
a(I7540324
I7677310
tp353
a(I7540324
I7677314
tp354
a(I7540324
I7681647
tp355
a(I7540324
I7683296
tp356
a(I7540324
I7703513
tp357
a(I7540324
I7717171
tp358
a(I7540324
I7730945
tp359
a(I7540324
I7730946
tp360
a(I7540324
I7730947
tp361
a(I7540324
I7735935
tp362
a(I7540324
I7785427
tp363
a(I7540324
I7793722
tp364
a(I7540324
I7798220
tp365
a(I7540324
I7798221
tp366
a(I7540324
I7831133
tp367
a(I7540324
I7831134
tp368
a(I7540324
I7832484
tp369
a(I7540324
I7841401
tp370
a(I7540324
I7841408
tp371
a(I7540324
I7845411
tp372
a(I7540324
I7849922
tp373
a(I7540324
I7860377
tp374
a(I7540324
I7866385
tp375
a(I7540324
I7866386
tp376
a(I7540324
I7866388
tp377
a(I7540324
I7912358
tp378
a(I7540324
I7931086
tp379
a(I7540324
I7942197
tp380
a(I7540324
I7942203
tp381
a(I7540324
I7950453
tp382
a(I7540324
I7986869
tp383
a(I7540324
I8027571
tp384
a(I7540324
I8042610
tp385
a(I7549470
I7610962
tp386
a(I7549470
I7640980
tp387
a(I7549470
I7673681
tp388
a(I7549470
I7673786
tp389
a(I7549470
I7677310
tp390
a(I7549470
I7677314
tp391
a(I7549470
I7681647
tp392
a(I7549470
I7703513
tp393
a(I7549470
I7717171
tp394
a(I7549470
I7730945
tp395
a(I7549470
I7730946
tp396
a(I7549470
I7730947
tp397
a(I7549470
I7735935
tp398
a(I7549470
I7785427
tp399
a(I7549470
I7793722
tp400
a(I7549470
I7798220
tp401
a(I7549470
I7798221
tp402
a(I7549470
I7831133
tp403
a(I7549470
I7831134
tp404
a(I7549470
I7832484
tp405
a(I7549470
I7841401
tp406
a(I7549470
I7841408
tp407
a(I7549470
I7845411
tp408
a(I7549470
I7849922
tp409
a(I7549470
I7860377
tp410
a(I7549470
I7866385
tp411
a(I7549470
I7866386
tp412
a(I7549470
I7866388
tp413
a(I7549470
I7912358
tp414
a(I7549470
I7931086
tp415
a(I7549470
I7942197
tp416
a(I7549470
I7942203
tp417
a(I7549470
I7950453
tp418
a(I7549470
I7986869
tp419
a(I7549470
I8027571
tp420
a(I7549470
I8042610
tp421
a(I7556095
I7604052
tp422
a(I7556095
I7610962
tp423
a(I7556095
I7640980
tp424
a(I7556095
I7673681
tp425
a(I7556095
I7673786
tp426
a(I7556095
I7677310
tp427
a(I7556095
I7677314
tp428
a(I7556095
I7681647
tp429
a(I7556095
I7703513
tp430
a(I7556095
I7717171
tp431
a(I7556095
I7730945
tp432
a(I7556095
I7730946
tp433
a(I7556095
I7730947
tp434
a(I7556095
I7735935
tp435
a(I7556095
I7785427
tp436
a(I7556095
I7793722
tp437
a(I7556095
I7798220
tp438
a(I7556095
I7798221
tp439
a(I7556095
I7831133
tp440
a(I7556095
I7831134
tp441
a(I7556095
I7832484
tp442
a(I7556095
I7841401
tp443
a(I7556095
I7841408
tp444
a(I7556095
I7845411
tp445
a(I7556095
I7849922
tp446
a(I7556095
I7860377
tp447
a(I7556095
I7866385
tp448
a(I7556095
I7866386
tp449
a(I7556095
I7866388
tp450
a(I7556095
I7912358
tp451
a(I7556095
I7931086
tp452
a(I7556095
I7942197
tp453
a(I7556095
I7942203
tp454
a(I7556095
I7950453
tp455
a(I7556095
I7986869
tp456
a(I7556095
I8027571
tp457
a(I7556095
I8042610
tp458
a(I7556096
I7604052
tp459
a(I7556096
I7610962
tp460
a(I7556096
I7640980
tp461
a(I7556096
I7673681
tp462
a(I7556096
I7673786
tp463
a(I7556096
I7677310
tp464
a(I7556096
I7677314
tp465
a(I7556096
I7681647
tp466
a(I7556096
I7703513
tp467
a(I7556096
I7717171
tp468
a(I7556096
I7730945
tp469
a(I7556096
I7730946
tp470
a(I7556096
I7730947
tp471
a(I7556096
I7735935
tp472
a(I7556096
I7785427
tp473
a(I7556096
I7793722
tp474
a(I7556096
I7798220
tp475
a(I7556096
I7798221
tp476
a(I7556096
I7831133
tp477
a(I7556096
I7831134
tp478
a(I7556096
I7832484
tp479
a(I7556096
I7841401
tp480
a(I7556096
I7841408
tp481
a(I7556096
I7845411
tp482
a(I7556096
I7849922
tp483
a(I7556096
I7860377
tp484
a(I7556096
I7866385
tp485
a(I7556096
I7866386
tp486
a(I7556096
I7866388
tp487
a(I7556096
I7912358
tp488
a(I7556096
I7931086
tp489
a(I7556096
I7942197
tp490
a(I7556096
I7942203
tp491
a(I7556096
I7950453
tp492
a(I7556096
I7986869
tp493
a(I7556096
I8027571
tp494
a(I7556096
I8042610
tp495
a(I7559367
I7673681
tp496
a(I7559367
I7673786
tp497
a(I7559367
I7677310
tp498
a(I7559367
I7677314
tp499
a(I7559367
I7681647
tp500
a(I7559367
I7703513
tp501
a(I7559367
I7717171
tp502
a(I7559367
I7730945
tp503
a(I7559367
I7730946
tp504
a(I7559367
I7730947
tp505
a(I7559367
I7735935
tp506
a(I7559367
I7785427
tp507
a(I7559367
I7793722
tp508
a(I7559367
I7798220
tp509
a(I7559367
I7798221
tp510
a(I7559367
I7831133
tp511
a(I7559367
I7831134
tp512
a(I7559367
I7832484
tp513
a(I7559367
I7841401
tp514
a(I7559367
I7841408
tp515
a(I7559367
I7845411
tp516
a(I7559367
I7849922
tp517
a(I7559367
I7860377
tp518
a(I7559367
I7866385
tp519
a(I7559367
I7866386
tp520
a(I7559367
I7866388
tp521
a(I7559367
I7912358
tp522
a(I7559367
I7931086
tp523
a(I7559367
I7942197
tp524
a(I7559367
I7942203
tp525
a(I7559367
I7950453
tp526
a(I7559367
I7986869
tp527
a(I7559367
I8027571
tp528
a(I7559367
I8042610
tp529
a(I7559368
I7673681
tp530
a(I7559368
I7673786
tp531
a(I7559368
I7677310
tp532
a(I7559368
I7677314
tp533
a(I7559368
I7681647
tp534
a(I7559368
I7703513
tp535
a(I7559368
I7717171
tp536
a(I7559368
I7730945
tp537
a(I7559368
I7730946
tp538
a(I7559368
I7730947
tp539
a(I7559368
I7735935
tp540
a(I7559368
I7785427
tp541
a(I7559368
I7793722
tp542
a(I7559368
I7798220
tp543
a(I7559368
I7798221
tp544
a(I7559368
I7831133
tp545
a(I7559368
I7831134
tp546
a(I7559368
I7832484
tp547
a(I7559368
I7841401
tp548
a(I7559368
I7841408
tp549
a(I7559368
I7845411
tp550
a(I7559368
I7849922
tp551
a(I7559368
I7860377
tp552
a(I7559368
I7866385
tp553
a(I7559368
I7866386
tp554
a(I7559368
I7866388
tp555
a(I7559368
I7912358
tp556
a(I7559368
I7931086
tp557
a(I7559368
I7942197
tp558
a(I7559368
I7942203
tp559
a(I7559368
I7950453
tp560
a(I7559368
I7986869
tp561
a(I7559368
I8027571
tp562
a(I7559368
I8042610
tp563
a(I7562706
I7673681
tp564
a(I7562706
I7673786
tp565
a(I7562706
I7677310
tp566
a(I7562706
I7677314
tp567
a(I7562706
I7681647
tp568
a(I7562706
I7703513
tp569
a(I7562706
I7717171
tp570
a(I7562706
I7730945
tp571
a(I7562706
I7730946
tp572
a(I7562706
I7730947
tp573
a(I7562706
I7735935
tp574
a(I7562706
I7785427
tp575
a(I7562706
I7793722
tp576
a(I7562706
I7798220
tp577
a(I7562706
I7798221
tp578
a(I7562706
I7831133
tp579
a(I7562706
I7831134
tp580
a(I7562706
I7832484
tp581
a(I7562706
I7841401
tp582
a(I7562706
I7841408
tp583
a(I7562706
I7845411
tp584
a(I7562706
I7849922
tp585
a(I7562706
I7860377
tp586
a(I7562706
I7866385
tp587
a(I7562706
I7866386
tp588
a(I7562706
I7866388
tp589
a(I7562706
I7912358
tp590
a(I7562706
I7931086
tp591
a(I7562706
I7942197
tp592
a(I7562706
I7942203
tp593
a(I7562706
I7950453
tp594
a(I7562706
I7986869
tp595
a(I7562706
I8027571
tp596
a(I7562706
I8042610
tp597
a(I7562707
I7673681
tp598
a(I7562707
I7673786
tp599
a(I7562707
I7677310
tp600
a(I7562707
I7677314
tp601
a(I7562707
I7681647
tp602
a(I7562707
I7703513
tp603
a(I7562707
I7717171
tp604
a(I7562707
I7730945
tp605
a(I7562707
I7730946
tp606
a(I7562707
I7730947
tp607
a(I7562707
I7735935
tp608
a(I7562707
I7785427
tp609
a(I7562707
I7793722
tp610
a(I7562707
I7798220
tp611
a(I7562707
I7798221
tp612
a(I7562707
I7831133
tp613
a(I7562707
I7831134
tp614
a(I7562707
I7832484
tp615
a(I7562707
I7841401
tp616
a(I7562707
I7841408
tp617
a(I7562707
I7845411
tp618
a(I7562707
I7849922
tp619
a(I7562707
I7860377
tp620
a(I7562707
I7866385
tp621
a(I7562707
I7866386
tp622
a(I7562707
I7866388
tp623
a(I7562707
I7912358
tp624
a(I7562707
I7931086
tp625
a(I7562707
I7942197
tp626
a(I7562707
I7942203
tp627
a(I7562707
I7950453
tp628
a(I7562707
I7986869
tp629
a(I7562707
I8027571
tp630
a(I7562707
I8042610
tp631
a(I7581589
I7673681
tp632
a(I7581589
I7673786
tp633
a(I7581589
I7677310
tp634
a(I7581589
I7677314
tp635
a(I7581589
I7681647
tp636
a(I7581589
I7703513
tp637
a(I7581589
I7717171
tp638
a(I7581589
I7730945
tp639
a(I7581589
I7730946
tp640
a(I7581589
I7730947
tp641
a(I7581589
I7735935
tp642
a(I7581589
I7785427
tp643
a(I7581589
I7793722
tp644
a(I7581589
I7798220
tp645
a(I7581589
I7798221
tp646
a(I7581589
I7831133
tp647
a(I7581589
I7831134
tp648
a(I7581589
I7832484
tp649
a(I7581589
I7841401
tp650
a(I7581589
I7841408
tp651
a(I7581589
I7845411
tp652
a(I7581589
I7849922
tp653
a(I7581589
I7860377
tp654
a(I7581589
I7866385
tp655
a(I7581589
I7866386
tp656
a(I7581589
I7866388
tp657
a(I7581589
I7912358
tp658
a(I7581589
I7931086
tp659
a(I7581589
I7942197
tp660
a(I7581589
I7942203
tp661
a(I7581589
I7950453
tp662
a(I7581589
I7986869
tp663
a(I7581589
I8027571
tp664
a(I7581589
I8042610
tp665
a(I7584789
I7673681
tp666
a(I7584789
I7677310
tp667
a(I7584789
I7677314
tp668
a(I7584789
I7681647
tp669
a(I7584789
I7703513
tp670
a(I7584789
I7717171
tp671
a(I7584789
I7730945
tp672
a(I7584789
I7730946
tp673
a(I7584789
I7730947
tp674
a(I7584789
I7785427
tp675
a(I7584789
I7793722
tp676
a(I7584789
I7798220
tp677
a(I7584789
I7798221
tp678
a(I7584789
I7831133
tp679
a(I7584789
I7831134
tp680
a(I7584789
I7832484
tp681
a(I7584789
I7841401
tp682
a(I7584789
I7841408
tp683
a(I7584789
I7845411
tp684
a(I7584789
I7849922
tp685
a(I7584789
I7866385
tp686
a(I7584789
I7866386
tp687
a(I7584789
I7866388
tp688
a(I7584789
I7912358
tp689
a(I7584789
I7931086
tp690
a(I7584789
I7942197
tp691
a(I7584789
I7942203
tp692
a(I7584789
I7950453
tp693
a(I7584789
I7986869
tp694
a(I7584789
I8027571
tp695
a(I7584789
I8042610
tp696
a(I7591310
I7673681
tp697
a(I7591310
I7677310
tp698
a(I7591310
I7677314
tp699
a(I7591310
I7681647
tp700
a(I7591310
I7703513
tp701
a(I7591310
I7717171
tp702
a(I7591310
I7730945
tp703
a(I7591310
I7730946
tp704
a(I7591310
I7730947
tp705
a(I7591310
I7785427
tp706
a(I7591310
I7793722
tp707
a(I7591310
I7798220
tp708
a(I7591310
I7798221
tp709
a(I7591310
I7831133
tp710
a(I7591310
I7831134
tp711
a(I7591310
I7832484
tp712
a(I7591310
I7841401
tp713
a(I7591310
I7841408
tp714
a(I7591310
I7845411
tp715
a(I7591310
I7849922
tp716
a(I7591310
I7866385
tp717
a(I7591310
I7866386
tp718
a(I7591310
I7866388
tp719
a(I7591310
I7912358
tp720
a(I7591310
I7931086
tp721
a(I7591310
I7942197
tp722
a(I7591310
I7942203
tp723
a(I7591310
I7950453
tp724
a(I7591310
I7986869
tp725
a(I7591310
I8027571
tp726
a(I7591310
I8042610
tp727
a(I7597147
I7673681
tp728
a(I7597147
I7677310
tp729
a(I7597147
I7677314
tp730
a(I7597147
I7681647
tp731
a(I7597147
I7703513
tp732
a(I7597147
I7717171
tp733
a(I7597147
I7730946
tp734
a(I7597147
I7730947
tp735
a(I7597147
I7785427
tp736
a(I7597147
I7793722
tp737
a(I7597147
I7798220
tp738
a(I7597147
I7798221
tp739
a(I7597147
I7831133
tp740
a(I7597147
I7831134
tp741
a(I7597147
I7832484
tp742
a(I7597147
I7841401
tp743
a(I7597147
I7841408
tp744
a(I7597147
I7845411
tp745
a(I7597147
I7849922
tp746
a(I7597147
I7866385
tp747
a(I7597147
I7866386
tp748
a(I7597147
I7866388
tp749
a(I7597147
I7931086
tp750
a(I7597147
I7942197
tp751
a(I7597147
I7942203
tp752
a(I7597147
I7950453
tp753
a(I7597147
I7986869
tp754
a(I7597147
I8027571
tp755
a(I7597147
I8042610
tp756
a(I7604052
I7677310
tp757
a(I7604052
I7677314
tp758
a(I7604052
I7681647
tp759
a(I7604052
I7703513
tp760
a(I7604052
I7717171
tp761
a(I7604052
I7730945
tp762
a(I7604052
I7730947
tp763
a(I7604052
I7785427
tp764
a(I7604052
I7793722
tp765
a(I7604052
I7798220
tp766
a(I7604052
I7798221
tp767
a(I7604052
I7831133
tp768
a(I7604052
I7831134
tp769
a(I7604052
I7832484
tp770
a(I7604052
I7841401
tp771
a(I7604052
I7841408
tp772
a(I7604052
I7845411
tp773
a(I7604052
I7849922
tp774
a(I7604052
I7866385
tp775
a(I7604052
I7866386
tp776
a(I7604052
I7866388
tp777
a(I7604052
I7912358
tp778
a(I7604052
I7931086
tp779
a(I7604052
I7942197
tp780
a(I7604052
I7942203
tp781
a(I7604052
I7950453
tp782
a(I7604052
I7986869
tp783
a(I7604052
I8027571
tp784
a(I7604052
I8042610
tp785
a(I7610962
I7785427
tp786
a(I7610962
I7798220
tp787
a(I7610962
I7831134
tp788
a(I7610962
I7832484
tp789
a(I7610962
I7849922
tp790
a(I7610962
I7866385
tp791
a(I7610962
I7866388
tp792
a(I7610962
I7912358
tp793
a(I7610962
I7931086
tp794
a(I7610962
I7942197
tp795
a(I7610962
I7942203
tp796
a(I7610962
I7950453
tp797
a(I7610962
I7986869
tp798
a(I7610962
I8042610
tp799
a(I7631689
I7785427
tp800
a(I7631689
I7793722
tp801
a(I7631689
I7798220
tp802
a(I7631689
I7798221
tp803
a(I7631689
I7831133
tp804
a(I7631689
I7831134
tp805
a(I7631689
I7832484
tp806
a(I7631689
I7841401
tp807
a(I7631689
I7841408
tp808
a(I7631689
I7845411
tp809
a(I7631689
I7849922
tp810
a(I7631689
I7866385
tp811
a(I7631689
I7866386
tp812
a(I7631689
I7866388
tp813
a(I7631689
I7912358
tp814
a(I7631689
I7931086
tp815
a(I7631689
I7942197
tp816
a(I7631689
I7942203
tp817
a(I7631689
I7950453
tp818
a(I7631689
I7986869
tp819
a(I7631689
I8027571
tp820
a(I7631689
I8042610
tp821
a(I7631690
I7785427
tp822
a(I7631690
I7793722
tp823
a(I7631690
I7798220
tp824
a(I7631690
I7798221
tp825
a(I7631690
I7831133
tp826
a(I7631690
I7831134
tp827
a(I7631690
I7832484
tp828
a(I7631690
I7841401
tp829
a(I7631690
I7841408
tp830
a(I7631690
I7845411
tp831
a(I7631690
I7849922
tp832
a(I7631690
I7866385
tp833
a(I7631690
I7866386
tp834
a(I7631690
I7866388
tp835
a(I7631690
I7912358
tp836
a(I7631690
I7931086
tp837
a(I7631690
I7942197
tp838
a(I7631690
I7942203
tp839
a(I7631690
I7950453
tp840
a(I7631690
I7986869
tp841
a(I7631690
I8027571
tp842
a(I7631690
I8042610
tp843
a(I7635023
I7785427
tp844
a(I7635023
I7793722
tp845
a(I7635023
I7798220
tp846
a(I7635023
I7798221
tp847
a(I7635023
I7831133
tp848
a(I7635023
I7831134
tp849
a(I7635023
I7832484
tp850
a(I7635023
I7841401
tp851
a(I7635023
I7841408
tp852
a(I7635023
I7845411
tp853
a(I7635023
I7849922
tp854
a(I7635023
I7866385
tp855
a(I7635023
I7866386
tp856
a(I7635023
I7866388
tp857
a(I7635023
I7912358
tp858
a(I7635023
I7931086
tp859
a(I7635023
I7942197
tp860
a(I7635023
I7942203
tp861
a(I7635023
I7950453
tp862
a(I7635023
I7986869
tp863
a(I7635023
I8027571
tp864
a(I7635023
I8042610
tp865
a(I7635024
I7785427
tp866
a(I7635024
I7793722
tp867
a(I7635024
I7798221
tp868
a(I7635024
I7831133
tp869
a(I7635024
I7832484
tp870
a(I7635024
I7841401
tp871
a(I7635024
I7841408
tp872
a(I7635024
I7845411
tp873
a(I7635024
I7849922
tp874
a(I7635024
I7866385
tp875
a(I7635024
I7866386
tp876
a(I7635024
I7866388
tp877
a(I7635024
I7912358
tp878
a(I7635024
I7931086
tp879
a(I7635024
I7942197
tp880
a(I7635024
I7942203
tp881
a(I7635024
I7950453
tp882
a(I7635024
I7986869
tp883
a(I7635024
I8027571
tp884
a(I7635024
I8042610
tp885
a(I7635025
I7785427
tp886
a(I7635025
I7793722
tp887
a(I7635025
I7798220
tp888
a(I7635025
I7798221
tp889
a(I7635025
I7831133
tp890
a(I7635025
I7831134
tp891
a(I7635025
I7832484
tp892
a(I7635025
I7841401
tp893
a(I7635025
I7841408
tp894
a(I7635025
I7845411
tp895
a(I7635025
I7849922
tp896
a(I7635025
I7866385
tp897
a(I7635025
I7866386
tp898
a(I7635025
I7866388
tp899
a(I7635025
I7912358
tp900
a(I7635025
I7931086
tp901
a(I7635025
I7942197
tp902
a(I7635025
I7942203
tp903
a(I7635025
I7950453
tp904
a(I7635025
I7986869
tp905
a(I7635025
I8027571
tp906
a(I7635025
I8042610
tp907
a(I7644765
I7798220
tp908
a(I7644765
I7798221
tp909
a(I7644765
I7831133
tp910
a(I7644765
I7831134
tp911
a(I7644765
I7832484
tp912
a(I7644765
I7841408
tp913
a(I7644765
I7845411
tp914
a(I7644765
I7849922
tp915
a(I7644765
I7866385
tp916
a(I7644765
I7866386
tp917
a(I7644765
I7866388
tp918
a(I7644765
I7912358
tp919
a(I7644765
I7931086
tp920
a(I7644765
I7942197
tp921
a(I7644765
I7942203
tp922
a(I7644765
I7950453
tp923
a(I7644765
I7986869
tp924
a(I7644765
I8042610
tp925
a(I7673681
I7845411
tp926
a(I7673681
I7849922
tp927
a(I7673681
I7912358
tp928
a(I7673681
I7931086
tp929
a(I7673681
I7942197
tp930
a(I7673681
I7942203
tp931
a(I7673681
I7950453
tp932
a(I7673681
I7986869
tp933
a(I7673681
I8042610
tp934
a(I7673786
I7798220
tp935
a(I7673786
I7798221
tp936
a(I7673786
I7831133
tp937
a(I7673786
I7831134
tp938
a(I7673786
I7832484
tp939
a(I7673786
I7841408
tp940
a(I7673786
I7845411
tp941
a(I7673786
I7849922
tp942
a(I7673786
I7860377
tp943
a(I7673786
I7866385
tp944
a(I7673786
I7866386
tp945
a(I7673786
I7866388
tp946
a(I7673786
I7912358
tp947
a(I7673786
I7931086
tp948
a(I7673786
I7942197
tp949
a(I7673786
I7942203
tp950
a(I7673786
I7950453
tp951
a(I7673786
I8042610
tp952
a(I7677310
I7845411
tp953
a(I7677310
I7849922
tp954
a(I7677310
I7912358
tp955
a(I7677310
I7931086
tp956
a(I7677310
I7942197
tp957
a(I7677310
I7942203
tp958
a(I7677310
I7950453
tp959
a(I7677310
I7986869
tp960
a(I7677310
I8042610
tp961
a(I7677314
I7912358
tp962
a(I7677314
I7931086
tp963
a(I7677314
I7942197
tp964
a(I7677314
I7942203
tp965
a(I7677314
I7950453
tp966
a(I7677314
I8042610
tp967
a(I7681647
I7798220
tp968
a(I7681647
I7798221
tp969
a(I7681647
I7831133
tp970
a(I7681647
I7831134
tp971
a(I7681647
I7832484
tp972
a(I7681647
I7841408
tp973
a(I7681647
I7845411
tp974
a(I7681647
I7849922
tp975
a(I7681647
I7860377
tp976
a(I7681647
I7866385
tp977
a(I7681647
I7866386
tp978
a(I7681647
I7866388
tp979
a(I7681647
I7912358
tp980
a(I7681647
I7931086
tp981
a(I7681647
I7942197
tp982
a(I7681647
I7942203
tp983
a(I7681647
I7950453
tp984
a(I7681647
I7986869
tp985
a(I7681647
I8042610
tp986
a(I7683296
I7798220
tp987
a(I7683296
I7798221
tp988
a(I7683296
I7831133
tp989
a(I7683296
I7831134
tp990
a(I7683296
I7832484
tp991
a(I7683296
I7841408
tp992
a(I7683296
I7845411
tp993
a(I7683296
I7849922
tp994
a(I7683296
I7860377
tp995
a(I7683296
I7866385
tp996
a(I7683296
I7866386
tp997
a(I7683296
I7866388
tp998
a(I7683296
I7912358
tp999
a(I7683296
I7931086
tp1000
a(I7683296
I7942197
tp1001
a(I7683296
I7942203
tp1002
a(I7683296
I7950453
tp1003
a(I7683296
I7986869
tp1004
a(I7683296
I8027571
tp1005
a(I7683296
I8042610
tp1006
a(I7703513
I7798220
tp1007
a(I7703513
I7798221
tp1008
a(I7703513
I7831133
tp1009
a(I7703513
I7831134
tp1010
a(I7703513
I7832484
tp1011
a(I7703513
I7841408
tp1012
a(I7703513
I7849922
tp1013
a(I7703513
I7860377
tp1014
a(I7703513
I7866385
tp1015
a(I7703513
I7866386
tp1016
a(I7703513
I7866388
tp1017
a(I7703513
I7912358
tp1018
a(I7703513
I7931086
tp1019
a(I7703513
I7942197
tp1020
a(I7703513
I7942203
tp1021
a(I7703513
I7950453
tp1022
a(I7703513
I7986869
tp1023
a(I7703513
I8042610
tp1024
a(I7717171
I7798221
tp1025
a(I7717171
I7831133
tp1026
a(I7717171
I7831134
tp1027
a(I7717171
I7841408
tp1028
a(I7717171
I7845411
tp1029
a(I7717171
I7860377
tp1030
a(I7717171
I7866385
tp1031
a(I7717171
I7866388
tp1032
a(I7717171
I7931086
tp1033
a(I7717171
I7942203
tp1034
a(I7717171
I7950453
tp1035
a(I7717171
I7986869
tp1036
a(I7717171
I8042610
tp1037
a(I7730945
I7845411
tp1038
a(I7730945
I7849922
tp1039
a(I7730945
I7866385
tp1040
a(I7730945
I7866388
tp1041
a(I7730945
I7912358
tp1042
a(I7730945
I7931086
tp1043
a(I7730945
I7942197
tp1044
a(I7730945
I7942203
tp1045
a(I7730945
I7950453
tp1046
a(I7730945
I7986869
tp1047
a(I7730945
I8042610
tp1048
a(I7730946
I7845411
tp1049
a(I7730946
I7849922
tp1050
a(I7730946
I7866385
tp1051
a(I7730946
I7866388
tp1052
a(I7730946
I7912358
tp1053
a(I7730946
I7931086
tp1054
a(I7730946
I7942197
tp1055
a(I7730946
I7942203
tp1056
a(I7730946
I7950453
tp1057
a(I7730946
I7986869
tp1058
a(I7730946
I8042610
tp1059
a(I7730947
I7845411
tp1060
a(I7730947
I7849922
tp1061
a(I7730947
I7866385
tp1062
a(I7730947
I7866388
tp1063
a(I7730947
I7912358
tp1064
a(I7730947
I7931086
tp1065
a(I7730947
I7942197
tp1066
a(I7730947
I7942203
tp1067
a(I7730947
I7950453
tp1068
a(I7730947
I7986869
tp1069
a(I7730947
I8042610
tp1070
a(I7735935
I7845411
tp1071
a(I7735935
I7849922
tp1072
a(I7735935
I7912358
tp1073
a(I7735935
I7931086
tp1074
a(I7735935
I7942197
tp1075
a(I7735935
I7942203
tp1076
a(I7735935
I7950453
tp1077
a(I7735935
I7986869
tp1078
a(I7735935
I8042610
tp1079
a(I7785427
I7912358
tp1080
a(I7785427
I7942197
tp1081
a(I7785427
I7942203
tp1082
a(I7785427
I7950453
tp1083
a(I7785427
I8042610
tp1084
a(I7798220
I7942197
tp1085
a(I7798220
I7942203
tp1086
a(I7798220
I7950453
tp1087
a(I7798220
I8042610
tp1088
a(I7832484
I7942197
tp1089
a(I7832484
I7942203
tp1090
a(I7832484
I7950453
tp1091
a(I7832484
I8042610
tp1092
a(I7841401
I7942197
tp1093
a(I7841401
I7942203
tp1094
a(I7841401
I7950453
tp1095
a(I7841401
I8042610
tp1096
a(I7841408
I7942197
tp1097
a(I7841408
I7942203
tp1098
a(I7841408
I7950453
tp1099
a(I7841408
I8042610
tp1100
a(I7841425
I7942197
tp1101
a(I7841425
I7942203
tp1102
a(I7841425
I7950453
tp1103
a(I7841425
I8042610
tp1104
a(I7845411
I7942197
tp1105
a(I7845411
I7950453
tp1106
a(I7845411
I8042610
tp1107
a(I7849922
I7942197
tp1108
a(I7849922
I7950453
tp1109
a(I7849922
I8042610
tp1110
a(I7866385
I8042610
tp1111
a(I7866386
I8042610
tp1112
a(I7866388
I8042610
tp1113
a(I4686029
I4859311
tp1114
a(I4686029
I5135638
tp1115
a(I4686029
I5246566
tp1116
a(I4686029
I7533719
tp1117
a(I4686029
I7540324
tp1118
a(I4686029
I7549470
tp1119
a(I4686029
I7556095
tp1120
a(I4686029
I7556096
tp1121
a(I4686029
I7559367
tp1122
a(I4686029
I7559368
tp1123
a(I4686029
I7562706
tp1124
a(I4686029
I7562707
tp1125
a(I4686029
I7581589
tp1126
a(I4686029
I7584789
tp1127
a(I4686029
I7591310
tp1128
a(I4686029
I7597147
tp1129
a(I4686029
I7604052
tp1130
a(I4686029
I7610962
tp1131
a(I4686029
I7631689
tp1132
a(I4686029
I7631690
tp1133
a(I4686029
I7635023
tp1134
a(I4686029
I7635024
tp1135
a(I4686029
I7635025
tp1136
a(I4686029
I7644765
tp1137
a(I4686029
I7673681
tp1138
a(I4686029
I7673786
tp1139
a(I4686029
I7677310
tp1140
a(I4686029
I7677314
tp1141
a(I4686029
I7681647
tp1142
a(I4686029
I7683296
tp1143
a(I4686029
I7703513
tp1144
a(I4686029
I7717171
tp1145
a(I4686029
I7730945
tp1146
a(I4686029
I7730946
tp1147
a(I4686029
I7730947
tp1148
a(I4686029
I7735935
tp1149
a(I4686029
I7785427
tp1150
a(I4686029
I7793722
tp1151
a(I4686029
I7798220
tp1152
a(I4686029
I7832484
tp1153
a(I4686029
I7841401
tp1154
a(I4686029
I7841408
tp1155
a(I4686029
I7841425
tp1156
a(I4686029
I7845411
tp1157
a(I4686029
I7849922
tp1158
a(I4686029
I7866385
tp1159
a(I4686029
I7866386
tp1160
a(I4686029
I7866388
tp1161
a(I4686029
I7912358
tp1162
a(I4686029
I7931086
tp1163
a(I4686029
I7950453
tp1164
a(I4686029
I8042610
tp1165
a(I4677242
I4752651
tp1166
a(I4677242
I4861938
tp1167
a(I4677242
I5714662
tp1168
a(I4677242
I5744680
tp1169
a(I4677242
I5914433
tp1170
a(I4677242
I6023005
tp1171
a(I4677242
I6166282
tp1172
a(I4859311
I5282958
tp1173
a(I4861938
I4973792
tp1174
a(I4861938
I5714662
tp1175
a(I4861938
I5744680
tp1176
a(I4861938
I5914433
tp1177
a(I4861938
I6023005
tp1178
a(I4861938
I6049017
tp1179
a(I4861938
I6121504
tp1180
a(I4861938
I6166282
tp1181
a(I4921594
I5135638
tp1182
a(I4921594
I5246566
tp1183
a(I4943424
I5282958
tp1184
a(I5095163
I5191141
tp1185
a(I5095163
I5714662
tp1186
a(I5095163
I5744680
tp1187
a(I5095163
I5914433
tp1188
a(I5095163
I5952538
tp1189
a(I5095163
I6023005
tp1190
a(I5095163
I6049017
tp1191
a(I5095163
I6121504
tp1192
a(I5095163
I6166282
tp1193
a(I5246566
I6090989
tp1194
a(I5246566
I6165949
tp1195
a(I5246566
I6274540
tp1196
a(I5282958
I6090989
tp1197
a(I5714662
I6023005
tp1198
a(I5714662
I6049017
tp1199
a(I5714662
I6121504
tp1200
a(I5744680
I6049017
tp1201
a(I5744680
I6121504
tp1202
a(I6121504
I7732301
tp1203
a(I4925459
I5104425
tp1204
a(I4925459
I5151110
tp1205
a(I5019263
I5177008
tp1206
a(I5019263
I6265093
tp1207
a(I5019263
I6329062
tp1208
a(I5019263
I6913697
tp1209
a(I4934142
I5750026
tp1210
a(I4934142
I6093378
tp1211
a(I4934142
I6622480
tp1212
a(I4934142
I7229597
tp1213
a(I5161686
I5300192
tp1214
a(I5161686
I5308896
tp1215
a(I5161686
I5352480
tp1216
a(I5161686
I5484645
tp1217
a(I5161686
I5543215
tp1218
a(I5161686
I5547541
tp1219
a(I5161686
I5547745
tp1220
a(I5161686
I5571618
tp1221
a(I5161686
I5589256
tp1222
a(I5161686
I5609727
tp1223
a(I5161686
I5614570
tp1224
a(I5161686
I5693411
tp1225
a(I5161686
I5789326
tp1226
a(I5161686
I5807364
tp1227
a(I5407442
I5733272
tp1228
a(I5407442
I5916678
tp1229
a(I5407442
I5973221
tp1230
a(I5407442
I5976694
tp1231
a(I5407442
I6121170
tp1232
a(I5407442
I6429261
tp1233
a(I5407442
I6548592
tp1234
a(I5407442
I6602955
tp1235
a(I5019062
I5135521
tp1236
a(I5019062
I5415640
tp1237
a(I5019062
I5817394
tp1238
a(I5019062
I5856245
tp1239
a(I5019062
I5874164
tp1240
a(I5019062
I5876792
tp1241
a(I5019062
I6040251
tp1242
a(I5315824
I5538697
tp1243
a(I5315824
I5544482
tp1244
a(I5315824
I6047544
tp1245
a(I5331809
I5423181
tp1246
a(I5331809
I5437153
tp1247
a(I5331809
I5448887
tp1248
a(I5331809
I5473887
tp1249
a(I5331809
I6161378
tp1250
a(I5331809
I6568177
tp1251
a(I5331809
I6735938
tp1252
a(I5331809
I6736121
tp1253
a(I5538697
I5792436
tp1254
a(I5544482
I5711149
tp1255
a(I5544482
I5894725
tp1256
a(I5544482
I6167696
tp1257
a(I5544482
I6568177
tp1258
a(I5544482
I6735938
tp1259
a(I5544482
I6736121
tp1260
a(I6093378
I7052532
tp1261
a(I6182443
I6732507
tp1262
a(I6182443
I6928806
tp1263
a(I6182443
I7375049
tp1264
a(I5332424
I5435836
tp1265
a(I4752651
I4873390
tp1266
a(I4752651
I5126308
tp1267
a(I4752651
I5191141
tp1268
a(I4752651
I6023005
tp1269
a(I5849258
I6696258
tp1270
a(I5364797
I5741462
tp1271
a(I5364797
I5751629
tp1272
a(I5364797
I5874214
tp1273
a(I5364797
I6017496
tp1274
a(I5364797
I6251260
tp1275
a(I5364797
I6299757
tp1276
a(I5364797
I6329017
tp1277
a(I5364797
I6329139
tp1278
a(I5364797
I6338790
tp1279
a(I5364797
I6383466
tp1280
a(I5364797
I6461496
tp1281
a(I5364797
I6591125
tp1282
a(I5364797
I6592745
tp1283
a(I5364797
I6616819
tp1284
a(I5364797
I6618934
tp1285
a(I5364797
I6654625
tp1286
a(I5364797
I6682899
tp1287
a(I5364797
I6749740
tp1288
a(I5364797
I6942518
tp1289
a(I5364797
I6975893
tp1290
a(I5364797
I7041468
tp1291
a(I5364797
I7058437
tp1292
a(I5364797
I7106513
tp1293
a(I5364797
I7225535
tp1294
a(I5364797
I7587287
tp1295
a(I5622684
I5795559
tp1296
a(I5622684
I6310110
tp1297
a(I5622684
I6329017
tp1298
a(I5622684
I6383466
tp1299
a(I5622684
I6413489
tp1300
a(I5622684
I6592764
tp1301
a(I5795559
I6310110
tp1302
a(I5795559
I6329017
tp1303
a(I5795559
I6383466
tp1304
a(I5795559
I6696258
tp1305
a(I5795559
I6890624
tp1306
a(I5858457
I6270846
tp1307
a(I5858457
I6329017
tp1308
a(I5858457
I6365266
tp1309
a(I5858457
I6383466
tp1310
a(I5858457
I6387453
tp1311
a(I5858457
I6518194
tp1312
a(I5858457
I6592764
tp1313
a(I5858457
I7176144
tp1314
a(I6329017
I6548113
tp1315
a(I6329017
I7176144
tp1316
a(I6383466
I7176144
tp1317
a(I5914433
I7732301
tp1318
a(I5895263
I6271273
tp1319
a(I5895263
I6420441
tp1320
a(I5895263
I6596467
tp1321
a(I5895263
I6873087
tp1322
a(I5895263
I6900881
tp1323
a(I5895263
I6908861
tp1324
a(I5895263
I6916584
tp1325
a(I5895263
I6916585
tp1326
a(I5895263
I6921615
tp1327
a(I5895263
I6932934
tp1328
a(I5895263
I7056840
tp1329
a(I5895263
I7070405
tp1330
a(I5895263
I7077992
tp1331
a(I6093636
I6271273
tp1332
a(I6093636
I6391932
tp1333
a(I6093636
I6420441
tp1334
a(I6093636
I6742774
tp1335
a(I6093636
I7190049
tp1336
a(I7640980
I7798220
tp1337
a(I7640980
I7798221
tp1338
a(I7640980
I7831133
tp1339
a(I7640980
I7831134
tp1340
a(I7640980
I7832484
tp1341
a(I7640980
I7841408
tp1342
a(I7640980
I7845411
tp1343
a(I7640980
I7849922
tp1344
a(I7640980
I7860377
tp1345
a(I7640980
I7866385
tp1346
a(I7640980
I7866386
tp1347
a(I7640980
I7912358
tp1348
a(I7640980
I7931086
tp1349
a(I7640980
I7942197
tp1350
a(I7640980
I7942203
tp1351
a(I7640980
I7950453
tp1352
a(I7640980
I7986869
tp1353
a(I7798221
I7942197
tp1354
a(I7798221
I7942203
tp1355
a(I7798221
I7950453
tp1356
a(I7798221
I8042610
tp1357
a(I7831133
I7942197
tp1358
a(I7831133
I7942203
tp1359
a(I7831133
I7950453
tp1360
a(I7831133
I8042610
tp1361
a(I7831134
I7942197
tp1362
a(I7831134
I7942203
tp1363
a(I7831134
I7950453
tp1364
a(I7831134
I8042610
tp1365
a(I7860377
I7950453
tp1366
a(I7860377
I8042610
tp1367
a(I5135638
I5246566
tp1368
a(I5135638
I5282958
tp1369
a(I5135638
I6090989
tp1370
a(I4973792
I5714662
tp1371
a(I4973792
I5744680
tp1372
a(I4973792
I5914433
tp1373
a(I4973792
I6049017
tp1374
a(I4973792
I6166282
tp1375
a(I5104425
I5332424
tp1376
a(I5104425
I5354547
tp1377
a(I5104425
I5435836
tp1378
a(I5104425
I5451444
tp1379
a(I5151110
I5364797
tp1380
a(I5151110
I5589396
tp1381
a(I5151110
I5753014
tp1382
a(I5151110
I5880552
tp1383
a(I5177008
I7744727
tp1384
a(I5750026
I6348085
tp1385
a(I5750026
I6368374
tp1386
a(I5300192
I5543215
tp1387
a(I5300192
I5547541
tp1388
a(I5300192
I5547745
tp1389
a(I5300192
I5571618
tp1390
a(I5300192
I5589256
tp1391
a(I5300192
I5609727
tp1392
a(I5300192
I5614570
tp1393
a(I5300192
I5693411
tp1394
a(I5300192
I5789326
tp1395
a(I5300192
I5807364
tp1396
a(I5300192
I6043317
tp1397
a(I5300192
I6429261
tp1398
a(I5300192
I6548592
tp1399
a(I5300192
I6602955
tp1400
a(I5300192
I6753454
tp1401
a(I5308896
I5543215
tp1402
a(I5308896
I5547541
tp1403
a(I5308896
I5614570
tp1404
a(I5308896
I5693411
tp1405
a(I5308896
I5789326
tp1406
a(I5308896
I5807364
tp1407
a(I5308896
I5998511
tp1408
a(I5352480
I5543215
tp1409
a(I5352480
I5547541
tp1410
a(I5352480
I5693411
tp1411
a(I5352480
I5789326
tp1412
a(I5352480
I5998511
tp1413
a(I5352480
I6417425
tp1414
a(I5484645
I5605746
tp1415
a(I5484645
I6015764
tp1416
a(I5484645
I6037281
tp1417
a(I5484645
I6111163
tp1418
a(I5543215
I5789326
tp1419
a(I5547541
I5789326
tp1420
a(I5547745
I5789326
tp1421
a(I5571618
I5789326
tp1422
a(I5571618
I6068620
tp1423
a(I5589256
I5789326
tp1424
a(I5609727
I6068620
tp1425
a(I5609727
I6617490
tp1426
a(I5789326
I6599631
tp1427
a(I5807364
I6548592
tp1428
a(I5807364
I6599631
tp1429
a(I5807364
I6602955
tp1430
a(I5733272
I6229062
tp1431
a(I5916678
I6225243
tp1432
a(I5916678
I6429261
tp1433
a(I5916678
I6548592
tp1434
a(I5916678
I6602955
tp1435
a(I5916678
I6617490
tp1436
a(I5976694
I6121170
tp1437
a(I5976694
I6548592
tp1438
a(I5976694
I6602955
tp1439
a(I6121170
I6429261
tp1440
a(I6121170
I6548592
tp1441
a(I6121170
I6602955
tp1442
a(I6429261
I6602955
tp1443
a(I5135521
I5364382
tp1444
a(I5135521
I5383870
tp1445
a(I5135521
I5387209
tp1446
a(I5135521
I5401267
tp1447
a(I5135521
I5429629
tp1448
a(I5135521
I5437653
tp1449
a(I5135521
I5509915
tp1450
a(I5135521
I5514104
tp1451
a(I5135521
I5536555
tp1452
a(I5135521
I5545156
tp1453
a(I5135521
I5607414
tp1454
a(I5135521
I5624423
tp1455
a(I5135521
I5643240
tp1456
a(I5135521
I5941864
tp1457
a(I5135521
I6096668
tp1458
a(I5415640
I5647863
tp1459
a(I5415640
I5865824
tp1460
a(I5415640
I6576006
tp1461
a(I6040251
I6713660
tp1462
a(I5423181
I5832722
tp1463
a(I5423181
I5894725
tp1464
a(I5423181
I6568177
tp1465
a(I5423181
I6735938
tp1466
a(I5423181
I6736121
tp1467
a(I5437153
I5595060
tp1468
a(I5437153
I5713199
tp1469
a(I5437153
I5715679
tp1470
a(I5437153
I5735119
tp1471
a(I5437153
I5740669
tp1472
a(I5437153
I5743084
tp1473
a(I5437153
I5771685
tp1474
a(I5437153
I5832722
tp1475
a(I5437153
I5848529
tp1476
a(I5437153
I5894725
tp1477
a(I5437153
I6568177
tp1478
a(I5437153
I6735938
tp1479
a(I5437153
I6736121
tp1480
a(I5437153
I6832473
tp1481
a(I5448887
I5832722
tp1482
a(I5448887
I5894725
tp1483
a(I5448887
I5992142
tp1484
a(I5448887
I6568177
tp1485
a(I5448887
I6735938
tp1486
a(I5448887
I6736121
tp1487
a(I5473887
I5713199
tp1488
a(I5473887
I5715679
tp1489
a(I5473887
I5732554
tp1490
a(I5473887
I5735119
tp1491
a(I5473887
I5743084
tp1492
a(I5473887
I5771686
tp1493
a(I5473887
I5832722
tp1494
a(I5473887
I5848529
tp1495
a(I5473887
I5894725
tp1496
a(I5473887
I5974793
tp1497
a(I5473887
I5992142
tp1498
a(I5473887
I6014859
tp1499
a(I5473887
I6047542
tp1500
a(I5473887
I6109024
tp1501
a(I5473887
I6161378
tp1502
a(I5473887
I6182443
tp1503
a(I5473887
I6345496
tp1504
a(I5473887
I6375910
tp1505
a(I5473887
I6568177
tp1506
a(I5473887
I6735938
tp1507
a(I5473887
I6736121
tp1508
a(I6568177
I6735938
tp1509
a(I6568177
I6736121
tp1510
a(I5792436
I6375910
tp1511
a(I5792436
I6568177
tp1512
a(I5792436
I6735938
tp1513
a(I5792436
I6736121
tp1514
a(I5711149
I5996338
tp1515
a(I5711149
I6293096
tp1516
a(I5711149
I6622480
tp1517
a(I5711149
I6832473
tp1518
a(I5711149
I6871489
tp1519
a(I5894725
I6560958
tp1520
a(I5894725
I6832473
tp1521
a(I6167696
I6293096
tp1522
a(I6167696
I6732507
tp1523
a(I6732507
I7062904
tp1524
a(I6928806
I7229597
tp1525
a(dp1526
I7556096
(lp1527
Vdawsonit
p1528
aVformat
p1529
aVzone
p1530
aVheat
p1531
aVheater
p1532
aVshale
p1533
aVassess
p1534
aVcomposit
p1535
aVdiffer
p1536
aVhydrocarbon
p1537
asI4500651
(lp1538
Vsiev
p1539
aVmolecular
p1540
aVtitanium
p1541
aVhydrocarbon
p1542
aVconvers
p1543
aVcatalyst
p1544
aVcontain
p1545
aVcomposit
p1546
aVdisclos
p1547
aVother
p1548
asI7058437
(lp1549
Vskin
p1550
aVfingertip
p1551
aVstimul
p1552
aVglucos
p1553
aVfluid
p1554
aVanalyt
p1555
aVbodi
p1556
aVconcentr
p1557
aVtest
p1558
aVlanc
p1559
asI5916678
(lp1560
Vfiber
p1561
aVmulticompon
p1562
aVnonwoven
p1563
aVcare
p1564
aVdegrad
p1565
aVcompon
p1566
aVwipe
p1567
aVhealth
p1568
aVthemselv
p1569
aVfibrous
p1570
asI5771686
(lp1571
Vexhaust
p1572
aVdiesel
p1573
aVlambda
p1574
aVengin
p1575
aVoper
p1576
aVcatalyst
p1577
aVsub
p1578
aVstorag
p1579
aVfeedback
p1580
aVfunction
p1581
asI6908861
(lp1582
Vtemplat
p1583
aVcurabl
p1584
aVliquid
p1585
aVactiv
p1586
aVlight
p1587
aVfield
p1588
aVlithographi
p1589
aVelectr
p1590
aVsubstrat
p1591
aVappli
p1592
asI7361794
(lp1593
Vzone
p1594
aVbromid
p1595
aVmetal
p1596
aVthird
p1597
aVvessel
p1598
aVoxid
p1599
aValkan
p1600
aVbromin
p1601
aVreact
p1602
aVfirst
p1603
asI6293096
(lp1604
Vsub
p1605
aVtrap
p1606
aVlean
p1607
aVstage
p1608
aVoxid
p1609
aVaftertreat
p1610
aVstream
p1611
aVwhereat
p1612
aVcarbon
p1613
aVgaseous
p1614
asI7866385
(lp1615
Vformat
p1616
aVkalina
p1617
aVheat
p1618
aVfluid
p1619
aVtreat
p1620
aVsubsurfac
p1621
aVheater
p1622
aVproduc
p1623
aVhydrocarbon
p1624
aVherein
p1625
asI7866386
(lp1626
Vportion
p1627
aVformat
p1628
aVoxid
p1629
aVhydrocarbon
p1630
aVproduc
p1631
aVfirst
p1632
aVheater
p1633
aVwell
p1634
aVfluid
p1635
aVheat
p1636
asI4925459
(lp1637
Vconstitu
p1638
aVmixtur
p1639
aVsubmit
p1640
aVsepar
p1641
aVmembran
p1642
aVselect
p1643
aVacross
p1644
aVphase
p1645
aVgas
p1646
aVtwo
p1647
asI7866388
(lp1648
Vstream
p1649
aVmolecular
p1650
aVoxygen
p1651
aVgas
p1652
aVformat
p1653
aVfluid
p1654
aVcombin
p1655
aVhydrogen
p1656
aVsubsurfac
p1657
aVdownhol
p1658
asI7584789
(lp1659
Vcrude
p1660
aVstream
p1661
aVproduct
p1662
aV343
p1663
aVboil
p1664
aVd5307
p1665
aVproduc
p1666
aVgas
p1667
aVcrack
p1668
aVaddit
p1669
asI4673559
(lp1670
Vsilicophosphoalumin
p1671
aVoxid
p1672
aVsilicoaluminophosph
p1673
aVcrystal
p1674
aVhydrolysi
p1675
aVphosphorus
p1676
aVcatalyt
p1677
aVreadili
p1678
aValuminum
p1679
aVion
p1680
asI5952538
(lp1681
Volefin
p1682
aVoxygen
p1683
aVyield
p1684
aVbyproduct
p1685
aVmethan
p1686
aVconvert
p1687
aVundesir
p1688
aVsatur
p1689
aVshort
p1690
aVconvers
p1691
asI5998511
(lp1692
Vpolycarboxyl
p1693
aVcrosslink
p1694
aVcellulos
p1695
aVintrafib
p1696
aVacid
p1697
aVfiber
p1698
aVpolymer
p1699
aVpolymal
p1700
aVpolyacryl
p1701
aVknot
p1702
asI4061724
(lp1703
Vsilica
p1704
aVcrystallin
p1705
aValkylonium
p1706
aVsilic
p1707
aVpore
p1708
aVuniform
p1709
aVhydrotherm
p1710
aVangstrom
p1711
aVneither
p1712
aVcalcin
p1713
asI7549470
(lp1714
Vnahcolit
p1715
aVformat
p1716
aVfluid
p1717
aVhydrocarbon
p1718
aVshale
p1719
aVtreat
p1720
aVoxid
p1721
aVmine
p1722
aVportion
p1723
aVdissolv
p1724
asI6121504
(lp1725
Volefin
p1726
aVoxygen
p1727
aVconvert
p1728
aVfeedstock
p1729
aVquench
p1730
aVheat
p1731
aVproduct
p1732
aVcatalyt
p1733
aVrecoveri
p1734
aVdirect
p1735
asI7190049
(lp1736
Vnanocylind
p1737
aVarray
p1738
aVnanopor
p1739
aVnanoscal
p1740
aVnanowir
p1741
aVproduc
p1742
aVfilm
p1743
aVpathway
p1744
aVcopolym
p1745
aVaccomplish
p1746
asI5544482
(lp1747
sI7845411
(lp1748
Vheat
p1749
aVsitu
p1750
aVtreatment
p1751
aVcircul
p1752
aVpipe
p1753
aVformat
p1754
aVwellbor
p1755
aVtransfer
p1756
aVutil
p1757
aVsystem
p1758
asI4576805
(lp1759
sI5874214
(lp1760
Vmemori
p1761
aVmatrix
p1762
aVmacromolecul
p1763
aVbiolog
p1764
aVcombin
p1765
aVimmunoassay
p1766
aVmolecul
p1767
aVmatric
p1768
aVremot
p1769
aVparticl
p1770
asI6413489
(lp1771
Vparticl
p1772
aVmicell
p1773
aVrevers
p1774
aVnanomet
p1775
aVoxid
p1776
aVmethan
p1777
aVagglomer
p1778
aVsize
p1779
aVmediat
p1780
aVparticular
p1781
asI5744680
(lp1782
Volefin
p1783
aVfeedstream
p1784
aVlight
p1785
aVmethan
p1786
aVdiluent
p1787
aVeffluent
p1788
aVfraction
p1789
aVsapo
p1790
aVreactor
p1791
aVwater
p1792
asI6890624
(lp1793
Vself
p1794
aVassembl
p1795
aVboundari
p1796
aVstructur
p1797
aVlocal
p1798
aVarticl
p1799
aVsome
p1800
aVisland
p1801
aVnanoparticl
p1802
aVintegr
p1803
asI6182443
(lp1804
Vcatalyst
p1805
aVexhaust
p1806
aVnitrogen
p1807
aVdiesel
p1808
aVoxid
p1809
aVengin
p1810
aVcompon
p1811
aVgase
p1812
aVreduct
p1813
aVnitrous
p1814
asI6749740
(lp1815
Vanalyt
p1816
aVsensor
p1817
aVdetermin
p1818
aVcharg
p1819
aVcoulometri
p1820
aVpotentiometri
p1821
aVamperometri
p1822
aVamount
p1823
aVlactat
p1824
aVvolum
p1825
asI6023005
(lp1826
sI5817394
(lp1827
Vfibrous
p1828
aVlamin
p1829
aVstapl
p1830
aVfilament
p1831
aVthermoplast
p1832
aVfiber
p1833
aVbond
p1834
aVcontinu
p1835
aVwell
p1836
aVmateri
p1837
asI5354547
(lp1838
Vpsa
p1839
aVmembran
p1840
aVhydrogen
p1841
aVadsorb
p1842
aVsemiperm
p1843
aVmicropor
p1844
aVmethan
p1845
aVreform
p1846
aVadsorpt
p1847
aVgas
p1848
asI7942197
(lp1849
Vsump
p1850
aVformat
p1851
aVunderburden
p1852
aVheat
p1853
aVproduct
p1854
aVconduit
p1855
aVfluid
p1856
aVportion
p1857
aVpump
p1858
aVwell
p1859
asI6616819
(lp1860
Vanalyt
p1861
aVsensor
p1862
aVdetermin
p1863
aVcharg
p1864
aVcoulometri
p1865
aVpotentiometri
p1866
aVamperometri
p1867
aVamount
p1868
aVlactat
p1869
aVvolum
p1870
asI5876792
(lp1871
Vweb
p1872
aVpolym
p1873
aVinterstiti
p1874
aVshear
p1875
aVthinnabl
p1876
aVplacement
p1877
aVcomposit
p1878
aVporous
p1879
aVmost
p1880
aVtension
p1881
asI5451444
(lp1882
Vinorgan
p1883
aVcarbon
p1884
aVsubstrat
p1885
aVprecursor
p1886
aVcoat
p1887
aVliquid
p1888
aVpore
p1889
aVcure
p1890
aVsubstanti
p1891
aVwholli
p1892
asI7841408
(lp1893
Vhydrocarbon
p1894
aVformat
p1895
aVlayer
p1896
aVtar
p1897
aVsand
p1898
aVsome
p1899
aVmobil
p1900
aVsecond
p1901
aVheat
p1902
aVsitu
p1903
asI4567029
(lp1904
Valuminophosph
p1905
aVcrystallin
p1906
aVtetrahedr
p1907
aVmetal
p1908
aVhydrotherm
p1909
aValo
p1910
aVmicropor
p1911
aVsub
p1912
aVlattic
p1913
aVadsorb
p1914
asI5364797
(lp1915
Vcrystallin
p1916
aVm41s
p1917
aVpore
p1918
aVmateri
p1919
aVmesopor
p1920
aVquantifi
p1921
aVsensor
p1922
aVultra
p1923
aVdetect
p1924
aVbiolog
p1925
asI6043317
(lp1926
sI4943424
(lp1927
Vsilicoaluminophosph
p1928
aVsub
p1929
aVmole
p1930
aValumina
p1931
aVbulk
p1932
aVratio
p1933
aVgreater
p1934
aVsiev
p1935
aVcrystallin
p1936
aVsynthesi
p1937
asI6109024
(lp1938
sI6093378
(lp1939
Vzeolit
p1940
aVprecious
p1941
aVdiesel
p1942
aVcatalyst
p1943
aVexhaust
p1944
aVmetal
p1945
aVpore
p1946
aVcompon
p1947
aVcatalyt
p1948
aVfour
p1949
asI5894725
(lp1950
Vsub
p1951
aVtrap
p1952
aVstorag
p1953
aVpurg
p1954
aVcapac
p1955
aVlimit
p1956
aVmode
p1957
aVengin
p1958
aVcumul
p1959
aVbase
p1960
asI6229062
(lp1961
Vodor
p1962
aVsuperabsorb
p1963
aVpolym
p1964
aVcompound
p1965
aVcontrol
p1966
aVtriclosan
p1967
aVcyclodextrin
p1968
aVamphoter
p1969
aVphosphat
p1970
aVinsolubl
p1971
asI7732301
(lp1972
Vgan
p1973
aVcrystal
p1974
aVthin
p1975
aVlayer
p1976
aVsubstrat
p1977
aVsingl
p1978
aVanneal
p1979
aVexfoli
p1980
aVbond
p1981
aVsourc
p1982
asI7635023
(lp1983
Vhydrocarbon
p1984
aVheater
p1985
aVhorizont
p1986
aVinclin
p1987
aVformat
p1988
aVopen
p1989
aVportion
p1990
aVlayer
p1991
aVisol
p1992
aVheat
p1993
asI7635024
(lp1994
Vvisbreak
p1995
aVformat
p1996
aVtar
p1997
aVhydrocarbon
p1998
aVsand
p1999
aVvisbroken
p2000
aVsection
p2001
aVheat
p2002
aVsome
p2003
aV240
p2004
asI7635025
(lp2005
Vcogener
p2006
aVhydrocarbon
p2007
aVsteam
p2008
aVformat
p2009
aVfacil
p2010
aVelectr
p2011
aVwell
p2012
aVportion
p2013
aVproduct
p2014
aVlocat
p2015
asI7610962
(lp2016
Vformat
p2017
aVsubsurfac
p2018
aVlithostat
p2019
aVacid
p2020
aVheater
p2021
aVgase
p2022
aVgas
p2023
aVsour
p2024
aVheat
p2025
aVherein
p2026
asI6096469
(lp2027
Vink
p2028
aVreceptor
p2029
aVparticl
p2030
aVmedia
p2031
aVintraparticl
p2032
aVdispers
p2033
aVtemplat
p2034
aVsurfact
p2035
aVstm
p2036
aVmesopor
p2037
asI5941864
(lp2038
Vfecal
p2039
aVabsorb
p2040
aVarticl
p2041
aVmateri
p2042
aVdispos
p2043
aVstorag
p2044
aVtopsheet
p2045
aVcompon
p2046
aVdewat
p2047
aVdiaper
p2048
asI4795482
(lp2049
Vodor
p2050
aVspeci
p2051
aVtetrahedra
p2052
aVpercent
p2053
aVolfactori
p2054
aVwater
p2055
aVmolecular
p2056
aVtetrahedr
p2057
aVelimin
p2058
aVtorr
p2059
asI7597147
(lp2060
Vheater
p2061
aVferromagnet
p2062
aVconductor
p2063
aVtemperatur
p2064
aVtransform
p2065
aVherein
p2066
aVelectr
p2067
aVsubsurfac
p2068
aVphase
p2069
aVamount
p2070
asI7644765
(lp2071
Vformat
p2072
aVtar
p2073
aVhydrocarbon
p2074
aVpressur
p2075
aVsand
p2076
aVsection
p2077
aVmajor
p2078
aVtemperatur
p2079
aVmay
p2080
aVbelow
p2081
asI7831134
(lp2082
Vheater
p2083
aVformat
p2084
aVgroup
p2085
aVuncas
p2086
aVhydrocarbon
p2087
aVtwo
p2088
aVmore
p2089
aVwellbor
p2090
aVconfigur
p2091
aVelectr
p2092
asI5895263
(lp2093
Vpolysilica
p2094
aVcircuit
p2095
aVdielectr
p2096
aVintegr
p2097
aVline
p2098
aVsubstrat
p2099
aViii
p2100
aVporous
p2101
aVmateri
p2102
aVprocess
p2103
asI6622480
(lp2104
Vpes
p2105
aVregener
p2106
aVparticul
p2107
aVexhaust
p2108
aVfilter
p2109
aVash
p2110
aVres
p2111
aVdiesel
p2112
aVfiler
p2113
aVjudg
p2114
asI7540324
(lp2115
Vsection
p2116
aVhydrocarbon
p2117
aVheat
p2118
aVcheckerboard
p2119
aVheater
p2120
aVformat
p2121
aVfirst
p2122
aVmore
p2123
aVmobil
p2124
aVsecond
p2125
asI5484645
(lp2126
Vnonwoven
p2127
aVmulticonstitu
p2128
aVweb
p2129
aVpolyethylen
p2130
aVfilament
p2131
aVgamma
p2132
aVspunbond
p2133
aVstabl
p2134
aVconstitu
p2135
aVradiat
p2136
asI5246566
(lp2137
Vsapo
p2138
aVang
p2139
aVzsm
p2140
aVisomer
p2141
aVcatalyst
p2142
aVabout
p2143
aVpore
p2144
aVviscos
p2145
aVlube
p2146
aVwaxi
p2147
asI6417425
(lp2148
Vabsorb
p2149
aVarticl
p2150
aVsuperabsorb
p2151
aVweb
p2152
aVhygien
p2153
aVfibrous
p2154
aVprocess
p2155
aVblend
p2156
aVmonom
p2157
aVspray
p2158
asI7077992
(lp2159
Vimprint
p2160
aVlithographi
p2161
aVtemplat
p2162
aVliquid
p2163
aVsubstrat
p2164
aVcure
p2165
aVrepeat
p2166
aVprocess
p2167
aVpattern
p2168
aVremaind
p2169
asI7041468
(lp2170
Vglucos
p2171
aVtest
p2172
aVstrip
p2173
aVhous
p2174
aVreceptacl
p2175
aVhand
p2176
aVheld
p2177
aVconnector
p2178
aVmodul
p2179
aVamount
p2180
asI5624423
(lp2181
Vabsorb
p2182
aVbarrier
p2183
aVcore
p2184
aVprotuber
p2185
aVarticl
p2186
aVperimet
p2187
aVnapkin
p2188
aVcrotch
p2189
aVthigh
p2190
aVbulg
p2191
asI6299757
(lp2192
Vleachabl
p2193
aVsensor
p2194
aVbiomolecul
p2195
aVredox
p2196
aVdiffus
p2197
aVmediat
p2198
aVanalyt
p2199
aVcoulometri
p2200
aVpotentiometri
p2201
aVamperometri
p2202
asI7681647
(lp2203
Vformat
p2204
aVvisbroken
p2205
aVtar
p2206
aVsand
p2207
aVpyrolyz
p2208
aVhydrocarbon
p2209
aVsitu
p2210
aVheater
p2211
aVfluid
p2212
aVdrive
p2213
asI6548592
(lp2214
Vdispers
p2215
aVion
p2216
aVsensit
p2217
aVwater
p2218
aVpolym
p2219
aVbinder
p2220
aVtheir
p2221
aVpresent
p2222
aVdirect
p2223
aVapplic
p2224
asI7942203
(lp2225
Vsubsurfac
p2226
aVformat
p2227
aVhydrocarbon
p2228
aVheat
p2229
aVheater
p2230
aVpyrolyz
p2231
aVmay
p2232
aVsome
p2233
aVmore
p2234
aVprocess
p2235
asI8042610
(lp2236
Vheater
p2237
aVsubsurfac
p2238
aVsection
p2239
aVformat
p2240
aVsubstanti
p2241
aVinclin
p2242
aVorient
p2243
aVhorizont
p2244
aVparallel
p2245
aVtwo
p2246
asI7950453
(lp2247
Vconduit
p2248
aVoxid
p2249
aVsubsurfac
p2250
aVshield
p2251
aVburner
p2252
aVfuel
p2253
aVmix
p2254
aVformat
p2255
aVdownhol
p2256
aVheat
p2257
asI5976694
(lp2258
Vwater
p2259
aVdispers
p2260
aVsensit
p2261
aVproduct
p2262
aVflushabl
p2263
aVfeminin
p2264
aVnapkin
p2265
aVcomposit
p2266
aVfiber
p2267
aVthermoform
p2268
asI5832722
(lp2269
Vsub
p2270
aVpurg
p2271
aVestim
p2272
aVtrap
p2273
aVmode
p2274
aVengin
p2275
aVcumul
p2276
aVstorag
p2277
aVlevel
p2278
aVaccumul
p2279
asI7841401
(lp2280
Vtreatment
p2281
aVsitu
p2282
aVformat
p2283
aVsubsurfac
p2284
aVmigrat
p2285
aVinhibit
p2286
aVheat
p2287
aVtreat
p2288
aVfluid
p2289
aVarea
p2290
asI4677242
(lp2291
Volefin
p2292
aVfeedstock
p2293
aVsilicoaluminophosph
p2294
aVlight
p2295
aVhetero
p2296
aVsiev
p2297
aVdiluent
p2298
aValiphat
p2299
aVproduct
p2300
aVaromat
p2301
asI4740219
(lp2302
sI6391932
(lp2303
Vpolyimid
p2304
aVporous
p2305
aVdielectr
p2306
aVmateri
p2307
aVdisclos
p2308
aVconstant
p2309
aVelectron
p2310
aVmanufactur
p2311
aVprepar
p2312
aVlow
p2313
asI5740669
(lp2314
Vsub
p2315
aVabsorb
p2316
aVexhaust
p2317
aVregener
p2318
aVgas
p2319
aVoutflow
p2320
aVrich
p2321
aVfuel
p2322
aVtemperatur
p2323
aVratio
p2324
asI7735935
(lp2325
Vformat
p2326
aVsitu
p2327
aVshale
p2328
aVminer
p2329
aVportion
p2330
aVoil
p2331
aVcarbon
p2332
aVdissoci
p2333
aVfluid
p2334
aVtemperatur
p2335
asI4793984
(lp2336
Vsiev
p2337
aVmolecular
p2338
aVsub
p2339
aVframework
p2340
aVelo
p2341
aValo
p2342
aVempir
p2343
aVmicropor
p2344
aVanhydr
p2345
aVsio
p2346
asI5713199
(lp2347
Vsub
p2348
aVabsorb
p2349
aValmost
p2350
aVamount
p2351
aVfuel
p2352
aVdeterior
p2353
aVdetect
p2354
aVzero
p2355
aVair
p2356
aVexhaust
p2357
asI4410501
(lp2358
Vand
p2359
aVoxid
p2360
aVinvent
p2361
aVsynthes
p2362
aVtitanium
p2363
aVsynthet
p2364
aVconstitut
p2365
aVuse
p2366
aVsaid
p2367
aVfor
p2368
asI6338790
(lp2369
Vleachabl
p2370
aVsensor
p2371
aVbiomolecul
p2372
aVredox
p2373
aVdiffus
p2374
aVmediat
p2375
aVanalyt
p2376
aVcoulometri
p2377
aVpotentiometri
p2378
aVamperometri
p2379
asI5856245
(lp2380
Vimperm
p2381
aVmicroorgan
p2382
aVfabric
p2383
aVbarrier
p2384
aVweb
p2385
aVbind
p2386
aVcertain
p2387
aVthixotrop
p2388
aVpartner
p2389
aVpolym
p2390
asI5848529
(lp2391
Vexhaust
p2392
aVpurifi
p2393
aVengin
p2394
aVgas
p2395
aVdriveabl
p2396
aVcombust
p2397
aVintern
p2398
aVlean
p2399
aVunder
p2400
aVcondit
p2401
asI5282958
(lp2402
Vpsig
p2403
aVhexadecan
p2404
aVisomer
p2405
aVdewax
p2406
aVpore
p2407
aVfeed
p2408
aVang
p2409
aVsiev
p2410
aVmolecular
p2411
aV370
p2412
asI6167696
(lp2413
Vtrap
p2414
aVexhaust
p2415
aVsub
p2416
aVcatalyst
p2417
aVparticul
p2418
aVhydrocarbon
p2419
aVpurif
p2420
aVburn
p2421
aVmatter
p2422
aVcold
p2423
asI7841425
(lp2424
Vdrill
p2425
aVwellbor
p2426
aVtubular
p2427
aVbit
p2428
aVcut
p2429
aVstructur
p2430
aVsubsurfac
p2431
aVcoupl
p2432
aVformat
p2433
aVabov
p2434
asI6171556
(lp2435
Vexhaust
p2436
aVadsorb
p2437
aVstream
p2438
aVzone
p2439
aVpollut
p2440
aVgas
p2441
aVcatalyst
p2442
aVinnocu
p2443
aVdischarg
p2444
aVzeolit
p2445
asI6047542
(lp2446
sI6591125
(lp2447
Vskin
p2448
aVanalyt
p2449
aVfingertip
p2450
aVstimul
p2451
aVfluid
p2452
aVbodi
p2453
aVleachabl
p2454
aVtest
p2455
aVlanc
p2456
aVredox
p2457
asI7533719
(lp2458
Vwellhead
p2459
aVsubsurfac
p2460
aVheater
p2461
aVferromagnet
p2462
aVwellbor
p2463
aVformat
p2464
aVherein
p2465
aVcoupl
p2466
aVdescrib
p2467
aVnon
p2468
asI5858457
(lp2469
Vfilm
p2470
aVmicrostructur
p2471
aVpore
p2472
aVmesostructur
p2473
aVmicellar
p2474
aVexhibit
p2475
aVuni
p2476
aVmodal
p2477
aVcoat
p2478
aVsize
p2479
asI5125231
(lp2480
Vhydrocarbon
p2481
aVconvert
p2482
aVengin
p2483
aVsiev
p2484
aVexhaust
p2485
aVcatalyst
p2486
aVcatalyt
p2487
aVwithheld
p2488
aVchamber
p2489
aVemiss
p2490
asI7229597
(lp2491
Vscr
p2492
aVnox
p2493
aVemiss
p2494
aVcatalyst
p2495
aVtreatment
p2496
aVunsuit
p2497
aVexhaust
p2498
aVreduct
p2499
aVsoot
p2500
aVremedi
p2501
asI5364382
(lp2502
Vsurg
p2503
aVmanag
p2504
aVabsorb
p2505
aVretent
p2506
aVportion
p2507
aVliquid
p2508
aVarticl
p2509
aVuptak
p2510
aVdesorb
p2511
aVstore
p2512
asI6913697
(lp2513
Vbilay
p2514
aVlipid
p2515
aVnanostructur
p2516
aVbiomolecul
p2517
aVmembran
p2518
aVnanotrough
p2519
aVsubstrat
p2520
aVsuspend
p2521
aVassoci
p2522
aVsepar
p2523
asI5509915
(lp2524
Vtopsheet
p2525
aVbacksheet
p2526
aVabsorb
p2527
aVlayer
p2528
aVfiber
p2529
aVarticl
p2530
aVabout
p2531
aVhydrophil
p2532
aVbicompon
p2533
aVdenier
p2534
asI5126308
(lp2535
Valuminophosph
p2536
aVcatalyst
p2537
aVparticl
p2538
aVmetal
p2539
aVsiev
p2540
aVsub
p2541
aVmethanol
p2542
aVmole
p2543
aVolefin
p2544
aVfraction
p2545
asI5849258
(lp2546
Vcrystallin
p2547
aVmicropor
p2548
aVabout
p2549
aVang
p2550
aVaverag
p2551
aVmateri
p2552
aVmesopor
p2553
aVvolum
p2554
aVdiamet
p2555
aVsorbent
p2556
asI5288619
(lp2557
Vstearic
p2558
aVtransesterifi
p2559
aVacid
p2560
aVtransesterif
p2561
aVoil
p2562
aVveget
p2563
aVreaction
p2564
aVrecycl
p2565
aVmargarin
p2566
aVzone
p2567
asI4873390
(lp2568
Vfeedstock
p2569
aVcatalyt
p2570
aVconvers
p2571
aVchemic
p2572
aVprocess
p2573
aVconvert
p2574
aVproduct
p2575
aVinto
p2576
aVcompris
p2577
aVwhich
p2578
asI5177008
(lp2579
Vsuccin
p2580
aVglycerol
p2581
aVethanol
p2582
aVpyroglutam
p2583
aVstillag
p2584
aVrecoveri
p2585
aVcrossflow
p2586
aVmicrofiltr
p2587
aVbetain
p2588
aVlactic
p2589
asI4208305
(lp2590
Vsub
p2591
aVsilic
p2592
aVegeo
p2593
aVdsio
p2594
aVexhang
p2595
aVcrystallin
p2596
aVagent
p2597
aVcatalyst
p2598
aVbival
p2599
aVhereinaft
p2600
asI5401267
(lp2601
Vwick
p2602
aVabsorb
p2603
aVcapac
p2604
aVmember
p2605
aVarticl
p2606
aVsoil
p2607
aVthird
p2608
aVbodi
p2609
aVundergar
p2610
aVsecond
p2611
asI5792436
(lp2612
Vsorb
p2613
aVgaseous
p2614
aVtrap
p2615
aVstream
p2616
aVsorbent
p2617
aVdesorb
p2618
aVcompon
p2619
aVlean
p2620
aVtemperatur
p2621
aVsorbabl
p2622
asI7986869
(lp2623
Vheater
p2624
aVformat
p2625
aVheat
p2626
aVelong
p2627
aVportion
p2628
aVtemperatur
p2629
aVoutput
p2630
aVlimit
p2631
aVsubsurfac
p2632
aVmore
p2633
asI5753014
(lp2634
Vmembran
p2635
aVsepar
p2636
aVspincoat
p2637
aVdeposit
p2638
aVpore
p2639
aVperfor
p2640
aVfilter
p2641
aVleucocyt
p2642
aVwell
p2643
aVblood
p2644
asI5448887
(lp2645
Vexhaust
p2646
aVfuel
p2647
aVratio
p2648
aVsub
p2649
aVgas
p2650
aVair
p2651
aVabsorb
p2652
aVcatalyst
p2653
aVlean
p2654
aVthree
p2655
asI6329017
(lp2656
Vmesopor
p2657
aVfilm
p2658
aVsilica
p2659
aVsurfact
p2660
aVdielectr
p2661
aVconstant
p2662
aVsolut
p2663
aVhydroxyl
p2664
aVdehydroxyl
p2665
aVspin
p2666
asI6040251
(lp2667
sI5098684
(lp2668
Vangstrom
p2669
aVhexagon
p2670
aVbenzen
p2671
aVgram
p2672
aVpore
p2673
aVcrystalin
p2674
aVcrystallin
p2675
aVsynthet
p2676
aVcapac
p2677
aV100
p2678
asI5743084
(lp2679
Vtrap
p2680
aVsub
p2681
aVlean
p2682
aVpurg
p2683
aVhego
p2684
aVcruis
p2685
aVrich
p2686
aVtime
p2687
aVperform
p2688
aVsulfur
p2689
asI5383870
(lp2690
Vtopsheet
p2691
aVpassageway
p2692
aVliquid
p2693
aVabsorpt
p2694
aVgood
p2695
aVwill
p2696
aVnonwoven
p2697
aVblown
p2698
aVfeel
p2699
aVfluid
p2700
asI7225535
(lp2701
Vsensor
p2702
aVelectrod
p2703
aVelectrochem
p2704
aVcoulometri
p2705
aVpotentiometri
p2706
aVamperometri
p2707
aVlactat
p2708
aVbiomolecul
p2709
aVwork
p2710
aVsampl
p2711
asI6375910
(lp2712
Vcatalyt
p2713
aVzone
p2714
aVabout
p2715
aVsup
p2716
aVtrap
p2717
aVmetal
p2718
aVamount
p2719
aVcompon
p2720
aVrefractori
p2721
aVsorbent
p2722
asI5352480
(lp2723
Vbinder
p2724
aVfiber
p2725
aVparticl
p2726
aVbound
p2727
aVbond
p2728
aVfunction
p2729
aVpolymer
p2730
aVcoval
p2731
aVhydrogen
p2732
aVglycol
p2733
asI5437653
(lp2734
Vcoapertur
p2735
aVlayer
p2736
aVabsorb
p2737
aVarticl
p2738
aVpore
p2739
aVmens
p2740
aVdenier
p2741
aVfirst
p2742
aVapertur
p2743
aVfiner
p2744
asI5545156
(lp2745
sI7070405
(lp2746
Vimprint
p2747
aVlithographi
p2748
aVtemplat
p2749
aVcurabl
p2750
aVlight
p2751
aVsubstrat
p2752
aVactiv
p2753
aVsystem
p2754
aValign
p2755
aVliquid
p2756
asI4790982
(lp2757
Vmetal
p2758
aVsulfur
p2759
aVspinel
p2760
aVvalenc
p2761
aVoxid
p2762
aVsulfat
p2763
aVminor
p2764
aVdioxid
p2765
aVpromot
p2766
aVreduct
p2767
asI7559367
(lp2768
Vconduit
p2769
aVelectr
p2770
aVconductor
p2771
aVcurrent
p2772
aVformat
p2773
aVflow
p2774
aVsubstanti
p2775
aVheat
p2776
aVnear
p2777
aVinsid
p2778
asI7559368
(lp2779
Vinject
p2780
aVfluid
p2781
aVnahcolit
p2782
aVformat
p2783
aVwell
p2784
aVinterconnect
p2785
aVhydrocarbon
p2786
aVleast
p2787
aVshale
p2788
aVproduc
p2789
asI7375049
(lp2790
Vcatalyst
p2791
aVmetal
p2792
aVdehydrogen
p2793
aVsuitabl
p2794
aVsupport
p2795
aVleast
p2796
aVmateri
p2797
aVplatinum
p2798
aVoverlay
p2799
aVsubstanti
p2800
asI5362378
(lp2801
Vlube
p2802
aVtropsch
p2803
aVfischer
p2804
aVheavi
p2805
aVhydroisomer
p2806
aVcetan
p2807
aVdewax
p2808
aVdehydrogen
p2809
aVparaffin
p2810
aVhigh
p2811
asI6602955
(lp2812
Vdispers
p2813
aVion
p2814
aVsensit
p2815
aVwater
p2816
aVpolym
p2817
aVbinder
p2818
aVtheir
p2819
aVpresent
p2820
aVdirect
p2821
aVapplic
p2822
asI4686029
(lp2823
Vtitanoaluminosil
p2824
aVdewax
p2825
aVfeedstock
p2826
aVhydrocarbon
p2827
aVcatalyst
p2828
aVpour
p2829
aVinstant
p2830
aVprocess
p2831
aVcharacter
p2832
aVnovel
p2833
asI7931086
(lp2834
Vheat
p2835
aVconduit
p2836
aVsubsurfac
p2837
aVformat
p2838
aVseal
p2839
aVtransfer
p2840
aVvapor
p2841
aVfluid
p2842
aVliquid
p2843
aVsourc
p2844
asI6753454
(lp2845
Velectrospin
p2846
aVfiber
p2847
aVhomogen
p2848
aVpolym
p2849
aVdress
p2850
aVdiscos
p2851
aVelectrospun
p2852
aVwound
p2853
aVsubstanti
p2854
aVsolut
p2855
asI7062904
(lp2856
Vparticul
p2857
aVnox
p2858
aVexhaust
p2859
aVadsorb
p2860
aVfilter
p2861
aVammonia
p2862
aVscr
p2863
aVnofor
p2864
aVcatalyst
p2865
aVregener
p2866
asI5407442
(lp2867
Vcarbon
p2868
aVparticl
p2869
aVodor
p2870
aVlighter
p2871
aVcatameni
p2872
aVmalodor
p2873
aVbandag
p2874
aVcomposit
p2875
aVcolor
p2876
aVdiaper
p2877
asI6812372
(lp2878
Vsilicoaluminophosph
p2879
aVsiev
p2880
aVintergrown
p2881
aVaei
p2882
aVcha
p2883
aVmolecular
p2884
aVdiffax
p2885
aVphase
p2886
aVmethanol
p2887
aVcalcin
p2888
asI4629717
(lp2889
Vphosphorus
p2890
aValumina
p2891
aVmodifi
p2892
aVhydrosol
p2893
aVcomposit
p2894
aVhydrogel
p2895
aVsol
p2896
aV450
p2897
aVgell
p2898
aV140
p2899
asI5161686
(lp2900
Vodor
p2901
aVweb
p2902
aVabsorb
p2903
aVparticul
p2904
aValkalin
p2905
aVmateri
p2906
aVbind
p2907
aVslurri
p2908
aVporous
p2909
aVpackag
p2910
asI7744727
(lp2911
Vdistil
p2912
aVcolumn
p2913
aVfluid
p2914
aVmash
p2915
aVethanol
p2916
aVpurifi
p2917
aVlast
p2918
aVfirst
p2919
aVmembran
p2920
aVfed
p2921
asI5415640
(lp2922
Vmateri
p2923
aVbodysid
p2924
aVrewet
p2925
aVcover
p2926
aVabsorb
p2927
aVfluid
p2928
aVarticl
p2929
aVprincip
p2930
aVnonperfor
p2931
aVbicompon
p2932
asI6732507
(lp2933
Vadsorb
p2934
aVsub
p2935
aVlean
p2936
aVaftertreat
p2937
aVengin
p2938
aVcombust
p2939
aVburn
p2940
aVnox
p2941
aVmode
p2942
aVsynergist
p2943
asI7831133
(lp2944
Vheater
p2945
aVsubsurfac
p2946
aVwye
p2947
aVelectr
p2948
aVconductor
p2949
aVsheath
p2950
aVthird
p2951
aVcoupl
p2952
aVinsul
p2953
aVheat
p2954
asI5958367
(lp2955
Vmetal
p2956
aVoxid
p2957
aVmesopor
p2958
aVhexagon
p2959
aVsurfact
p2960
aVpack
p2961
aVmicropor
p2962
aVcomposit
p2963
aVpore
p2964
aVmesostructur
p2965
asI7683296
(lp2966
Vheater
p2967
aVcuri
p2968
aVtemperatur
p2969
aVsection
p2970
aV740
p2971
aVherein
p2972
aVsubsurfac
p2973
aVdescrib
p2974
aVcobalt
p2975
aViron
p2976
asI5547745
(lp2977
Vbinder
p2978
aVbond
p2979
aVfiber
p2980
aVhydrogen
p2981
aVparticl
p2982
aVcoval
p2983
aVcoordin
p2984
aVadher
p2985
aVgroup
p2986
aVfunction
p2987
asI7056840
(lp2988
Vorganosil
p2989
aVnanopor
p2990
aVporogen
p2991
aVlayer
p2992
aVmateri
p2993
aVpattern
p2994
aVsolubl
p2995
aVsolvent
p2996
aVenergi
p2997
aVdecompos
p2998
asI5973221
(lp2999
Vwound
p3000
aVlayer
p3001
aVfoam
p3002
aVdress
p3003
aVpermeabl
p3004
aVmoistur
p3005
aVbarrier
p3006
aVmoist
p3007
aVback
p3008
aVfilm
p3009
asI6329062
(lp3010
Vsilicalit
p3011
aVbinder
p3012
aVporous
p3013
aVnanocryst
p3014
aVslurri
p3015
aVprecursor
p3016
aVmateri
p3017
aVspincoat
p3018
aVdielectr
p3019
aVpolymer
p3020
asI5795559
(lp3021
Vmesostructur
p3022
aVsurfact
p3023
aVinorgan
p3024
aVoxid
p3025
aVtemplat
p3026
aVdegre
p3027
aVambient
p3028
aVporous
p3029
aVsolvent
p3030
aVmesopor
p3031
asI5880552
(lp3032
Vdiamond
p3033
aVcoat
p3034
aVbioselect
p3035
aVnsor
p3036
aVchemoselect
p3037
aVchemic
p3038
aVcarbon
p3039
aVbiochem
p3040
aVinsensit
p3041
aVprotect
p3042
asI6592745
(lp3043
Vsensor
p3044
aVleachabl
p3045
aVbiomolecul
p3046
aVdiffus
p3047
aVmediat
p3048
aVanalyt
p3049
aVcoulometri
p3050
aVpotentiometri
p3051
aVamperometri
p3052
aVelectrooxid
p3053
asI6509290
(lp3054
Vattrit
p3055
aVcatalyst
p3056
aVsiev
p3057
aVparticl
p3058
aVmolecular
p3059
aVvirgin
p3060
aVreaction
p3061
aVfeedstock
p3062
aVbenefici
p3063
aVconstraint
p3064
asI6315815
(lp3065
Vfuel
p3066
aVoxygen
p3067
aVmembran
p3068
aVdeoxygen
p3069
aVfilter
p3070
aVpolytetraflouroethylen
p3071
aVtypic
p3072
aVppm
p3073
aVexclud
p3074
aVliquid
p3075
asI5096684
(lp3076
Vsiev
p3077
aVsilicoaluminophosph
p3078
aVmolecular
p3079
aVprecursor
p3080
aVsynthesi
p3081
aVautogen
p3082
aVhydrofluor
p3083
aVgtoreq
p3084
aVcalcin
p3085
aVphosphorus
p3086
asI6090989
(lp3087
Vbranch
p3088
aVpercentag
p3089
aVbasestock
p3090
aVhydrocarbon
p3091
aVisoparaffin
p3092
aVlube
p3093
aVcarbon
p3094
aVrecur
p3095
aVparaffin
p3096
aVmethylen
p3097
asI6928806
(lp3098
Vscr
p3099
aVcatalyst
p3100
aVparticul
p3101
aVnox
p3102
aVfilter
p3103
aVtailpip
p3104
aVaftertreat
p3105
aVdue
p3106
aVsystem
p3107
aVlean
p3108
asI5429629
(lp3109
Vsurg
p3110
aVmanag
p3111
aVabsorb
p3112
aVretent
p3113
aVportion
p3114
aVliquid
p3115
aVarticl
p3116
aVuptak
p3117
aVdesorb
p3118
aVstore
p3119
asI5315824
(lp3120
Vadsorb
p3121
aVexhaust
p3122
aVcatalyst
p3123
aVwarm
p3124
aVgas
p3125
aVperiod
p3126
aVoxid
p3127
aVcold
p3128
aVconduit
p3129
aVflow
p3130
asI6568177
(lp3131
Vfuel
p3132
aVpurg
p3133
aVcontrol
p3134
aVengin
p3135
aVlean
p3136
aVair
p3137
aVcatalyst
p3138
aVcylind
p3139
aVemiss
p3140
aVvapor
p3141
asI7785427
(lp3142
Valloy
p3143
aVmetal
p3144
aVstrength
p3145
aVleast
p3146
aVheater
p3147
aVherein
p3148
aVpartial
p3149
aVniobium
p3150
aVhigh
p3151
aVcanist
p3152
asI7052532
(lp3153
Vfilter
p3154
aVabout
p3155
aVnanoparticl
p3156
aV10mand
p3157
aVmedia
p3158
aVdiesel
p3159
aVnanofilt
p3160
aVmpr
p3161
aV10m
p3162
aVexhaust
p3163
asI5127925
(lp3164
Vmixtur
p3165
aVpermeabl
p3166
aVfluid
p3167
aVmembran
p3168
aVadsorb
p3169
aVfeed
p3170
aVcoeffici
p3171
aVproport
p3172
aVmatrix
p3173
aVmix
p3174
asI6742774
(lp3175
Vgas
p3176
aVliquid
p3177
aVemuls
p3178
aVreaction
p3179
aVreactor
p3180
aVcylindr
p3181
aVoppos
p3182
aVpassag
p3183
aVprocess
p3184
aVinterfaci
p3185
asI6271273
(lp3186
Vpolysilica
p3187
aVorgano
p3188
aVporous
p3189
aVdielectr
p3190
aVmateri
p3191
aVdisclos
p3192
aVconstant
p3193
aVelectron
p3194
aVmanufactur
p3195
aVprepar
p3196
asI5349113
(lp3197
Vselectiv
p3198
aVpreselectiv
p3199
aVconvers
p3200
aVactiv
p3201
aVconcurr
p3202
aVhydrocarbon
p3203
aVpre
p3204
aVdisproportion
p3205
aVshape
p3206
aVcatalyst
p3207
asI4921594
(lp3208
Vsapo
p3209
aVlubric
p3210
aVsilicoaluminophosph
p3211
aVdewax
p3212
aVoil
p3213
aVhydrocarbonac
p3214
aVhydrocrack
p3215
aVpalladium
p3216
aVfeedstock
p3217
aVplatinum
p3218
asI5095163
(lp3219
Vsapo
p3220
aVmethanol
p3221
aVcatalyst
p3222
aVolefin
p3223
aVsilicoaluminophosph
p3224
aVhydrotherm
p3225
aVuntreat
p3226
aVparaffin
p3227
aV700
p3228
aVsiev
p3229
asI6592764
(lp3230
Vcopolym
p3231
aVmesoscop
p3232
aVmesostructur
p3233
aVoxid
p3234
aVblock
p3235
aVmesopor
p3236
aVhydrotherm
p3237
aVamphiphil
p3238
aVmetal
p3239
aVinorgan
p3240
asI6387453
(lp3241
Vinterstiti
p3242
aVsurfact
p3243
aVmesostructur
p3244
aVfilm
p3245
aVthin
p3246
aVtemplat
p3247
aVframework
p3248
aVevapor
p3249
aVdisord
p3250
aVmesophas
p3251
asI5609727
(lp3252
Vbinder
p3253
aVfiber
p3254
aVparticl
p3255
aVfunction
p3256
aVbond
p3257
aVfibrous
p3258
aVpolymer
p3259
aVbound
p3260
aVcoval
p3261
aVhydrogen
p3262
asI7730945
(lp3263
Vgeotherm
p3264
aVsubsurfac
p3265
aVheat
p3266
aVtreatment
p3267
aVformat
p3268
aVenergi
p3269
aVhydrocarbon
p3270
aVfluid
p3271
aVarea
p3272
aVtreat
p3273
asI7730946
(lp3274
Vdolomit
p3275
aVtar
p3276
aVformat
p3277
aVsand
p3278
aVhydrocarbon
p3279
aVsome
p3280
aVtreat
p3281
aVdecomposit
p3282
aVfluid
p3283
aVmay
p3284
asI7730947
(lp3285
Vtar
p3286
aVinject
p3287
aVsand
p3288
aVzone
p3289
aVfluid
p3290
aVformat
p3291
aVpermeabl
p3292
aVportion
p3293
aVhydrocarbon
p3294
aVtreat
p3295
asI5807364
(lp3296
Vionic
p3297
aVbond
p3298
aVhybrid
p3299
aVbinder
p3300
aVfiber
p3301
aVparticl
p3302
aVsalt
p3303
aVbind
p3304
aVcapabl
p3305
aVcholin
p3306
asI6265093
(lp3307
Vmethanol
p3308
aVfuel
p3309
aVcell
p3310
aVspecial
p3311
aVsiev
p3312
aVelectrod
p3313
aVsputter
p3314
aVimprov
p3315
aVextrem
p3316
aVformul
p3317
asI5911937
(lp3318
Vdesicc
p3319
aVpolym
p3320
aVagent
p3321
aVentrain
p3322
aVsolidifi
p3323
aVmixtur
p3324
aVmoistur
p3325
aVblend
p3326
aVchannel
p3327
aVmelt
p3328
asI5589256
(lp3329
Vfiber
p3330
aVbond
p3331
aVbinder
p3332
aVhydrogen
p3333
aVadher
p3334
aVcoval
p3335
aVparticl
p3336
aVdensifi
p3337
aVcoordin
p3338
aVbulk
p3339
asI5974793
(lp3340
Vexhaust
p3341
aVgas
p3342
aVlean
p3343
aVsub
p3344
aVcylind
p3345
aVcatalyst
p3346
aVfuel
p3347
aVratio
p3348
aVrich
p3349
aVair
p3350
asI6166282
(lp3351
Vzone
p3352
aVdisengag
p3353
aVdens
p3354
aVreaction
p3355
aVcatalyst
p3356
aVtransit
p3357
aVconvers
p3358
aVreactor
p3359
aVbed
p3360
aVphase
p3361
asI4752651
(lp3362
Volefin
p3363
aVfeedstock
p3364
aVlight
p3365
aVhetero
p3366
aVsiev
p3367
aVdiluent
p3368
aVzeolit
p3369
aValiphat
p3370
aVproduct
p3371
aVaromat
p3372
asI4686093
(lp3373
Vsiev
p3374
aVmolecular
p3375
aVsub
p3376
aVtetrahedr
p3377
aValo
p3378
aVempir
p3379
aVmicropor
p3380
aVanhydr
p3381
aVphosphorus
p3382
aVframework
p3383
asI5423181
(lp3384
Vfuel
p3385
aVair
p3386
aVratio
p3387
aVstoichiometr
p3388
aVabsorb
p3389
aVexhaust
p3390
aVsub
p3391
aVlean
p3392
aVrich
p3393
aVgas
p3394
asI5057296
(lp3395
Vcrystallin
p3396
aVbenzen
p3397
aVgram
p3398
aVpore
p3399
aVsynthes
p3400
aVcapac
p3401
aVmesopor
p3402
aVsorption
p3403
aVtorr
p3404
aVlarg
p3405
asI6017496
(lp3406
sI6682899
(lp3407
Vbioluminesc
p3408
aVbiominer
p3409
aVsynaps
p3410
aVinfecti
p3411
aValso
p3412
aVanalyt
p3413
aVdetect
p3414
aVbiolog
p3415
aVsynthet
p3416
aVidentif
p3417
asI6015764
(lp3418
sI5135638
(lp3419
Vsapo
p3420
aVang
p3421
aVzsm
p3422
aVisomer
p3423
aVcatalyst
p3424
aVabout
p3425
aVpore
p3426
aVviscos
p3427
aVlube
p3428
aVwaxi
p3429
asI6420441
(lp3430
Vporous
p3431
aVdielectr
p3432
aVmateri
p3433
aVdisclos
p3434
aVconstant
p3435
aVelectron
p3436
aVmanufactur
p3437
aVprepar
p3438
aVlow
p3439
aVintegr
p3440
asI6345496
(lp3441
Vcatalyst
p3442
aVexhaust
p3443
aVsub
p3444
aV10a
p3445
aVgas
p3446
aVengin
p3447
aVlean
p3448
aVrich
p3449
aVadsorb
p3450
aVinflow
p3451
asI6270846
(lp3452
Vinterstiti
p3453
aVporos
p3454
aVfilm
p3455
aVthin
p3456
aVsurfact
p3457
aVdielectr
p3458
aVconstant
p3459
aVtemplat
p3460
aVevapor
p3461
aVcompound
p3462
asI5750026
(lp3463
Vworkstream
p3464
aVcontamin
p3465
aVinlet
p3466
aVoutlet
p3467
aVdevic
p3468
aVfilter
p3469
aVporous
p3470
aVmulticellular
p3471
aVface
p3472
aVcell
p3473
asI5543215
(lp3474
sI6096668
(lp3475
Vlamin
p3476
aVnonwoven
p3477
aVsup
p3478
aVbarrier
p3479
aVspunbond
p3480
aVextens
p3481
aVweb
p3482
aVelast
p3483
aVloft
p3484
aVdensiti
p3485
asI6037281
(lp3486
sI6329139
(lp3487
Vautom
p3488
aVmemori
p3489
aVmicrovessel
p3490
aVmatric
p3491
aVencodabi
p3492
aVprotocol
p3493
aVmanual
p3494
aVdiscoveri
p3495
aVsort
p3496
aVcleaver
p3497
asI6576006
(lp3498
Vstent
p3499
aVremovabali
p3500
aVexpand
p3501
aVself
p3502
aVlumen
p3503
aVimplant
p3504
aVdeliveri
p3505
aVdeliv
p3506
aVpatient
p3507
aVintralumin
p3508
asI4440871
(lp3509
Vsilicoaluminophosph
p3510
aVclass
p3511
aVcrystallin
p3512
aVmolecular
p3513
aVhydrotherm
p3514
aVcrystal
p3515
aVsomewhat
p3516
aVmicropor
p3517
aVsiev
p3518
aVzeolit
p3519
asI5104425
(lp3520
Vmembran
p3521
aVadsorpt
p3522
aVadsorb
p3523
aVporous
p3524
aVprimari
p3525
aVsemiperm
p3526
aVmulticompon
p3527
aVpermeat
p3528
aVenrich
p3529
aVgas
p3530
asI5536555
(lp3531
Vquilt
p3532
aVfilm
p3533
aVundul
p3534
aVlamin
p3535
aVslit
p3536
aVcomposit
p3537
aVpucker
p3538
aVlayer
p3539
aVdue
p3540
aVplane
p3541
asI5711149
(lp3542
Vdiesel
p3543
aVfuel
p3544
aVexhaust
p3545
aVcatalyst
p3546
aVsuppli
p3547
aVfilter
p3548
aVoxid
p3549
aVregener
p3550
aVmust
p3551
aVpurifi
p3552
asI4861743
(lp3553
Vsiev
p3554
aVzeolit
p3555
aVmolecular
p3556
aVpentoxid
p3557
aVreactiv
p3558
aVphosphorus
p3559
aVnon
p3560
aValumina
p3561
aVsilica
p3562
aVsourc
p3563
asI5996338
(lp3564
Vexhaust
p3565
aVpurifi
p3566
aVcatalyst
p3567
aVadsorb
p3568
aVgas
p3569
aVtemperatur
p3570
aVsub
p3571
aVcapac
p3572
aVinflow
p3573
aVheater
p3574
asI7717171
(lp3575
Vhydrocarbon
p3576
aVportion
p3577
aVthird
p3578
aVformat
p3579
aVtar
p3580
aVfluid
p3581
aVsand
p3582
aVheater
p3583
aVfirst
p3584
aVheat
p3585
asI6310110
(lp3586
Vimprint
p3587
aVsupramolecular
p3588
aVsurfact
p3589
aVmonom
p3590
aVstructur
p3591
aVmolecular
p3592
aVgroup
p3593
aVtemplat
p3594
aVheadgroup
p3595
aVparticl
p3596
asI6618934
(lp3597
Vsensor
p3598
aVleachabl
p3599
aVbiomolecul
p3600
aVmediat
p3601
aVanalyt
p3602
aVcoulometri
p3603
aVpotentiometri
p3604
aVamperometri
p3605
aVelectrooxid
p3606
aVelectroreduct
p3607
asI5732554
(lp3608
Vcombust
p3609
aVengin
p3610
aVdiesel
p3611
aVexhaust
p3612
aVdomin
p3613
aVsub
p3614
aVgas
p3615
aVabsorb
p3616
aVpurif
p3617
aVratio
p3618
asI6047544
(lp3619
sI6654625
(lp3620
Vanalyt
p3621
aVsensor
p3622
aVsens
p3623
aVmass
p3624
aVvivo
p3625
aVmammal
p3626
aVtransport
p3627
aVlayer
p3628
aVedg
p3629
aVwork
p3630
asI5715679
(lp3631
Vsub
p3632
aVabsorb
p3633
aVexhaust
p3634
aVamount
p3635
aVpurif
p3636
aVengin
p3637
aVactual
p3638
aVestim
p3639
aVbasi
p3640
aVpassag
p3641
asI6713660
(lp3642
Vbiosensor
p3643
aVwearer
p3644
aVarticl
p3645
aVbodili
p3646
aVbio
p3647
aVanalyt
p3648
aVrecognit
p3649
aVdispos
p3650
aVbiolog
p3651
aVwast
p3652
asI6368374
(lp3653
Vfilter
p3654
aVflute
p3655
aVassembl
p3656
aVend
p3657
aVseal
p3658
aVmoistur
p3659
aVcircumscrib
p3660
aVhous
p3661
aVportion
p3662
aVfirst
p3663
asI6348085
(lp3664
Vfilter
p3665
aVflute
p3666
aVend
p3667
aVfirst
p3668
aVelement
p3669
aVcircumscrib
p3670
aVsleev
p3671
aVportion
p3672
aVsecond
p3673
aVarrang
p3674
asI5914433
(lp3675
Volefin
p3676
aVcrack
p3677
aValuminophosph
p3678
aVpropylen
p3679
aVoxygen
p3680
aVzone
p3681
aVbutylen
p3682
aVcatalyst
p3683
aVfeedstock
p3684
aVstream
p3685
asI6696258
(lp3686
Vmesopor
p3687
aVpore
p3688
aVsot
p3689
aVmateri
p3690
aVang
p3691
aVmatrix
p3692
aVoligonucl
p3693
aVgel
p3694
aVbiolog
p3695
aVpolyacid
p3696
asI6093636
(lp3697
Vcircuit
p3698
aVpolyarylen
p3699
aVdielectr
p3700
aVintegr
p3701
aVline
p3702
aVsubstrat
p3703
aVether
p3704
aViii
p3705
aVporous
p3706
aVmateri
p3707
asI6942518
(lp3708
Vanalyt
p3709
aVsensor
p3710
aVdetermin
p3711
aVcharg
p3712
aVcoulometri
p3713
aVpotentiometri
p3714
aVamperometri
p3715
aVamount
p3716
aVlactat
p3717
aVvolum
p3718
asI5437153
(lp3719
Vabsorb
p3720
aVsub
p3721
aVexhaust
p3722
aVengin
p3723
aVrich
p3724
aVfuel
p3725
aVratio
p3726
aVgas
p3727
aVair
p3728
aVestim
p3729
asI7631689
(lp3730
Vsulfur
p3731
aVformat
p3732
aVbarrier
p3733
aVdarci
p3734
aVsubsurfac
p3735
aVtreatment
p3736
aVwellbor
p3737
aVcooler
p3738
aVsolidifi
p3739
aVarea
p3740
asI7631690
(lp3741
Vzone
p3742
aVtreatment
p3743
aVtreat
p3744
aVspiral
p3745
aVbegin
p3746
aVformat
p3747
aVsuccess
p3748
aVmay
p3749
aVhydrocarbon
p3750
aVprevious
p3751
asI5751629
(lp3752
Vmatrix
p3753
aVmacromolecul
p3754
aVmemori
p3755
aVbiolog
p3756
aVcombin
p3757
aVimmunoassay
p3758
aVmolecul
p3759
aVelectroniclli
p3760
aVmatric
p3761
aVremot
p3762
asI7673681
(lp3763
Vkarst
p3764
aVtar
p3765
aVsand
p3766
aVformat
p3767
aVzone
p3768
aVmobil
p3769
aVtreat
p3770
aVmore
p3771
aVfluid
p3772
aVmay
p3773
asI7604052
(lp3774
Vsubsurfac
p3775
aVformat
p3776
aVparticl
p3777
aVcenospher
p3778
aVheat
p3779
aVsitu
p3780
aVproduc
p3781
aVhydrocarbon
p3782
aVmicromet
p3783
aVtreatment
p3784
asI5789326
(lp3785
Vbinder
p3786
aVbond
p3787
aVfiber
p3788
aVhydrogen
p3789
aVparticl
p3790
aVcoval
p3791
aVcoordin
p3792
aVadher
p3793
aVgroup
p3794
aVfunction
p3795
asI6461496
(lp3796
Vleachabl
p3797
aVsensor
p3798
aVbiomolecul
p3799
aVredox
p3800
aVdiffus
p3801
aVmediat
p3802
aVanalyt
p3803
aVcoulometri
p3804
aVpotentiometri
p3805
aVamperometri
p3806
asI6832473
(lp3807
Vadsorb
p3808
aVvalv
p3809
aVparticul
p3810
aVreform
p3811
aVfilter
p3812
aVsub
p3813
aVcatalyst
p3814
aVregener
p3815
aVoxid
p3816
aVdownstream
p3817
asI5473887
(lp3818
sI6225243
(lp3819
Vcompon
p3820
aVpolymer
p3821
aVstrand
p3822
aVnonwoven
p3823
aVweb
p3824
aVelast
p3825
aVzone
p3826
aVsticki
p3827
aVsecond
p3828
aVovercom
p3829
asI7793722
(lp3830
Voverburden
p3831
aVheater
p3832
aVwellbor
p3833
aVferromagnet
p3834
aVsubsurfac
p3835
aVcase
p3836
aVformat
p3837
aVinsul
p3838
aVdescrib
p3839
aVnon
p3840
asI5865824
(lp3841
Varticl
p3842
aVabsorb
p3843
aVwet
p3844
aVstructur
p3845
aVbulk
p3846
aVself
p3847
aVunusu
p3848
aVdiaper
p3849
aVhigh
p3850
aVdens
p3851
asI5331809
(lp3852
Vcours
p3853
aVrise
p3854
aVcatalyst
p3855
aVexhaust
p3856
aVpurif
p3857
aVtemperatur
p3858
aVengin
p3859
aVgas
p3860
aVoxid
p3861
aVnitrogen
p3862
asI6103099
(lp3863
sI5714662
(lp3864
Voxygen
p3865
aVproduct
p3866
aVmethanol
p3867
aVzone
p3868
aVolefin
p3869
aVcost
p3870
aVcatalyst
p3871
aVoctan
p3872
aVlight
p3873
aVcrude
p3874
asI7587287
(lp3875
Vati
p3876
aVadaptor
p3877
aVdmd
p3878
aVdata
p3879
aVwireless
p3880
aVtransfer
p3881
aVdownload
p3882
aVanalyt
p3883
aVconnect
p3884
aVmicroprocessor
p3885
asI6548113
(lp3886
Vreactor
p3887
aVdehydroxyl
p3888
aVmesopor
p3889
aVsilyl
p3890
aVhot
p3891
aVvacuum
p3892
aValkyl
p3893
aVtreat
p3894
aVphase
p3895
aVchamber
p3896
asI6900881
(lp3897
Vimprint
p3898
aVlithographi
p3899
aVtemplat
p3900
aVcurabl
p3901
aVlight
p3902
aVactiv
p3903
aVsubstrat
p3904
aVsystem
p3905
aVliquid
p3906
aVconfigur
p3907
asI6383466
(lp3908
Vdehydroxyl
p3909
aVgas
p3910
aVexposur
p3911
aVhydroxyl
p3912
aVsilica
p3913
aVmesopor
p3914
aVsilicon
p3915
aVembodi
p3916
aVsoak
p3917
aVorgan
p3918
asI4973792
(lp3919
Vfeedstock
p3920
aVcatalyt
p3921
aVconvers
p3922
aVchemic
p3923
aVprocess
p3924
aVconvert
p3925
aVproduct
p3926
aVinto
p3927
aVcompris
p3928
aVwhich
p3929
asI5643240
(lp3930
Vnonwoven
p3931
aVcare
p3932
aVlofti
p3933
aVrewet
p3934
aVperson
p3935
aVabsorb
p3936
aVarticl
p3937
aVapertur
p3938
aVnapkin
p3939
aVsanitari
p3940
asI5605746
(lp3941
Vparticul
p3942
aVfibrous
p3943
aVmicrofib
p3944
aVstructur
p3945
aVfiber
p3946
aVweb
p3947
aVmatrix
p3948
aVtortuous
p3949
aVcomposit
p3950
aVnylon
p3951
asI6596467
(lp3952
Vporogen
p3953
aVelectron
p3954
aVmanufactur
p3955
aVmateri
p3956
aVdielectr
p3957
aVconstant
p3958
aVprepar
p3959
aVdevic
p3960
aVlow
p3961
aVintegr
p3962
asI6916585
(lp3963
Vimprint
p3964
aValign
p3965
aVtemplat
p3966
aVlithographi
p3967
aVdure
p3968
aVcorrect
p3969
aVlithograph
p3970
aVprocess
p3971
aVsubstrat
p3972
aVdetermin
p3973
asI5514104
(lp3974
Vpad
p3975
aVabsorb
p3976
aVflap
p3977
aVcurv
p3978
aVinevit
p3979
aVcrotch
p3980
aVincontin
p3981
aVurinari
p3982
aVergonom
p3983
aVurin
p3984
asI5589396
(lp3985
Vchemic
p3986
aVsteric
p3987
aVporos
p3988
aVspeci
p3989
aVproperti
p3990
aVcoat
p3991
aVtailor
p3992
aVselect
p3993
aVwherea
p3994
aVpore
p3995
asI5198203
(lp3996
Vcrystallin
p3997
aVbenzen
p3998
aVgram
p3999
aVsynthet
p4000
aVcapac
p4001
aVmesopor
p4002
aVsorption
p4003
aVnew
p4004
aVtorr
p4005
aVsorbent
p4006
asI5614570
(lp4007
Vfiber
p4008
aVbond
p4009
aVbinder
p4010
aVhydrogen
p4011
aVadher
p4012
aVcoval
p4013
aVdensifi
p4014
aVparticl
p4015
aVcoordin
p4016
aVbulk
p4017
asI7677310
(lp4018
Vformat
p4019
aVtar
p4020
aVsand
p4021
aVhydrocarbon
p4022
aVcap
p4023
aVtreat
p4024
aVgas
p4025
aVupper
p4026
aVportion
p4027
aVheater
p4028
asI6975893
(lp4029
Vanalyt
p4030
aVsensor
p4031
aVsens
p4032
aVmass
p4033
aVvivo
p4034
aVmammal
p4035
aVtransport
p4036
aVlayer
p4037
aVedg
p4038
aVwork
p4039
asI4826497
(lp4040
Vdeodor
p4041
aVabsorb
p4042
aVfibrous
p4043
aVunderwear
p4044
aVcatameni
p4045
aVarticl
p4046
aVbandag
p4047
aVproperti
p4048
aVangstrom
p4049
aVincontin
p4050
asI7677314
(lp4051
Vformat
p4052
aVtar
p4053
aVheater
p4054
aVsand
p4055
aVcondens
p4056
aVvapor
p4057
aVmay
p4058
aVtreat
p4059
aVwater
p4060
aVportion
p4061
asI5151110
(lp4062
Vnanogram
p4063
aVsensor
p4064
aVchemic
p4065
aVsiev
p4066
aVselect
p4067
aVlevel
p4068
aVentiti
p4069
aVdetect
p4070
aVmolecular
p4071
aVeven
p4072
asI6560958
(lp4073
Vcatalyst
p4074
aVemiss
p4075
aVabat
p4076
aVabsorb
p4077
aVgas
p4078
aVfuel
p4079
aVplasmatron
p4080
aVplasma
p4081
aVprefer
p4082
aVreduc
p4083
asI5538697
(lp4084
Vadsorb
p4085
aVhoneycomb
p4086
aVcatalyst
p4087
aVexhaust
p4088
aVgas
p4089
aVpurif
p4090
aVlayer
p4091
aVstructur
p4092
aVsupport
p4093
aVflow
p4094
asI6014859
(lp4095
sI6068620
(lp4096
Vabsorb
p4097
aVgarment
p4098
aVinsult
p4099
aVlayer
p4100
aVtopsheet
p4101
aVbacksheet
p4102
aVsuperabsorb
p4103
aVcore
p4104
aVfibrous
p4105
aVairlaid
p4106
asI6735938
(lp4107
Vfuel
p4108
aVpurg
p4109
aVcontrol
p4110
aVengin
p4111
aVlean
p4112
aVair
p4113
aVcylind
p4114
aVoper
p4115
aVemiss
p4116
aVvapor
p4117
asI7591310
(lp4118
Vhydrotr
p4119
aVstream
p4120
aVclog
p4121
aVliquid
p4122
aVsitu
p4123
aVtreatment
p4124
aVheat
p4125
aVremov
p4126
aVformat
p4127
aVproduc
p4128
asI6921615
(lp4129
Vimprint
p4130
aValign
p4131
aVlithographi
p4132
aVtemplat
p4133
aVcorrect
p4134
aVlithograph
p4135
aVoverlay
p4136
aVprocess
p4137
aVsubstrat
p4138
aVdure
p4139
asI4824976
(lp4140
Vepoxid
p4141
aVolefin
p4142
aVcompound
p4143
aVzeolit
p4144
aVperoxid
p4145
aVtitanium
p4146
aVsynthet
p4147
aVsubstanc
p4148
aVreact
p4149
aVatom
p4150
asI6617490
(lp4151
Vmold
p4152
aVweb
p4153
aVairlaid
p4154
aVhump
p4155
aVarticl
p4156
aVenergi
p4157
aVabsorb
p4158
aVimprov
p4159
aVfit
p4160
aVcentral
p4161
asI7640980
(lp4162
Vsubsurfac
p4163
aVformat
p4164
aVhydrocarbon
p4165
aVheat
p4166
aVheater
p4167
aVpyrolyz
p4168
aVmay
p4169
aVsome
p4170
aVmore
p4171
aVprocess
p4172
asI7581589
(lp4173
Vstream
p4174
aValkyl
p4175
aVgas
p4176
aVhydrocarbon
p4177
aVproduc
p4178
aVsitu
p4179
aVolefin
p4180
aVliquid
p4181
aVformat
p4182
aVsubsurfac
p4183
asI5741462
(lp4184
Vmatrix
p4185
aVmacromolecul
p4186
aVmemori
p4187
aVcombin
p4188
aVmatric
p4189
aVremot
p4190
aVbiolog
p4191
aVprogramm
p4192
aVmolecul
p4193
aVphage
p4194
asI7860377
(lp4195
Vheater
p4196
aVsubsurfac
p4197
aVexpos
p4198
aVformat
p4199
aVelong
p4200
aVopen
p4201
aVfirst
p4202
aVportion
p4203
aVsection
p4204
aVbelow
p4205
asI5733272
(lp4206
Vscent
p4207
aVodor
p4208
aVperfum
p4209
aVpantilin
p4210
aVcatameni
p4211
aVunderarm
p4212
aVpleasant
p4213
aVarticl
p4214
aVcyclodextrin
p4215
aVmicrocapsul
p4216
asI5019263
(lp4217
Vmembran
p4218
aVsiev
p4219
aVmolecular
p4220
aVmicropor
p4221
aVnon
p4222
aVpure
p4223
aVgaseous
p4224
aVcrystallin
p4225
aVcatalyt
p4226
aVsynthet
p4227
asI5622684
(lp4228
Vmesostructur
p4229
aVpore
p4230
aVsurfact
p4231
aVinorgan
p4232
aVlarg
p4233
aVoxid
p4234
aVsunburst
p4235
aVtemplat
p4236
aVdegre
p4237
aVambient
p4238
asI4554143
(lp4239
Vferroaluminophosph
p4240
aVcrystallin
p4241
aVtetrahedr
p4242
aVhydrotherm
p4243
aValo
p4244
aVferric
p4245
aVmicropor
p4246
aVferrous
p4247
aVsub
p4248
aVlattic
p4249
asI5992142
(lp4250
Vzone
p4251
aVexhaust
p4252
aVlayer
p4253
aVengin
p4254
aVnobl
p4255
aVsub
p4256
aVlean
p4257
aVdiesel
p4258
aVstorag
p4259
aVgamma
p4260
asI7832484
(lp4261
Vsubsurfac
p4262
aVconduit
p4263
aVformat
p4264
aVheat
p4265
aVconductor
p4266
aVfluid
p4267
aVinsul
p4268
aVsalt
p4269
aVmateri
p4270
aVtransfer
p4271
asI5771685
(lp4272
Vtrap
p4273
aVsub
p4274
aVlean
p4275
aVpurg
p4276
aVhego
p4277
aVcruis
p4278
aVrich
p4279
aVtime
p4280
aVperform
p4281
aVsulfur
p4282
asI7912358
(lp4283
Vheater
p4284
aVtransform
p4285
aVintermitt
p4286
aVpower
p4287
aVsubsurfac
p4288
aVsourc
p4289
aVtap
p4290
aVherein
p4291
aVdescrib
p4292
aVmay
p4293
asI4310440
(lp4294
Valuminophosph
p4295
aVcrystallin
p4296
aVmicropor
p4297
aVmolecular
p4298
aVsiev
p4299
aVfamili
p4300
aVmetallophosph
p4301
aVintracrystallin
p4302
aVadsorb
p4303
aVspeci
p4304
asI5547541
(lp4305
Vdensifi
p4306
aVfiber
p4307
aVagent
p4308
aVsoften
p4309
aVdensif
p4310
aVbound
p4311
aVdenser
p4312
aVappli
p4313
aVproperti
p4314
aVpresenc
p4315
asI4859311
(lp4316
Vsilicoaluminophosph
p4317
aVdewax
p4318
aVsiev
p4319
aVfeedstock
p4320
aVcatalyt
p4321
aVmolecular
p4322
aVcatalyst
p4323
aVviii
p4324
aVpore
p4325
aVhydrocarbon
p4326
asI6518194
(lp4327
Vtransfer
p4328
aVintermedi
p4329
aVnanoscal
p4330
aVlayer
p4331
aVetch
p4332
aVsubstrat
p4333
aVnanostructur
p4334
aVhole
p4335
aVpattern
p4336
aVtemplat
p4337
asI8027571
(lp4338
Vheater
p4339
aVformat
p4340
aVtwo
p4341
aVleast
p4342
aVportion
p4343
aVregion
p4344
aVsubstanti
p4345
aVthem
p4346
aVappli
p4347
aVconfigur
p4348
asI5595060
(lp4349
Vnitrogen
p4350
aVengin
p4351
aVcatalyt
p4352
aVoxid
p4353
aVcombust
p4354
aVadsorb
p4355
aVdeterior
p4356
aVexhaust
p4357
aVlean
p4358
aVpurifi
p4359
asI5019062
(lp4360
Vbicompon
p4361
aVgase
p4362
aVpass
p4363
aVliquid
p4364
aVmateri
p4365
aVlamina
p4366
aVbodili
p4367
aVdeal
p4368
aVodor
p4369
aVopposit
p4370
asI5735119
(lp4371
Vsub
p4372
aVabsorb
p4373
aVexhaust
p4374
aVrich
p4375
aVdeterior
p4376
aVpurif
p4377
aVengin
p4378
aVfuel
p4379
aVpassag
p4380
aVsensor
p4381
asI7673786
(lp4382
Vshield
p4383
aVinert
p4384
aVportion
p4385
aVheater
p4386
aVweld
p4387
aVconfigur
p4388
aVend
p4389
aVgas
p4390
aVdoor
p4391
aVhing
p4392
asI6111163
(lp4393
sI5435836
(lp4394
Vmembran
p4395
aVhydrogen
p4396
aVadsorb
p4397
aVadsorpt
p4398
aVswing
p4399
aVpressur
p4400
aVenrich
p4401
aVfeed
p4402
aVnonperm
p4403
aVrecoveri
p4404
asI6165949
(lp4405
Vdialkyldithiophosph
p4406
aVantiwear
p4407
aVstock
p4408
aVmetal
p4409
aVpremium
p4410
aVtropsch
p4411
aVfischer
p4412
aVethoxyl
p4413
aVlubric
p4414
aVsynthet
p4415
asI4269813
(lp4416
Vborosil
p4417
aVcrystallin
p4418
aVsiev
p4419
aVmole
p4420
aVterm
p4421
aVmolecular
p4422
aVnew
p4423
aVratio
p4424
aVoxid
p4425
aVfollow
p4426
asI6871489
(lp4427
Vdpf
p4428
aVnox
p4429
aVexhaust
p4430
aVstream
p4431
aVdiesel
p4432
aVenter
p4433
aVheat
p4434
aVreduc
p4435
aVparticul
p4436
aVemiss
p4437
asI7849922
(lp4438
Vsection
p4439
aVformat
p4440
aVhydrocarbon
p4441
aVheat
p4442
aVheater
p4443
aVresidu
p4444
aVfirst
p4445
aVtar
p4446
aVsolvat
p4447
aVtransfer
p4448
asI6736121
(lp4449
Vpurg
p4450
aVengin
p4451
aVfuel
p4452
aVcontrol
p4453
aVignit
p4454
aVcylind
p4455
aVemiss
p4456
aVair
p4457
aVgroup
p4458
aVvapor
p4459
asI6932934
(lp4460
Vcurabl
p4461
aVtemplat
p4462
aVimprint
p4463
aVlithographi
p4464
aVliquid
p4465
aVsubstrat
p4466
aVpattern
p4467
aVshallow
p4468
aVgather
p4469
aVdiscontinu
p4470
asI5135521
(lp4471
Vliner
p4472
aVlayer
p4473
aVnapkin
p4474
aVpassageway
p4475
aVouter
p4476
aVsanitari
p4477
aVliquid
p4478
aVabsorb
p4479
aVwettabl
p4480
aVwill
p4481
asI5332424
(lp4482
Vadsorb
p4483
aVmembran
p4484
aVcompon
p4485
aVpermeat
p4486
aVadsorpt
p4487
aVsecondari
p4488
aVpsa
p4489
aVproduct
p4490
aVzone
p4491
aVenrich
p4492
asI5387209
(lp4493
Vtopsheet
p4494
aVabsorb
p4495
aVfibr
p4496
aVmeshi
p4497
aVsaid
p4498
aVarticl
p4499
aVcore
p4500
aVpassag
p4501
aVfig
p4502
aVfluid
p4503
asI7798220
(lp4504
Vhydrocarbon
p4505
aVtar
p4506
aVformat
p4507
aVsand
p4508
aVsome
p4509
aVlayer
p4510
aVdrive
p4511
aVproduc
p4512
aVtreatment
p4513
aVupgrad
p4514
asI7798221
(lp4515
Vformat
p4516
aVhydrocarbon
p4517
aVpyrolysi
p4518
aVcondens
p4519
aVmay
p4520
aVsitu
p4521
aVrais
p4522
aVtemperatur
p4523
aVoil
p4524
aVshale
p4525
asI6429261
(lp4526
Vdispers
p4527
aVion
p4528
aVsensit
p4529
aVwater
p4530
aVpolym
p4531
aVbinder
p4532
aVtheir
p4533
aVpresent
p4534
aVdirect
p4535
aVapplic
p4536
asI7176144
(lp4537
Vsilanol
p4538
aVporogen
p4539
aVdielectr
p4540
aVcap
p4541
aVmatrix
p4542
aVdetempl
p4543
aVplasma
p4544
aVsequenti
p4545
aVlow
p4546
aVconcurr
p4547
asI7106513
(lp4548
Vgrate
p4549
aVdiffract
p4550
aVparticl
p4551
aVincid
p4552
aVillumin
p4553
aVsignal
p4554
aVsubstrat
p4555
aVencod
p4556
aVoptic
p4557
aVresult
p4558
asI7562706
(lp4559
Vhydrocarbon
p4560
aVdrainag
p4561
aVtar
p4562
aVheater
p4563
aVformat
p4564
aVsand
p4565
aVheat
p4566
aVpartial
p4567
aVconverg
p4568
aVpath
p4569
asI7562707
(lp4570
Vsection
p4571
aVhydrocarbon
p4572
aVheat
p4573
aVfirst
p4574
aVheater
p4575
aVformat
p4576
aVmobil
p4577
aVsecond
p4578
aVmay
p4579
aVsome
p4580
asI6049017
(lp4581
sI6121170
(lp4582
Vwater
p4583
aVdispers
p4584
aVsensit
p4585
aVproduct
p4586
aVflushabl
p4587
aVfeminin
p4588
aVnapkin
p4589
aVcomposit
p4590
aVfiber
p4591
aVthermoform
p4592
asI7703513
(lp4593
Vbarrier
p4594
aVwax
p4595
aVformat
p4596
aVcongeal
p4597
aVintroduc
p4598
aVsubsurfac
p4599
aVwellbor
p4600
aVsitu
p4601
aVmore
p4602
aVmateri
p4603
asI5300192
(lp4604
Vbinder
p4605
aVfiber
p4606
aVfunction
p4607
aVbond
p4608
aVparticl
p4609
aVpolymer
p4610
aVbound
p4611
aVcoval
p4612
aVlaid
p4613
aVhydrogen
p4614
asI6161378
(lp4615
Vexhaust
p4616
aVgas
p4617
aVagent
p4618
aVstoichiometr
p4619
aVsub
p4620
aVreduc
p4621
aVadsorb
p4622
aVpurif
p4623
aVgaseous
p4624
aVengin
p4625
asI5693411
(lp4626
Vbinder
p4627
aVfiber
p4628
aVparticl
p4629
aVsolubl
p4630
aVbond
p4631
aVbound
p4632
aVwater
p4633
aVfeminin
p4634
aVbandag
p4635
aVhydrogen
p4636
asI5191141
(lp4637
Vparticl
p4638
aVmetal
p4639
aVsiev
p4640
aVsub
p4641
aVmethanol
p4642
aVelapo
p4643
aVmole
p4644
aVcatalyst
p4645
aVolefin
p4646
aVfraction
p4647
asI6599631
(lp4648
Vcomposit
p4649
aVinorgan
p4650
aVparticl
p4651
aVchemic
p4652
aVbond
p4653
aVpolym
p4654
aVoptic
p4655
aVelectro
p4656
aVfurthermor
p4657
aVcopolym
p4658
asI6916584
(lp4659
Vtemplat
p4660
aVimprint
p4661
aVlithographi
p4662
aVliquid
p4663
aVcure
p4664
aValign
p4665
aVsubstrat
p4666
aVpattern
p4667
aVbrought
p4668
aVdispens
p4669
asI6251260
(lp4670
Vpotentiometr
p4671
aVanalyt
p4672
aVsampl
p4673
aVelectrod
p4674
aVcorrel
p4675
aVdetermin
p4676
aVpotenti
p4677
aVlinear
p4678
aVconcentr
p4679
aVsensor
p4680
asI5308896
(lp4681
Vfiber
p4682
aVbond
p4683
aVbinder
p4684
aVhydrogen
p4685
aVadher
p4686
aVcoval
p4687
aVparticl
p4688
aVdensifi
p4689
aVcoordin
p4690
aVbulk
p4691
asI6274540
(lp4692
Vdisrupt
p4693
aVdeterg
p4694
aVcrystallin
p4695
aVmixtur
p4696
aVcomposit
p4697
aVcontain
p4698
asI6365266
(lp4699
Vfilm
p4700
aVceram
p4701
aVmesopor
p4702
aVppm
p4703
aVsubstrat
p4704
aVfluid
p4705
aVsolvent
p4706
aVdielectr
p4707
aVconstant
p4708
aVcontent
p4709
asI5571618
(lp4710
Vbinder
p4711
aVfiber
p4712
aVparticl
p4713
aVbound
p4714
aVbond
p4715
aVfunction
p4716
aVpolymer
p4717
aVcoval
p4718
aVhydrogen
p4719
aVglycol
p4720
asI4861938
(lp4721
Vsolid
p4722
aVregener
p4723
aVfeedstock
p4724
aVcomposit
p4725
aVdeactiv
p4726
aVcondit
p4727
aVstep
p4728
aVconvers
p4729
aVcontact
p4730
aVpartial
p4731
asI5874164
(lp4732
Vimperm
p4733
aVmicroorgan
p4734
aVbarrier
p4735
aVweb
p4736
aVcertain
p4737
aVfabric
p4738
aVbind
p4739
aVpresent
p4740
aVqualiti
p4741
aVthixotrop
p4742
asI5108725
(lp4743
Vcrystallin
p4744
aVangstrom
p4745
aVhexagon
p4746
aVbenzen
p4747
aVgram
p4748
aVpore
p4749
aVcapac
p4750
aV100
p4751
aVabout
p4752
aVmesopor
p4753
asI5607414
(lp4754
Vcatameni
p4755
aVtopsheet
p4756
aVabsorb
p4757
aVbond
p4758
aVthermal
p4759
aVcapillari
p4760
aVlayer
p4761
aVfluid
p4762
aVoption
p4763
aVdistribut
p4764
asI5647863
(lp4765
Vmember
p4766
aVabsorb
p4767
aVdistribut
p4768
aVacquisit
p4769
aVstorag
p4770
aVcapillari
p4771
aVsuction
p4772
aVstain
p4773
aVindic
p4774
aVregion
p4775
asI6873087
(lp4776
Vimprint
p4777
aVflexur
p4778
aVtemplat
p4779
aVstage
p4780
aVorient
p4781
aVlithographi
p4782
aVcalibr
p4783
aVfine
p4784
aVprecis
p4785
aVgap
p4786
asI4934142
(lp4787
Vexhaust
p4788
aVfilter
p4789
aVcopper
p4790
aVemiss
p4791
aVgas
p4792
aVcordierit
p4793
aVoffens
p4794
aVion
p4795
aVtau
p4796
aVhoneycomb
p4797
asI7556095
(lp4798
Vdawsonit
p4799
aVformat
p4800
aVchelat
p4801
aVdecomposit
p4802
aVdissolv
p4803
aVhydrocarbon
p4804
aVheat
p4805
aVshale
p4806
aVsome
p4807
aVagent
p4808
astp4809
.