((lp0
I5572643
aI5712979
aI5715450
aI5715453
aI5717860
aI5737395
aI5742768
aI5745681
aI5751956
aI5752246
aI5761683
aI5764235
aI5778367
aI5778372
aI5790793
aI5791991
aI5793966
aI5802299
aI5802518
aI5812769
aI5819285
aI5835712
aI5850433
aI5854897
aI5875296
aI5884056
aI5884262
aI5892905
aI5901287
aI5905492
aI5905865
aI5918013
aI5918014
aI5929849
aI5937392
aI5938727
aI5941947
aI5945988
aI5951694
aI5953005
aI5961590
aI5974441
aI5999912
aI6011537
aI6021433
aI6023708
aI6025837
aI6047327
aI6058379
aI6067565
aI6076734
aI6092194
aI6098106
aI6125388
aI6141010
aI6151606
aI6154844
aI6157935
aI6173316
aI6185598
aI6185619
aI6192407
aI6202060
aI6240555
aI6247047
aI6295551
aI6385592
aI6389464
aI6546419
aI6549612
aI6594692
aI7039599
aI5809250
aI5948061
aI5963916
aI6029141
aI6052730
aI6141666
aI6144944
aI6151584
aI6553563
aI5796952
aI5931917
aI5956487
aI6035332
aI6108703
aI6553413
aI6016504
aI6119098
aI6233318
aI6335927
aI6351467
aI6731625
aI6754181
aI7145898
aI5895454
aI6026433
aI6115040
aI6185625
aI6615258
aI5826242
aI5933829
aI5960411
aI5978773
aI6108656
aI6199079
aI6317722
aI6473794
aI6484149
aI6519571
aI6536037
aI6615166
aI6721713
aI6853982
aI6957186
aI6980962
aI7165041
aI5894554
aI6061448
aI6151601
aI5987454
aI6081900
aI6065120
aI6421733
aI6549949
aI6571282
aI6578068
aI6601234
aI6615253
aI6636242
aI6640238
aI6640244
aI6640249
aI6715145
aI6742015
aI6842906
aI6243691
aI6389467
aI6421675
aI6907566
aI6119137
aI6374260
aI6078907
aI6360254
aI6493685
aI5913210
aI6251017
aI6346043
aI6651053
aI6964374
aI5889863
aI5963924
aI5983208
aI5987140
aI5996076
aI6002767
aI6016484
aI6026379
aI6035281
aI6072870
aI7240100
aI5897622
aI6236365
aI6052718
aI6484148
aI6023714
aI6233618
aI6300947
aI6507856
aI6009410
aI6044403
aI6282546
aI5987611
aI6047268
aI6092196
aI6609198
aI6058417
aI6144375
aI6446076
aI6842767
aI6327628
aI6183366
aI6839680
aI6081830
aI6085234
aI6182142
aI6397259
aI6473609
aI6064980
aI6266649
aI6269361
aI6400996
aI6418424
aI6493702
aI6640145
aI6981040
aI6282713
aI6698020
aI6450407
aI6134548
aI6356905
aI6400272
aI6542933
aI6829368
aI6141754
aI6189029
aI6308273
aI6408336
aI6629081
aI6645077
aI7069234
aI6446261
aI6460036
aI6577080
aI6868525
aI7181438
aI7630986
aI6421711
aI6430602
aI6248946
aI6131096
aI6438585
aI6671757
aI6760916
aI6154771
aI6182050
aI6332127
aI6571279
aI6324519
aI6704873
aI6718535
aI7100195
aI6311214
aI6505160
aI6542927
aI6697824
aI6460141
aI6430624
aI6757740
aI7136875
aI6779004
aI6144991
aI6493758
aI6535909
aI6546405
aI6216129
aI6327574
aI6385591
aI6487538
aI6718551
aI6438579
aI6662231
aI6401075
aI6564213
aI5893091
aI6018619
aI6076166
aI6182094
aI6288716
aI6357042
aI7272613
aI6311194
aI7124101
aI7130807
aI5970472
aI6073124
aI6101484
aI6269343
aI6606744
aI6671818
aI6785671
aI6963867
aI6523027
aI6327578
aI6650761
aI6119229
aI6324524
aI6405181
aI6199048
aI6490601
aI6837436
aI7023979
aI6601233
aI7117504
aI6606690
aI6385596
aI6732101
aI7181017
aI6510417
aI6226752
aI6389462
aI6453353
aI6408282
aI6772150
aI6601087
aI6654032
aI6609113
aI7140044
aI6602137
aI6138139
aI6233565
aI6324525
aI6282522
aI6609200
aI6999943
aI6167382
aI6401085
aI6327622
aI6785704
aI6343324
aI6298348
aI6105027
aI6141686
aI6298445
aI6324647
aI6662357
aI6321221
aI6598026
aI6631849
aI6512919
aI6381577
aI6968375
aI6846238
aI6965205
aI7014336
aI6832373
aI6647269
aI6658423
aI6704874
aI6317777
aI6647257
aI6725227
aI6249252
aI6760721
aI6327652
aI6330670
aI6834308
aI6772132
aI7127424
aI7389268
aI6463454
aI6484143
aI6425035
aI6564228
aI6774926
a(lp1
(lp2
I5572643
aa(lp3
I5712979
aI5715450
aI5715453
aI5717860
aI5737395
aI5742768
aI5745681
aI5751956
aI5752246
aI5761683
aI5764235
aI5778367
aI5778372
aI5790793
aI5791991
aI5793966
aI5802299
aI5802518
aI5812769
aI5819285
aI5835712
aI5850433
aI5854897
aI5875296
aI5884056
aI5884262
aI5892905
aI5901287
aI5905492
aI5905865
aI5918013
aI5918014
aI5929849
aI5937392
aI5938727
aI5941947
aI5945988
aI5951694
aI5953005
aI5961590
aI5974441
aI5999912
aI6011537
aI6021433
aI6023708
aI6025837
aI6047327
aI6058379
aI6067565
aI6076734
aI6092194
aI6098106
aI6125388
aI6141010
aI6151606
aI6154844
aI6157935
aI6173316
aI6185598
aI6185619
aI6192407
aI6202060
aI6240555
aI6247047
aI6295551
aI6385592
aI6389464
aI6546419
aI6549612
aI6594692
aI7039599
aa(lp4
I5809250
aI5948061
aI5963916
aI6029141
aI6052730
aI6141666
aI6144944
aI6151584
aI6553563
aI5796952
aI5931917
aI5956487
aI6035332
aI6108703
aI6553413
aI6016504
aI6119098
aI6233318
aI6335927
aI6351467
aI6731625
aI6754181
aI7145898
aI5895454
aI6026433
aI6115040
aI6185625
aI6615258
aI5826242
aI5933829
aI5960411
aI5978773
aI6108656
aI6199079
aI6317722
aI6473794
aI6484149
aI6519571
aI6536037
aI6615166
aI6721713
aI6853982
aI6957186
aI6980962
aI7165041
aI5894554
aI6061448
aI6151601
aI5987454
aI6081900
aI6065120
aI6421733
aI6549949
aI6571282
aI6578068
aI6601234
aI6615253
aI6636242
aI6640238
aI6640244
aI6640249
aI6715145
aI6742015
aI6842906
aI6243691
aI6389467
aI6421675
aI6907566
aI6119137
aI6374260
aI6078907
aI6360254
aI6493685
aI5913210
aI6251017
aI6346043
aI6651053
aI6964374
aI5889863
aI5963924
aI5983208
aI5987140
aI5996076
aI6002767
aI6016484
aI6026379
aI6035281
aI6072870
aI7240100
aI5897622
aI6236365
aI6052718
aI6484148
aI6023714
aI6233618
aI6300947
aI6507856
aI6009410
aI6044403
aI6282546
aI5987611
aI6047268
aI6092196
aI6609198
aI6058417
aI6144375
aI6446076
aI6842767
aI6327628
aI6183366
aI6839680
aI6081830
aI6085234
aI6182142
aI6397259
aI6473609
aI6064980
aI6266649
aI6269361
aI6400996
aI6418424
aI6493702
aI6640145
aI6981040
aI6282713
aI6698020
aI6450407
aI6134548
aI6356905
aI6400272
aI6542933
aI6829368
aI6141754
aI6189029
aI6308273
aI6408336
aI6629081
aI6645077
aI7069234
aI6446261
aI6460036
aI6577080
aI6868525
aI7181438
aI7630986
aI6421711
aI6430602
aI6248946
aI6131096
aI6438585
aI6671757
aI6760916
aI6154771
aI6182050
aI6332127
aI6571279
aI6324519
aI6704873
aI6718535
aI7100195
aI6311214
aI6505160
aI6542927
aI6697824
aI6460141
aI6430624
aI6757740
aI7136875
aI6779004
aa(lp5
I6144991
aI6493758
aI6535909
aI6546405
aI6216129
aI6327574
aI6385591
aI6487538
aI6718551
aI6438579
aI6662231
aI6401075
aI6564213
aI5893091
aI6018619
aI6076166
aI6182094
aI6288716
aI6357042
aI7272613
aI6311194
aI7124101
aI7130807
aI5970472
aI6073124
aI6101484
aI6269343
aI6606744
aI6671818
aI6785671
aI6963867
aI6523027
aI6327578
aI6650761
aI6119229
aI6324524
aI6405181
aI6199048
aI6490601
aI6837436
aI7023979
aI6601233
aI7117504
aI6606690
aI6385596
aI6732101
aI7181017
aI6510417
aI6226752
aI6389462
aI6453353
aI6408282
aI6772150
aI6601087
aI6654032
aI6609113
aI7140044
aI6602137
aI6138139
aI6233565
aI6324525
aI6282522
aI6609200
aI6999943
aI6167382
aI6401085
aI6327622
aI6785704
aI6343324
aI6298348
aI6105027
aI6141686
aI6298445
aI6324647
aI6662357
aI6321221
aI6598026
aI6631849
aI6512919
aI6381577
aI6968375
aI6846238
aI6965205
aI7014336
aI6832373
aI6647269
aI6658423
aI6704874
aa(lp6
I6317777
aI6647257
aI6725227
aI6249252
aI6760721
aI6327652
aI6330670
aI6834308
aI6772132
aI7127424
aI7389268
aI6463454
aI6484143
aI6425035
aI6564228
aI6774926
aa(lp7
(I5572643
I5712979
tp8
a(I5572643
I5715450
tp9
a(I5572643
I5715453
tp10
a(I5572643
I5717860
tp11
a(I5572643
I5737395
tp12
a(I5572643
I5742768
tp13
a(I5572643
I5745681
tp14
a(I5572643
I5751956
tp15
a(I5572643
I5752246
tp16
a(I5572643
I5761683
tp17
a(I5572643
I5764235
tp18
a(I5572643
I5778367
tp19
a(I5572643
I5778372
tp20
a(I5572643
I5790793
tp21
a(I5572643
I5791991
tp22
a(I5572643
I5793966
tp23
a(I5572643
I5802299
tp24
a(I5572643
I5802518
tp25
a(I5572643
I5812769
tp26
a(I5572643
I5819285
tp27
a(I5572643
I5835712
tp28
a(I5572643
I5850433
tp29
a(I5572643
I5854897
tp30
a(I5572643
I5875296
tp31
a(I5572643
I5884056
tp32
a(I5572643
I5884262
tp33
a(I5572643
I5892905
tp34
a(I5572643
I5901287
tp35
a(I5572643
I5905492
tp36
a(I5572643
I5905865
tp37
a(I5572643
I5918013
tp38
a(I5572643
I5918014
tp39
a(I5572643
I5929849
tp40
a(I5572643
I5937392
tp41
a(I5572643
I5938727
tp42
a(I5572643
I5941947
tp43
a(I5572643
I5945988
tp44
a(I5572643
I5951694
tp45
a(I5572643
I5953005
tp46
a(I5572643
I5961590
tp47
a(I5572643
I5974441
tp48
a(I5572643
I5999912
tp49
a(I5572643
I6011537
tp50
a(I5572643
I6021433
tp51
a(I5572643
I6023708
tp52
a(I5572643
I6025837
tp53
a(I5572643
I6047327
tp54
a(I5572643
I6058379
tp55
a(I5572643
I6067565
tp56
a(I5572643
I6076734
tp57
a(I5572643
I6092194
tp58
a(I5572643
I6098106
tp59
a(I5572643
I6125388
tp60
a(I5572643
I6141010
tp61
a(I5572643
I6151606
tp62
a(I5572643
I6154844
tp63
a(I5572643
I6157935
tp64
a(I5572643
I6173316
tp65
a(I5572643
I6185598
tp66
a(I5572643
I6185619
tp67
a(I5572643
I6192407
tp68
a(I5572643
I6202060
tp69
a(I5572643
I6240555
tp70
a(I5572643
I6247047
tp71
a(I5572643
I6295551
tp72
a(I5572643
I6385592
tp73
a(I5572643
I6389464
tp74
a(I5572643
I6546419
tp75
a(I5572643
I6549612
tp76
a(I5572643
I6594692
tp77
a(I5572643
I7039599
tp78
a(I5712979
I5809250
tp79
a(I5712979
I5819285
tp80
a(I5712979
I5948061
tp81
a(I5712979
I5963916
tp82
a(I5712979
I6029141
tp83
a(I5712979
I6052730
tp84
a(I5712979
I6141666
tp85
a(I5712979
I6144944
tp86
a(I5712979
I7039599
tp87
a(I5715450
I6151584
tp88
a(I5715450
I6553563
tp89
a(I5715453
I5796952
tp90
a(I5715453
I5931917
tp91
a(I5715453
I5956487
tp92
a(I5715453
I6035332
tp93
a(I5715453
I6058379
tp94
a(I5715453
I6108703
tp95
a(I5715453
I6185598
tp96
a(I5715453
I6247047
tp97
a(I5715453
I6553413
tp98
a(I5717860
I5819285
tp99
a(I5717860
I5854897
tp100
a(I5717860
I5948061
tp101
a(I5717860
I6016504
tp102
a(I5717860
I6029141
tp103
a(I5717860
I6119098
tp104
a(I5717860
I6141666
tp105
a(I5717860
I6144944
tp106
a(I5717860
I7039599
tp107
a(I5737395
I6233318
tp108
a(I5737395
I6335927
tp109
a(I5737395
I6351467
tp110
a(I5737395
I6731625
tp111
a(I5737395
I6754181
tp112
a(I5737395
I7145898
tp113
a(I5742768
I5895454
tp114
a(I5742768
I6026433
tp115
a(I5742768
I6035332
tp116
a(I5742768
I6115040
tp117
a(I5742768
I6185625
tp118
a(I5742768
I6615258
tp119
a(I5745681
I5826242
tp120
a(I5745681
I5933829
tp121
a(I5745681
I5960411
tp122
a(I5745681
I5978773
tp123
a(I5745681
I6029141
tp124
a(I5745681
I6108656
tp125
a(I5745681
I6199079
tp126
a(I5745681
I6317722
tp127
a(I5745681
I6473794
tp128
a(I5745681
I6484149
tp129
a(I5745681
I6519571
tp130
a(I5745681
I6536037
tp131
a(I5745681
I6594692
tp132
a(I5745681
I6615166
tp133
a(I5745681
I6721713
tp134
a(I5745681
I6853982
tp135
a(I5745681
I6957186
tp136
a(I5745681
I6980962
tp137
a(I5745681
I7039599
tp138
a(I5745681
I7165041
tp139
a(I5751956
I5894554
tp140
a(I5751956
I5948061
tp141
a(I5751956
I5956487
tp142
a(I5751956
I6052730
tp143
a(I5751956
I6061448
tp144
a(I5751956
I6144944
tp145
a(I5751956
I6192407
tp146
a(I5751956
I7039599
tp147
a(I5752246
I6023708
tp148
a(I5752246
I6047327
tp149
a(I5752246
I6151601
tp150
a(I5761683
I5987454
tp151
a(I5761683
I6081900
tp152
a(I5764235
I6065120
tp153
a(I5764235
I6185625
tp154
a(I5764235
I6421733
tp155
a(I5764235
I6549949
tp156
a(I5764235
I6571282
tp157
a(I5764235
I6578068
tp158
a(I5764235
I6601234
tp159
a(I5764235
I6615253
tp160
a(I5764235
I6636242
tp161
a(I5764235
I6640238
tp162
a(I5764235
I6640244
tp163
a(I5764235
I6640249
tp164
a(I5764235
I6715145
tp165
a(I5764235
I6742015
tp166
a(I5764235
I6842906
tp167
a(I5778367
I5933829
tp168
a(I5778367
I5978773
tp169
a(I5778367
I6098106
tp170
a(I5778367
I6108656
tp171
a(I5778367
I6243691
tp172
a(I5778367
I6389467
tp173
a(I5778367
I6421675
tp174
a(I5778367
I6907566
tp175
a(I5778367
I7039599
tp176
a(I5778372
I6061448
tp177
a(I5778372
I6119137
tp178
a(I5778372
I6192407
tp179
a(I5778372
I6374260
tp180
a(I5790793
I6061448
tp181
a(I5790793
I6078907
tp182
a(I5790793
I6098106
tp183
a(I5790793
I6125388
tp184
a(I5790793
I6192407
tp185
a(I5790793
I6360254
tp186
a(I5790793
I6493685
tp187
a(I5790793
I6594692
tp188
a(I5791991
I5913210
tp189
a(I5791991
I5933829
tp190
a(I5791991
I5978773
tp191
a(I5791991
I6108656
tp192
a(I5791991
I6251017
tp193
a(I5791991
I6346043
tp194
a(I5791991
I6651053
tp195
a(I5791991
I6964374
tp196
a(I5793966
I5889863
tp197
a(I5793966
I5931917
tp198
a(I5793966
I5963924
tp199
a(I5793966
I5983208
tp200
a(I5793966
I5987140
tp201
a(I5793966
I5996076
tp202
a(I5793966
I6002767
tp203
a(I5793966
I6016484
tp204
a(I5793966
I6026379
tp205
a(I5793966
I6035281
tp206
a(I5793966
I6072870
tp207
a(I5793966
I7240100
tp208
a(I5802299
I6035332
tp209
a(I5802518
I5897622
tp210
a(I5802518
I6026433
tp211
a(I5802518
I6236365
tp212
a(I5802518
I6335927
tp213
a(I5802518
I6731625
tp214
a(I5802518
I6754181
tp215
a(I5802518
I7145898
tp216
a(I5812769
I6029141
tp217
a(I5812769
I6052718
tp218
a(I5812769
I6119098
tp219
a(I5812769
I6360254
tp220
a(I5812769
I6980962
tp221
a(I5812769
I7039599
tp222
a(I5819285
I6029141
tp223
a(I5819285
I6035281
tp224
a(I5819285
I6484148
tp225
a(I5819285
I7039599
tp226
a(I5835712
I6023714
tp227
a(I5835712
I6026433
tp228
a(I5835712
I6233618
tp229
a(I5835712
I6300947
tp230
a(I5835712
I6507856
tp231
a(I5850433
I6009410
tp232
a(I5850433
I6044403
tp233
a(I5850433
I6335927
tp234
a(I5850433
I6421733
tp235
a(I5850433
I6731625
tp236
a(I5850433
I6754181
tp237
a(I5850433
I7145898
tp238
a(I5854897
I6098106
tp239
a(I5854897
I6173316
tp240
a(I5854897
I6282546
tp241
a(I5875296
I5987611
tp242
a(I5875296
I6047268
tp243
a(I5875296
I6092196
tp244
a(I5875296
I6609198
tp245
a(I5884056
I6058417
tp246
a(I5884056
I6144375
tp247
a(I5884056
I6374260
tp248
a(I5884262
I6335927
tp249
a(I5884262
I6446076
tp250
a(I5884262
I6549612
tp251
a(I5884262
I6731625
tp252
a(I5884262
I6754181
tp253
a(I5884262
I6842767
tp254
a(I5884262
I7145898
tp255
a(I5892905
I6327628
tp256
a(I5892905
I6389467
tp257
a(I5901287
I6065120
tp258
a(I5901287
I6183366
tp259
a(I5901287
I6839680
tp260
a(I5901287
I6980962
tp261
a(I5905865
I6021433
tp262
a(I5905865
I6081830
tp263
a(I5905865
I6098106
tp264
a(I5918013
I6085234
tp265
a(I5918013
I6182142
tp266
a(I5918013
I6185625
tp267
a(I5918013
I6397259
tp268
a(I5918013
I6421733
tp269
a(I5918013
I6473609
tp270
a(I5918014
I6064980
tp271
a(I5918014
I6266649
tp272
a(I5918014
I6269361
tp273
a(I5918014
I6400996
tp274
a(I5918014
I6418424
tp275
a(I5918014
I6493702
tp276
a(I5918014
I6594692
tp277
a(I5918014
I6640145
tp278
a(I5918014
I6907566
tp279
a(I5918014
I6980962
tp280
a(I5918014
I6981040
tp281
a(I5918014
I7039599
tp282
a(I5929849
I6081830
tp283
a(I5929849
I6282713
tp284
a(I5929849
I6698020
tp285
a(I5937392
I6119098
tp286
a(I5937392
I6141010
tp287
a(I5937392
I6450407
tp288
a(I5937392
I6484148
tp289
a(I5937392
I6980962
tp290
a(I5937392
I7039599
tp291
a(I5938727
I6134548
tp292
a(I5938727
I6356905
tp293
a(I5938727
I6400272
tp294
a(I5938727
I6542933
tp295
a(I5938727
I6829368
tp296
a(I5941947
I6141754
tp297
a(I5941947
I6189029
tp298
a(I5941947
I6233618
tp299
a(I5941947
I6308273
tp300
a(I5941947
I6408336
tp301
a(I5941947
I6629081
tp302
a(I5941947
I6645077
tp303
a(I5941947
I7069234
tp304
a(I5945988
I6400996
tp305
a(I5945988
I6418424
tp306
a(I5945988
I6446261
tp307
a(I5945988
I6460036
tp308
a(I5945988
I6577080
tp309
a(I5945988
I6640145
tp310
a(I5945988
I6698020
tp311
a(I5945988
I6868525
tp312
a(I5945988
I7181438
tp313
a(I5945988
I7630986
tp314
a(I5951694
I6421711
tp315
a(I5951694
I6430602
tp316
a(I5953005
I6248946
tp317
a(I5961590
I6023708
tp318
a(I5961590
I6131096
tp319
a(I5961590
I6438585
tp320
a(I5961590
I6671757
tp321
a(I5974441
I6115040
tp322
a(I5974441
I6615258
tp323
a(I5999912
I6484148
tp324
a(I5999912
I7039599
tp325
a(I6011537
I6760916
tp326
a(I6023708
I6131096
tp327
a(I6023708
I6671757
tp328
a(I6025837
I6154771
tp329
a(I6025837
I6400996
tp330
a(I6025837
I6418424
tp331
a(I6025837
I6640145
tp332
a(I6047327
I6182050
tp333
a(I6047327
I6332127
tp334
a(I6047327
I6385592
tp335
a(I6047327
I6446076
tp336
a(I6047327
I6571279
tp337
a(I6047327
I7630986
tp338
a(I6058379
I6324519
tp339
a(I6058379
I6629081
tp340
a(I6058379
I6704873
tp341
a(I6058379
I6718535
tp342
a(I6058379
I7069234
tp343
a(I6058379
I7100195
tp344
a(I6058379
I7630986
tp345
a(I6098106
I6311214
tp346
a(I6098106
I6505160
tp347
a(I6098106
I6542927
tp348
a(I6125388
I6594692
tp349
a(I6141010
I6484148
tp350
a(I6141010
I6697824
tp351
a(I6141010
I6704873
tp352
a(I6141010
I6718535
tp353
a(I6141010
I7100195
tp354
a(I6151606
I6460141
tp355
a(I6151606
I6671757
tp356
a(I6173316
I6430624
tp357
a(I6185598
I6493702
tp358
a(I6185598
I6553413
tp359
a(I6185598
I6757740
tp360
a(I6185598
I7240100
tp361
a(I6185619
I6553413
tp362
a(I6185619
I7240100
tp363
a(I6192407
I6360254
tp364
a(I6192407
I6571282
tp365
a(I6240555
I6698020
tp366
a(I6295551
I6615258
tp367
a(I6385592
I7136875
tp368
a(I6389464
I6779004
tp369
a(I5809250
I5884262
tp370
a(I5809250
I6035332
tp371
a(I5809250
I6144991
tp372
a(I5809250
I6493758
tp373
a(I5809250
I6535909
tp374
a(I5809250
I6546405
tp375
a(I5948061
I6098106
tp376
a(I5948061
I6119098
tp377
a(I5948061
I6141010
tp378
a(I5948061
I6144944
tp379
a(I5948061
I6183366
tp380
a(I5948061
I6216129
tp381
a(I5948061
I6247047
tp382
a(I5948061
I6324519
tp383
a(I5948061
I6327574
tp384
a(I5948061
I6385591
tp385
a(I5948061
I6446076
tp386
a(I5948061
I6450407
tp387
a(I5948061
I6484148
tp388
a(I5948061
I6487538
tp389
a(I5948061
I6718551
tp390
a(I5948061
I6757740
tp391
a(I5948061
I6980962
tp392
a(I5948061
I7039599
tp393
a(I5948061
I7136875
tp394
a(I5963916
I6438579
tp395
a(I5963916
I6662231
tp396
a(I5963916
I6829368
tp397
a(I6029141
I6401075
tp398
a(I6029141
I6564213
tp399
a(I6029141
I6964374
tp400
a(I6029141
I6980962
tp401
a(I6029141
I7630986
tp402
a(I6144944
I6839680
tp403
a(I5796952
I5875296
tp404
a(I5796952
I5893091
tp405
a(I5796952
I6018619
tp406
a(I5796952
I6035332
tp407
a(I5796952
I6044403
tp408
a(I5796952
I6052730
tp409
a(I5796952
I6076166
tp410
a(I5796952
I6092194
tp411
a(I5796952
I6098106
tp412
a(I5796952
I6141666
tp413
a(I5796952
I6154844
tp414
a(I5796952
I6185598
tp415
a(I5796952
I6247047
tp416
a(I5796952
I6450407
tp417
a(I5796952
I7039599
tp418
a(I5931917
I6233318
tp419
a(I5931917
I6408336
tp420
a(I5956487
I6182094
tp421
a(I5956487
I6288716
tp422
a(I5956487
I6484149
tp423
a(I5956487
I6546419
tp424
a(I6035332
I6357042
tp425
a(I6035332
I6757740
tp426
a(I6108703
I6549949
tp427
a(I6108703
I6571282
tp428
a(I6108703
I6578068
tp429
a(I6108703
I6601234
tp430
a(I6108703
I6615253
tp431
a(I6108703
I6636242
tp432
a(I6108703
I6640238
tp433
a(I6108703
I6640244
tp434
a(I6108703
I6640249
tp435
a(I6108703
I6715145
tp436
a(I6108703
I6742015
tp437
a(I6108703
I6842906
tp438
a(I6108703
I7240100
tp439
a(I6108703
I7272613
tp440
a(I6553413
I7240100
tp441
a(I6119098
I6311194
tp442
a(I6119098
I6450407
tp443
a(I6119098
I6484148
tp444
a(I6119098
I6487538
tp445
a(I6335927
I7124101
tp446
a(I6731625
I7130807
tp447
a(I6731625
I7145898
tp448
a(I5895454
I5970472
tp449
a(I5895454
I6073124
tp450
a(I5895454
I6101484
tp451
a(I5895454
I6269343
tp452
a(I5895454
I6606744
tp453
a(I5895454
I6671818
tp454
a(I5895454
I6697824
tp455
a(I5895454
I6785671
tp456
a(I5895454
I6963867
tp457
a(I5895454
I6980962
tp458
a(I5895454
I7124101
tp459
a(I5895454
I7130807
tp460
a(I6026433
I6154771
tp461
a(I6026433
I6327628
tp462
a(I6115040
I6615258
tp463
a(I6115040
I7100195
tp464
a(I6185625
I6421733
tp465
a(I6185625
I6523027
tp466
a(I6185625
I6704873
tp467
a(I6185625
I6718535
tp468
a(I6185625
I6868525
tp469
a(I6185625
I7100195
tp470
a(I6615258
I7100195
tp471
a(I5826242
I6016504
tp472
a(I5826242
I6311194
tp473
a(I5826242
I6327578
tp474
a(I5826242
I6473794
tp475
a(I5826242
I6519571
tp476
a(I5826242
I6536037
tp477
a(I5826242
I6594692
tp478
a(I5826242
I6615166
tp479
a(I5826242
I6721713
tp480
a(I5826242
I6957186
tp481
a(I5826242
I6980962
tp482
a(I5826242
I7165041
tp483
a(I5933829
I6098106
tp484
a(I5933829
I6108656
tp485
a(I5933829
I6311214
tp486
a(I5933829
I6400272
tp487
a(I5933829
I6542927
tp488
a(I5933829
I6542933
tp489
a(I5933829
I6650761
tp490
a(I5933829
I6651053
tp491
a(I5933829
I6829368
tp492
a(I5933829
I6964374
tp493
a(I5960411
I6098106
tp494
a(I5960411
I6119229
tp495
a(I5960411
I6247047
tp496
a(I5960411
I6324524
tp497
a(I5960411
I6405181
tp498
a(I5960411
I6536037
tp499
a(I5960411
I6615258
tp500
a(I5960411
I6980962
tp501
a(I5960411
I7630986
tp502
a(I5978773
I6098106
tp503
a(I5978773
I6134548
tp504
a(I5978773
I6199048
tp505
a(I5978773
I6311214
tp506
a(I5978773
I6356905
tp507
a(I5978773
I6400272
tp508
a(I5978773
I6542927
tp509
a(I5978773
I6542933
tp510
a(I5978773
I6650761
tp511
a(I5978773
I6651053
tp512
a(I5978773
I6829368
tp513
a(I5978773
I6964374
tp514
a(I6108656
I6311214
tp515
a(I6108656
I6400272
tp516
a(I6108656
I6542927
tp517
a(I6108656
I6542933
tp518
a(I6108656
I6651053
tp519
a(I6199079
I6405181
tp520
a(I6199079
I6490601
tp521
a(I6199079
I6523027
tp522
a(I6199079
I6704873
tp523
a(I6199079
I6718535
tp524
a(I6199079
I7100195
tp525
a(I6317722
I6837436
tp526
a(I6317722
I6963867
tp527
a(I6317722
I7023979
tp528
a(I6473794
I6601233
tp529
a(I6473794
I6615166
tp530
a(I6473794
I6715145
tp531
a(I6473794
I6718535
tp532
a(I6473794
I6742015
tp533
a(I6473794
I7100195
tp534
a(I6473794
I7117504
tp535
a(I6484149
I6785671
tp536
a(I6519571
I6615166
tp537
a(I6519571
I7117504
tp538
a(I6536037
I6615166
tp539
a(I6536037
I7117504
tp540
a(I6615166
I7117504
tp541
a(I6721713
I7117504
tp542
a(I5894554
I6553413
tp543
a(I5894554
I6606690
tp544
a(I5894554
I7240100
tp545
a(I6061448
I6385596
tp546
a(I6061448
I6732101
tp547
a(I6061448
I7023979
tp548
a(I6061448
I7181017
tp549
a(I6151601
I6510417
tp550
a(I5987454
I6389467
tp551
a(I6081900
I6226752
tp552
a(I6081900
I6389462
tp553
a(I6081900
I7181017
tp554
a(I6065120
I6453353
tp555
a(I6243691
I6408282
tp556
a(I6421675
I6564213
tp557
a(I6421675
I6772150
tp558
a(I6421675
I6785671
tp559
a(I6421675
I6963867
tp560
a(I6119137
I6473609
tp561
a(I6119137
I6601087
tp562
a(I6119137
I6654032
tp563
a(I6078907
I6609113
tp564
a(I6078907
I7140044
tp565
a(I5913210
I6101484
tp566
a(I5913210
I6134548
tp567
a(I5913210
I6199048
tp568
a(I5913210
I6269343
tp569
a(I5913210
I6311214
tp570
a(I5913210
I6356905
tp571
a(I5913210
I6542927
tp572
a(I5913210
I6542933
tp573
a(I5913210
I6651053
tp574
a(I5913210
I6785671
tp575
a(I5913210
I6829368
tp576
a(I5913210
I6963867
tp577
a(I5913210
I6964374
tp578
a(I6346043
I6602137
tp579
a(I5889863
I6138139
tp580
a(I5889863
I6233565
tp581
a(I5889863
I6324525
tp582
a(I5889863
I6697824
tp583
a(I5889863
I7023979
tp584
a(I5889863
I7181017
tp585
a(I5963924
I6282522
tp586
a(I5963924
I7023979
tp587
a(I5963924
I7181017
tp588
a(I5983208
I7023979
tp589
a(I5983208
I7181017
tp590
a(I5987140
I7023979
tp591
a(I5987140
I7181017
tp592
a(I5996076
I6282522
tp593
a(I5996076
I6609113
tp594
a(I5996076
I7023979
tp595
a(I5996076
I7181017
tp596
a(I6002767
I7023979
tp597
a(I6002767
I7181017
tp598
a(I6016484
I6282522
tp599
a(I6016484
I6327578
tp600
a(I6016484
I6609200
tp601
a(I6016484
I6999943
tp602
a(I6016484
I7023979
tp603
a(I6016484
I7181017
tp604
a(I6026379
I7023979
tp605
a(I6026379
I7181017
tp606
a(I6072870
I7023979
tp607
a(I6072870
I7181017
tp608
a(I5897622
I5970472
tp609
a(I5897622
I6064980
tp610
a(I5897622
I6073124
tp611
a(I5897622
I6141666
tp612
a(I5897622
I6167382
tp613
a(I5897622
I6199079
tp614
a(I5897622
I6401085
tp615
a(I5897622
I6421733
tp616
a(I5897622
I6484149
tp617
a(I5897622
I6564213
tp618
a(I5897622
I6980962
tp619
a(I6052718
I6327622
tp620
a(I6052718
I6553413
tp621
a(I6052718
I6785704
tp622
a(I6052718
I7240100
tp623
a(I6052718
I7630986
tp624
a(I6023714
I6300947
tp625
a(I6233618
I6343324
tp626
a(I6009410
I6098106
tp627
a(I6009410
I6119098
tp628
a(I6009410
I6216129
tp629
a(I6009410
I6298348
tp630
a(I6009410
I6324519
tp631
a(I6009410
I6385591
tp632
a(I6009410
I6484148
tp633
a(I6009410
I6839680
tp634
a(I6044403
I6400996
tp635
a(I5987611
I6105027
tp636
a(I5987611
I6141686
tp637
a(I5987611
I6298445
tp638
a(I5987611
I6324647
tp639
a(I5987611
I6400272
tp640
a(I5987611
I6662357
tp641
a(I6047268
I7181017
tp642
a(I6081830
I6505160
tp643
a(I6085234
I6785704
tp644
a(I6182142
I6453353
tp645
a(I6064980
I6321221
tp646
a(I6064980
I6598026
tp647
a(I6064980
I6698020
tp648
a(I6064980
I6785671
tp649
a(I6064980
I7630986
tp650
a(I6266649
I6785671
tp651
a(I6266649
I7023979
tp652
a(I6269361
I6907566
tp653
a(I6400996
I7023979
tp654
a(I6418424
I7023979
tp655
a(I6282713
I6718551
tp656
a(I6450407
I6631849
tp657
a(I6134548
I6356905
tp658
a(I6134548
I6401085
tp659
a(I6134548
I6512919
tp660
a(I6134548
I6651053
tp661
a(I6134548
I7100195
tp662
a(I6189029
I6381577
tp663
a(I6189029
I6968375
tp664
a(I6645077
I6846238
tp665
a(I6446261
I6718551
tp666
a(I6577080
I6965205
tp667
a(I6577080
I7014336
tp668
a(I6131096
I6671757
tp669
a(I6438585
I6832373
tp670
a(I6182050
I6785671
tp671
a(I6182050
I6963867
tp672
a(I6332127
I6484148
tp673
a(I6332127
I6647269
tp674
a(I6571279
I7630986
tp675
a(I6311214
I6650761
tp676
a(I6311214
I6829368
tp677
a(I6505160
I6658423
tp678
a(I6542927
I6829368
tp679
a(I6697824
I7630986
tp680
a(I6460141
I6704874
tp681
a(I6144991
I6317777
tp682
a(I6144991
I6549949
tp683
a(I6144991
I6571282
tp684
a(I6144991
I6578068
tp685
a(I6144991
I6601087
tp686
a(I6144991
I6601234
tp687
a(I6144991
I6615253
tp688
a(I6144991
I6636242
tp689
a(I6144991
I6640238
tp690
a(I6144991
I6640244
tp691
a(I6144991
I6640249
tp692
a(I6144991
I6654032
tp693
a(I6144991
I6715145
tp694
a(I6144991
I6742015
tp695
a(I6144991
I6842906
tp696
a(I6216129
I6298348
tp697
a(I6216129
I6647257
tp698
a(I6216129
I6697824
tp699
a(I6327574
I6725227
tp700
a(I6327574
I7136875
tp701
a(I6487538
I6757740
tp702
a(I6487538
I6907566
tp703
a(I6487538
I7140044
tp704
a(I6718551
I7039599
tp705
a(I5893091
I6044403
tp706
a(I5893091
I6236365
tp707
a(I5893091
I6249252
tp708
a(I5893091
I6351467
tp709
a(I5893091
I6697824
tp710
a(I6018619
I6400272
tp711
a(I6076166
I7100195
tp712
a(I6076166
I7181017
tp713
a(I6182094
I6546419
tp714
a(I6288716
I6546419
tp715
a(I6311194
I6760721
tp716
a(I5970472
I6098106
tp717
a(I5970472
I6980962
tp718
a(I6073124
I6327652
tp719
a(I6073124
I6330670
tp720
a(I6119229
I7181017
tp721
a(I6405181
I7069234
tp722
a(I6385596
I6834308
tp723
a(I6408282
I6772132
tp724
a(I6408282
I7127424
tp725
a(I6408282
I7389268
tp726
a(I6233565
I6629081
tp727
a(I6233565
I7069234
tp728
a(I6401085
I6564213
tp729
a(I6401085
I6601233
tp730
a(I6401085
I6651053
tp731
a(I6401085
I6704873
tp732
a(I6401085
I6718535
tp733
a(I6401085
I7100195
tp734
a(I6327622
I6463454
tp735
a(I6327622
I6484143
tp736
a(I6785704
I7272613
tp737
a(I6343324
I6425035
tp738
a(I6343324
I6564228
tp739
a(I6105027
I6408336
tp740
a(I6324647
I6615166
tp741
a(I6324647
I6662357
tp742
a(I6321221
I6853982
tp743
a(I6321221
I7023979
tp744
a(I6512919
I6774926
tp745
a(dp746
I6381577
(lp747
Vserver
p748
aVremot
p749
aVindividu
p750
aVscript
p751
aVqueri
p752
aVworkstat
p753
aVprogramm
p754
aVhealth
p755
aVuser
p756
aVmulti
p757
asI5572643
(lp758
Vbrowser
p759
aVhypertext
p760
aVweb
p761
aVlink
p762
aVuser
p763
aVgraphic
p764
aVclient
p765
aVdocument
p766
aVmessag
p767
aVdownload
p768
asI6357042
(lp769
Vauthor
p770
aVmetadata
p771
aVpts
p772
aVstream
p773
aVvideo
p774
aVmain
p775
aVmultiplex
p776
aVstation
p777
aVsourc
p778
aVinternet
p779
asI6473794
(lp780
Vframework
p781
aVexist
p782
aVcompon
p783
aVnetwork
p784
aVtest
p785
aVplan
p786
aVindicia
p787
aVorder
p788
aVconvey
p789
aVpictori
p790
asI6002767
(lp791
Vpayment
p792
aVgateway
p793
aVmerchant
p794
aVserver
p795
aVcommunic
p796
aVcomput
p797
aVinstrument
p798
aVtransmiss
p799
aVcredit
p800
aVsecur
p801
asI6654032
(lp802
Vdocument
p803
aVshare
p804
aVremot
p805
aVconfer
p806
aVapplic
p807
aVserver
p808
aVscreen
p809
aVowner
p810
aVview
p811
aVinstant
p812
asI7389268
(lp813
Vtrade
p814
aVgraphic
p815
aVmarket
p816
aVprice
p817
aVtrader
p818
aVcommod
p819
aVuser
p820
aVdisplay
p821
aVinterfac
p822
aVtool
p823
asI6662231
(lp824
Vaudio
p825
aVfile
p826
aVuser
p827
aVplay
p828
aVserver
p829
aVout
p830
aVservic
p831
aVmay
p832
aVauthor
p833
aVsubscrib
p834
asI6408282
(lp835
Vtrade
p836
aVuser
p837
aVprefer
p838
aVoffer
p839
aVnation
p840
aVdealer
p841
aVbroker
p842
aVsystem
p843
aVreplic
p844
aVcounteroff
p845
asI6453353
(lp846
Vresourc
p847
aVserver
p848
aVuser
p849
aVrole
p850
aVregistri
p851
aVaccess
p852
aVweb
p853
aVauthor
p854
aVruntim
p855
aVinform
p856
asI6549612
(lp857
Vmessag
p858
aVsubscrib
p859
aVliter
p860
aVunifi
p861
aVmail
p862
aVservic
p863
aVvoicemail
p864
aVhyperlink
p865
aVinterfac
p866
aVtrade
p867
asI6779004
(lp868
Vpeer
p869
aVhost
p870
aVperipher
p871
aVprotocol
p872
aVnetwork
p873
aVdevic
p874
aVcontrol
p875
aVadapt
p876
aVconnect
p877
aVinstal
p878
asI6615166
(lp879
Vcompon
p880
aVframework
p881
aVprioriti
p882
aVexist
p883
aVlist
p884
aVnetwork
p885
aVpriorit
p886
aVindicia
p887
aVmust
p888
aVnext
p889
asI6957186
(lp890
Vbuild
p891
aVpictori
p892
aVcompon
p893
aVmanag
p894
aVexist
p895
aVrepresent
p896
aVsystem
p897
aVsupport
p898
aVdeliver
p899
aVarticl
p900
asI6243691
(lp901
Vauction
p902
aVbidder
p903
aVbid
p904
aVloser
p905
aVinteract
p906
aVsystem
p907
aVwin
p908
aVoutcom
p909
aVconduct
p910
aVnotifi
p911
asI6594692
(lp912
Vautom
p913
aVupdat
p914
aVelectron
p915
aVimmediaci
p916
aVwide
p917
aVserver
p918
aVhyperlink
p919
aVofflin
p920
aVcatalog
p921
aVcommerc
p922
asI6081900
(lp923
Vserver
p924
aVsecur
p925
aVborder
p926
aVtarget
p927
aVclient
p928
aVredirect
p929
aVauthent
p930
aVextern
p931
aVaccess
p932
aVnetwork
p933
asI7630986
(lp934
Vparti
p935
aVpolici
p936
aVdata
p937
aVdisclosur
p938
aVsecur
p939
aVexchang
p940
aVcommunic
p941
aVdissemin
p942
aVintermedi
p943
aVinterchang
p944
asI5963916
(lp945
Vpreview
p946
aVmusic
p947
aVsite
p948
aVweb
p949
aVuser
p950
aVnetwork
p951
aVcontempl
p952
aVselect
p953
aVproduct
p954
aVhardwar
p955
asI6774926
(lp956
Vtelevis
p957
aVperson
p958
aVprogram
p959
aVschedul
p960
aVviewer
p961
aVchannel
p962
aVmay
p963
aVcontributor
p964
aVfavorit
p965
aVchat
p966
asI6408336
(lp967
Vaccess
p968
aVadministr
p969
aVuser
p970
aVfilter
p971
aVencrypt
p972
aVinform
p973
aVcopi
p974
aVresourc
p975
aVtrust
p976
aVnetwork
p977
asI6523027
(lp978
Vrecordset
p979
aVserver
p980
aVbusi
p981
aVfirst
p982
aVsecond
p983
aVcriteria
p984
aVobject
p985
aVjava
p986
aVcommerc
p987
aVinterfac
p988
asI5963924
(lp989
Vpayment
p990
aVinstrument
p991
aVtransact
p992
aVpurs
p993
aVwallet
p994
aVmonetari
p995
aVelectron
p996
aVapprov
p997
aVauthor
p998
aVcustomarili
p999
asI5884056
(lp1000
Vbrows
p1001
aVrepresent
p1002
aVvideo
p1003
aVobject
p1004
aVuser
p1005
aVclient
p1006
aVworld
p1007
aVinterv
p1008
aVweb
p1009
aVpoint
p1010
asI7272613
(lp1011
Vfile
p1012
aVmanag
p1013
aVdistribut
p1014
aVabil
p1015
aVsystem
p1016
aVinnov
p1017
aVreassembl
p1018
aVcontent
p1019
aVdirectori
p1020
aVmetadata
p1021
asI5793966
(lp1022
Vserver
p1023
aVauthor
p1024
aVmachin
p1025
aVclient
p1026
aVmessag
p1027
aVservic
p1028
aVinform
p1029
aVperform
p1030
aVhttp
p1031
aVdocument
p1032
asI6484143
(lp1033
Vfee
p1034
aVcustom
p1035
aVgtm
p1036
aVdistribut
p1037
aVtraffic
p1038
aVhardwar
p1039
aVcdn
p1040
aVsoftwar
p1041
aVuser
p1042
aVsystem
p1043
asI5742768
(lp1044
Vweb
p1045
aVpage
p1046
aVbrowser
p1047
aVapplet
p1048
aVmenu
p1049
aVdisplay
p1050
aVembed
p1051
aVrequest
p1052
aVdownload
p1053
aVuser
p1054
asI6721713
(lp1055
Vallianc
p1056
aVframework
p1057
aVbusi
p1058
aVnetwork
p1059
aVentiti
p1060
aVcompon
p1061
aVcurrent
p1062
aVamong
p1063
aVpictori
p1064
aVidentifi
p1065
asI6484148
(lp1066
Vadvertis
p1067
aVindividu
p1068
aVtarget
p1069
aVidentifi
p1070
aVsignal
p1071
aVelectron
p1072
aVcellular
p1073
aVconsum
p1074
aVsame
p1075
aVtelephon
p1076
asI6484149
(lp1077
Vproduct
p1078
aVweb
p1079
aVstore
p1080
aVtemplat
p1081
aVfile
p1082
aVdatabas
p1083
aVinventori
p1084
aVdesign
p1085
aVbrowser
p1086
aVpermit
p1087
asI6202060
(lp1088
Vhandwrit
p1089
aVcursiv
p1090
aVdata
p1091
aVprocessor
p1092
aVmanag
p1093
aVprogram
p1094
aVstorag
p1095
aVcomput
p1096
aVuser
p1097
aVrecogn
p1098
asI6144375
(lp1099
Vevent
p1100
aVviewer
p1101
aVworld
p1102
aVselect
p1103
aVtimelin
p1104
aVview
p1105
aVqueri
p1106
aVuser
p1107
aVmulti
p1108
aVreal
p1109
asI6236365
(lp1110
Vlocat
p1111
aVstation
p1112
aVmobil
p1113
aVurban
p1114
aVcommerci
p1115
aVcmrrs
p1116
aVnamp
p1117
aVrequest
p1118
aVsuburban
p1119
aVsystem
p1120
asI5951694
(lp1121
Vservic
p1122
aVserver
p1123
aVmicrocomput
p1124
aVgateway
p1125
aVapplic
p1126
aVsession
p1127
aVclient
p1128
aVredirect
p1129
aVreplic
p1130
aVload
p1131
asI6662357
(lp1132
Vframework
p1133
aVmanag
p1134
aVinform
p1135
aVarchitectur
p1136
aVuniqu
p1137
aVdevelop
p1138
aVfolder
p1139
aVrepositori
p1140
aVmetadata
p1141
aVsystem
p1142
asI6609113
(lp1143
Vaccount
p1144
aVvpl
p1145
aVipa
p1146
aVeft
p1147
aVppp
p1148
aVpayment
p1149
aVwallet
p1150
aVportal
p1151
aVpay
p1152
aVanyon
p1153
asI6615258
(lp1154
Vcustom
p1155
aVmanag
p1156
aVentitl
p1157
aVservic
p1158
aVdata
p1159
aVinterfac
p1160
aVinternet
p1161
aVworkstat
p1162
aVenterpris
p1163
aVuser
p1164
asI6173316
(lp1165
Vhtml
p1166
aVmarkup
p1167
aVwireless
p1168
aVbrowser
p1169
aVlanguag
p1170
aVman
p1171
aVcommunic
p1172
aVcontent
p1173
aVdisplay
p1174
aVinterfac
p1175
asI5937392
(lp1176
Vadvertis
p1177
aVcampaign
p1178
aVdatabas
p1179
aVserver
p1180
aVserv
p1181
aVad
p1182
aVinform
p1183
aVbanner
p1184
aVoften
p1185
aVfrequenc
p1186
asI6832373
(lp1187
Vupdat
p1188
aVinform
p1189
aV104c
p1190
aV110c
p1191
aVsequenc
p1192
aVdigit
p1193
aV110a
p1194
aVsoftwar
p1195
aVfile
p1196
aVprone
p1197
asI5791991
(lp1198
Vconsum
p1199
aVrebat
p1200
aVgame
p1201
aVcategori
p1202
aVinteract
p1203
aVmatch
p1204
aVproduct
p1205
aVmatrix
p1206
aVmail
p1207
aVdisplay
p1208
asI6400272
(lp1209
Vtag
p1210
aVrfid
p1211
aVaspect
p1212
aVcommunic
p1213
aVreceiv
p1214
aVfeatur
p1215
aVidentifi
p1216
aVcomput
p1217
aVtransmit
p1218
aVtransceiv
p1219
asI6760721
(lp1220
Vmetadata
p1221
aVuser
p1222
aVgraphic
p1223
aVdatabas
p1224
aVhierarch
p1225
aVtree
p1226
aVinterfac
p1227
aVchang
p1228
aVdynam
p1229
aVmanag
p1230
asI6512919
(lp1231
Vpurchas
p1232
aVvideophon
p1233
aVtransact
p1234
aVwireless
p1235
aVprogram
p1236
aVdownload
p1237
aVitem
p1238
aVshop
p1239
aVicon
p1240
aVfacilit
p1241
asI6138139
(lp1242
Vmmcc
p1243
aVtransact
p1244
aVparti
p1245
aVdivers
p1246
aVassoci
p1247
aVstring
p1248
aVdim
p1249
aVproject
p1250
aVenterpris
p1251
aVdatabas
p1252
asI6324519
(lp1253
Vadvertis
p1254
aVopportun
p1255
aVconsum
p1256
aVauction
p1257
aVbid
p1258
aVlifestyl
p1259
aVcorrel
p1260
aVdeliv
p1261
aVrevenu
p1262
aVaudienc
p1263
asI6240555
(lp1264
Vsupplement
p1265
aVviewer
p1266
aVcontent
p1267
aVprogram
p1268
aVinteract
p1269
aVbroadcast
p1270
aVresourc
p1271
aVtarget
p1272
aVepg
p1273
aVlayout
p1274
asI6324524
(lp1275
Voffer
p1276
aVcredit
p1277
aVapplic
p1278
aVplural
p1279
aVobtain
p1280
aVreport
p1281
aVaccount
p1282
aVcustom
p1283
aVreal
p1284
aVbalanc
p1285
asI6324525
(lp1286
Velectron
p1287
aVsettlement
p1288
aVtransact
p1289
aVdevic
p1290
aVconsumm
p1291
aVtermin
p1292
aVissuer
p1293
aVmonetari
p1294
aVmerchant
p1295
aVcash
p1296
asI6330670
(lp1297
Vright
p1298
aVmanag
p1299
aVuntrust
p1300
aVtrust
p1301
aVpage
p1302
aVdigit
p1303
aVfile
p1304
aVdata
p1305
aVmemori
p1306
aVoper
p1307
asI6609200
(lp1308
Vdocument
p1309
aVelectron
p1310
aVenviron
p1311
aVtype
p1312
aVdefinit
p1313
aVsgml
p1314
aVblock
p1315
aVrecord
p1316
aVmortgag
p1317
aVmap
p1318
asI6021433
(lp1319
Vbroadcast
p1320
aVdata
p1321
aVwireless
p1322
aVcentric
p1323
aVnotif
p1324
aVdetail
p1325
aVcomput
p1326
aVline
p1327
aVinform
p1328
aVpreprocess
p1329
asI5802299
(lp1330
Vdocument
p1331
aVhypertext
p1332
aVdisplay
p1333
aVremot
p1334
aVinform
p1335
aVsupervisori
p1336
aVstore
p1337
aVfile
p1338
aVlocal
p1339
aVunit
p1340
asI6076734
(lp1341
Vencod
p1342
aVcomput
p1343
aVsensor
p1344
aVinform
p1345
aVuser
p1346
aVinterfac
p1347
aVphysic
p1348
aVcertain
p1349
aVmedium
p1350
aVsuitabl
p1351
asI6732101
(lp1352
Vrecipi
p1353
aVmail
p1354
aVmessag
p1355
aVprefer
p1356
aVsecur
p1357
aVdeliveri
p1358
aVencrypt
p1359
aVdeliv
p1360
aVinteroper
p1361
aVservic
p1362
asI5945988
(lp1363
Ventertain
p1364
aVuser
p1365
aVautomat
p1366
aVdynam
p1367
aVprocessor
p1368
aVsystem
p1369
aVmedium
p1370
aVagent
p1371
aVstorag
p1372
aVsubset
p1373
asI5884262
(lp1374
Vdocument
p1375
aVaudio
p1376
aVaccess
p1377
aVformat
p1378
aVtelephon
p1379
aVfile
p1380
aVinterfac
p1381
aVsystem
p1382
aVvia
p1383
aVvisual
p1384
asI6401085
(lp1385
Vweb
p1386
aVinform
p1387
aVroutin
p1388
aVwireless
p1389
aVwordprocessor
p1390
aVuser
p1391
aVqueri
p1392
aVinternet
p1393
aVavail
p1394
aVpopular
p1395
asI6564213
(lp1396
Vautocomplet
p1397
aVdataset
p1398
aVstring
p1399
aVqueri
p1400
aVsuggest
p1401
aVdatabas
p1402
aVuser
p1403
aVsearch
p1404
aVonlin
p1405
aVaccess
p1406
asI6658423
(lp1407
Vduplic
p1408
aVfingerprint
p1409
aVdocument
p1410
aVnear
p1411
aVlist
p1412
aVassign
p1413
aVextract
p1414
aVpopul
p1415
aVconsid
p1416
aVnumber
p1417
asI6601087
(lp1418
Vdocument
p1419
aVshare
p1420
aVconfer
p1421
aVapplic
p1422
aVscreen
p1423
aVowner
p1424
aVview
p1425
aVinstant
p1426
aVrefer
p1427
aVinteract
p1428
asI7127424
(lp1429
Vtrader
p1430
aVprice
p1431
aVtrade
p1432
aVconsolid
p1433
aVmarket
p1434
aVorder
p1435
aVfavor
p1436
aVfluctuat
p1437
aVdisplay
p1438
aVdepth
p1439
asI6564228
(lp1440
Vfile
p1441
aVunivers
p1442
aVhost
p1443
aVnetwork
p1444
aVstorag
p1445
aVheterogen
p1446
aVarea
p1447
aVani
p1448
aVsystem
p1449
aVwrite
p1450
asI5752246
(lp1451
Vweb
p1452
aVserver
p1453
aVbrowser
p1454
aVrequest
p1455
aVdis
p1456
aVagent
p1457
aVfulfil
p1458
aVdatabas
p1459
aVgeograh
p1460
aVintranet
p1461
asI6058379
(lp1462
sI6842767
(lp1463
Vcaller
p1464
aVperson
p1465
aVcontent
p1466
aVtelephon
p1467
aVdialect
p1468
aVparti
p1469
aVuser
p1470
aVidentifi
p1471
aVcall
p1472
aVher
p1473
asI5894554
(lp1474
Vweb
p1475
aVpage
p1476
aVserver
p1477
aVrequest
p1478
aVdynam
p1479
aVmanag
p1480
aVimplement
p1481
aVprocess
p1482
aVgenerat
p1483
aVteach
p1484
asI6269343
(lp1485
Vbuyer
p1486
aVseller
p1487
aVoffer
p1488
aVprice
p1489
aVdemand
p1490
aVaggreg
p1491
aVpotenti
p1492
aVgiven
p1493
aVdiscount
p1494
aVvolum
p1495
asI7240100
(lp1496
Vmetadata
p1497
aVcdn
p1498
aVrequest
p1499
aVcontent
p1500
aVserver
p1501
aVstring
p1502
aVfile
p1503
aVobject
p1504
aVheader
p1505
aVoverridden
p1506
asI6324647
(lp1507
Vnetwork
p1508
aVmail
p1509
aVunauthor
p1510
aVattempt
p1511
aVover
p1512
aVaccess
p1513
aVelectron
p1514
aVinappropri
p1515
aVcommunic
p1516
aVarticl
p1517
asI6631849
(lp1518
Vcard
p1519
aVstrip
p1520
aVfeatur
p1521
aVmagnet
p1522
aVmean
p1523
aVswipe
p1524
aVselect
p1525
aVpurpos
p1526
aVplural
p1527
aVmulti
p1528
asI7145898
(lp1529
Vhybrid
p1530
aVrout
p1531
aVinform
p1532
aVnetwork
p1533
aVinternet
p1534
aVmedia
p1535
aVarchitectur
p1536
aVuser
p1537
aVcall
p1538
aVprofil
p1539
asI6269361
(lp1540
Vsearch
p1541
aVlist
p1542
aVbid
p1543
aVnetwork
p1544
aVinform
p1545
aVterm
p1546
aVaccount
p1547
aVinfluenc
p1548
aVrank
p1549
aVamount
p1550
asI6078907
(lp1551
Vbill
p1552
aVredact
p1553
aVfile
p1554
aVparti
p1555
aVelectron
p1556
aVreconstruct
p1557
aVprepar
p1558
aVact
p1559
aVpay
p1560
aVinsert
p1561
asI6549949
(lp1562
Vcontract
p1563
aVformat
p1564
aVsend
p1565
aVfix
p1566
aVreceiv
p1567
aVsystem
p1568
aVmessag
p1569
aVtranslat
p1570
aVsent
p1571
aVstream
p1572
asI6216129
(lp1573
Vconsum
p1574
aVadvertis
p1575
aVvector
p1576
aVcharacter
p1577
aVcorrel
p1578
aVmarket
p1579
aVprice
p1580
aVview
p1581
aVpurchas
p1582
aVdiscretionari
p1583
asI6183366
(lp1584
Vadvertis
p1585
aVinteract
p1586
aVuser
p1587
aVgame
p1588
aVservic
p1589
aVinternet
p1590
aVnetwork
p1591
aVmay
p1592
aVmicrotarget
p1593
aVconcurr
p1594
asI6425035
(lp1595
Vscsi
p1596
aVstorag
p1597
aVrouter
p1598
aVworkstat
p1599
aVtransport
p1600
aVmedium
p1601
aVchannel
p1602
aVfiber
p1603
aVdevic
p1604
aVaccess
p1605
asI6760916
(lp1606
Vadvertis
p1607
aVmedia
p1608
aVproduct
p1609
aVtelevis
p1610
aVclient
p1611
aVdistribut
p1612
aVprogram
p1613
aVperson
p1614
aVenhanc
p1615
aVsponsorship
p1616
asI6772132
(lp1617
Vtrade
p1618
aVtrader
p1619
aVmarket
p1620
aVprice
p1621
aVfluctuat
p1622
aVdepth
p1623
aVdisplay
p1624
aVintuit
p1625
aVplane
p1626
aVclick
p1627
asI6490601
(lp1628
Vfield
p1629
aVelectron
p1630
aVname
p1631
aVstring
p1632
aVdata
p1633
aVsoftwar
p1634
aVmap
p1635
aVform
p1636
aVserver
p1637
aVperson
p1638
asI6101484
(lp1639
sI6248946
(lp1640
Vmultimedia
p1641
aVcomput
p1642
aVuser
p1643
aVlisten
p1644
aVmedia
p1645
aVdeliv
p1646
aVadvertis
p1647
aVmusic
p1648
aVcontent
p1649
aVplayer
p1650
asI5974441
(lp1651
Vweb
p1652
aVserver
p1653
aVbrowser
p1654
aVclient
p1655
aVrequest
p1656
aVdatabas
p1657
aVdis
p1658
aVapplet
p1659
aVjava
p1660
aVintrepret
p1661
asI6251017
(lp1662
Vvalid
p1663
aVinternet
p1664
aVsite
p1665
aVcode
p1666
aVbenefit
p1667
aVlotteri
p1668
aVreward
p1669
aVpoint
p1670
aVgame
p1671
aVcustom
p1672
asI6640145
(lp1673
Vinterfac
p1674
aVaudio
p1675
aVvideo
p1676
aVdata
p1677
aVpacket
p1678
aVintellig
p1679
aVmedia
p1680
aVcommunic
p1681
aVcryptoprocess
p1682
aVdigit
p1683
asI6601234
(lp1684
Vattribut
p1685
aVdictionari
p1686
aVfacad
p1687
aVhelper
p1688
aVbusi
p1689
aVvalu
p1690
aVname
p1691
aVupdat
p1692
aVget
p1693
aVobject
p1694
asI6154771
(lp1695
Vhypervideo
p1696
aVthumbnail
p1697
aVhyperlink
p1698
aVscene
p1699
aVsuv
p1700
aVisp
p1701
aVnetwork
p1702
aVdecompress
p1703
aVvideo
p1704
aVstream
p1705
asI5802518
(lp1706
Vresearch
p1707
aVdocument
p1708
aVserver
p1709
aVweb
p1710
aVrepositori
p1711
aVqueri
p1712
aVinvestor
p1713
aVauthor
p1714
aVdatabas
p1715
aVsearch
p1716
asI6842906
(lp1717
Vproxi
p1718
aValloc
p1719
aVpool
p1720
aVservic
p1721
aVqueue
p1722
aVglobal
p1723
aVname
p1724
aVinterfac
p1725
aVaddress
p1726
aVclient
p1727
asI6023708
(lp1728
sI5812769
(lp1729
Vwww
p1730
aVurl
p1731
aVredirect
p1732
aVlocat
p1733
aVdestin
p1734
aVaddress
p1735
aVuser
p1736
aVsecond
p1737
aVrepres
p1738
aVfirst
p1739
asI6023714
(lp1740
sI6072870
(lp1741
Vpayment
p1742
aVmerchant
p1743
aVgateway
p1744
aVtransact
p1745
aVlegaci
p1746
aVcomput
p1747
aVsystem
p1748
aVcredit
p1749
aVsecur
p1750
aVinform
p1751
asI6058417
(lp1752
sI5970472
(lp1753
Vdealer
p1754
aVprocess
p1755
aVremot
p1756
aVvalid
p1757
aVlocal
p1758
aVauthor
p1759
aVrequest
p1760
aVmanufactur
p1761
aVcommerc
p1762
aVcustom
p1763
asI6009410
(lp1764
Vadvertis
p1765
aVpage
p1766
aVbanner
p1767
aVuser
p1768
aVcustom
p1769
aVrepositori
p1770
aVweb
p1771
aVetc
p1772
aVsite
p1773
aVdynam
p1774
asI6151606
(lp1775
Vworkspac
p1776
aVdata
p1777
aVdownload
p1778
aVmanipul
p1779
aVsite
p1780
aVremot
p1781
aVmanag
p1782
aVinstanti
p1783
aVinterfac
p1784
aVmodul
p1785
asI6154844
(lp1786
Vdownload
p1787
aVprofil
p1788
aVengin
p1789
aVsecur
p1790
aVcertif
p1791
aVinspect
p1792
aVcontent
p1793
aVauthent
p1794
aVidentifi
p1795
aVinspector
p1796
asI6351467
(lp1797
Vmulticast
p1798
aVreceiv
p1799
aVinform
p1800
aVchannel
p1801
aVweb
p1802
aVmultimedia
p1803
aVinternet
p1804
aVspeed
p1805
aVaccess
p1806
aVensur
p1807
asI6025837
(lp1808
sI6640238
(lp1809
Vclient
p1810
aVinterfac
p1811
aVrequest
p1812
aVserver
p1813
aVpresent
p1814
aVservic
p1815
aVhandl
p1816
aVactiv
p1817
aVreceipt
p1818
aVpurpos
p1819
asI7039599
(lp1820
Vadvertis
p1821
aVserver
p1822
aVtransact
p1823
aVdirect
p1824
aVproxi
p1825
aVreport
p1826
aVplacement
p1827
aVaccount
p1828
aVback
p1829
aVscarc
p1830
asI6085234
(lp1831
Vcach
p1832
aVfile
p1833
aVworkstat
p1834
aVrequest
p1835
aVnetwork
p1836
aVservic
p1837
aVinfrastructur
p1838
aVserver
p1839
aVdata
p1840
aVinterfac
p1841
asI6640244
(lp1842
Vmessag
p1843
aVlogic
p1844
aVtransact
p1845
aVrequest
p1846
aVbatcher
p1847
aVnetwork
p1848
aVsent
p1849
aVgroup
p1850
aVsend
p1851
aVwork
p1852
asI6640249
(lp1853
Vnetcentr
p1854
aVvalid
p1855
aVassign
p1856
aVuser
p1857
aVpresent
p1858
aVlogic
p1859
aVservic
p1860
aVacross
p1861
aVinterfac
p1862
aVpattern
p1863
asI5913210
(lp1864
Vproduct
p1865
aVinternet
p1866
aVcode
p1867
aVresel
p1868
aVtranslat
p1869
aVinform
p1870
aVaddress
p1871
aVlist
p1872
aVcustom
p1873
aVmanufactur
p1874
asI6185598
(lp1875
Vrepeat
p1876
aVresourc
p1877
aVbest
p1878
aVclient
p1879
aVserver
p1880
aVreflector
p1881
aVselect
p1882
aVorigin
p1883
aVrewritten
p1884
aVrequest
p1885
asI6460036
(lp1886
Vtarget
p1887
aVsummari
p1888
aVinterest
p1889
aVprofil
p1890
aVuser
p1891
aVobject
p1892
aVelectron
p1893
aVcustom
p1894
aVmedia
p1895
aVarticl
p1896
asI6785671
(lp1897
Vpage
p1898
aVweb
p1899
aVoffer
p1900
aVqueri
p1901
aVsearch
p1902
aVproduct
p1903
aVscore
p1904
aVlocat
p1905
aVuser
p1906
aVcrawler
p1907
asI6011537
(lp1908
sI5761683
(lp1909
Vhypertext
p1910
aVdocument
p1911
aVdisplay
p1912
aVremot
p1913
aVinform
p1914
aVsupervisori
p1915
aVlink
p1916
aVstore
p1917
aVfile
p1918
aVlocal
p1919
asI5978773
(lp1920
Vupc
p1921
aVcode
p1922
aVcommerc
p1923
aVurl
p1924
aVordinari
p1925
aVaccess
p1926
aVinternet
p1927
aVsymbol
p1928
aVresourc
p1929
aVdatabas
p1930
asI6185625
(lp1931
Vencod
p1932
aVproxi
p1933
aVclient
p1934
aVnetwork
p1935
aVuser
p1936
aVremot
p1937
aVobject
p1938
aVscale
p1939
aVserver
p1940
aVretriev
p1941
asI6963867
(lp1942
Vcategori
p1943
aVsearch
p1944
aVqueri
p1945
aVitem
p1946
aVrelev
p1947
aVuser
p1948
aVscore
p1949
aVsatisfi
p1950
aVmultipl
p1951
aVlevel
p1952
asI6343324
(lp1953
Vmemori
p1954
aVcomput
p1955
aVhardwar
p1956
aVstructur
p1957
aVdefin
p1958
aVdata
p1959
aVtabl
p1960
aVaccess
p1961
aVmap
p1962
aVidentifi
p1963
asI5948061
(lp1964
Vadvertis
p1965
aVnetwork
p1966
aVtarget
p1967
aVsite
p1968
aVuser
p1969
aVdeliveri
p1970
aVaffili
p1971
aVindividu
p1972
aVpeopl
p1973
aVcompil
p1974
asI6785704
(lp1975
Vcontent
p1976
aVclient
p1977
aVdistribut
p1978
aVnetwork
p1979
aVredirector
p1980
aVredirect
p1981
aVrequest
p1982
aVserver
p1983
aVprimari
p1984
aVname
p1985
asI5941947
(lp1986
Vaccess
p1987
aVright
p1988
aVentiti
p1989
aVcategori
p1990
aVuser
p1991
aVserver
p1992
aVprivileg
p1993
aVapplic
p1994
aVlist
p1995
aVdata
p1996
asI7117504
(lp1997
Vclass
p1998
aVhttp
p1999
aVinterfac
p2000
aVprogram
p2001
aVapplic
p2002
aVcooki
p2003
aVcach
p2004
aVexcept
p2005
aVinform
p2006
aVregard
p2007
asI6505160
(lp2008
Vobject
p2009
aVmedia
p2010
aVserver
p2011
aVidentifi
p2012
aVcontext
p2013
aVrequest
p2014
aVmetadata
p2015
aVexperi
p2016
aVplayback
p2017
aVinform
p2018
asI7140044
(lp2019
Vcommuniti
p2020
aVsecur
p2021
aVdata
p2022
aVplaintext
p2023
aVextract
p2024
aVlevel
p2025
aVreconstruct
p2026
aVencrypt
p2027
aVclearanc
p2028
aVsepar
p2029
asI6636242
(lp2030
Vview
p2031
aVstartup
p2032
aVnotif
p2033
aVactiv
p2034
aVevent
p2035
aVrefer
p2036
aVlaunch
p2037
aVcriteria
p2038
aVreceipt
p2039
aVinstanc
p2040
asI7181017
(lp2041
Vparti
p2042
aVcomprehens
p2043
aVinform
p2044
aVencrypt
p2045
aVnegoti
p2046
aVintermediari
p2047
aVdecrypt
p2048
aVfunction
p2049
aVcommunic
p2050
aVuntrust
p2051
asI5960411
(lp2052
Vpurchas
p2053
aVclient
p2054
aVserver
p2055
aVorder
p2056
aVidentifi
p2057
aVsystem
p2058
aVitem
p2059
aVassign
p2060
aVinform
p2061
aVbutton
p2062
asI6535909
(lp2063
Vsession
p2064
aVcomput
p2065
aVsite
p2066
aVbrows
p2067
aVcollabor
p2068
aVuser
p2069
aVweb
p2070
aVreplay
p2071
aVarchiv
p2072
aVaudio
p2073
asI6298348
(lp2074
Vconsum
p2075
aVprofil
p2076
aVdemograph
p2077
aVadvertis
p2078
aVpurchas
p2079
aVproduct
p2080
aVinform
p2081
aVcorrel
p2082
aVupdat
p2083
aVtransmit
p2084
asI6460141
(lp2085
Vweb
p2086
aVunifi
p2087
aVmanag
p2088
aVsecur
p2089
aVaccess
p2090
aVnon
p2091
aVtool
p2092
aVdeploy
p2093
aVsystem
p2094
aVenabl
p2095
asI6044403
(lp2096
Vservic
p2097
aVserver
p2098
aVplatform
p2099
aVinternet
p2100
aVnew
p2101
aVuser
p2102
aVcustom
p2103
aVinform
p2104
aVprofil
p2105
aVoffic
p2106
asI5987454
(lp2107
Vwarehous
p2108
aVdatabas
p2109
aVtext
p2110
aVgraphic
p2111
aVexpert
p2112
aVinternet
p2113
aVresourc
p2114
aVaudio
p2115
aVparagraph
p2116
aVmultimedia
p2117
asI5933829
(lp2118
Vchecksum
p2119
aVscan
p2120
aVpars
p2121
aVdecrypt
p2122
aVcode
p2123
aVfile
p2124
aVobfusc
p2125
aVpointer
p2126
aVencrypt
p2127
aVaccess
p2128
asI6519571
(lp2129
Vpurchas
p2130
aVcustom
p2131
aVproduct
p2132
aVprofess
p2133
aVprofil
p2134
aVreturn
p2135
aVeduc
p2136
aVreason
p2137
aVstate
p2138
aVlevel
p2139
asI6134548
(lp2140
Vweb
p2141
aVbook
p2142
aVproduct
p2143
aVroutin
p2144
aVwireless
p2145
aVhand
p2146
aVheld
p2147
aVdefinit
p2148
aVbargain
p2149
aVphone
p2150
asI6282713
(lp2151
Vadvertis
p2152
aVitem
p2153
aVtelevis
p2154
aVviewer
p2155
aVbroadcast
p2156
aVprogram
p2157
aVinform
p2158
aVindic
p2159
aVscene
p2160
aValert
p2161
asI6834308
(lp2162
Vmedia
p2163
aVcontent
p2164
aVsampl
p2165
aVpresent
p2166
aVplayer
p2167
aVidentifi
p2168
aVuser
p2169
aVaction
p2170
aVinform
p2171
aVdigit
p2172
asI6073124
(lp2173
Vdcs
p2174
aVmerchandis
p2175
aVlicens
p2176
aVpurchas
p2177
aVclient
p2178
aVcertif
p2179
aVserver
p2180
aVcommerc
p2181
aVelectron
p2182
aVrequest
p2183
asI5892905
(lp2184
Vhtml
p2185
aVsoftwar
p2186
aVwww
p2187
aVinterfac
p2188
aVstandard
p2189
aVdevelop
p2190
aVapplic
p2191
aVadopt
p2192
aVmarket
p2193
aVaccess
p2194
asI6226752
(lp2195
Vserver
p2196
aVlogin
p2197
aVauthent
p2198
aVapplic
p2199
aVuser
p2200
aVsession
p2201
aVvalid
p2202
aVmechan
p2203
aVredirect
p2204
aVverifi
p2205
asI6026379
(lp2206
Vtransact
p2207
aVrespons
p2208
aVgateway
p2209
aVcanon
p2210
aVlog
p2211
aVretri
p2212
aVhost
p2213
aVfradul
p2214
aVnetwork
p2215
aVserver
p2216
asI5987140
(lp2217
Vmerchant
p2218
aVcomput
p2219
aVsecur
p2220
aVtransmiss
p2221
aVpayment
p2222
aVgateway
p2223
aVsystem
p2224
aVcustom
p2225
aVdenial
p2226
aVdata
p2227
asI6298445
(lp2228
Vcomput
p2229
aVsecur
p2230
aVaspect
p2231
aVvulner
p2232
aVenhanc
p2233
aVwhenev
p2234
aVassess
p2235
aVsoftwar
p2236
aVbecom
p2237
aVavail
p2238
asI6064980
(lp2239
Vtitl
p2240
aVservic
p2241
aVrecommend
p2242
aVcategori
p2243
aVcatalog
p2244
aVcollabor
p2245
aVuser
p2246
aVrate
p2247
aVnew
p2248
aVsite
p2249
asI6167382
(lp2250
Vmarket
p2251
aVclient
p2252
aVpiec
p2253
aVproprietor
p2254
aVimag
p2255
aVresolut
p2256
aVassembl
p2257
aVtemplat
p2258
aVseri
p2259
aVtext
p2260
asI6697824
(lp2261
Vuser
p2262
aVcontent
p2263
aVattribut
p2264
aVprofil
p2265
aVdeliv
p2266
aVmatch
p2267
aVcollect
p2268
aVmanag
p2269
aVcommerc
p2270
aVwebsit
p2271
asI6536037
(lp2272
Vomiss
p2273
aVframework
p2274
aVredund
p2275
aVexist
p2276
aVnetwork
p2277
aVcompon
p2278
aVconvey
p2279
aVamong
p2280
aVweb
p2281
aVpictori
p2282
asI6052718
(lp2283
Vreplica
p2284
aVinternetwork
p2285
aVclient
p2286
aVrout
p2287
aVundu
p2288
aVnew
p2289
aVservic
p2290
aVtopolog
p2291
aVbest
p2292
aVoverhead
p2293
asI6374260
(lp2294
Vupload
p2295
aVmultimedia
p2296
aVsearch
p2297
aVfile
p2298
aVanalyz
p2299
aVcontext
p2300
aVindex
p2301
aVcontent
p2302
aVapparatus
p2303
aVdisplay
p2304
asI5929849
(lp2305
Vurl
p2306
aVdisplay
p2307
aVframe
p2308
aVentiti
p2309
aVassoci
p2310
aVdata
p2311
aVinternet
p2312
aVpage
p2313
aVweb
p2314
aVsuccess
p2315
asI6052730
(lp2316
sI5956487
(lp2317
Vweb
p2318
aVaccess
p2319
aVinterfac
p2320
aVpage
p2321
aVuser
p2322
aVbrowser
p2323
aVfunction
p2324
aVdevic
p2325
aVembed
p2326
aVenabl
p2327
asI6650761
(lp2328
Vsteganograph
p2329
aVperson
p2330
aVbusi
p2331
aVcard
p2332
aVupdat
p2333
aVencod
p2334
aVinform
p2335
aVbit
p2336
aVcontact
p2337
aVwatermark
p2338
asI5931917
(lp2339
Vgateway
p2340
aVmerchant
p2341
aVpayment
p2342
aVsystem
p2343
aVinternet
p2344
aVtransact
p2345
aVrequest
p2346
aVcomput
p2347
aVvpos
p2348
aVfinanci
p2349
asI5819285
(lp2350
Vuser
p2351
aVmarket
p2352
aVidentif
p2353
aVenrol
p2354
aVservic
p2355
aVstore
p2356
aVcomput
p2357
aVmean
p2358
aVident
p2359
aVuniqu
p2360
asI6144944
(lp2361
Vadvertis
p2362
aVinform
p2363
aVaffin
p2364
aVsponsor
p2365
aVserver
p2366
aVrequest
p2367
aVselect
p2368
aVengin
p2369
aVpage
p2370
aVdemograph
p2371
asI5737395
(lp2372
Vmessag
p2373
aVvoic
p2374
aVicd
p2375
aVfacsimil
p2376
aVtext
p2377
aVcomput
p2378
aVperson
p2379
aVsystem
p2380
aVaccess
p2381
aVretriev
p2382
asI6577080
(lp2383
Villumin
p2384
aVsignal
p2385
aVcombin
p2386
aVsourc
p2387
aVdecod
p2388
aVencod
p2389
aVcontrol
p2390
aVentertain
p2391
aVmay
p2392
aVsystem
p2393
asI5778367
(lp2394
Ventri
p2395
aVuser
p2396
aVdatabas
p2397
aVdescript
p2398
aVlanguag
p2399
aVpage
p2400
aVmade
p2401
aVpublish
p2402
aVpassword
p2403
aVretriev
p2404
asI5835712
(lp2405
Vtag
p2406
aVhtml
p2407
aVextens
p2408
aVweb
p2409
aVscript
p2410
aVtemplat
p2411
aVtext
p2412
aVclient
p2413
aVembed
p2414
aVserver
p2415
asI5778372
(lp2416
Vdocument
p2417
aVbrowser
p2418
aVelectron
p2419
aVremot
p2420
aVretriev
p2421
aVdisplay
p2422
aVincorpor
p2423
aViniti
p2424
aVpriorit
p2425
aVnetwork
p2426
asI6144991
(lp2427
Vclient
p2428
aVguid
p2429
aVdisplay
p2430
aVinteract
p2431
aVframe
p2432
aVremot
p2433
aVbrowser
p2434
aVweb
p2435
aVwhiteboard
p2436
aVspecialist
p2437
asI6065120
(lp2438
Vrendezv
p2439
aVaccount
p2440
aVprovis
p2441
aVtransact
p2442
aVthin
p2443
aVcredenti
p2444
aVuser
p2445
aVinform
p2446
aVbrowser
p2447
aVauthent
p2448
asI5893091
(lp2449
Vkeyword
p2450
aValert
p2451
aVargument
p2452
aVendus
p2453
aVboolean
p2454
aVinform
p2455
aVdictionari
p2456
aVtime
p2457
aVheadlin
p2458
aVprofil
p2459
asI6400996
(lp2460
Vrecognit
p2461
aVpredict
p2462
aVuser
p2463
aVpattern
p2464
aVmultimedia
p2465
aVstream
p2466
aVsystem
p2467
aVinexact
p2468
aVfeedback
p2469
aVdata
p2470
asI6546405
(lp2471
Vtempor
p2472
aVmultimedia
p2473
aVannot
p2474
aVdocument
p2475
aVcontent
p2476
aVdimens
p2477
aVuser
p2478
aVsubstant
p2479
aVview
p2480
aVdisplay
p2481
asI6035281
(lp2482
Vbill
p2483
aVparticip
p2484
aVparti
p2485
aVmultiparti
p2486
aVclient
p2487
aVshare
p2488
aVrespons
p2489
aVaccess
p2490
aVfunction
p2491
aVusag
p2492
asI5983208
(lp2493
Vpayment
p2494
aVgateway
p2495
aVmerchant
p2496
aVserver
p2497
aVcommunic
p2498
aVcomput
p2499
aVinstrument
p2500
aVtransmiss
p2501
aVcredit
p2502
aVsecur
p2503
asI6546419
(lp2504
Vhome
p2505
aVclient
p2506
aVdevic
p2507
aVcapabl
p2508
aVnetwork
p2509
aVsecond
p2510
aVuser
p2511
aVdisplay
p2512
aVfirst
p2513
aVinterfac
p2514
asI6446076
(lp2515
Vuser
p2516
aVintellig
p2517
aVprofil
p2518
aVuniqu
p2519
aVagent
p2520
aVinteract
p2521
aVhistori
p2522
aVfacilit
p2523
aVspeech
p2524
aVinform
p2525
asI5745681
(lp2526
Vshop
p2527
aVcart
p2528
aVpage
p2529
aVbrowser
p2530
aVserver
p2531
aVadd
p2532
aVfile
p2533
aVrequest
p2534
aVlist
p2535
aVitem
p2536
asI6698020
(lp2537
Vadvertis
p2538
aVviewer
p2539
aVhousehold
p2540
aVselect
p2541
aVvideo
p2542
aVinsert
p2543
aVprogram
p2544
aVdisplay
p2545
aVcriteria
p2546
aVfeed
p2547
asI6401075
(lp2548
Vadvertis
p2549
aVonlin
p2550
aVinternet
p2551
aVcampaign
p2552
aVthose
p2553
aVunrel
p2554
aVnewspap
p2555
aVallot
p2556
aVaudit
p2557
aVmodifi
p2558
asI6968375
(lp2559
Vquestion
p2560
aVindividu
p2561
aVremot
p2562
aVqueri
p2563
aVscript
p2564
aVserver
p2565
aVsystem
p2566
aVrespons
p2567
aVset
p2568
aVservic
p2569
asI6405181
(lp2570
Vcredit
p2571
aVapplic
p2572
aVapprov
p2573
aVreport
p2574
aVbureau
p2575
aVreal
p2576
aVdata
p2577
aVobtain
p2578
aVtime
p2579
aVanalyz
p2580
asI6321221
(lp2581
Vserendip
p2582
aVitem
p2583
aVrecommend
p2584
aVpopular
p2585
aVcommuniti
p2586
aVdata
p2587
aVset
p2588
aVvalu
p2589
aVsystem
p2590
aVweight
p2591
asI6718535
(lp2592
Vactiv
p2593
aVsub
p2594
aVexecut
p2595
aVframework
p2596
aVgoal
p2597
aVdepict
p2598
aVselect
p2599
aVupon
p2600
aVuser
p2601
aVindicia
p2602
asI5790793
(lp2603
Vurl
p2604
aVdocument
p2605
aVhtml
p2606
aVlook
p2607
aVtype
p2608
aVclick
p2609
aVmail
p2610
aVreceiv
p2611
aVdisplay
p2612
aVtext
p2613
asI6141010
(lp2614
Vadvertis
p2615
aVbanner
p2616
aVsoftwar
p2617
aVdemograph
p2618
aVuser
p2619
aVapplic
p2620
aVprogram
p2621
aVtarget
p2622
aVupgrad
p2623
aVserver
p2624
asI5712979
(lp2625
Vwww
p2626
aVsite
p2627
aVpage
p2628
aVweb
p2629
aVdestin
p2630
aVrevis
p2631
aVurl
p2632
aVuser
p2633
aVnavig
p2634
aVident
p2635
asI5905492
(lp2636
Vtheme
p2637
aVgraphic
p2638
aVresourc
p2639
aVupdat
p2640
aVhypertext
p2641
aVenhanc
p2642
aVinterfac
p2643
aVcategori
p2644
aVtopic
p2645
aVuser
p2646
asI6718551
(lp2647
Vadvertis
p2648
aVviewer
p2649
aVdeliv
p2650
aVtarget
p2651
aVsubscrib
p2652
aVbroadcast
p2653
aVnetwork
p2654
aVmedia
p2655
aVplaylist
p2656
aVserver
p2657
asI5796952
(lp2658
Vclient
p2659
aVserver
p2660
aVdownload
p2661
aVfile
p2662
aVexecut
p2663
aVprogram
p2664
aVmonitor
p2665
aVinteract
p2666
aVfirst
p2667
aVaddress
p2668
asI5809250
(lp2669
Vfile
p2670
aVsession
p2671
aVcall
p2672
aVprotocol
p2673
aVdownload
p2674
aVreplay
p2675
aVannot
p2676
aVbrows
p2677
aVmanual
p2678
aVremot
p2679
asI6601233
(lp2680
Vbusi
p2681
aVcode
p2682
aVcompon
p2683
aVlogic
p2684
aVmodul
p2685
aVinterrelationship
p2686
aVfunction
p2687
aVcapabl
p2688
aVnext
p2689
aVcommerc
p2690
asI7165041
(lp2691
Vframework
p2692
aVexist
p2693
aVnetwork
p2694
aVsell
p2695
aVservic
p2696
aVplan
p2697
aVpictori
p2698
aVcompon
p2699
aVproduct
p2700
aVsale
p2701
asI7181438
(lp2702
Vuser
p2703
aVdemograph
p2704
aVprofil
p2705
aVsociet
p2706
aVcontext
p2707
aVcriteria
p2708
aVtaxonom
p2709
aVaccess
p2710
aVdatabas
p2711
aVperson
p2712
asI7124101
(lp2713
Vasset
p2714
aVnetwork
p2715
aVevent
p2716
aVreguard
p2717
aVsubmit
p2718
aVuser
p2719
aVreciev
p2720
aVchain
p2721
aVinform
p2722
aVmanag
p2723
asI5764235
(lp2724
Vgraphic
p2725
aVimag
p2726
aVtransmit
p2727
aVtechniqu
p2728
aVnetwork
p2729
aVintranet
p2730
aVprecious
p2731
aVimplement
p2732
aVoften
p2733
aVinternet
p2734
asI5751956
(lp2735
Vserver
p2736
aVweb
p2737
aVredirect
p2738
aVclient
p2739
aVurl
p2740
aVsystem
p2741
aVrefer
p2742
aVaccount
p2743
aVpredetermin
p2744
aVdata
p2745
asI6964374
(lp2746
Vdocument
p2747
aVsensori
p2748
aVprint
p2749
aVmark
p2750
aVretriev
p2751
aViniti
p2752
aVreader
p2753
aVrecogniz
p2754
aVmanipul
p2755
aVembed
p2756
asI6182050
(lp2757
Vadvertis
p2758
aVservic
p2759
aVdemograph
p2760
aVrank
p2761
aVuser
p2762
aVaffin
p2763
aVtarget
p2764
aVconsum
p2765
aVend
p2766
aVquestionnair
p2767
asI6421675
(lp2768
Vsearch
p2769
aVkeyword
p2770
aVlist
p2771
aVweb
p2772
aVpage
p2773
aVupdatig
p2774
aVdatabas
p2775
aVentri
p2776
aVupdat
p2777
aVmost
p2778
asI6651053
(lp2779
Vupc
p2780
aVsearch
p2781
aVserver
p2782
aVproduct
p2783
aVnetwork
p2784
aVcomput
p2785
aVmanufactur
p2786
aVdescript
p2787
aVcode
p2788
aVidentifi
p2789
asI6446261
(lp2790
Vviewer
p2791
aVindicia
p2792
aVvideo
p2793
aVbroadcast
p2794
aVprofil
p2795
aVinsert
p2796
aVdatabas
p2797
aVspecif
p2798
aVtarget
p2799
aVset
p2800
asI6098106
(lp2801
sI6837436
(lp2802
Vshop
p2803
aVconsum
p2804
aVinteract
p2805
aVmarket
p2806
aVsystem
p2807
aVhome
p2808
aVcommunic
p2809
aVportabl
p2810
aVaspect
p2811
aVpresent
p2812
asI6360254
(lp2813
Vtoken
p2814
aVprivat
p2815
aVurl
p2816
aVresourc
p2817
aVvalid
p2818
aVaccess
p2819
aVuser
p2820
aVgift
p2821
aVauthent
p2822
aVaccount
p2823
asI6026433
(lp2824
sI6182094
(lp2825
Vhome
p2826
aVhtml
p2827
aVpage
p2828
aVmedia
p2829
aVmulti
p2830
aVnetwork
p2831
aVdevic
p2832
aVprogram
p2833
aVidentifi
p2834
aVbrowser
p2835
asI6421711
(lp2836
Vvirtual
p2837
aVport
p2838
aVhost
p2839
aVstorag
p2840
aVaccess
p2841
aVwwns
p2842
aVassign
p2843
aVs_ds
p2844
aVphysic
p2845
aVs_id
p2846
asI6308273
(lp2847
Vuser
p2848
aVrestrict
p2849
aVtoken
p2850
aVaccess
p2851
aVlocat
p2852
aVsecur
p2853
aVdiscrimin
p2854
aVtrust
p2855
aVdial
p2856
aVpolici
p2857
asI6421733
(lp2858
Vtranscod
p2859
aVparser
p2860
aVtransmit
p2861
aVdynam
p2862
aVservic
p2863
aVdata
p2864
aVcriterion
p2865
aVinvok
p2866
aVnetwork
p2867
aVcomput
p2868
asI6233318
(lp2869
Vmessag
p2870
aVtelephon
p2871
aVfacsimil
p2872
aVaccess
p2873
aVmultimedia
p2874
aVvoicemail
p2875
aVtext
p2876
aVnetwork
p2877
aVinternet
p2878
aVmailbox
p2879
asI6450407
(lp2880
Vrebat
p2881
aVadvertis
p2882
aVcard
p2883
aVchip
p2884
aVmoney
p2885
aVinform
p2886
aVsale
p2887
aVcustom
p2888
aVelectron
p2889
aVtranspor
p2890
asI6182142
(lp2891
Vresourc
p2892
aVserver
p2893
aVuser
p2894
aVaccess
p2895
aVrole
p2896
aVauthor
p2897
aVregistri
p2898
aVtoken
p2899
aVinform
p2900
aVclient
p2901
asI6615253
(lp2902
Vdata
p2903
aVclient
p2904
aVserver
p2905
aVexecut
p2906
aVbundl
p2907
aVcach
p2908
aVstructur
p2909
aVretriev
p2910
aVcall
p2911
aVtotal
p2912
asI6571279
(lp2913
Vinform
p2914
aVaudienc
p2915
aVlocat
p2916
aVleia
p2917
aVdeliveri
p2918
aVrecipi
p2919
aVpurveyor
p2920
aVenhanc
p2921
aVsystem
p2922
aVdisplay
p2923
asI6571282
(lp2924
Vclient
p2925
aVdatabas
p2926
aVserver
p2927
aVqueri
p2928
aVblock
p2929
aVsubset
p2930
aVdata
p2931
aVsolut
p2932
aVbuilt
p2933
aVset
p2934
asI6300947
(lp2935
Vwindow
p2936
aVweb
p2937
aVpage
p2938
aVscreen
p2939
aVdisplay
p2940
aVstrategi
p2941
aVsite
p2942
aVhome
p2943
aVview
p2944
aVsize
p2945
asI6327574
(lp2946
Vconsum
p2947
aVprofil
p2948
aVattribut
p2949
aVabstract
p2950
aVdocument
p2951
aVtransact
p2952
aVcontent
p2953
aVhierarch
p2954
aVselect
p2955
aVdeliv
p2956
asI6192407
(lp2957
Vdocument
p2958
aVpurl
p2959
aVurl
p2960
aVprivat
p2961
aVretriev
p2962
aVdeliveri
p2963
aVrecipi
p2964
aVarchitectur
p2965
aVintend
p2966
aVtrackabl
p2967
asI6311194
(lp2968
Vmetabas
p2969
aVcontent
p2970
aVsemant
p2971
aVworldmodel
p2972
aVmetadata
p2973
aVdomain
p2974
aVspecif
p2975
aVvarieti
p2976
aVontolog
p2977
aVradio
p2978
asI5987611
(lp2979
Vinternet
p2980
aVaccess
p2981
aVclient
p2982
aVapplic
p2983
aVlist
p2984
aVuser
p2985
aVsupervisor
p2986
aVversion
p2987
aVwan
p2988
aVcannot
p2989
asI5895454
(lp2990
Vdatabas
p2991
aVvendor
p2992
aVuser
p2993
aVlocal
p2994
aVremot
p2995
aVsite
p2996
aVinterfac
p2997
aVselect
p2998
aVservic
p2999
aVproduct
p3000
asI6081830
(lp3001
Vchat
p3002
aVprogram
p3003
aVcomput
p3004
aVroom
p3005
aVspecif
p3006
aVlink
p3007
aVautomat
p3008
aVchannel
p3009
aVuniqu
p3010
aVidentif
p3011
asI5999912
(lp3012
Vtag
p3013
aVparser
p3014
aVpage
p3015
aVhtml
p3016
aVcode
p3017
aVweb
p3018
aVschedul
p3019
aVadvertis
p3020
aVconvent
p3021
aVtemplat
p3022
asI6311214
(lp3023
Vobject
p3024
aVsteganograph
p3025
aVpostal
p3026
aVbit
p3027
aVlink
p3028
aVprint
p3029
aVdata
p3030
aVbook
p3031
aVadvertis
p3032
aVoptic
p3033
asI6282546
(lp3034
Vdimension
p3035
aVdatabas
p3036
aVmulti
p3037
aVvulner
p3038
aVreal
p3039
aVdata
p3040
aVevent
p3041
aVinsert
p3042
aVfeed
p3043
aVtime
p3044
asI6829368
(lp3045
Vobject
p3046
aVmedia
p3047
aVserver
p3048
aVidentifi
p3049
aVcontext
p3050
aVrequest
p3051
aVmetadata
p3052
aVexperi
p3053
aVplayback
p3054
aVinform
p3055
asI6346043
(lp3056
Vbonus
p3057
aVgame
p3058
aVaward
p3059
aVplayer
p3060
aVmatch
p3061
aVrole
p3062
aVchoic
p3063
aVsee
p3064
aVhis
p3065
aVimag
p3066
asI5918013
(lp3067
Vdocument
p3068
aVtranscod
p3069
aVclient
p3070
aVserver
p3071
aVproxi
p3072
aVdatabas
p3073
aVrequest
p3074
aVquirk
p3075
aVlatenc
p3076
aVretriev
p3077
asI5918014
(lp3078
Vcommuniti
p3079
aVsubject
p3080
aVsimilar
p3081
aVweb
p3082
aVpeopl
p3083
aVwho
p3084
aVshow
p3085
aVconsum
p3086
aVindividu
p3087
aVclick
p3088
asI5850433
(lp3089
Vdirectori
p3090
aVcustom
p3091
aVservic
p3092
aVtelephon
p3093
aVsearch
p3094
aVdatabas
p3095
aVserver
p3096
aVlist
p3097
aVprofil
p3098
aVrequest
p3099
asI6327622
(lp3100
Vserver
p3101
aVinstanc
p3102
aVapplic
p3103
aVobject
p3104
aVstatus
p3105
aVmonitor
p3106
aVbalanc
p3107
aVretriev
p3108
aVinform
p3109
aVload
p3110
asI6249252
(lp3111
Vlocat
p3112
aVinfrastructur
p3113
aVurban
p3114
aVcommerci
p3115
aVpoor
p3116
aVwireless
p3117
aVnamp
p3118
aVstation
p3119
aVrequest
p3120
aVsuburban
p3121
asI6397259
(lp3122
Vpacket
p3123
aVproxi
p3124
aVwireless
p3125
aVhyperlink
p3126
aVcompress
p3127
aVserver
p3128
aVclient
p3129
aVprotocol
p3130
aVdatagram
p3131
aVindic
p3132
asI6288716
(lp3133
Vhome
p3134
aVuser
p3135
aVinterfac
p3136
aVdevic
p3137
aVcommand
p3138
aVcontrol
p3139
aVnetwork
p3140
aVdisplay
p3141
aVdata
p3142
aVinteract
p3143
asI6507856
(lp3144
Vtemplat
p3145
aVdocument
p3146
aVbrowser
p3147
aVreturn
p3148
aVmerg
p3149
aVbusi
p3150
aVparser
p3151
aVinform
p3152
aVenter
p3153
aVserver
p3154
asI6645077
(lp3155
Vgame
p3156
aVrepositori
p3157
aVsoftwar
p3158
aVcompon
p3159
aVtermin
p3160
aVinform
p3161
aVentiti
p3162
aVtransact
p3163
aVmachin
p3164
aVupdat
p3165
asI6853982
(lp3166
Vrecommend
p3167
aVbrows
p3168
aVrecent
p3169
aVproduct
p3170
aVview
p3171
aVsession
p3172
aVvisit
p3173
aVitem
p3174
aVhistori
p3175
aVuser
p3176
asI6980962
(lp3177
Vbuy
p3178
aVopportun
p3179
aVmarket
p3180
aVmembership
p3181
aVcommerc
p3182
aVbusi
p3183
aVowner
p3184
aVtransact
p3185
aVindepend
p3186
aVcustom
p3187
asI6327652
(lp3188
Vtrust
p3189
aVident
p3190
aVload
p3191
aVcompon
p3192
aVuntrust
p3193
aVdigit
p3194
aVright
p3195
aVsignatur
p3196
aVoper
p3197
aVmanag
p3198
asI7023979
(lp3199
Vclassif
p3200
aVskill
p3201
aVcommunic
p3202
aVrout
p3203
aVdatabas
p3204
aVcall
p3205
aVprocessor
p3206
aVtelephoni
p3207
aVagent
p3208
aVreceiv
p3209
asI6757740
(lp3210
Vgeograph
p3211
aVvisitor
p3212
aVlocat
p3213
aVrout
p3214
aVsite
p3215
aVweb
p3216
aVinternet
p3217
aVdetermin
p3218
aVdatabas
p3219
aVhost
p3220
asI6067565
(lp3221
Vpage
p3222
aVprefetch
p3223
aVuser
p3224
aVfutur
p3225
aVbenefit
p3226
aVweb
p3227
aVtechniqu
p3228
aVcurrent
p3229
aVdownload
p3230
aVexpect
p3231
asI6839680
(lp3232
Vuser
p3233
aVweb
p3234
aVcategori
p3235
aVinterest
p3236
aVmembership
p3237
aVcategor
p3238
aVactiv
p3239
aVsite
p3240
aVprofil
p3241
aVglobal
p3242
asI6061448
(lp3243
sI6598026
(lp3244
Vseller
p3245
aVbuyer
p3246
aVbid
p3247
aVinternet
p3248
aVproduct
p3249
aVfirst
p3250
aVtransact
p3251
aVvia
p3252
aVcounteroff
p3253
aVcriteria
p3254
asI6671757
(lp3255
Vsync
p3256
aVdata
p3257
aVengin
p3258
aVsystem
p3259
aVstore
p3260
aVinform
p3261
aVdiffer
p3262
aVsecond
p3263
aVnetwork
p3264
aVsynchron
p3265
asI5897622
(lp3266
Vmerchant
p3267
aVdatabas
p3268
aVpage
p3269
aVmerchandis
p3270
aVshop
p3271
aVmodul
p3272
aVorder
p3273
aVdynam
p3274
aVreengin
p3275
aVsystem
p3276
asI6131096
(lp3277
Vpim
p3278
aVserver
p3279
aVsynchron
p3280
aVclient
p3281
aVglobal
p3282
aVdatabas
p3283
aVworkspac
p3284
aVupdat
p3285
aVlocal
p3286
aVdownload
p3287
asI6602137
(lp3288
Vaward
p3289
aVpick
p3290
aVplayer
p3291
aVgame
p3292
aVaccumul
p3293
aVselect
p3294
aVbonus
p3295
aVuntil
p3296
aVdevic
p3297
aVremain
p3298
asI6151584
(lp3299
Vbusi
p3300
aVdata
p3301
aVcustom
p3302
aVrequir
p3303
aVincrement
p3304
aVrule
p3305
aVoption
p3306
aVsourc
p3307
aVcore
p3308
aVcollect
p3309
asI6092194
(lp3310
Vdownload
p3311
aVpolici
p3312
aVhostil
p3313
aVsecur
p3314
aVcomparison
p3315
aVclient
p3316
aVurl
p3317
aVscript
p3318
aVcertif
p3319
aVtrust
p3320
asI6092196
(lp3321
Vhttp
p3322
aVuser
p3323
aVpassword
p3324
aVauthent
p3325
aVnetwork
p3326
aVserver
p3327
aVproblem
p3328
aVutmost
p3329
aVsecur
p3330
aVintranet
p3331
asI6981040
(lp3332
Vuser
p3333
aVdocument
p3334
aVperson
p3335
aVinterest
p3336
aVmodel
p3337
aVservic
p3338
aVupdat
p3339
aVestim
p3340
aVprobabl
p3341
aVspecif
p3342
asI6151601
(lp3343
Vcommerc
p3344
aVdata
p3345
aVinternet
p3346
aVbusi
p3347
aVpertain
p3348
aVanalyz
p3349
aVdatabas
p3350
aVoper
p3351
aVnetwork
p3352
aVelectron
p3353
asI6772150
(lp3354
Vsearch
p3355
aVphrase
p3356
aVsubmiss
p3357
aVqueri
p3358
aVengin
p3359
aVsuggest
p3360
aVuser
p3361
aVimplement
p3362
aVrelat
p3363
aVreflect
p3364
asI6335927
(lp3365
Vhybrid
p3366
aVmedia
p3367
aVnetwork
p3368
aVservic
p3369
aVrequest
p3370
aVinform
p3371
aVrout
p3372
aVuser
p3373
aVprofil
p3374
aVqualiti
p3375
asI5905865
(lp3376
Vaddress
p3377
aVaudio
p3378
aVvideo
p3379
aVservic
p3380
aVbroadcast
p3381
aVprogram
p3382
aVline
p3383
aVurl
p3384
aVsync
p3385
aVautomat
p3386
asI6671818
(lp3387
Vasset
p3388
aVnetwork
p3389
aVevent
p3390
aVproblem
p3391
aVtranslat
p3392
aVisol
p3393
aVfilter
p3394
aVlife
p3395
aVcustom
p3396
aVsoftwar
p3397
asI6647257
(lp3398
Vsubscrib
p3399
aVmessag
p3400
aVtarget
p3401
aVvoce
p3402
aVwireless
p3403
aVmobil
p3404
aVmail
p3405
aVtelemarket
p3406
aVsponsor
p3407
aVdemograph
p3408
asI6233565
(lp3409
Vtransact
p3410
aVclient
p3411
aVserver
p3412
aVauthent
p3413
aVreceipt
p3414
aVmodul
p3415
aVexecut
p3416
aVinternet
p3417
aVpayment
p3418
aVparti
p3419
asI6016484
(lp3420
sI6647269
(lp3421
Vadvertis
p3422
aVbusi
p3423
aVuser
p3424
aVcontent
p3425
aVenter
p3426
aVdeliv
p3427
aVstore
p3428
aVineffect
p3429
aVmobil
p3430
aVbeen
p3431
asI5953005
(lp3432
Vapplet
p3433
aVsong
p3434
aVmultimedia
p3435
aVaccess
p3436
aVuser
p3437
aVauthent
p3438
aVdownload
p3439
aVpage
p3440
aVlist
p3441
aVkaraok
p3442
asI6108656
(lp3443
Vvendor
p3444
aVinform
p3445
aVreadabl
p3446
aVcode
p3447
aVfile
p3448
aVdemograph
p3449
aVencod
p3450
aVaccess
p3451
aVdata
p3452
aVdocument
p3453
asI6487538
(lp3454
Vadvertis
p3455
aVisp
p3456
aVproxi
p3457
aVweb
p3458
aVsite
p3459
aVdemograph
p3460
aVinform
p3461
aVmay
p3462
aVprofil
p3463
aVuser
p3464
asI6493685
(lp3465
Vbiller
p3466
aViip
p3467
aVpayment
p3468
aVcustom
p3469
aVbill
p3470
aVaccount
p3471
aVdebit
p3472
aVcredit
p3473
aVown
p3474
aVelectron
p3475
asI6016504
(lp3476
sI5715450
(lp3477
Vthread
p3478
aVqueri
p3479
aVdatabas
p3480
aVobject
p3481
aVrepresent
p3482
aVstep
p3483
aVreplic
p3484
aVuser
p3485
aVsystem
p3486
aVfirst
p3487
asI5715453
(lp3488
Vcall
p3489
aVprocessor
p3490
aVdynam
p3491
aVlanguag
p3492
aVdata
p3493
aVqueri
p3494
aVtransact
p3495
aVfunction
p3496
aVweb
p3497
aVappropri
p3498
asI6493702
(lp3499
Vbookmark
p3500
aVrecommend
p3501
aVsearch
p3502
aVshare
p3503
aVdocument
p3504
aVuser
p3505
aVinternet
p3506
aVdatabas
p3507
aVcommuniti
p3508
aVmanag
p3509
asI6233618
(lp3510
Vaccess
p3511
aVcategori
p3512
aVrequest
p3513
aVbecauas
p3514
aVclient
p3515
aVdatabas
p3516
aVnetwork
p3517
aVtechniqu
p3518
aVcontent
p3519
aVcontrol
p3520
asI6108703
(lp3521
sI6047268
(lp3522
sI5938727
(lp3523
Vcode
p3524
aVdigit
p3525
aVdestin
p3526
aVbarcod
p3527
aVcommunic
p3528
aVmean
p3529
aVread
p3530
aVtag
p3531
aVhomepag
p3532
aVinternet
p3533
asI5996076
(lp3534
Vcertif
p3535
aVcomput
p3536
aVadministr
p3537
aVauthor
p3538
aVresid
p3539
aVname
p3540
aVfunction
p3541
aVparti
p3542
aVthird
p3543
aVcommunic
p3544
asI6868525
(lp3545
Vobject
p3546
aVsubsidi
p3547
aVgraphic
p3548
aVsponsor
p3549
aVassoci
p3550
aVrevenu
p3551
aVcollabor
p3552
aVhierarchi
p3553
aVclassif
p3554
aVpopul
p3555
asI7069234
(lp3556
Vbuyer
p3557
aVseller
p3558
aVagreement
p3559
aVnetwork
p3560
aVutil
p3561
aVcredit
p3562
aVsign
p3563
aVsent
p3564
aVtrade
p3565
aVassess
p3566
asI6018619
(lp3567
Vusag
p3568
aVserver
p3569
aVclient
p3570
aVlog
p3571
aVcomput
p3572
aVproxi
p3573
aVuser
p3574
aVtrack
p3575
aVweb
p3576
aVsignifi
p3577
asI6493758
(lp3578
Vmobil
p3579
aVofflin
p3580
aVhost
p3581
aVcontent
p3582
aVinform
p3583
aVcomput
p3584
aVdevic
p3585
aVbrows
p3586
aVcharacterist
p3587
aVtransfer
p3588
asI6542927
(lp3589
Vsteganograph
p3590
aVobject
p3591
aVpostal
p3592
aVbit
p3593
aVlink
p3594
aVprint
p3595
aVdata
p3596
aVbook
p3597
aVadvertis
p3598
aVmail
p3599
asI6542933
(lp3600
Vurl
p3601
aVcode
p3602
aVserver
p3603
aVtemplat
p3604
aVidentif
p3605
aVreadabl
p3606
aVclient
p3607
aVcomput
p3608
aVcomplet
p3609
aVlinkag
p3610
asI6047327
(lp3611
Vinfobit
p3612
aVfilter
p3613
aVclient
p3614
aVset
p3615
aVserver
p3616
aVfirst
p3617
aVdistribut
p3618
aVinform
p3619
aVcommunic
p3620
aVsend
p3621
asI5875296
(lp3622
Vweb
p3623
aVclient
p3624
aVcredenti
p3625
aVfile
p3626
aVdistribut
p3627
aVauthent
p3628
aVcooki
p3629
aVserver
p3630
aVpassword
p3631
aVuser
p3632
asI7136875
(lp3633
Vcontent
p3634
aVad
p3635
aVadvertis
p3636
aVrelev
p3637
aVput
p3638
aVspot
p3639
aViii
p3640
aVpage
p3641
aVdetermin
p3642
aVdocument
p3643
asI6157935
(lp3644
Vsaid
p3645
aVcursiv
p3646
aVhandwrit
p3647
aVrecogn
p3648
aVdata
p3649
aVprogram
p3650
aVreadabl
p3651
aVstorag
p3652
aVcomput
p3653
aVuser
p3654
asI6725227
(lp3655
Vbookmark
p3656
aVdatabas
p3657
aVdocument
p3658
aVqueri
p3659
aVhtml
p3660
aVorgan
p3661
aVkeyword
p3662
aVsemant
p3663
aVcapabl
p3664
aVvrml
p3665
asI6317722
(lp3666
Vitem
p3667
aVshop
p3668
aVcart
p3669
aVuser
p3670
aVrecommend
p3671
aVpurchas
p3672
aVinterest
p3673
aVlist
p3674
aVaddit
p3675
aVservic
p3676
asI6327578
(lp3677
Vissuer
p3678
aVdebit
p3679
aVpayment
p3680
aVcredit
p3681
aVgateway
p3682
aVwallet
p3683
aVcommerc
p3684
aVmerchant
p3685
aVrole
p3686
aVdo
p3687
asI6907566
(lp3688
Vobject
p3689
aVpage
p3690
aVwebpag
p3691
aVevent
p3692
aVserver
p3693
aVlikelihood
p3694
aVadvertis
p3695
aVuser
p3696
aVplacement
p3697
aVregard
p3698
asI5854897
(lp3699
Vnsp
p3700
aVclient
p3701
aVadvertis
p3702
aVstation
p3703
aVidl
p3704
aVmarket
p3705
aVpath
p3706
aVnetwork
p3707
aVannounc
p3708
aVconnect
p3709
asI6438579
(lp3710
Vitem
p3711
aVuser
p3712
aVcontent
p3713
aVrecommend
p3714
aVcollabor
p3715
aVprofil
p3716
aVsubset
p3717
aVrate
p3718
aVsystem
p3719
aVcorrel
p3720
asI7130807
(lp3721
Vdemand
p3722
aVbusi
p3723
aVplan
p3724
aVcomputer
p3725
aVnetwork
p3726
aVentit
p3727
aVfutur
p3728
aVframework
p3729
aVsuppli
p3730
aVmanag
p3731
asI6438585
(lp3732
Vhost
p3733
aVrepackag
p3734
aVredirector
p3735
aVuser
p3736
aVevent
p3737
aVmobil
p3738
aVsystem
p3739
aVitem
p3740
aVattach
p3741
aVdata
p3742
asI6119098
(lp3743
Vadvertis
p3744
aVsubscrib
p3745
aVtarget
p3746
aVclient
p3747
aVdistribut
p3748
aVapplic
p3749
aVdownload
p3750
aVcomput
p3751
aVdisplay
p3752
aVserver
p3753
asI5826242
(lp3754
Vhttp
p3755
aVclient
p3756
aVserver
p3757
aVstate
p3758
aVobject
p3759
aVdomain
p3760
aVfile
p3761
aVinstruct
p3762
aVspecifi
p3763
aVrequest
p3764
asI6317777
(lp3765
Vdocument
p3766
aVconferenc
p3767
aVserver
p3768
aVattende
p3769
aVvideoconferenc
p3770
aVcomput
p3771
aVsystem
p3772
aVlocal
p3773
aVcollabor
p3774
aVconfer
p3775
asI6389462
(lp3776
Vproxi
p3777
aVredirector
p3778
aVrequest
p3779
aVget
p3780
aVorigin
p3781
aVserver
p3782
aVclient
p3783
aVcach
p3784
aVaddress
p3785
aVpacket
p3786
asI6389464
(lp3787
Vserver
p3788
aVsite
p3789
aVmanag
p3790
aVweb
p3791
aVremot
p3792
aVinternet
p3793
aVport
p3794
aVdevic
p3795
aVbaset
p3796
aVbrowser
p3797
asI6629081
(lp3798
Vsettl
p3799
aVloan
p3800
aVaccount
p3801
aVoption
p3802
aVbalanc
p3803
aVfinanc
p3804
aVimport
p3805
aVsettlement
p3806
aVbuyer
p3807
aVbook
p3808
asI6389467
(lp3809
Vaddress
p3810
aVmedia
p3811
aVnetwork
p3812
aVsearch
p3813
aVresourc
p3814
aVplayback
p3815
aVcriteria
p3816
aVenabl
p3817
aVmemori
p3818
aVselect
p3819
asI6332127
(lp3820
Vweb
p3821
aVgeograph
p3822
aVcomput
p3823
aVprogram
p3824
aVwithin
p3825
aVcoupon
p3826
aVpage
p3827
aVproduct
p3828
aVadvertis
p3829
aVvalid
p3830
asI6115040
(lp3831
sI6119137
(lp3832
Vdocument
p3833
aVrecipi
p3834
aVserver
p3835
aVdeliveri
p3836
aVrepresent
p3837
aVdeliv
p3838
aVdynam
p3839
aVdefer
p3840
aVfax
p3841
aVdesktop
p3842
asI6141666
(lp3843
Vdocument
p3844
aVhypertext
p3845
aVclient
p3846
aVtag
p3847
aVcustom
p3848
aVdynam
p3849
aVclass
p3850
aVident
p3851
aVsystem
p3852
aVserver
p3853
asI6704873
(lp3854
Vgateway
p3855
aVinternet
p3856
aVcommerc
p3857
aVrouter
p3858
aVwide
p3859
aVfirewal
p3860
aVcoupl
p3861
aVnetwork
p3862
aVarea
p3863
aVchoker
p3864
asI6704874
(lp3865
Valert
p3866
aVconsolid
p3867
aVnetwork
p3868
aVmanag
p3869
aVincid
p3870
aVcommon
p3871
aVreflect
p3872
aVsensor
p3873
aVindic
p3874
aVoutput
p3875
asI6141686
(lp3876
Vapplic
p3877
aVplugin
p3878
aVtcp
p3879
aVtraffic
p3880
aVnetwork
p3881
aVclient
p3882
aVstatist
p3883
aVservic
p3884
aVpriorit
p3885
aVpacket
p3886
asI6076166
(lp3887
Vhospit
p3888
aVserver
p3889
aVuser
p3890
aVweb
p3891
aVintranet
p3892
aVpresum
p3893
aVinform
p3894
aVconfidenti
p3895
aVprivileg
p3896
aVdepend
p3897
asI6199048
(lp3898
Vupc
p3899
aVcode
p3900
aVprodoct
p3901
aVurl
p3902
aVaccess
p3903
aVinternet
p3904
aVsymbol
p3905
aVnetwork
p3906
aVresourc
p3907
aVdatabas
p3908
asI6715145
(lp3909
Vfilter
p3910
aVprocess
p3911
aVinput
p3912
aVbatch
p3913
aVobject
p3914
aVstep
p3915
aVconnector
p3916
aVscalabl
p3917
aVlatenc
p3918
aVtwo
p3919
asI6609198
(lp3920
Vcredenti
p3921
aVresourc
p3922
aVtrust
p3923
aVauthent
p3924
aVlog
p3925
aVlevel
p3926
aVentiti
p3927
aVsession
p3928
aVinform
p3929
aVarchitectur
p3930
asI6266649
(lp3931
Vrecommend
p3932
aVitem
p3933
aVsimilar
p3934
aVuser
p3935
aVshop
p3936
aVcart
p3937
aVlist
p3938
aVservic
p3939
aVpurchas
p3940
aVtabl
p3941
asI6846238
(lp3942
Vgame
p3943
aVplayer
p3944
aVwireless
p3945
aVlicens
p3946
aVmachin
p3947
aVrng
p3948
aVcasino
p3949
aVlegal
p3950
aVanywher
p3951
aVbiometr
p3952
asI7100195
(lp3953
Vuser
p3954
aVsite
p3955
aVserver
p3956
aVdatabas
p3957
aVinform
p3958
aVrole
p3959
aVdetail
p3960
aVauthent
p3961
aVident
p3962
aVstore
p3963
asI6199079
(lp3964
Vthereupon
p3965
aVpars
p3966
aVfill
p3967
aVattribut
p3968
aVidentifi
p3969
aVpage
p3970
aVform
p3971
aVobtain
p3972
aVline
p3973
aVtarget
p3974
asI6247047
(lp3975
Vicon
p3976
aVnode
p3977
aVhost
p3978
aVuser
p3979
aVacknowledg
p3980
aVrequest
p3981
aVnetwork
p3982
aVadvertis
p3983
aVdisplay
p3984
aVindicia
p3985
asI6141754
(lp3986
Ventiti
p3987
aVprotect
p3988
aVenforc
p3989
aVaccess
p3990
aVinform
p3991
aVspecif
p3992
aVmanag
p3993
aVcheck
p3994
aVunit
p3995
aVcontrol
p3996
asI6119229
(lp3997
Vobject
p3998
aVdigit
p3999
aVuser
p4000
aVownership
p4001
aVtermin
p4002
aVcommunic
p4003
aVcentral
p4004
aVsystem
p4005
aVcomput
p4006
aVidentif
p4007
asI6553413
(lp4008
Vcontent
p4009
aVserver
p4010
aVserv
p4011
aVhtml
p4012
aVhost
p4013
aVframework
p4014
aVpage
p4015
aVsite
p4016
aVdocument
p4017
aVnetwork
p4018
asI5889863
(lp4019
Vmerchant
p4020
aVcredenti
p4021
aVinform
p4022
aVserver
p4023
aVservic
p4024
aVrequest
p4025
aVstorefront
p4026
aVconsum
p4027
aVssl
p4028
aVsatisfact
p4029
asI6125388
(lp4030
Vimmediaci
p4031
aVautom
p4032
aVelectron
p4033
aVupdat
p4034
aVwide
p4035
aVserver
p4036
aVinform
p4037
aVstation
p4038
aVtransport
p4039
aVcatalog
p4040
asI6510417
(lp4041
Vvoic
p4042
aVinform
p4043
aVcommunic
p4044
aVinternet
p4045
aVuser
p4046
aVrequest
p4047
aVaccess
p4048
aVbase
p4049
aVreceiv
p4050
aVrespons
p4051
asI6029141
(lp4052
Vmerchant
p4053
aVsite
p4054
aVreferr
p4055
aVcustom
p4056
aVhypertextu
p4057
aVproduct
p4058
aVassoci
p4059
aVcommiss
p4060
aVweb
p4061
aVcatalog
p4062
asI6606690
(lp4063
Vsan
p4064
aVnas
p4065
aVnetwork
p4066
aVinterfac
p4067
aVserver
p4068
aVstorag
p4069
aVcommunic
p4070
aVcoupl
p4071
aVdata
p4072
aVsecond
p4073
asI5717860
(lp4074
Vwww
p4075
aVsite
p4076
aVurl
p4077
aVsymbol
p4078
aVsecond
p4079
aVident
p4080
aVfirst
p4081
aVnavig
p4082
aVcomposit
p4083
aVuniqu
p4084
asI6731625
(lp4085
Vcall
p4086
aVparamet
p4087
aVnetwork
p4088
aVdatabas
p4089
aVpacket
p4090
aVcallback
p4091
aVservic
p4092
aVexpert
p4093
aVsystem
p4094
aVtransmiss
p4095
asI5901287
(lp4096
Vdatastor
p4097
aVaggreg
p4098
aVnetwork
p4099
aVsynthes
p4100
aVinterfac
p4101
aVinform
p4102
aVaddress
p4103
aVinternet
p4104
aVresourc
p4105
aVunstructur
p4106
asI6185619
(lp4107
Vserver
p4108
aVpolici
p4109
aVrequest
p4110
aVassign
p4111
aVdistribut
p4112
aVgoal
p4113
aVnetwork
p4114
aVreplic
p4115
aVcomput
p4116
aVattempt
p4117
asI5961590
(lp4118
Vmail
p4119
aVsynchron
p4120
aVstore
p4121
aVproper
p4122
aVfolder
p4123
aVengin
p4124
aVprotocol
p4125
aVmodul
p4126
aVsend
p4127
aVcommunic
p4128
asI6035332
(lp4129
Vweb
p4130
aVpage
p4131
aVbrowser
p4132
aVapplet
p4133
aVserver
p4134
aVactiv
p4135
aVhttp
p4136
aVurl
p4137
aVunload
p4138
aVreport
p4139
asI6754181
(lp4140
Vhybrid
p4141
aVrout
p4142
aVinform
p4143
aVinternet
p4144
aVmedia
p4145
aVdirectori
p4146
aVnetwork
p4147
aVuser
p4148
aVprofil
p4149
aVservic
p4150
asI6999943
(lp4151
Vtransact
p4152
aVissuer
p4153
aVprofit
p4154
aVpayment
p4155
aVunprofit
p4156
aVparticip
p4157
aVevalu
p4158
aVcustom
p4159
aVsend
p4160
aVcost
p4161
asI6473609
(lp4162
Vserver
p4163
aVmobil
p4164
aVengin
p4165
aVinternet
p4166
aVlink
p4167
aVcomput
p4168
aVmarkup
p4169
aVdevic
p4170
aVinteract
p4171
aVconsider
p4172
asI6430602
(lp4173
Vinstant
p4174
aVqueri
p4175
aVmessag
p4176
aVuser
p4177
aVanswer
p4178
aVrespond
p4179
aVinteract
p4180
aVappropri
p4181
aVremot
p4182
aVrequest
p4183
asI6578068
(lp4184
Vrequest
p4185
aVserver
p4186
aVsubset
p4187
aVcompon
p4188
aVbalanc
p4189
aVavail
p4190
aVincom
p4191
aVlist
p4192
aVload
p4193
aVclient
p4194
asI6606744
(lp4195
Vtelephoni
p4196
aVnetwork
p4197
aVinternet
p4198
aVcollabor
p4199
aVuser
p4200
aVsession
p4201
aVinform
p4202
aVtelephon
p4203
aVprotocol
p4204
aVrout
p4205
asI6430624
(lp4206
Vcontent
p4207
aVdiffer
p4208
aVapplianc
p4209
aVbrowser
p4210
aVharvest
p4211
aVintellig
p4212
aVnavig
p4213
aVinform
p4214
aVinternet
p4215
aVprotocol
p4216
asI6356905
(lp4217
Vweb
p4218
aVinform
p4219
aVroutin
p4220
aVwireless
p4221
aVqueri
p4222
aVinternet
p4223
aVavail
p4224
aVservic
p4225
aVsupplier
p4226
aVportal
p4227
asI6385591
(lp4228
Vcoupon
p4229
aVpda
p4230
aVvirtual
p4231
aVbanner
p4232
aVredeem
p4233
aVlink
p4234
aVfile
p4235
aVdownload
p4236
aVuser
p4237
aVsave
p4238
asI6385592
(lp4239
Vadvertis
p4240
aVconsum
p4241
aVcustom
p4242
aVcomput
p4243
aVcontent
p4244
aVoffer
p4245
aVaccount
p4246
aVprovid
p4247
aVinternet
p4248
aVmultipl
p4249
asI6385596
(lp4250
Vmedia
p4251
aVpurchas
p4252
aVplayer
p4253
aVonlin
p4254
aVmusic
p4255
aVencrypt
p4256
aVserver
p4257
aVdata
p4258
aVpassport
p4259
aVaudio
p4260
asI7014336
(lp4261
Vlight
p4262
aVcolor
p4263
aVfixtur
p4264
aVrang
p4265
aVprespecifi
p4266
aVcondit
p4267
aVgenerat
p4268
aVillumin
p4269
aVdesir
p4270
aVshade
p4271
asI6105027
(lp4272
sI6327628
(lp4273
Vportal
p4274
aVlayout
p4275
aVserver
p4276
aVuser
p4277
aVentiti
p4278
aVadministr
p4279
aVaccess
p4280
aVresourc
p4281
aVmodul
p4282
aVmandatori
p4283
asI6965205
(lp4284
Vlight
p4285
aVicicl
p4286
aVvarious
p4287
aVglow
p4288
aVmay
p4289
aVdevic
p4290
aVdownload
p4291
aVstick
p4292
aVwall
p4293
aVaccessori
p4294
asI6553563
(lp4295
Vcustom
p4296
aVupgrad
p4297
aVapplic
p4298
aVdevelop
p4299
aVsoftwar
p4300
aVlifecycl
p4301
aVsql
p4302
aVour
p4303
aVsophist
p4304
aVteam
p4305
asI6463454
(lp4306
Vdemand
p4307
aVobject
p4308
aVcapac
p4309
aVreplica
p4310
aVweb
p4311
aVpredict
p4312
aVserver
p4313
aVdynam
p4314
aVbase
p4315
aVacross
p4316
asI6189029
(lp4317
Vsurvey
p4318
aVtabul
p4319
aVweb
p4320
aVtool
p4321
aVresult
p4322
aVsoftwar
p4323
aVuser
p4324
aVcollect
p4325
aVbuilder
p4326
aVcomplet
p4327
asI6418424
(lp4328
Vrecognit
p4329
aVpredict
p4330
aVuser
p4331
aVpattern
p4332
aVmultimedia
p4333
aVstream
p4334
aVinterfac
p4335
aVinexact
p4336
aVsystem
p4337
aVfeedback
p4338
asI6282522
(lp4339
Vcard
p4340
aVsmart
p4341
aVpayment
p4342
aVmerchant
p4343
aVserver
p4344
aVinternet
p4345
aVclient
p4346
aVtermin
p4347
aVpurchas
p4348
aVgood
p4349
asI6295551
(lp4350
Vapplet
p4351
aVuser
p4352
aVview
p4353
aVserver
p4354
aVrepres
p4355
aVrepresent
p4356
aVcall
p4357
aValter
p4358
aVcenter
p4359
aVservic
p4360
asI6742015
(lp4361
Vbatch
p4362
aVfilter
p4363
aVpattern
p4364
aVobject
p4365
aVcompon
p4366
aVprocess
p4367
aVnetcentr
p4368
aVservic
p4369
aVwork
p4370
aVinput
p4371
astp4372
.