((lp0
I4723129
aI4849774
aI4860026
aI4965594
aI4982199
aI4994825
aI5040000
aI5132711
aI5138344
aI5155502
aI5175565
aI5179389
aI5208604
aI5218376
aI5262802
aI5275787
aI5367324
aI5370842
aI5389957
aI5477246
aI5479197
aI5485187
aI5506611
aI5509140
aI5589858
aI5619238
aI5784088
aI5821962
aI5841452
aI5861897
aI5946012
aI6007187
aI6019457
aI6050669
aI6062667
aI6151049
aI6172688
aI6174050
aI5375979
aI5555461
aI6543879
aI5534897
aI6726306
aI5788388
aI5802420
aI5812156
aI5860363
aI6019449
aI6116715
aI6158837
aI5414452
aI5699091
aI6039430
aI6113208
aI6130695
aI6371586
aI6386772
aI6502917
aI6631967
aI5359357
aI5619237
aI6149256
aI6290334
aI5478606
aI6229114
aI5741462
aI6048734
aI6130098
aI6248590
aI6977722
aI7118351
aI6003977
aI6022102
aI5835817
aI5949459
aI6019461
aI6065824
aI6074042
aI6126265
aI6155664
aI6196670
aI6416152
aI6460984
aI6238044
aI6079821
aI6183067
aI6341845
aI6557976
aI6062681
aI6247790
aI7637594
aI6405055
aI6628430
aI5856174
aI5922591
aI5942443
aI6043080
aI6046056
aI6132685
aI6150180
aI6168948
aI6197595
aI6267858
aI6274337
aI6326211
aI6408878
aI6429025
aI6793753
aI6818395
aI6830936
aI6911345
aI6929030
aI6951632
aI6960437
aI7097809
aI7118910
aI7169560
aI7279146
aI7294503
aI7297518
aI7476363
aI6652082
aI6302527
aI6742887
aI6798997
aI6227643
aI5610635
aI5997121
aI6000773
aI5926666
aI6312106
aI5552816
aI6155678
aI6481829
aI6375314
aI6652090
aI5804083
aI6319668
aI6340588
aI6867051
aI6942771
aI6524456
aI6632656
aI6911132
aI7059352
aI7156117
aI7665303
aI6592822
aI7297151
aI7316700
aI7344507
aI7374544
aI7410468
aI7481776
aI7491178
aI7524293
aI7537571
aI7547287
aI7563232
aI7582063
aI7582099
aI7604592
aI7648468
aI7674232
aI7682318
aI7713214
aI5995774
aI6491362
aI6505921
aI6554410
aI6575566
aI6588888
aI6851796
aI5993611
aI6054277
aI6080295
aI6126804
aI6221654
aI6296020
aI6344325
aI6355491
aI6391541
aI6440725
aI6540895
aI6544734
aI6602702
aI6613513
aI6618679
aI6632655
aI6653124
aI6654505
aI6664104
aI6831994
aI6881541
aI6893879
aI6969488
aI7105300
aI6440645
aI6499499
aI6521188
aI6572830
aI7033764
aI7052847
aI7056661
aI7056676
aI7338639
aI7948015
aI6068752
aI6153073
aI6235471
aI6238538
aI6274089
aI6280967
aI6322683
aI6358387
aI6361958
aI6403338
aI6406921
aI6444461
aI6454924
aI6495104
aI6500323
aI6506609
aI6508988
aI6592821
aI6596545
aI6613581
aI6632619
aI6749814
aI6939451
aI7129554
aI7238323
aI6767706
aI6334960
aI6696220
aI6719915
aI6916584
aI6932934
aI7077992
aI6368871
aI6829753
aI6885982
aI7508535
aI6367903
aI6676987
aI7291497
aI7157723
a(lp1
(lp2
I4723129
aa(lp3
I4849774
aI4860026
aI4965594
aI4982199
aI4994825
aI5040000
aI5132711
aI5138344
aI5155502
aI5175565
aI5179389
aI5208604
aI5218376
aI5262802
aI5275787
aI5367324
aI5370842
aI5389957
aI5477246
aI5479197
aI5485187
aI5506611
aI5509140
aI5589858
aI5619238
aI5784088
aI5821962
aI5841452
aI5861897
aI5946012
aI6007187
aI6019457
aI6050669
aI6062667
aI6151049
aI6172688
aI6174050
aa(lp4
I5375979
aI5555461
aI6543879
aI5534897
aI6726306
aI5788388
aI5802420
aI5812156
aI5860363
aI6019449
aI6116715
aI6158837
aI5414452
aI5699091
aI6039430
aI6113208
aI6130695
aI6371586
aI6386772
aI6502917
aI6631967
aI5359357
aI5619237
aI6149256
aI6290334
aI5478606
aI6229114
aI5741462
aI6048734
aI6130098
aI6248590
aI6977722
aI7118351
aI6003977
aI6022102
aI5835817
aI5949459
aI6019461
aI6065824
aI6074042
aI6126265
aI6155664
aI6196670
aI6416152
aI6460984
aI6238044
aI6079821
aI6183067
aI6341845
aI6557976
aI6062681
aI6247790
aI7637594
aI6405055
aI6628430
aa(lp5
I5856174
aI5922591
aI5942443
aI6043080
aI6046056
aI6132685
aI6150180
aI6168948
aI6197595
aI6267858
aI6274337
aI6326211
aI6408878
aI6429025
aI6793753
aI6818395
aI6830936
aI6911345
aI6929030
aI6951632
aI6960437
aI7097809
aI7118910
aI7169560
aI7279146
aI7294503
aI7297518
aI7476363
aI6652082
aI6302527
aI6742887
aI6798997
aI6227643
aI5610635
aI5997121
aI6000773
aI5926666
aI6312106
aI5552816
aI6155678
aI6481829
aI6375314
aI6652090
aI5804083
aI6319668
aI6340588
aI6867051
aI6942771
aI6524456
aI6632656
aI6911132
aI7059352
aI7156117
aI7665303
aI6592822
aI7297151
aI7316700
aI7344507
aI7374544
aI7410468
aI7481776
aI7491178
aI7524293
aI7537571
aI7547287
aI7563232
aI7582063
aI7582099
aI7604592
aI7648468
aI7674232
aI7682318
aI7713214
aI5995774
aI6491362
aI6505921
aI6554410
aI6575566
aI6588888
aI6851796
aa(lp6
I5993611
aI6054277
aI6080295
aI6126804
aI6221654
aI6296020
aI6344325
aI6355491
aI6391541
aI6440725
aI6540895
aI6544734
aI6602702
aI6613513
aI6618679
aI6632655
aI6653124
aI6654505
aI6664104
aI6831994
aI6881541
aI6893879
aI6969488
aI7105300
aI6440645
aI6499499
aI6521188
aI6572830
aI7033764
aI7052847
aI7056661
aI7056676
aI7338639
aI7948015
aI6068752
aI6153073
aI6235471
aI6238538
aI6274089
aI6280967
aI6322683
aI6358387
aI6361958
aI6403338
aI6406921
aI6444461
aI6454924
aI6495104
aI6500323
aI6506609
aI6508988
aI6592821
aI6596545
aI6613581
aI6632619
aI6749814
aI6939451
aI7129554
aI7238323
aI6767706
aI6334960
aI6696220
aI6719915
aI6916584
aI6932934
aI7077992
aI6368871
aI6829753
aI6885982
aI7508535
aI6367903
aI6676987
aI7291497
aI7157723
aa(lp7
(I4723129
I4849774
tp8
a(I4723129
I4860026
tp9
a(I4723129
I4965594
tp10
a(I4723129
I4982199
tp11
a(I4723129
I4994825
tp12
a(I4723129
I5040000
tp13
a(I4723129
I5132711
tp14
a(I4723129
I5138344
tp15
a(I4723129
I5155502
tp16
a(I4723129
I5175565
tp17
a(I4723129
I5179389
tp18
a(I4723129
I5208604
tp19
a(I4723129
I5218376
tp20
a(I4723129
I5262802
tp21
a(I4723129
I5275787
tp22
a(I4723129
I5367324
tp23
a(I4723129
I5370842
tp24
a(I4723129
I5389957
tp25
a(I4723129
I5477246
tp26
a(I4723129
I5479197
tp27
a(I4723129
I5485187
tp28
a(I4723129
I5506611
tp29
a(I4723129
I5509140
tp30
a(I4723129
I5589858
tp31
a(I4723129
I5619238
tp32
a(I4723129
I5784088
tp33
a(I4723129
I5821962
tp34
a(I4723129
I5841452
tp35
a(I4723129
I5861897
tp36
a(I4723129
I5946012
tp37
a(I4723129
I6007187
tp38
a(I4723129
I6019457
tp39
a(I4723129
I6050669
tp40
a(I4723129
I6062667
tp41
a(I4723129
I6151049
tp42
a(I4723129
I6172688
tp43
a(I4723129
I6174050
tp44
a(I4849774
I5375979
tp45
a(I4849774
I5555461
tp46
a(I4982199
I6543879
tp47
a(I4994825
I6007187
tp48
a(I4994825
I6151049
tp49
a(I4994825
I6174050
tp50
a(I5040000
I5534897
tp51
a(I5040000
I6726306
tp52
a(I5132711
I5788388
tp53
a(I5132711
I5802420
tp54
a(I5132711
I5812156
tp55
a(I5132711
I5860363
tp56
a(I5132711
I6019449
tp57
a(I5132711
I6116715
tp58
a(I5132711
I6158837
tp59
a(I5138344
I5414452
tp60
a(I5138344
I5699091
tp61
a(I5138344
I5812156
tp62
a(I5138344
I5860363
tp63
a(I5138344
I6019449
tp64
a(I5138344
I6039430
tp65
a(I5138344
I6113208
tp66
a(I5138344
I6130695
tp67
a(I5138344
I6371586
tp68
a(I5138344
I6386772
tp69
a(I5138344
I6502917
tp70
a(I5138344
I6631967
tp71
a(I5155502
I5359357
tp72
a(I5155502
I5509140
tp73
a(I5155502
I5619237
tp74
a(I5155502
I5619238
tp75
a(I5155502
I5784088
tp76
a(I5155502
I5788388
tp77
a(I5155502
I5860363
tp78
a(I5155502
I5861897
tp79
a(I5155502
I6149256
tp80
a(I5175565
I6290334
tp81
a(I5208604
I5478606
tp82
a(I5208604
I6007187
tp83
a(I5208604
I6151049
tp84
a(I5208604
I6174050
tp85
a(I5208604
I6229114
tp86
a(I5262802
I5509140
tp87
a(I5262802
I5619238
tp88
a(I5262802
I6151049
tp89
a(I5275787
I5741462
tp90
a(I5275787
I6048734
tp91
a(I5275787
I6130098
tp92
a(I5370842
I6248590
tp93
a(I5370842
I6977722
tp94
a(I5370842
I7118351
tp95
a(I5389957
I6003977
tp96
a(I5389957
I6007187
tp97
a(I5389957
I6151049
tp98
a(I5389957
I6174050
tp99
a(I5485187
I6022102
tp100
a(I5506611
I5699091
tp101
a(I5506611
I5788388
tp102
a(I5506611
I5812156
tp103
a(I5506611
I5835817
tp104
a(I5506611
I5860363
tp105
a(I5506611
I5949459
tp106
a(I5506611
I6019449
tp107
a(I5506611
I6019461
tp108
a(I5506611
I6062667
tp109
a(I5506611
I6065824
tp110
a(I5506611
I6074042
tp111
a(I5506611
I6113208
tp112
a(I5506611
I6126265
tp113
a(I5506611
I6130695
tp114
a(I5506611
I6155664
tp115
a(I5506611
I6196670
tp116
a(I5506611
I6416152
tp117
a(I5506611
I6502917
tp118
a(I5509140
I6022102
tp119
a(I5509140
I6460984
tp120
a(I5619238
I6022102
tp121
a(I5619238
I6460984
tp122
a(I5784088
I6238044
tp123
a(I5784088
I6460984
tp124
a(I5821962
I6151049
tp125
a(I5841452
I6079821
tp126
a(I5841452
I6183067
tp127
a(I5861897
I6039430
tp128
a(I5861897
I6371586
tp129
a(I5861897
I6502917
tp130
a(I5861897
I6631967
tp131
a(I5946012
I6341845
tp132
a(I5946012
I6543879
tp133
a(I5946012
I6557976
tp134
a(I6007187
I6062681
tp135
a(I6007187
I6247790
tp136
a(I6007187
I7637594
tp137
a(I6151049
I7637594
tp138
a(I6172688
I6405055
tp139
a(I6172688
I6628430
tp140
a(I5375979
I5856174
tp141
a(I5375979
I5922591
tp142
a(I5375979
I5942443
tp143
a(I5375979
I6043080
tp144
a(I5375979
I6046056
tp145
a(I5375979
I6132685
tp146
a(I5375979
I6150180
tp147
a(I5375979
I6168948
tp148
a(I5375979
I6197595
tp149
a(I5375979
I6267858
tp150
a(I5375979
I6274337
tp151
a(I5375979
I6326211
tp152
a(I5375979
I6408878
tp153
a(I5375979
I6429025
tp154
a(I5375979
I6793753
tp155
a(I5375979
I6818395
tp156
a(I5375979
I6830936
tp157
a(I5375979
I6911345
tp158
a(I5375979
I6929030
tp159
a(I5375979
I6951632
tp160
a(I5375979
I6960437
tp161
a(I5375979
I7097809
tp162
a(I5375979
I7118351
tp163
a(I5375979
I7118910
tp164
a(I5375979
I7169560
tp165
a(I5375979
I7279146
tp166
a(I5375979
I7294503
tp167
a(I5375979
I7297518
tp168
a(I5375979
I7476363
tp169
a(I5555461
I6652082
tp170
a(I5788388
I6039430
tp171
a(I5788388
I6155664
tp172
a(I5788388
I6302527
tp173
a(I5788388
I6371586
tp174
a(I5788388
I6502917
tp175
a(I5788388
I6631967
tp176
a(I5802420
I6742887
tp177
a(I5802420
I6798997
tp178
a(I5812156
I6126265
tp179
a(I5812156
I6227643
tp180
a(I5812156
I6502917
tp181
a(I6116715
I6405055
tp182
a(I6116715
I6628430
tp183
a(I6158837
I6798997
tp184
a(I5414452
I5610635
tp185
a(I5414452
I5699091
tp186
a(I5414452
I5788388
tp187
a(I5414452
I5860363
tp188
a(I5414452
I5997121
tp189
a(I5414452
I6000773
tp190
a(I5414452
I6116715
tp191
a(I5414452
I6130695
tp192
a(I5414452
I6227643
tp193
a(I5414452
I6502917
tp194
a(I5699091
I5926666
tp195
a(I5699091
I6039430
tp196
a(I5699091
I6155664
tp197
a(I5699091
I6302527
tp198
a(I5699091
I6312106
tp199
a(I5699091
I6502917
tp200
a(I6039430
I6302527
tp201
a(I6039430
I6312106
tp202
a(I6039430
I6386772
tp203
a(I6039430
I6502917
tp204
a(I6130695
I6502917
tp205
a(I6371586
I6502917
tp206
a(I5359357
I5552816
tp207
a(I5619237
I6149256
tp208
a(I5619237
I6155678
tp209
a(I5619237
I6481829
tp210
a(I6149256
I6375314
tp211
a(I6149256
I6652090
tp212
a(I5478606
I5804083
tp213
a(I5741462
I6319668
tp214
a(I5741462
I6340588
tp215
a(I5741462
I6867051
tp216
a(I5741462
I6942771
tp217
a(I6130098
I6326211
tp218
a(I6130098
I6524456
tp219
a(I6130098
I6632656
tp220
a(I6130098
I6830936
tp221
a(I6130098
I6911132
tp222
a(I6130098
I7059352
tp223
a(I6130098
I7156117
tp224
a(I6130098
I7665303
tp225
a(I6248590
I6592822
tp226
a(I7118351
I7297151
tp227
a(I7118351
I7316700
tp228
a(I7118351
I7344507
tp229
a(I7118351
I7374544
tp230
a(I7118351
I7410468
tp231
a(I7118351
I7481776
tp232
a(I7118351
I7491178
tp233
a(I7118351
I7524293
tp234
a(I7118351
I7537571
tp235
a(I7118351
I7547287
tp236
a(I7118351
I7563232
tp237
a(I7118351
I7582063
tp238
a(I7118351
I7582099
tp239
a(I7118351
I7604592
tp240
a(I7118351
I7648468
tp241
a(I7118351
I7674232
tp242
a(I7118351
I7682318
tp243
a(I7118351
I7713214
tp244
a(I6003977
I6062681
tp245
a(I6022102
I6460984
tp246
a(I5835817
I5995774
tp247
a(I5835817
I6065824
tp248
a(I5835817
I6371586
tp249
a(I5835817
I6502917
tp250
a(I5835817
I6631967
tp251
a(I5835817
I6798997
tp252
a(I5949459
I6502917
tp253
a(I6019461
I6196670
tp254
a(I6019461
I6502917
tp255
a(I6065824
I6502917
tp256
a(I6065824
I6631967
tp257
a(I6065824
I6798997
tp258
a(I6074042
I6502917
tp259
a(I6126265
I6371586
tp260
a(I6126265
I6502917
tp261
a(I6126265
I6631967
tp262
a(I6196670
I6502917
tp263
a(I6079821
I6491362
tp264
a(I6079821
I6505921
tp265
a(I6079821
I6554410
tp266
a(I6079821
I6575566
tp267
a(I6079821
I6588888
tp268
a(I6079821
I6851796
tp269
a(I6062681
I7156117
tp270
a(I6247790
I7637594
tp271
a(I6405055
I6628430
tp272
a(I6405055
I6742887
tp273
a(I6628430
I6742887
tp274
a(I5856174
I5993611
tp275
a(I5856174
I6054277
tp276
a(I5856174
I6080295
tp277
a(I5856174
I6126804
tp278
a(I5856174
I6221654
tp279
a(I5856174
I6296020
tp280
a(I5856174
I6344325
tp281
a(I5856174
I6355491
tp282
a(I5856174
I6391541
tp283
a(I5856174
I6440725
tp284
a(I5856174
I6540895
tp285
a(I5856174
I6544734
tp286
a(I5856174
I6602702
tp287
a(I5856174
I6613513
tp288
a(I5856174
I6618679
tp289
a(I5856174
I6632655
tp290
a(I5856174
I6653124
tp291
a(I5856174
I6654505
tp292
a(I5856174
I6664104
tp293
a(I5856174
I6831994
tp294
a(I5856174
I6881541
tp295
a(I5856174
I6893879
tp296
a(I5856174
I6942771
tp297
a(I5856174
I6969488
tp298
a(I5856174
I7105300
tp299
a(I5856174
I7118910
tp300
a(I5856174
I7476363
tp301
a(I5922591
I6221654
tp302
a(I5922591
I6296020
tp303
a(I5922591
I6344325
tp304
a(I5922591
I6391541
tp305
a(I5922591
I6440645
tp306
a(I5922591
I6440725
tp307
a(I5922591
I6499499
tp308
a(I5922591
I6521188
tp309
a(I5922591
I6540895
tp310
a(I5922591
I6544734
tp311
a(I5922591
I6572830
tp312
a(I5922591
I6664104
tp313
a(I5922591
I6830936
tp314
a(I5922591
I6881541
tp315
a(I5922591
I6893879
tp316
a(I5922591
I6911345
tp317
a(I5922591
I6960437
tp318
a(I5922591
I7033764
tp319
a(I5922591
I7052847
tp320
a(I5922591
I7056661
tp321
a(I5922591
I7056676
tp322
a(I5922591
I7059352
tp323
a(I5922591
I7097809
tp324
a(I5922591
I7118910
tp325
a(I5922591
I7156117
tp326
a(I5922591
I7169560
tp327
a(I5922591
I7297518
tp328
a(I5922591
I7338639
tp329
a(I5922591
I7665303
tp330
a(I5922591
I7948015
tp331
a(I5942443
I6068752
tp332
a(I5942443
I6153073
tp333
a(I5942443
I6235471
tp334
a(I5942443
I6238538
tp335
a(I5942443
I6274089
tp336
a(I5942443
I6274337
tp337
a(I5942443
I6280967
tp338
a(I5942443
I6322683
tp339
a(I5942443
I6358387
tp340
a(I5942443
I6361958
tp341
a(I5942443
I6403338
tp342
a(I5942443
I6406921
tp343
a(I5942443
I6429025
tp344
a(I5942443
I6444461
tp345
a(I5942443
I6454924
tp346
a(I5942443
I6495104
tp347
a(I5942443
I6500323
tp348
a(I5942443
I6506609
tp349
a(I5942443
I6508988
tp350
a(I5942443
I6592821
tp351
a(I5942443
I6596545
tp352
a(I5942443
I6602702
tp353
a(I5942443
I6613513
tp354
a(I5942443
I6613581
tp355
a(I5942443
I6632619
tp356
a(I5942443
I6632655
tp357
a(I5942443
I6749814
tp358
a(I5942443
I6793753
tp359
a(I5942443
I6929030
tp360
a(I5942443
I6939451
tp361
a(I5942443
I6951632
tp362
a(I5942443
I6960437
tp363
a(I5942443
I7097809
tp364
a(I5942443
I7105300
tp365
a(I5942443
I7118910
tp366
a(I5942443
I7129554
tp367
a(I5942443
I7238323
tp368
a(I5942443
I7279146
tp369
a(I5942443
I7294503
tp370
a(I5942443
I7476363
tp371
a(I6043080
I6296020
tp372
a(I6043080
I6440725
tp373
a(I6043080
I6499499
tp374
a(I6043080
I6544734
tp375
a(I6043080
I6664104
tp376
a(I6043080
I6767706
tp377
a(I6043080
I6793753
tp378
a(I6043080
I6818395
tp379
a(I6043080
I6881541
tp380
a(I6043080
I6893879
tp381
a(I6043080
I6911345
tp382
a(I6043080
I6929030
tp383
a(I6043080
I6951632
tp384
a(I6043080
I6960437
tp385
a(I6043080
I7097809
tp386
a(I6043080
I7118910
tp387
a(I6043080
I7169560
tp388
a(I6043080
I7279146
tp389
a(I6043080
I7294503
tp390
a(I6043080
I7297518
tp391
a(I6043080
I7476363
tp392
a(I6046056
I6296020
tp393
a(I6046056
I6334960
tp394
a(I6046056
I6403338
tp395
a(I6046056
I6444461
tp396
a(I6046056
I6454924
tp397
a(I6046056
I6506609
tp398
a(I6046056
I6592821
tp399
a(I6046056
I6596545
tp400
a(I6046056
I6613513
tp401
a(I6046056
I6613581
tp402
a(I6046056
I6632655
tp403
a(I6046056
I6696220
tp404
a(I6046056
I6719915
tp405
a(I6046056
I6749814
tp406
a(I6046056
I6916584
tp407
a(I6046056
I6932934
tp408
a(I6046056
I6960437
tp409
a(I6046056
I7077992
tp410
a(I6046056
I7105300
tp411
a(I6046056
I7118910
tp412
a(I6046056
I7238323
tp413
a(I6132685
I6429025
tp414
a(I6132685
I6544734
tp415
a(I6132685
I6618679
tp416
a(I6132685
I6749814
tp417
a(I6132685
I6960437
tp418
a(I6132685
I7118910
tp419
a(I6132685
I7476363
tp420
a(I6150180
I6960437
tp421
a(I6150180
I7118910
tp422
a(I6168948
I6368871
tp423
a(I6168948
I6440725
tp424
a(I6168948
I6544734
tp425
a(I6168948
I6664104
tp426
a(I6168948
I6881541
tp427
a(I6168948
I6893879
tp428
a(I6197595
I6440725
tp429
a(I6197595
I6544734
tp430
a(I6197595
I6664104
tp431
a(I6197595
I6830936
tp432
a(I6197595
I6881541
tp433
a(I6197595
I6893879
tp434
a(I6197595
I6911345
tp435
a(I6197595
I6960437
tp436
a(I6197595
I7118910
tp437
a(I6197595
I7169560
tp438
a(I6197595
I7297518
tp439
a(I6267858
I6506609
tp440
a(I6267858
I6632655
tp441
a(I6274337
I6632655
tp442
a(I6274337
I6829753
tp443
a(I6274337
I6885982
tp444
a(I6274337
I7476363
tp445
a(I6326211
I6942771
tp446
a(I6326211
I7059352
tp447
a(I6326211
I7156117
tp448
a(I6326211
I7665303
tp449
a(I6408878
I6951632
tp450
a(I6408878
I6960437
tp451
a(I6408878
I7097809
tp452
a(I6408878
I7118910
tp453
a(I6408878
I7476363
tp454
a(I6818395
I7297518
tp455
a(I6929030
I7476363
tp456
a(I6960437
I7118910
tp457
a(I6960437
I7476363
tp458
a(I6302527
I6798997
tp459
a(I6302527
I7508535
tp460
a(I6227643
I6416152
tp461
a(I6227643
I6502917
tp462
a(I5610635
I5699091
tp463
a(I5610635
I5788388
tp464
a(I5610635
I5812156
tp465
a(I5610635
I5835817
tp466
a(I5610635
I5860363
tp467
a(I5610635
I5995774
tp468
a(I5610635
I6000773
tp469
a(I5610635
I6019449
tp470
a(I5610635
I6065824
tp471
a(I5610635
I6074042
tp472
a(I5610635
I6113208
tp473
a(I5610635
I6126265
tp474
a(I5610635
I6155664
tp475
a(I5610635
I6196670
tp476
a(I5610635
I6227643
tp477
a(I5610635
I6367903
tp478
a(I5610635
I6371586
tp479
a(I5610635
I6502917
tp480
a(I5610635
I6543879
tp481
a(I5610635
I6631967
tp482
a(I6000773
I6227643
tp483
a(I6000773
I6798997
tp484
a(I6312106
I6798997
tp485
a(I5552816
I5860363
tp486
a(I5552816
I5949459
tp487
a(I5552816
I6155678
tp488
a(I6155678
I6481829
tp489
a(I5804083
I6676987
tp490
a(I6319668
I7291497
tp491
a(I6340588
I7291497
tp492
a(I6867051
I7157723
tp493
a(I7059352
I7665303
tp494
a(I6554410
I6851796
tp495
a(I6575566
I6851796
tp496
a(dp497
I7508535
(lp498
Vprinter
p499
aVmedia
p500
aVextern
p501
aVinterfac
p502
aVservic
p503
aVuser
p504
aValon
p505
aVprocess
p506
aVstand
p507
aVmultimedia
p508
asI6942771
(lp509
Vmicrofluid
p510
aVanalyt
p511
aVtarget
p512
aVanalys
p513
aVelectrochem
p514
aVdetect
p515
aVgeneral
p516
aVconduct
p517
aVparticular
p518
aVrelat
p519
asI6499499
(lp520
Vmicrofluid
p521
aVflow
p522
aVresist
p523
aVchannel
p524
aVdownstream
p525
aVelev
p526
aVsplit
p527
aVregion
p528
aVestablish
p529
aVfluidic
p530
asI6502917
(lp531
Vink
p532
aVcartridg
p533
aVjet
p534
aVboard
p535
aVprint
p536
aVsuppli
p537
aVcarriag
p538
aVvicin
p539
aVneedl
p540
aVreciproc
p541
asI7169560
(lp542
Vpolynucleotid
p543
aVsequenc
p544
aVcycl
p545
aVreaction
p546
aVsynthesi
p547
aVfull
p548
aVextens
p549
aVshort
p550
aVrun
p551
aVnear
p552
asI6543879
(lp553
Vink
p554
aVnozzl
p555
aVslot
p556
aVdrop
p557
aVfeed
p558
aVcolumn
p559
aVinkjet
p560
aVprinthead
p561
aVpack
p562
aVside
p563
asI5861897
(lp564
Vrecord
p565
aVhead
p566
aVmemori
p567
aVink
p568
aVjoin
p569
aVunit
p570
aVcut
p571
aVtank
p572
aVplate
p573
aVout
p574
asI5821962
(lp575
Veject
p576
aVbubbl
p577
aVliquid
p578
aVoutlet
p579
aVgenerat
p580
aVregion
p581
aVmovabl
p582
aVportion
p583
aVinflect
p584
aVoppos
p585
asI5860363
(lp586
Vink
p587
aVreservoir
p588
aVcartridg
p589
aVchassi
p590
aVconnector
p591
aVreplac
p592
aVelectr
p593
aVprinter
p594
aVjet
p595
aVannunci
p596
asI7118351
(lp597
Vmicropump
p598
aVpuls
p599
aVheat
p600
aVrate
p601
aVelement
p602
aVflow
p603
aVday
p604
aVexact
p605
aVoper
p606
aVcontrol
p607
asI6172688
(lp608
Vink
p609
aVlabel
p610
aVprinter
p611
aVprint
p612
aVjet
p613
aVconvey
p614
aVhead
p615
aVroll
p616
aVrecoveri
p617
aVsection
p618
asI5949459
(lp619
Vink
p620
aVengag
p621
aVprint
p622
aVfeatur
p623
aVcontain
p624
aVfluid
p625
aVtrail
p626
aVdevic
p627
aVedg
p628
aVinsert
p629
asI5509140
(lp630
Vazatetracycl
p631
aV5ht
p632
aVtetracycl
p633
aVantagonist
p634
aVmoieti
p635
aVstr2
p636
aVcartridg
p637
aVaromat
p638
aVink
p639
aVwherein
p640
asI6408878
(lp641
Velastomer
p642
aVmicromachin
p643
aVlayer
p644
aVfirst
p645
aVrecess
p646
aVmold
p647
aVsecond
p648
aVtop
p649
aVprotrus
p650
aVbottom
p651
asI5784088
(lp652
Vink
p653
aVreservoir
p654
aVinduc
p655
aVsuppli
p656
aVportion
p657
aVcartridg
p658
aVporous
p659
aVfiber
p660
aVelement
p661
aVrecord
p662
asI6793753
(lp663
Velastomer
p664
aVmicromachin
p665
aVlayer
p666
aVfirst
p667
aVrecess
p668
aVmold
p669
aVsecond
p670
aVtop
p671
aVprotrus
p672
aVbottom
p673
asI5208604
(lp674
Vink
p675
aVdischarg
p676
aVopen
p677
aVjet
p678
aVpath
p679
aVplate
p680
aVexcim
p681
aVhead
p682
aVmanufactur
p683
aVattach
p684
asI6767706
(lp685
Vmolecul
p686
aVhybrid
p687
aVpolynucleotid
p688
aVprotein
p689
aVmicrofabr
p690
aVdna
p691
aVdetect
p692
aVantibodi
p693
aVantigen
p694
aVreport
p695
asI6631967
(lp696
Vink
p697
aVcartridg
p698
aVprinter
p699
aVstorag
p700
aVelement
p701
aVinform
p702
aVpiec
p703
aVeeprom
p704
aVadopt
p705
aVpow
p706
asI6000773
(lp707
Vink
p708
aVcartridg
p709
aVmemori
p710
aVprinter
p711
aVjet
p712
aVstorag
p713
aVadvis
p714
aVinform
p715
aVelement
p716
aVexpel
p717
asI6355491
(lp718
Velectromagnet
p719
aVmicro
p720
aVchip
p721
aVbiomolecul
p722
aVbiochip
p723
aVaddress
p724
aVindividu
p725
aVassay
p726
aVarray
p727
aVmanipul
p728
asI6150180
(lp729
Vscreen
p730
aVthroughput
p731
aVassay
p732
aVmicroscal
p733
aVbiochem
p734
aVmicrofluid
p735
aVfluidic
p736
aVhigh
p737
aVvarieti
p738
aVdevic
p739
asI5619237
(lp740
Vink
p741
aVcartridg
p742
aVwall
p743
aVcontain
p744
aVtank
p745
aVside
p746
aVtap
p747
aVbottom
p748
aVholder
p749
aVsuppli
p750
asI5619238
(lp751
Vcartridg
p752
aVwall
p753
aVbottom
p754
aVpartit
p755
aVopen
p756
aVcompart
p757
aVink
p758
aVreplac
p759
aVspong
p760
aVtop
p761
asI7294503
(lp762
Vdroplet
p763
aVbiolog
p764
aVsort
p765
aVmicrofluid
p766
aVmain
p767
aVchannel
p768
aVextrus
p769
aVmateri
p770
aVcrossflow
p771
aVvirion
p772
asI6524456
(lp773
Vsubnanolit
p774
aVmanipul
p775
aVbiochem
p776
aVvolum
p777
aVanalys
p778
aVsingl
p779
aVscreen
p780
aVthroughput
p781
aVreaction
p782
aVnanolit
p783
asI5835817
(lp784
Vconnector
p785
aVcartridg
p786
aVcopier
p787
aVreplac
p788
aVusag
p789
aVcalibr
p790
aVprinter
p791
aVmemori
p792
aVink
p793
aVapparatus
p794
asI7279146
(lp795
Vmicrofabr
p796
aVcrystal
p797
aVfluidic
p798
aVvolum
p799
aVsolut
p800
aVagent
p801
aVchamber
p802
aVsimultan
p803
aVtarget
p804
aVentrap
p805
asI6130695
(lp806
Vink
p807
aVprint
p808
aVdeliveri
p809
aVsystem
p810
aVreservoir
p811
aVadapt
p812
aVinform
p813
aVstorag
p814
aVlieu
p815
aVconnector
p816
asI5841452
(lp817
Vbubblejet
p818
aVheater
p819
aVfabric
p820
aVpassageway
p821
aVgiven
p822
aVmean
p823
aVprint
p824
aVsemiconductor
p825
aVsubstrat
p826
aVeject
p827
asI7052847
(lp828
Vnucleic
p829
aVnucleotid
p830
aVacid
p831
aVanalog
p832
aVstrand
p833
aVmolecul
p834
aVtarget
p835
aVsequenc
p836
aVpolymer
p837
aVsite
p838
asI5506611
(lp839
Vink
p840
aVcartridg
p841
aVwast
p842
aVprinter
p843
aVcontain
p844
aVlabel
p845
aVneedl
p846
aVhead
p847
aVreceptacl
p848
aVreservoir
p849
asI5414452
(lp850
Vink
p851
aVexpiri
p852
aVreservoir
p853
aVprint
p854
aVteleprint
p855
aVhead
p856
aVforese
p857
aVjet
p858
aVdrop
p859
aVnecessari
p860
asI6003977
(lp861
Vink
p862
aVbubbl
p863
aVchamber
p864
aVinlet
p865
aVthermal
p866
aVchannel
p867
aVexpand
p868
aVexpuls
p869
aVocclud
p870
aVblown
p871
asI6460984
(lp872
Vliquid
p873
aVcapillari
p874
aVsuppli
p875
aVcontain
p876
aVgenerat
p877
aVforc
p878
aVcommunic
p879
aVunit
p880
aVmateri
p881
aVcartridg
p882
asI6403338
(lp883
Vmicrofluid
p884
aVfluid
p885
aVmicroscal
p886
aVscreen
p887
aVgenotyp
p888
aVperform
p889
aVbiochem
p890
aVsystem
p891
aVgenom
p892
aViter
p893
asI7118910
(lp894
Vanalys
p895
aVreaction
p896
aVmicrofluid
p897
aVsite
p898
aVvarieti
p899
aVreagent
p900
aVthermocycl
p901
aVdevic
p902
aVgenotyp
p903
aVblind
p904
asI6592821
(lp905
Vparticl
p906
aVmicrofluid
p907
aVfocus
p908
aVsort
p909
aVsubcellular
p910
aVmicroscal
p911
aVmicroparticl
p912
aVpopul
p913
aVthroughput
p914
aVsystem
p915
asI5997121
(lp916
Vink
p917
aVcartridg
p918
aVphotosensor
p919
aVlight
p920
aVfacet
p921
aVprism
p922
aVroof
p923
aVsens
p924
aVmirror
p925
aVprinthead
p926
asI5218376
(lp927
Vliquid
p928
aVrecord
p929
aVjet
p930
aVpassag
p931
aVhead
p932
aVbubbl
p933
aVheat
p934
aVflux
p935
aVeject
p936
aVnot
p937
asI6062667
(lp938
Vink
p939
aVflag
p940
aVcarriag
p941
aVmount
p942
aVrecord
p943
aVcartridg
p944
aVjet
p945
aVprotrud
p946
aVphotosensor
p947
aVmember
p948
asI5589858
(lp949
Vrecord
p950
aVspeed
p951
aVmeter
p952
aVmedium
p953
aVdroplet
p954
aVvelocimet
p955
aVjet
p956
aVconvey
p957
aVdoppler
p958
aVliquid
p959
asI6628430
(lp960
Vprint
p961
aVphone
p962
aVmedia
p963
aVprinthead
p964
aVprinter
p965
aVdispens
p966
aVmobil
p967
aVoutlet
p968
aVfeed
p969
aVprocess
p970
asI6386772
(lp971
Vprinter
p972
aVprint
p973
aVtransceiv
p974
aVsubstrat
p975
aVphysic
p976
aVconfigur
p977
aVlink
p978
aVcircuit
p979
aVnon
p980
aVsuppli
p981
asI6829753
(lp982
Vmicrofluid
p983
aVlayout
p984
aVsynthesiz
p985
aVschemat
p986
aVphysic
p987
aVdesign
p988
aVsimul
p989
aVcomput
p990
aVcompon
p991
aVcode
p992
asI6062681
(lp993
Vconstrict
p994
aVbubbl
p995
aVliquid
p996
aVupstream
p997
aVheat
p998
aVdeliveri
p999
aVlocal
p1000
aVchannel
p1001
aVoutlet
p1002
aVarrang
p1003
asI7637594
(lp1004
Vnozzl
p1005
aVink
p1006
aVchamber
p1007
aVrim
p1008
aVcover
p1009
aVbend
p1010
aVactuat
p1011
aVeject
p1012
aVbridg
p1013
aVdefin
p1014
asI6818395
(lp1015
Vpolynucleotid
p1016
aVsequenc
p1017
aVthroughput
p1018
aVhigh
p1019
aVanalysi
p1020
aVanalyz
p1021
aVspeed
p1022
aVapparatus
p1023
aVcarri
p1024
aVmethod
p1025
asI6074042
(lp1026
Vink
p1027
aVprint
p1028
aVcontain
p1029
aVelectr
p1030
aVcontact
p1031
aVcomplementari
p1032
aVneedl
p1033
aVguid
p1034
aVreplac
p1035
aVhollow
p1036
asI6885982
(lp1037
Vmicrofluid
p1038
aVobject
p1039
aVchannel
p1040
aVfluid
p1041
aVcompon
p1042
aVrepres
p1043
aVorient
p1044
aVsymbol
p1045
aVdesign
p1046
aVconnect
p1047
asI6540895
(lp1048
Vmicrofabr
p1049
aVbranch
p1050
aVchannel
p1051
aVcell
p1052
aVsort
p1053
aVdetect
p1054
aVregion
p1055
aVanalysi
p1056
aVreport
p1057
aVpoint
p1058
asI6068752
(lp1059
Vmicrofluid
p1060
aVgeometri
p1061
aVincorpor
p1062
aVborn
p1063
aVmateri
p1064
aVchannel
p1065
aVthese
p1066
aVthroughput
p1067
aVdevic
p1068
aVimprov
p1069
asI6613513
(lp1070
Vnucleotid
p1071
aVsequenc
p1072
aVsynthesi
p1073
aVintercal
p1074
aVgroup
p1075
aVincorpor
p1076
aVfluoresc
p1077
aVlabel
p1078
aVphotobleach
p1079
aVanalog
p1080
asI6368871
(lp1081
Vmicrostructur
p1082
aVintern
p1083
aVchannel
p1084
aVmultipl
p1085
aVreactiv
p1086
aVstructur
p1087
aVmanipul
p1088
aVbranch
p1089
aVchip
p1090
aVmacromolecul
p1091
asI7077992
(lp1092
Vimprint
p1093
aVlithographi
p1094
aVtemplat
p1095
aVliquid
p1096
aVsubstrat
p1097
aVcure
p1098
aVrepeat
p1099
aVprocess
p1100
aVpattern
p1101
aVremaind
p1102
asI6508988
(lp1103
Vchannel
p1104
aVelast
p1105
aVflow
p1106
aVchemic
p1107
aVreaction
p1108
aVsolid
p1109
aVplural
p1110
aVfirst
p1111
aVmember
p1112
aVsupport
p1113
asI7491178
(lp1114
Vpenetr
p1115
aVsampl
p1116
aVtissu
p1117
aVchamber
p1118
aVmember
p1119
aVhous
p1120
aVfluid
p1121
aVoccupi
p1122
aVanalyt
p1123
aVassoci
p1124
asI6867051
(lp1125
Vcare
p1126
aVrisk
p1127
aVdiagnost
p1128
aVassess
p1129
aVtest
p1130
aVroom
p1131
aVpoint
p1132
aVmedic
p1133
aVdata
p1134
aVelectrocardiogram
p1135
asI4849774
(lp1136
Vliquid
p1137
aVheat
p1138
aVbubbl
p1139
aVorific
p1140
aVpath
p1141
aVdroplet
p1142
aVflow
p1143
aVrecord
p1144
aVelement
p1145
aVjet
p1146
asI6506609
(lp1147
Vparticl
p1148
aVmicrofluid
p1149
aVfocus
p1150
aVsort
p1151
aVsubcellular
p1152
aVmicroscal
p1153
aVmicroparticl
p1154
aVpopul
p1155
aVthroughput
p1156
aVsystem
p1157
asI5699091
(lp1158
Vconnector
p1159
aVcartridg
p1160
aVcopier
p1161
aVreplac
p1162
aVusag
p1163
aVcalibr
p1164
aVprinter
p1165
aVmemori
p1166
aVink
p1167
aVapparatus
p1168
asI7713214
(lp1169
Vpenetr
p1170
aVcartridg
p1171
aVtissu
p1172
aVmember
p1173
aVanalyt
p1174
aVdriver
p1175
aVcouplabl
p1176
aVsingl
p1177
aVfluid
p1178
aVoptic
p1179
asI6749814
(lp1180
Vmicrosystem
p1181
aVmicroreactor
p1182
aVchemic
p1183
aVmicrosepar
p1184
aVcandid
p1185
aVadsorb
p1186
aVlamina
p1187
aVmodular
p1188
aVmateri
p1189
aVarray
p1190
asI7291497
(lp1191
Vmicroarray
p1192
aVanalyt
p1193
aVagent
p1194
aVbioactiv
p1195
aVcapabl
p1196
aVtherapeut
p1197
aVmicrochannel
p1198
aVmedic
p1199
aVbodili
p1200
aVdevic
p1201
asI6229114
(lp1202
Vstock
p1203
aVadhes
p1204
aVcut
p1205
aVprecis
p1206
aVsheet
p1207
aVirradi
p1208
aVpattern
p1209
aVinkjet
p1210
aVcartridg
p1211
aVtape
p1212
asI7297151
(lp1213
Vcartridg
p1214
aVanalyt
p1215
aVfluid
p1216
aVpenetr
p1217
aVmember
p1218
aVchamber
p1219
aVcaviti
p1220
aVdetect
p1221
aVplural
p1222
aVdevic
p1223
asI5485187
(lp1224
Vink
p1225
aVtank
p1226
aVpressur
p1227
aVair
p1228
aVauxiliari
p1229
aVpump
p1230
aVhead
p1231
aVrecoveri
p1232
aVmain
p1233
aVcompriss
p1234
asI6344325
(lp1235
Vpolynucleotid
p1236
aVsort
p1237
aVmolecul
p1238
aVmicrofabr
p1239
aVsize
p1240
aVoptic
p1241
aVdevic
p1242
aVfluoresc
p1243
aVreport
p1244
aVbranch
p1245
asI5389957
(lp1246
Vink
p1247
aVmember
p1248
aVjet
p1249
aVrecess
p1250
aVoutlet
p1251
aVpassag
p1252
aVhead
p1253
aVcontour
p1254
aVeject
p1255
aVfirst
p1256
asI6929030
(lp1257
Velastomer
p1258
aVmicromachin
p1259
aVlayer
p1260
aVfirst
p1261
aVrecess
p1262
aVmold
p1263
aVsecond
p1264
aVtop
p1265
aVprotrus
p1266
aVbottom
p1267
asI6596545
(lp1268
Vbiomolecul
p1269
aVphospolipid
p1270
aVscreen
p1271
aVmicrodevic
p1272
aVproteom
p1273
aVbiomolecular
p1274
aVunnatur
p1275
aVprotein
p1276
aVmicrofabr
p1277
aVpolysaccharid
p1278
asI6149256
(lp1279
Vink
p1280
aVprinter
p1281
aVjet
p1282
aVcartridg
p1283
aVinsert
p1284
aVhous
p1285
aVadapt
p1286
aVreservoir
p1287
aVcamera
p1288
aVreceiv
p1289
asI5275787
(lp1290
Vparticl
p1291
aVexamin
p1292
aVdischarg
p1293
aVreceptacl
p1294
aVdrop
p1295
aVenergi
p1296
aVliquid
p1297
aVbubbl
p1298
aVsepar
p1299
aVsuspend
p1300
asI6454924
(lp1301
Vmicrofluid
p1302
aVmicroanalysi
p1303
aVchannel
p1304
aVbottom
p1305
aVtransfer
p1306
aVsepar
p1307
aVembodi
p1308
aVchip
p1309
aVapertur
p1310
aVdischarg
p1311
asI6248590
(lp1312
Vcytomet
p1313
aVstream
p1314
aVdroplet
p1315
aVsort
p1316
aVcytometri
p1317
aVcan
p1318
aVflow
p1319
aVimag
p1320
aVallow
p1321
aVcharg
p1322
asI7338639
(lp1323
Vanalyt
p1324
aVrespons
p1325
aVmeasur
p1326
aVcorrect
p1327
aVcompon
p1328
aVexcit
p1329
aVbiolog
p1330
aVdetermin
p1331
aVconcentr
p1332
aVfluid
p1333
asI6969488
(lp1334
Vmicroparticl
p1335
aVanalyt
p1336
aVplanar
p1337
aVprocess
p1338
aVreagent
p1339
aVarray
p1340
aVoptic
p1341
aVanalyz
p1342
aVdeliv
p1343
aVsimultan
p1344
asI6557976
(lp1345
Vprinthead
p1346
aVside
p1347
aVinkjet
p1348
aVelectr
p1349
aVcarrier
p1350
aVdie
p1351
aVwide
p1352
aVarray
p1353
aVcircuit
p1354
aVfirst
p1355
asI6798997
(lp1356
Vreplac
p1357
aVelectron
p1358
aVorder
p1359
aVidentif
p1360
aVautomat
p1361
aVcondit
p1362
aVpurchas
p1363
aVsuppli
p1364
aVoffer
p1365
aVcompon
p1366
asI7665303
(lp1367
Vbolus
p1368
aVfluid
p1369
aVpneumat
p1370
aVsegreg
p1371
aVhandl
p1372
aVactuat
p1373
aVdescrib
p1374
aVcircuit
p1375
aVanalyt
p1376
aVpocket
p1377
asI6653124
(lp1378
Vmicrochamb
p1379
aVcultur
p1380
aVmicroenviron
p1381
aVcell
p1382
aVreagent
p1383
aVreservoir
p1384
aVconduit
p1385
aVarray
p1386
aVmonitor
p1387
aVvalv
p1388
asI6183067
(lp1389
Vfire
p1390
aVactuat
p1391
aVinkjet
p1392
aVprinthead
p1393
aVintegr
p1394
aVsubstrat
p1395
aVmanifold
p1396
aVchamber
p1397
aVink
p1398
aVfabric
p1399
asI5946012
(lp1400
Vink
p1401
aValcohol
p1402
aVdrop
p1403
aVprinthead
p1404
aVhigh
p1405
aVshelf
p1406
aVmicron
p1407
aVabout
p1408
aVviscos
p1409
aViso
p1410
asI6367903
(lp1411
Vprimit
p1412
aVprint
p1413
aVprinter
p1414
aVdot
p1415
aValign
p1416
aVcartridg
p1417
aVerror
p1418
aVtechniqu
p1419
aVcorrect
p1420
aVtime
p1421
asI6065824
(lp1422
Vink
p1423
aVprinter
p1424
aVtermin
p1425
aVreplac
p1426
aVjet
p1427
aVdata
p1428
aVrefer
p1429
aVcartridg
p1430
aVsingl
p1431
aVmemori
p1432
asI6726306
(lp1433
Vprint
p1434
aVcartridg
p1435
aVshutter
p1436
aVcover
p1437
aVattach
p1438
aVhead
p1439
aVmovabl
p1440
aVbias
p1441
aVarm
p1442
aVclose
p1443
asI6881541
(lp1444
Vlyse
p1445
aVsampl
p1446
aVnucleic
p1447
aVvirus
p1448
aVchamber
p1449
aVacid
p1450
aVflow
p1451
aVcartridg
p1452
aVcell
p1453
aVfluid
p1454
asI6153073
(lp1455
Vmicrofluid
p1456
aVgeometri
p1457
aVincorpor
p1458
aVborn
p1459
aVmateri
p1460
aVchannel
p1461
aVthese
p1462
aVthroughput
p1463
aVdevic
p1464
aVimprov
p1465
asI6054277
(lp1466
sI5367324
(lp1467
Vink
p1468
aVnozzl
p1469
aVcolor
p1470
aVgroup
p1471
aVrow
p1472
aVheat
p1473
aVsubstrat
p1474
aVleast
p1475
aVelement
p1476
aVjet
p1477
asI6312106
(lp1478
Vmark
p1479
aVradio
p1480
aVengin
p1481
aVdock
p1482
aVlink
p1483
aVfrequenc
p1484
aVhous
p1485
aVmachin
p1486
aVundock
p1487
aVassoci
p1488
asI5942443
(lp1489
Vscreen
p1490
aVthroughput
p1491
aVassay
p1492
aVmicroscal
p1493
aVbiochem
p1494
aVmicrofluid
p1495
aVfluidic
p1496
aVhigh
p1497
aVvarieti
p1498
aVdevic
p1499
asI5155502
(lp1500
Vink
p1501
aVjet
p1502
aVhead
p1503
aVabsorb
p1504
aVbodi
p1505
aVcartridg
p1506
aVstorag
p1507
aVmember
p1508
aVportion
p1509
aVassur
p1510
asI5552816
(lp1511
Vink
p1512
aVtank
p1513
aVjet
p1514
aVresidu
p1515
aVquantiti
p1516
aVrecord
p1517
aVtip
p1518
aVpressur
p1519
aVinsid
p1520
aVhead
p1521
asI5534897
(lp1522
Vprintbar
p1523
aVmainten
p1524
aVfwa
p1525
aVtranslat
p1526
aVjet
p1527
aVink
p1528
aVnozzl
p1529
aVstation
p1530
aVarticul
p1531
aVcarriag
p1532
asI6652082
(lp1533
Vink
p1534
aVprinthead
p1535
aVmanifold
p1536
aVsuppli
p1537
aVpagewidth
p1538
aVprinter
p1539
aVunit
p1540
aVjet
p1541
aVnozzl
p1542
aVdefin
p1543
asI6358387
(lp1544
Vanalyt
p1545
aVmicrochannel
p1546
aVinterfac
p1547
aVmultipl
p1548
aVthroughput
p1549
aVsimultan
p1550
aVsubstrat
p1551
aVdetect
p1552
aVmodular
p1553
aVexcit
p1554
asI6274089
(lp1555
Vreactant
p1556
aVregion
p1557
aVsepar
p1558
aVreaction
p1559
aVmicrofluid
p1560
aVintegr
p1561
aVnetwork
p1562
aVchannel
p1563
aVmicroscal
p1564
aVproduct
p1565
asI6126265
(lp1566
Vstation
p1567
aVservic
p1568
aVcartridg
p1569
aVink
p1570
aVprinthead
p1571
aVmemori
p1572
aVcontrol
p1573
aVdata
p1574
aVnozzl
p1575
aVsubroutin
p1576
asI6977722
(lp1577
Vluminesc
p1578
aVassay
p1579
aVinduc
p1580
aVreader
p1581
aVmodul
p1582
aVmeasur
p1583
aVtest
p1584
aVelectrod
p1585
aVwell
p1586
aVconduct
p1587
asI6227643
(lp1588
Vprinter
p1589
aVintellig
p1590
aVenvironment
p1591
aVsensor
p1592
aVjet
p1593
aVink
p1594
aVprint
p1595
aVhumid
p1596
aVmemori
p1597
aVcompon
p1598
asI6126804
(lp1599
Vpcr
p1600
aVinstrument
p1601
aVreaction
p1602
aVdna
p1603
aVpolymeras
p1604
aVelectrophoresi
p1605
aVchannel
p1606
aVband
p1607
aVfragment
p1608
aVwell
p1609
asI6440645
(lp1610
Vmicrostructur
p1611
aVdepolymeriz
p1612
aVunpolymer
p1613
aVirradi
p1614
aVdepolymer
p1615
aVmateri
p1616
aVonto
p1617
aVpolymeriz
p1618
aVphotoresist
p1619
aVcurabl
p1620
asI5478606
(lp1621
Vink
p1622
aVresin
p1623
aVpath
p1624
aVeject
p1625
aVflow
p1626
aVcoat
p1627
aVpattern
p1628
aVdissolubl
p1629
aVdissolv
p1630
aVjet
p1631
asI6632655
(lp1632
Vmicrofluid
p1633
aVflowabl
p1634
aVassay
p1635
aVarray
p1636
aVmicroparticl
p1637
aVparticl
p1638
aVhydrodynam
p1639
aVfix
p1640
aVsystem
p1641
aVset
p1642
asI6951632
(lp1643
Vmicrofluid
p1644
aVfluid
p1645
aVintroduct
p1646
aVdevic
p1647
aVdispens
p1648
aVintroduc
p1649
aVfacilit
p1650
aVchannel
p1651
aVsystem
p1652
aVlocat
p1653
asI7648468
(lp1654
Vpenetr
p1655
aVtissu
p1656
aVsite
p1657
aVmember
p1658
aVcartridg
p1659
aVforc
p1660
aVgenerat
p1661
aVhous
p1662
aVsteril
p1663
aVout
p1664
asI6341845
(lp1665
Vprinthead
p1666
aVsubstrat
p1667
aVelectr
p1668
aVside
p1669
aVinkjet
p1670
aVdie
p1671
aVwide
p1672
aVcarrier
p1673
aVarray
p1674
aVcircuit
p1675
asI6676987
(lp1676
Vapplianc
p1677
aVmedic
p1678
aVbubbl
p1679
aVcoat
p1680
aVjet
p1681
aVprint
p1682
aVpattern
p1683
aVhead
p1684
aVaccess
p1685
aVprocessor
p1686
asI7056676
(lp1687
Vnucleic
p1688
aVnucleotid
p1689
aVacid
p1690
aVanalog
p1691
aVstrand
p1692
aVmolecul
p1693
aVtarget
p1694
aVsequenc
p1695
aVpolymer
p1696
aVsite
p1697
asI4965594
(lp1698
Vliquid
p1699
aVelectro
p1700
aVthermal
p1701
aVheat
p1702
aVlamin
p1703
aVresist
p1704
aVdischar
p1705
aVlayer
p1706
aVdischarg
p1707
aVconvert
p1708
asI7316700
(lp1709
Vlancet
p1710
aVlanc
p1711
aVcutan
p1712
aVtempor
p1713
aVconjunct
p1714
aVretract
p1715
aVfeedback
p1716
aVadvanc
p1717
aVvariat
p1718
aVtissu
p1719
asI4860026
(lp1720
Vink
p1721
aVdiffer
p1722
aVdot
p1723
aVdensiti
p1724
aVconcentr
p1725
aVhalfton
p1726
aVrecord
p1727
aVexpress
p1728
aVimag
p1729
aVpattern
p1730
asI6632656
(lp1731
Vcell
p1732
aVgrowth
p1733
aVchannel
p1734
aVassay
p1735
aVmicrofabr
p1736
aVplate
p1737
aVmicro
p1738
aVbase
p1739
aVchamber
p1740
aVliquid
p1741
asI6491362
(lp1742
Vdroplet
p1743
aVink
p1744
aVprint
p1745
aVdrop
p1746
aVstream
p1747
aVplacement
p1748
aVapparatus
p1749
aVimag
p1750
aVgas
p1751
aVdeflector
p1752
asI5788388
(lp1753
Vink
p1754
aVcartridg
p1755
aVconnector
p1756
aVmatabl
p1757
aVelectr
p1758
aVprinter
p1759
aVhous
p1760
aVsuppli
p1761
aVreceptacl
p1762
aVjet
p1763
asI6267858
(lp1764
Vscreen
p1765
aVthroughput
p1766
aVassay
p1767
aVmicroscal
p1768
aVbiochem
p1769
aVmicrofluid
p1770
aVfluidic
p1771
aVhigh
p1772
aVvarieti
p1773
aVdevic
p1774
asI7948015
(lp1775
Varray
p1776
aVanalyt
p1777
aVchemfet
p1778
aVfet
p1779
aVdens
p1780
aVtechniqu
p1781
aVlarg
p1782
aVconcentr
p1783
aVdna
p1784
aVisfet
p1785
asI7129554
(lp1786
Vnanoscop
p1787
aVnanotub
p1788
aVchemic
p1789
aVnanosensor
p1790
aVvapor
p1791
aVdeposit
p1792
aVbistabl
p1793
aVmonolay
p1794
aVcrossbar
p1795
aVwire
p1796
asI6391541
(lp1797
Vlyse
p1798
aVanalyt
p1799
aVsampl
p1800
aVchamber
p1801
aVflow
p1802
aVpath
p1803
aVvirus
p1804
aVcartridg
p1805
aVruptur
p1806
aVcell
p1807
asI6654505
(lp1808
Vmicroparticl
p1809
aVanalyt
p1810
aVplanar
p1811
aVprocess
p1812
aVreagent
p1813
aVarray
p1814
aVoptic
p1815
aVanalyz
p1816
aVdeliv
p1817
aVsimultan
p1818
asI6851796
(lp1819
Vdroplet
p1820
aVink
p1821
aVdeflector
p1822
aVcatcher
p1823
aVpath
p1824
aVtravel
p1825
aVvolum
p1826
aVstream
p1827
aVbegin
p1828
aValong
p1829
asI5359357
(lp1830
Vhead
p1831
aV55c
p1832
aVunloosen
p1833
aVcartridg
p1834
aVcarriag
p1835
aVdepress
p1836
aVjet
p1837
aVink
p1838
aVmember
p1839
aVrecord
p1840
asI5995774
(lp1841
Vtoner
p1842
aVcartridg
p1843
aVeprom
p1844
aVgaug
p1845
aVprinter
p1846
aVbucket
p1847
aVreservoir
p1848
aVburn
p1849
aVgas
p1850
aVprocess
p1851
asI6495104
(lp1852
Vindic
p1853
aVmicrofluid
p1854
aVelement
p1855
aVfunction
p1856
aVregistr
p1857
aVdiffer
p1858
aVconjunct
p1859
aVinstrument
p1860
aVdevic
p1861
aVkey
p1862
asI6371586
(lp1863
Vink
p1864
aVcartridg
p1865
aVdata
p1866
aVstorag
p1867
aVbit
p1868
aVprinter
p1869
aVeeprom
p1870
aVcapac
p1871
aVquantiti
p1872
aVreplac
p1873
asI5555461
(lp1874
Vwiper
p1875
aVblade
p1876
aVclean
p1877
aVprinthead
p1878
aVink
p1879
aVnozzl
p1880
aVgroov
p1881
aVwipe
p1882
aVface
p1883
aVedg
p1884
asI6280967
(lp1885
V349
p1886
aV355
p1887
aVtest
p1888
aVreal
p1889
aV303
p1890
aVcellular
p1891
aVcell
p1892
aVcompound
p1893
aVtime
p1894
aVrespons
p1895
asI4994825
(lp1896
Vhead
p1897
aVink
p1898
aVdischarg
p1899
aVbond
p1900
aVmain
p1901
aVrecord
p1902
aVjet
p1903
aVplate
p1904
aVbodi
p1905
aVopen
p1906
asI5926666
(lp1907
Velectrophotograph
p1908
aVphotosensit
p1909
aVdrum
p1910
aVcartridg
p1911
aVmain
p1912
aVcontact
p1913
aVactabl
p1914
aVassembl
p1915
aVmemori
p1916
aVprocess
p1917
asI5175565
(lp1918
Vbuilt
p1919
aVarray
p1920
aVsubstrat
p1921
aVenergi
p1922
aVheater
p1923
aVjet
p1924
aVtemperatur
p1925
aVoutsid
p1926
aVsensor
p1927
aVopposit
p1928
asI7682318
(lp1929
Vsampl
p1930
aVblood
p1931
aVlanc
p1932
aVminiatur
p1933
aVacquisit
p1934
aVcompon
p1935
aVgaseous
p1936
aVdioxid
p1937
aVembodi
p1938
aVambient
p1939
asI7105300
(lp1940
Vnucleotid
p1941
aVsequenc
p1942
aVsynthesi
p1943
aVintercal
p1944
aVgroup
p1945
aVincorpor
p1946
aVfluoresc
p1947
aVlabel
p1948
aVphotobleach
p1949
aVanalog
p1950
asI6440725
(lp1951
Velut
p1952
aVsampl
p1953
aVcartridg
p1954
aV122
p1955
aVanalyt
p1956
aVflow
p1957
aVfluid
p1958
aVpath
p1959
aVcompon
p1960
aVthrough
p1961
asI6416152
(lp1962
Vink
p1963
aVcartridg
p1964
aVcontain
p1965
aVbodi
p1966
aVprint
p1967
aVlid
p1968
aVjet
p1969
aVcap
p1970
aVcompos
p1971
aVport
p1972
asI6696220
(lp1973
Vreconvers
p1974
aVcolor
p1975
aVviewabl
p1976
aVimprint
p1977
aVnano
p1978
aVtemplat
p1979
aVmicro
p1980
aVsuit
p1981
aVroom
p1982
aVphotograph
p1983
asI5479197
(lp1984
Vlayer
p1985
aVconduct
p1986
aVthermal
p1987
aVelectro
p1988
aVinsul
p1989
aVtransduc
p1990
aVink
p1991
aVrecord
p1992
aVhead
p1993
aVportion
p1994
asI6572830
(lp1995
Vmonolith
p1996
aVgreen
p1997
aVport
p1998
aVfluid
p1999
aVmicroflud
p2000
aVsinter
p2001
aVmultilay
p2002
aVsubstanti
p2003
aVsheet
p2004
aVstructur
p2005
asI5922591
(lp2006
Vsampl
p2007
aVnucleic
p2008
aVdiagnost
p2009
aVintegr
p2010
aVacquisit
p2011
aVnovo
p2012
aVacid
p2013
aVapplic
p2014
aVanalysi
p2015
aVdevic
p2016
asI6274337
(lp2017
Vscreen
p2018
aVthroughput
p2019
aVassay
p2020
aVmicroscal
p2021
aVbiochem
p2022
aVmicrofluid
p2023
aVfluidic
p2024
aVhigh
p2025
aVvarieti
p2026
aVdevic
p2027
asI7410468
(lp2028
Vpenetr
p2029
aVanalyt
p2030
aVsampl
p2031
aVmember
p2032
aVchamber
p2033
aVfluid
p2034
aVhous
p2035
aVbodi
p2036
aVconfigur
p2037
aVdetect
p2038
asI6080295
(lp2039
Vmicrofluid
p2040
aVelectropipettor
p2041
aVtransport
p2042
aVmateri
p2043
aVionic
p2044
aVelectrophoret
p2045
aVchannel
p2046
aVconcentr
p2047
aVelectrophores
p2048
aVspacer
p2049
asI6554410
(lp2050
Vdroplet
p2051
aVink
p2052
aVstream
p2053
aVvolum
p2054
aVheater
p2055
aVgas
p2056
aVsourc
p2057
aVplural
p2058
aVnozzl
p2059
aVposit
p2060
asI6406921
(lp2061
Vprotein
p2062
aVarray
p2063
aVcoat
p2064
aVscreen
p2065
aVthroughput
p2066
aVsubstrat
p2067
aVbiomolecular
p2068
aVclinic
p2069
aVvitro
p2070
aVfamili
p2071
asI7374544
(lp2072
Vtissu
p2073
aVpenetr
p2074
aVsite
p2075
aVmember
p2076
aVfluid
p2077
aVanalyt
p2078
aVforc
p2079
aVsampl
p2080
aVgenerat
p2081
aVout
p2082
asI5804083
(lp2083
Vtemporari
p2084
aVlayer
p2085
aVdimension
p2086
aVamphoter
p2087
aVmicromachin
p2088
aVthree
p2089
aVmicrostructur
p2090
aVsacrifici
p2091
aVmade
p2092
aVphotoresist
p2093
asI5610635
(lp2094
Vink
p2095
aVcartridg
p2096
aVmemori
p2097
aVstorag
p2098
aVelement
p2099
aVprinter
p2100
aVdriver
p2101
aVstore
p2102
aVenerg
p2103
aVamount
p2104
asI6960437
(lp2105
Vmicrofluid
p2106
aVreaction
p2107
aVtemperatur
p2108
aVcertaom
p2109
aVamplif
p2110
aVnucleic
p2111
aVchannel
p2112
aVrotari
p2113
aVregul
p2114
aVdiffer
p2115
asI6592822
(lp2116
Vdiagnost
p2117
aVanalyt
p2118
aVcomput
p2119
aVanalyz
p2120
aVcommunicat
p2121
aVbiolog
p2122
aVinstruct
p2123
aVrun
p2124
aVflow
p2125
aVsampl
p2126
asI6893879
(lp2127
Vanalyt
p2128
aVcaptur
p2129
aVchamber
p2130
aVelut
p2131
aVextract
p2132
aVsampl
p2133
aVlyse
p2134
aVwast
p2135
aVcartridg
p2136
aVfluid
p2137
asI6319668
(lp2138
Vmatrix
p2139
aVmolecul
p2140
aVmemori
p2141
aVassay
p2142
aVmacromolecul
p2143
aVbiolog
p2144
aVcombin
p2145
aVimmunoassay
p2146
aVmatric
p2147
aVmateri
p2148
asI6939451
(lp2149
Vmicrofluid
p2150
aVcompon
p2151
aVfilm
p2152
aVconduct
p2153
aVelectrokinet
p2154
aVintegr
p2155
aVnorbornen
p2156
aVdevic
p2157
aVelectrod
p2158
aVbubbl
p2159
asI6302527
(lp2160
Vprint
p2161
aVreplac
p2162
aVcompon
p2163
aVsensor
p2164
aVbroadcast
p2165
aVmateri
p2166
aVsignal
p2167
aVlink
p2168
aVindic
p2169
aVinkjet
p2170
asI7476363
(lp2171
Velastomer
p2172
aVmicrofluid
p2173
aVreagent
p2174
aVblock
p2175
aVetch
p2176
aVmatrix
p2177
aVinlet
p2178
aVreaction
p2179
aVdevic
p2180
aVvia
p2181
asI6238538
(lp2182
Vmicrofabr
p2183
aVbiochemistri
p2184
aVbiotechnolog
p2185
aVpolymer
p2186
aVbiochem
p2187
aVmicrofluid
p2188
aVchemistri
p2189
aVanalys
p2190
aVfield
p2191
aVfluidic
p2192
asI6618679
(lp2193
Vgene
p2194
aVexpress
p2195
aVanalysi
p2196
aVkit
p2197
aVthroughput
p2198
aVinexpens
p2199
aVinvent
p2200
aVcomposit
p2201
aVhigh
p2202
aVdata
p2203
asI6079821
(lp2204
Vink
p2205
aVbore
p2206
aVnozzl
p2207
aVstream
p2208
aVheater
p2209
aVdeliveri
p2210
aVasymmetr
p2211
aVperimet
p2212
aVcontinu
p2213
aVprinter
p2214
asI6235471
(lp2215
Vbiochem
p2216
aVfluid
p2217
aVmicroscal
p2218
aVscreen
p2219
aVperform
p2220
aVmicrofluid
p2221
aVgenom
p2222
aViter
p2223
aVsystem
p2224
aVpurif
p2225
asI6221654
(lp2226
Vpolynucleotid
p2227
aVsort
p2228
aVmolecul
p2229
aVmicrofabr
p2230
aVsize
p2231
aVoptic
p2232
aVdevic
p2233
aVfluoresc
p2234
aVreport
p2235
aVbranch
p2236
asI6830936
(lp2237
Vsampl
p2238
aVnucleic
p2239
aVdiagnost
p2240
aVintegr
p2241
aVacquisit
p2242
aVnovo
p2243
aVacid
p2244
aVapplic
p2245
aVanalysi
p2246
aVnotabl
p2247
asI6197595
(lp2248
Vsampl
p2249
aVnucleic
p2250
aVdiagnost
p2251
aVintegr
p2252
aVacquisit
p2253
aVnovo
p2254
aVacid
p2255
aVapplic
p2256
aVanalysi
p2257
aVdevic
p2258
asI6238044
(lp2259
Vcartridg
p2260
aVprint
p2261
aVarrang
p2262
aVsuppli
p2263
aVfilter
p2264
aVsupport
p2265
aVprinthead
p2266
aVink
p2267
aVmedia
p2268
aVinstal
p2269
asI6544734
(lp2270
Vdna
p2271
aVamplif
p2272
aVmicrofluid
p2273
aVchamber
p2274
aVmultilay
p2275
aVanalysi
p2276
aVmonolith
p2277
aVmean
p2278
aVlysi
p2279
aVcool
p2280
asI6429025
(lp2281
Vscreen
p2282
aVthroughput
p2283
aVassay
p2284
aVmicroscal
p2285
aVbiochem
p2286
aVmicrofluid
p2287
aVfluidic
p2288
aVhigh
p2289
aVvarieti
p2290
aVdevic
p2291
asI6174050
(lp2292
Veject
p2293
aVheat
p2294
aVgenerat
p2295
aVbubbl
p2296
aVsurfac
p2297
aVmovabl
p2298
aVoutlet
p2299
aVupstream
p2300
aVmember
p2301
aVliquid
p2302
asI6521188
(lp2303
Vmicrofluid
p2304
aVactuat
p2305
aVdiaphragm
p2306
aVvacuum
p2307
aVchamber
p2308
aVheater
p2309
aVfilm
p2310
aVnetwork
p2311
aVdifferenti
p2312
aVglass
p2313
asI6361958
(lp2314
Vmicrochannel
p2315
aVbiochannel
p2316
aVbiomateri
p2317
aVmicrofluid
p2318
aVfabric
p2319
aVrna
p2320
aVbead
p2321
aVassay
p2322
aVdna
p2323
aVpropel
p2324
asI6742887
(lp2325
Vprint
p2326
aVink
p2327
aVportabl
p2328
aVmechan
p2329
aVincorpor
p2330
aVtherein
p2331
aVsimpli
p2332
aVcommunic
p2333
aVwast
p2334
aVtank
p2335
asI6046056
(lp2336
Vscreen
p2337
aVthroughput
p2338
aVassay
p2339
aVmicroscal
p2340
aVbiochem
p2341
aVmicrofluid
p2342
aVfluidic
p2343
aVhigh
p2344
aVvarieti
p2345
aVdevic
p2346
asI6116715
(lp2347
sI6050669
(lp2348
sI6247790
(lp2349
Vnozzl
p2350
aVink
p2351
aVeject
p2352
aVactuat
p2353
aVrim
p2354
aVradial
p2355
aVchamber
p2356
aVport
p2357
aVthermoelast
p2358
aVjet
p2359
asI7582063
(lp2360
Vprick
p2361
aVtest
p2362
aVblood
p2363
aVelement
p2364
aVwithdraw
p2365
aVskin
p2366
aVmultipl
p2367
aVlanc
p2368
aVapparatus
p2369
aVdevic
p2370
asI7604592
(lp2371
Vtest
p2372
aVcartridg
p2373
aVcare
p2374
aVnonsequenti
p2375
aVreport
p2376
aVpoc
p2377
aVinterrog
p2378
aVsingl
p2379
aVpoint
p2380
aVthough
p2381
asI6911345
(lp2382
Vport
p2383
aVpolynucleotid
p2384
aVflow
p2385
aVcell
p2386
aVanalyz
p2387
aVmicrofabr
p2388
aVinlet
p2389
aVoutlet
p2390
aVsequenc
p2391
aVfluid
p2392
asI7582099
(lp2393
Vpenetr
p2394
aVmember
p2395
aVskin
p2396
aVtip
p2397
aVtissu
p2398
aVdriver
p2399
aVuncov
p2400
aVlaunch
p2401
aVplural
p2402
aVrelay
p2403
asI6168948
(lp2404
Vnucleic
p2405
aVminiatur
p2406
aVacid
p2407
aVgenet
p2408
aVdiagnost
p2409
aVbind
p2410
aVsite
p2411
aVanalysi
p2412
aVzone
p2413
aVextract
p2414
asI7674232
(lp2415
Vtissu
p2416
aVsite
p2417
aVpenetr
p2418
aVforc
p2419
aVmember
p2420
aVgenerat
p2421
aVout
p2422
aVtrajectori
p2423
aVdrive
p2424
aVwithdraw
p2425
asI6019449
(lp2426
sI6831994
(lp2427
Vmicroparticl
p2428
aVanalyt
p2429
aVplanar
p2430
aVprocess
p2431
aVreagent
p2432
aVarray
p2433
aVoptic
p2434
aVanalyz
p2435
aVdeliv
p2436
aVsimultan
p2437
asI7344507
(lp2438
Vlancet
p2439
aVdriver
p2440
aVlanc
p2441
aVforc
p2442
aVexert
p2443
aVdrive
p2444
aVcycl
p2445
aVdure
p2446
aVmagnitud
p2447
aVsite
p2448
asI5477246
(lp2449
Vrecord
p2450
aVink
p2451
aVeject
p2452
aVprint
p2453
aVquantiti
p2454
aVmode
p2455
aVhead
p2456
aVpass
p2457
aVjet
p2458
aVtotal
p2459
asI5040000
(lp2460
Vrecord
p2461
aVink
p2462
aVhead
p2463
aVdischarg
p2464
aVrecoveri
p2465
aVconvey
p2466
aVjet
p2467
aVbelt
p2468
aVport
p2469
aVdroplet
p2470
asI6019457
(lp2471
Vpassageway
p2472
aVink
p2473
aVprint
p2474
aVeject
p2475
aVjet
p2476
aVdimens
p2477
aVoutlet
p2478
aVcross
p2479
aVchang
p2480
aVwhere
p2481
asI6019461
(lp2482
sI6039430
(lp2483
sI6151049
(lp2484
Vliquid
p2485
aVbubbl
p2486
aVdischarg
p2487
aVpath
p2488
aVflow
p2489
aVfirst
p2490
aVgenerat
p2491
aVregion
p2492
aVsuppli
p2493
aVcommunic
p2494
asI6155664
(lp2495
Vink
p2496
aVcartridg
p2497
aVprinthead
p2498
aVremot
p2499
aVstore
p2500
aVcompat
p2501
aVmemori
p2502
aVreservoir
p2503
aVcharacterist
p2504
aVinkjet
p2505
asI6375314
(lp2506
Vphotoprint
p2507
aVconsum
p2508
aVink
p2509
aVprintabl
p2510
aVcassett
p2511
aVsourc
p2512
aVmedia
p2513
aVsheet
p2514
aVremov
p2515
aVprint
p2516
asI6007187
(lp2517
Veject
p2518
aVliquid
p2519
aVbubbl
p2520
aVoutlet
p2521
aVmovabl
p2522
aVfree
p2523
aVmember
p2524
aVgenerat
p2525
aVend
p2526
aVgrow
p2527
asI7156117
(lp2528
Vmicrofluid
p2529
aVtrigger
p2530
aVvalv
p2531
aVcircuit
p2532
aVpassiv
p2533
aVfluid
p2534
aVthrough
p2535
aVcontrol
p2536
aVflow
p2537
aVpresent
p2538
asI5741462
(lp2539
Vmatrix
p2540
aVmacromolecul
p2541
aVmemori
p2542
aVcombin
p2543
aVmatric
p2544
aVremot
p2545
aVbiolog
p2546
aVprogramm
p2547
aVmolecul
p2548
aVphage
p2549
asI7547287
(lp2550
Vpenetr
p2551
aVmember
p2552
aVtissu
p2553
aVhous
p2554
aVsensor
p2555
aVcoupl
p2556
aVskin
p2557
aVdepth
p2558
aVplural
p2559
aVstabil
p2560
asI7059352
(lp2561
Vpassiv
p2562
aVvalv
p2563
aVfluid
p2564
aVrestrictor
p2565
aVflow
p2566
aVchannel
p2567
aVtrigger
p2568
aVdeliveri
p2569
aVactuat
p2570
aVburst
p2571
asI6290334
(lp2572
Vrecord
p2573
aVelectr
p2574
aVelement
p2575
aVsignal
p2576
aVsuppli
p2577
aVsubstrat
p2578
aVcontact
p2579
aVserial
p2580
aVrecept
p2581
aVlead
p2582
asI7537571
(lp2583
Vsampl
p2584
aVblood
p2585
aVmodul
p2586
aVdispos
p2587
aVtest
p2588
aVglucos
p2589
aVsingl
p2590
aVminiatur
p2591
aVeas
p2592
aVanalyt
p2593
asI7033764
(lp2594
Vnucleic
p2595
aVnucleotid
p2596
aVacid
p2597
aVanalog
p2598
aVstrand
p2599
aVmolecul
p2600
aVtarget
p2601
aVsequenc
p2602
aVpolymer
p2603
aVsite
p2604
asI6481829
(lp2605
Vprinthead
p2606
aVlatch
p2607
aVactuat
p2608
aVcartridg
p2609
aVmanual
p2610
aVcarrier
p2611
aVspring
p2612
aVreleas
p2613
aVcover
p2614
aVsecur
p2615
asI5132711
(lp2616
Vrecord
p2617
aVunit
p2618
aVmemori
p2619
aVink
p2620
aVdata
p2621
aVdetect
p2622
aVstore
p2623
aVcontrol
p2624
aVoutput
p2625
aVindic
p2626
asI5138344
(lp2627
Vink
p2628
aVcartridg
p2629
aVjet
p2630
aVrecord
p2631
aVdetach
p2632
aVcontain
p2633
aVinform
p2634
aVadaptor
p2635
aVmountabl
p2636
aVreceptor
p2637
asI6911132
(lp2638
Vdroplet
p2639
aVmanipul
p2640
aVelectrowet
p2641
aVmix
p2642
aVenerg
p2643
aVtechniqu
p2644
aVsurfac
p2645
aVapparatus
p2646
aVelectrod
p2647
aVcontain
p2648
asI6719915
(lp2649
Vpolymeriz
p2650
aVrelief
p2651
aVpolymer
p2652
aVsolidifi
p2653
aVtransfer
p2654
aVfluid
p2655
aVmold
p2656
aVlayer
p2657
aVcomposit
p2658
aVmateri
p2659
asI6444461
(lp2660
Vmicrofluid
p2661
aVfluid
p2662
aVmicroscal
p2663
aVscreen
p2664
aVperform
p2665
aVbiochem
p2666
aVgenom
p2667
aViter
p2668
aVdevic
p2669
aVsystem
p2670
asI5856174
(lp2671
Vsampl
p2672
aVnucleic
p2673
aVdiagnost
p2674
aVintegr
p2675
aVacquisit
p2676
aVnovo
p2677
aVacid
p2678
aVapplic
p2679
aVanalysi
p2680
aVdevic
p2681
asI7481776
(lp2682
Vpenetr
p2683
aVanalyt
p2684
aVmember
p2685
aVskin
p2686
aVsampl
p2687
aVchamber
p2688
aVhous
p2689
aVdetect
p2690
aVdispos
p2691
aVeach
p2692
asI6130098
(lp2693
Vmicrodroplet
p2694
aVmicroscal
p2695
aVmicrochannel
p2696
aVelectrophoresi
p2697
aVchannel
p2698
aVdroplet
p2699
aVpropel
p2700
aVdiscret
p2701
aVsame
p2702
aVetch
p2703
asI5802420
(lp2704
Vtoner
p2705
aVpage
p2706
aVprint
p2707
aVprinter
p2708
aVgradat
p2709
aVcartridg
p2710
aVpredict
p2711
aVremain
p2712
aVjob
p2713
aVtalli
p2714
asI6155678
(lp2715
Vcartridg
p2716
aVink
p2717
aVpen
p2718
aVbodi
p2719
aVjet
p2720
aVguidabl
p2721
aVreplac
p2722
aVrecess
p2723
aVproject
p2724
aVprinthead
p2725
asI4982199
(lp2726
Vink
p2727
aVfire
p2728
aVprewarm
p2729
aVpuls
p2730
aVtailor
p2731
aVgray
p2732
aVpen
p2733
aVwarm
p2734
aVdroplet
p2735
aVbubbl
p2736
asI6113208
(lp2737
sI4723129
(lp2738
Vliquid
p2739
aVorific
p2740
aVpassageway
p2741
aVdroplet
p2742
aVchamber
p2743
aVthermal
p2744
aVoutlet
p2745
aVportion
p2746
aVjet
p2747
aVheat
p2748
asI5812156
(lp2749
Vparamet
p2750
aVprinthead
p2751
aVmemori
p2752
aVcartridg
p2753
aVmedia
p2754
aVprint
p2755
aVmark
p2756
aVink
p2757
aVconsum
p2758
aVjet
p2759
asI6196670
(lp2760
Vink
p2761
aVcartridg
p2762
aVeeprom
p2763
aVprinter
p2764
aVrewrit
p2765
aVstorag
p2766
aVwrite
p2767
aVfrequenc
p2768
aVprint
p2769
aVquantiti
p2770
asI6405055
(lp2771
Vprint
p2772
aVmedia
p2773
aVprinthead
p2774
aVmobil
p2775
aVphone
p2776
aVsignal
p2777
aVintern
p2778
aVhand
p2779
aVinform
p2780
aVheld
p2781
asI6505921
(lp2782
Vink
p2783
aVdrop
p2784
aVstream
p2785
aVbore
p2786
aVnozzl
p2787
aVdeliveri
p2788
aVdeflector
p2789
aVasymmetr
p2790
aVperimet
p2791
aVheater
p2792
asI6326211
(lp2793
Vsampl
p2794
aVacquisit
p2795
aVnucleic
p2796
aVdiagnost
p2797
aVnovo
p2798
aVapplic
p2799
aVanalysi
p2800
aVintegr
p2801
aVdevic
p2802
aVmicrofluid
p2803
asI7238323
(lp2804
Vmicrofluid
p2805
aVfluid
p2806
aVmicroscal
p2807
aVscreen
p2808
aVperform
p2809
aVsequenc
p2810
aVbiochem
p2811
aVsystem
p2812
aVgenom
p2813
aViter
p2814
asI7524293
(lp2815
Vpenetr
p2816
aVtissu
p2817
aVsite
p2818
aVmember
p2819
aVforc
p2820
aVgenerat
p2821
aVlaunch
p2822
aVout
p2823
aVwithdraw
p2824
aVmove
p2825
asI6932934
(lp2826
Vcurabl
p2827
aVtemplat
p2828
aVimprint
p2829
aVlithographi
p2830
aVliquid
p2831
aVsubstrat
p2832
aVpattern
p2833
aVshallow
p2834
aVgather
p2835
aVdiscontinu
p2836
asI6043080
(lp2837
sI6132685
(lp2838
Vmicrofluid
p2839
aVmultiwel
p2840
aVconveyor
p2841
aVplate
p2842
aVstation
p2843
aVtest
p2844
aVsampl
p2845
aVsystem
p2846
aVmicrotit
p2847
aVclamshel
p2848
asI6575566
(lp2849
Vdroplet
p2850
aVink
p2851
aVinkjet
p2852
aVprinthead
p2853
aVstream
p2854
aVdeflector
p2855
aVvolum
p2856
aVgutter
p2857
aVsecond
p2858
aVselect
p2859
asI6613581
(lp2860
Vmicrofluid
p2861
aVinterest
p2862
aVassay
p2863
aVcompon
p2864
aVdetect
p2865
aVflowabl
p2866
aVintegr
p2867
aVanalyt
p2868
aVmoieti
p2869
aVantibodi
p2870
asI7097809
(lp2871
Vmicrofluid
p2872
aVchannel
p2873
aVsolid
p2874
aVflow
p2875
aVelastomer
p2876
aVsupport
p2877
aVpresent
p2878
aVplural
p2879
aVcombinatori
p2880
aVdevic
p2881
asI5262802
(lp2882
Veject
p2883
aVoutlet
p2884
aVvent
p2885
aVrecord
p2886
aVseal
p2887
aVair
p2888
aVink
p2889
aVunseal
p2890
aVmember
p2891
aVhead
p2892
asI6296020
(lp2893
Vsister
p2894
aVmicrochannel
p2895
aVpassiv
p2896
aVfluid
p2897
aVwell
p2898
aVflow
p2899
aVchamber
p2900
aVstop
p2901
aVallow
p2902
aVvalv
p2903
asI6022102
(lp2904
sI6652090
(lp2905
Vpaper
p2906
aVmountabl
p2907
aVrecess
p2908
aVprinthead
p2909
aVhous
p2910
aVeject
p2911
aVprinter
p2912
aVink
p2913
aVadapt
p2914
aVvcr
p2915
asI6588888
(lp2916
Vdroplet
p2917
aVtravel
p2918
aVpath
p2919
aVvolum
p2920
aValong
p2921
aVdiverg
p2922
aVgutter
p2923
aVprint
p2924
aVstate
p2925
aVforc
p2926
asI5370842
(lp2927
Vsampl
p2928
aVaccumul
p2929
aVinject
p2930
aVmeasur
p2931
aVpassag
p2932
aVreagent
p2933
aVportion
p2934
aVhalfway
p2935
aVflow
p2936
aVfluid
p2937
asI7157723
(lp2938
Vambient
p2939
aVattenu
p2940
aVlight
p2941
aVsensor
p2942
aVquantit
p2943
aVoptic
p2944
aVeffect
p2945
aVcompens
p2946
aVmeasur
p2947
aVsystem
p2948
asI6048734
(lp2949
Vmicrodroplet
p2950
aVmicrovalv
p2951
aVmicroscal
p2952
aVmicrochannel
p2953
aVelectrophoresi
p2954
aVchannel
p2955
aVdroplet
p2956
aVpropel
p2957
aVdiscret
p2958
aVsame
p2959
asI7563232
(lp2960
Vpenetr
p2961
aVtissu
p2962
aVmember
p2963
aVsite
p2964
aVfluid
p2965
aVanalyt
p2966
aVforc
p2967
aVsampl
p2968
aVgenerat
p2969
aVout
p2970
asI6500323
(lp2971
Vfluidic
p2972
aVdesign
p2973
aVchannel
p2974
aVmicroscal
p2975
aVoptim
p2976
aVreaction
p2977
aVmicrofluid
p2978
aVnetwork
p2979
aVforc
p2980
aVanalyt
p2981
asI7056661
(lp2982
Vnucleic
p2983
aVnucleotid
p2984
aVacid
p2985
aVanalog
p2986
aVstrand
p2987
aVmolecul
p2988
aVtarget
p2989
aVsequenc
p2990
aVpolymer
p2991
aVsite
p2992
asI6916584
(lp2993
Vtemplat
p2994
aVimprint
p2995
aVlithographi
p2996
aVliquid
p2997
aVcure
p2998
aValign
p2999
aVsubstrat
p3000
aVpattern
p3001
aVbrought
p3002
aVdispens
p3003
asI5375979
(lp3004
Vmicropump
p3005
aVoverpressur
p3006
aVwork
p3007
aVchamber
p3008
aVvalv
p3009
aVvacuum
p3010
aVsilicon
p3011
aVpartial
p3012
aVgas
p3013
aVheat
p3014
asI6340588
(lp3015
Vmatrix
p3016
aVmemori
p3017
aVmatric
p3018
aVcombin
p3019
aVassay
p3020
aVmacromolecul
p3021
aVbiolog
p3022
aVimmunoassay
p3023
aVmolecul
p3024
aVmateri
p3025
asI7297518
(lp3026
Vpolynucleotid
p3027
aVasynchron
p3028
aVmolecul
p3029
aVextens
p3030
aVanalyz
p3031
aVmicroscopi
p3032
aVsequenc
p3033
aVfluoresc
p3034
aVresolut
p3035
aVtotal
p3036
asI6334960
(lp3037
Vpolymeriz
p3038
aVrelief
p3039
aVpolymer
p3040
aVsolidifi
p3041
aVtransfer
p3042
aVfluid
p3043
aVmold
p3044
aVlayer
p3045
aVcomposit
p3046
aVmateri
p3047
asI6664104
(lp3048
Vmicrofluid
p3049
aVanalyt
p3050
aVlyse
p3051
aVchip
p3052
aVcartridg
p3053
aVelut
p3054
aVmicrostructur
p3055
aVfluid
p3056
aVsampl
p3057
aVwast
p3058
asI5993611
(lp3059
Vdenatur
p3060
aVnucleic
p3061
aVacid
p3062
aVcapacit
p3063
aVmicrofluid
p3064
aVcontext
p3065
aVamplif
p3066
aVmanipul
p3067
aVautom
p3068
aVanalysi
p3069
asI6158837
(lp3070
Vink
p3071
aVqualifi
p3072
aVprint
p3073
aVprinter
p3074
aVnon
p3075
aVcustom
p3076
aVcartridg
p3077
aVnormal
p3078
aVmode
p3079
aVdetect
p3080
asI6602702
(lp3081
Vanalyt
p3082
aVparticl
p3083
aVcharacter
p3084
aVcaviti
p3085
aVarray
p3086
aVmulti
p3087
aVsensor
p3088
aVfluid
p3089
aVmay
p3090
aVrecognit
p3091
asI6322683
(lp3092
Valign
p3093
aVfabric
p3094
aVstructur
p3095
aVelement
p3096
aVmicrofabr
p3097
aVmulticompon
p3098
aVtool
p3099
aVmicrofluid
p3100
aVcapillari
p3101
aVstep
p3102
asI5179389
(lp3103
Vink
p3104
aVhead
p3105
aVdischarg
p3106
aVjet
p3107
aVenergi
p3108
aVrecord
p3109
aVtank
p3110
aVregul
p3111
aVpressur
p3112
aVport
p3113
asI6632619
(lp3114
Vmicrofluid
p3115
aVstudi
p3116
aVvitro
p3117
aVcell
p3118
aVcompound
p3119
aVeffect
p3120
aVthis
p3121
aVstop
p3122
aVreaction
p3123
aVrelat
p3124
astp3125
.