((lp0
I5103459
aI5223844
aI5228056
aI5280472
aI5309474
aI5339330
aI5414728
aI5414796
aI5416797
aI5446756
aI5557254
aI5640414
aI5673305
aI6343138
aI6411725
aI6590996
aI6611607
aI6614914
aI6829368
aI5379224
aI5388147
aI5479482
aI5497149
aI5546445
aI5587715
aI5650770
aI5663734
aI5712899
aI5774876
aI5781156
aI5797134
aI5825283
aI5825327
aI5841396
aI5874914
aI5892441
aI5917405
aI5918180
aI5959529
aI5982324
aI5983161
aI6002363
aI6028537
aI6061018
aI6064336
aI6131067
aI6185427
aI6225901
aI6252544
aI6259405
aI6321092
aI6321158
aI6414635
aI6487500
aI6677894
aI6847892
aI5636292
aI5710834
aI5745604
aI5748763
aI5748783
aI5768426
aI5822436
aI5832119
aI5841886
aI5841978
aI5850481
aI5862260
aI6122403
aI5490165
aI5745837
aI5991308
aI6236365
aI6249252
aI6356555
aI5448623
aI6418147
aI5991279
aI5974380
aI6574211
aI5923650
aI6240365
aI5731757
aI5812087
aI5945944
aI6282362
aI5555286
aI5835907
aI5625668
aI6148261
aI6167255
aI6405033
aI5748084
aI5771001
aI6100806
aI5806005
aI6560461
aI6647257
aI6150980
aI6405132
aI5999124
aI6133874
aI6522875
aI5936527
aI5959568
aI6127928
aI6600418
aI6812824
aI6611740
aI6330426
aI6553336
aI6968375
aI6013007
aI6437692
aI7053767
aI6364834
aI6406426
aI6579231
aI7020701
aI6738697
aI6810323
aI6859831
aI6332127
aI6473609
aI6526335
aI6711474
aI6893396
aI7020508
aI7261690
aI6674403
aI6834195
aI5809139
aI5822432
aI5825892
aI5848155
aI5859920
aI5892900
aI5910987
aI5915019
aI5915027
aI5917912
aI5920861
aI5943422
aI5949876
aI5982891
aI6112181
aI6138119
aI6157721
aI6185683
aI6233347
aI6237786
aI6240185
aI6253193
aI6256737
aI6292569
aI6345104
aI6363488
aI6385329
aI6389402
aI6427140
aI6449367
aI6658568
aI6785815
aI7181017
aI6064990
aI6243480
aI5875249
aI6233684
aI6400996
aI6418424
aI6640145
aI6064764
aI5930767
aI6076734
aI6199048
aI6505160
aI6625581
aI6850252
aI6061793
aI6154771
aI6567416
aI6731940
aI6757740
aI6330499
aI6243039
aI6011973
aI6199045
aI6353398
aI5964701
aI6198394
aI6565509
aI6605038
aI6232870
aI6512478
aI7041468
aI6478736
aI6513532
aI6612984
aI6790178
aI6775267
aI6659948
aI6811533
aI6577899
aI6733446
aI6811534
aI6484148
aI6647269
aI6311214
aI6542927
aI6016476
aI6122625
aI6226618
aI6263313
aI6289455
aI6314409
aI6321337
aI6327652
aI6330670
aI6345256
aI6385596
aI6389538
aI6418421
aI6574609
aI6584569
aI6587837
aI6615258
aI6650761
aI6697824
aI6947571
aI6980962
aI7069234
aI7167844
aI6594692
aI6212512
aI6128602
aI6119229
aI6269343
aI6629081
aI7023979
aI6601087
aI6654032
aI6834308
aI7379566
aI6418441
aI6658423
aI6611755
a(lp1
(lp2
I5103459
aa(lp3
I5223844
aI5228056
aI5280472
aI5309474
aI5339330
aI5414728
aI5414796
aI5416797
aI5446756
aI5557254
aI5640414
aI5673305
aI6343138
aI6411725
aI6590996
aI6611607
aI6614914
aI6829368
aa(lp4
I5379224
aI5388147
aI5479482
aI5497149
aI5546445
aI5587715
aI5650770
aI5663734
aI5712899
aI5774876
aI5781156
aI5797134
aI5825283
aI5825327
aI5841396
aI5874914
aI5892441
aI5917405
aI5918180
aI5959529
aI5982324
aI5983161
aI6002363
aI6028537
aI6061018
aI6064336
aI6131067
aI6185427
aI6225901
aI6252544
aI6259405
aI6321092
aI6321158
aI6414635
aI6487500
aI6677894
aI6847892
aI5636292
aI5710834
aI5745604
aI5748763
aI5748783
aI5768426
aI5822436
aI5832119
aI5841886
aI5841978
aI5850481
aI5862260
aI6122403
aI5490165
aI5745837
aI5991308
aI6236365
aI6249252
aI6356555
aI5448623
aI6418147
aI5991279
aI5974380
aI6574211
aI5923650
aI6240365
aa(lp5
I5731757
aI5812087
aI5945944
aI6282362
aI5555286
aI5835907
aI5625668
aI6148261
aI6167255
aI6405033
aI5748084
aI5771001
aI6100806
aI5806005
aI6560461
aI6647257
aI6150980
aI6405132
aI5999124
aI6133874
aI6522875
aI5936527
aI5959568
aI6127928
aI6600418
aI6812824
aI6611740
aI6330426
aI6553336
aI6968375
aI6013007
aI6437692
aI7053767
aI6364834
aI6406426
aI6579231
aI7020701
aI6738697
aI6810323
aI6859831
aI6332127
aI6473609
aI6526335
aI6711474
aI6893396
aI7020508
aI7261690
aI6674403
aI6834195
aI5809139
aI5822432
aI5825892
aI5848155
aI5859920
aI5892900
aI5910987
aI5915019
aI5915027
aI5917912
aI5920861
aI5943422
aI5949876
aI5982891
aI6112181
aI6138119
aI6157721
aI6185683
aI6233347
aI6237786
aI6240185
aI6253193
aI6256737
aI6292569
aI6345104
aI6363488
aI6385329
aI6389402
aI6427140
aI6449367
aI6658568
aI6785815
aI7181017
aI6064990
aI6243480
aI5875249
aI6233684
aI6400996
aI6418424
aI6640145
aI6064764
aI5930767
aI6076734
aI6199048
aI6505160
aI6625581
aI6850252
aI6061793
aI6154771
aI6567416
aI6731940
aI6757740
aI6330499
aa(lp6
I6243039
aI6011973
aI6199045
aI6353398
aI5964701
aI6198394
aI6565509
aI6605038
aI6232870
aI6512478
aI7041468
aI6478736
aI6513532
aI6612984
aI6790178
aI6775267
aI6659948
aI6811533
aI6577899
aI6733446
aI6811534
aI6484148
aI6647269
aI6311214
aI6542927
aI6016476
aI6122625
aI6226618
aI6263313
aI6289455
aI6314409
aI6321337
aI6327652
aI6330670
aI6345256
aI6385596
aI6389538
aI6418421
aI6574609
aI6584569
aI6587837
aI6615258
aI6650761
aI6697824
aI6947571
aI6980962
aI7069234
aI7167844
aI6594692
aI6212512
aI6128602
aI6119229
aI6269343
aI6629081
aI7023979
aI6601087
aI6654032
aI6834308
aI7379566
aI6418441
aI6658423
aI6611755
aa(lp7
(I5103459
I5223844
tp8
a(I5103459
I5228056
tp9
a(I5103459
I5280472
tp10
a(I5103459
I5309474
tp11
a(I5103459
I5339330
tp12
a(I5103459
I5414728
tp13
a(I5103459
I5414796
tp14
a(I5103459
I5416797
tp15
a(I5103459
I5446756
tp16
a(I5103459
I5557254
tp17
a(I5103459
I5640414
tp18
a(I5103459
I5673305
tp19
a(I5103459
I6343138
tp20
a(I5103459
I6411725
tp21
a(I5103459
I6590996
tp22
a(I5103459
I6611607
tp23
a(I5103459
I6614914
tp24
a(I5103459
I6829368
tp25
a(I5223844
I5379224
tp26
a(I5223844
I5388147
tp27
a(I5223844
I5479482
tp28
a(I5223844
I5497149
tp29
a(I5223844
I5546445
tp30
a(I5223844
I5557254
tp31
a(I5223844
I5587715
tp32
a(I5223844
I5650770
tp33
a(I5223844
I5663734
tp34
a(I5223844
I5673305
tp35
a(I5223844
I5712899
tp36
a(I5223844
I5774876
tp37
a(I5223844
I5781156
tp38
a(I5223844
I5797134
tp39
a(I5223844
I5825283
tp40
a(I5223844
I5825327
tp41
a(I5223844
I5841396
tp42
a(I5223844
I5874914
tp43
a(I5223844
I5892441
tp44
a(I5223844
I5917405
tp45
a(I5223844
I5918180
tp46
a(I5223844
I5959529
tp47
a(I5223844
I5982324
tp48
a(I5223844
I5983161
tp49
a(I5223844
I6002363
tp50
a(I5223844
I6028537
tp51
a(I5223844
I6061018
tp52
a(I5223844
I6064336
tp53
a(I5223844
I6131067
tp54
a(I5223844
I6185427
tp55
a(I5223844
I6225901
tp56
a(I5223844
I6252544
tp57
a(I5223844
I6259405
tp58
a(I5223844
I6321092
tp59
a(I5223844
I6321158
tp60
a(I5223844
I6414635
tp61
a(I5223844
I6487500
tp62
a(I5223844
I6677894
tp63
a(I5223844
I6847892
tp64
a(I5228056
I5636292
tp65
a(I5228056
I5710834
tp66
a(I5228056
I5745604
tp67
a(I5228056
I5748763
tp68
a(I5228056
I5748783
tp69
a(I5228056
I5768426
tp70
a(I5228056
I5822436
tp71
a(I5228056
I5832119
tp72
a(I5228056
I5841886
tp73
a(I5228056
I5841978
tp74
a(I5228056
I5850481
tp75
a(I5228056
I5862260
tp76
a(I5228056
I6122403
tp77
a(I5228056
I6343138
tp78
a(I5228056
I6411725
tp79
a(I5228056
I6611607
tp80
a(I5228056
I6614914
tp81
a(I5228056
I6829368
tp82
a(I5280472
I5490165
tp83
a(I5280472
I5745837
tp84
a(I5280472
I5991308
tp85
a(I5280472
I6236365
tp86
a(I5280472
I6249252
tp87
a(I5280472
I6356555
tp88
a(I5309474
I5546445
tp89
a(I5309474
I5640414
tp90
a(I5309474
I5745837
tp91
a(I5309474
I5991308
tp92
a(I5309474
I6356555
tp93
a(I5339330
I5448623
tp94
a(I5339330
I6418147
tp95
a(I5414728
I5991279
tp96
a(I5414796
I5974380
tp97
a(I5416797
I5663734
tp98
a(I5416797
I5745837
tp99
a(I5416797
I5781156
tp100
a(I5416797
I5825327
tp101
a(I5416797
I5841396
tp102
a(I5416797
I5874914
tp103
a(I5416797
I5991308
tp104
a(I5416797
I6002363
tp105
a(I5416797
I6061018
tp106
a(I5416797
I6064336
tp107
a(I5416797
I6131067
tp108
a(I5416797
I6185427
tp109
a(I5416797
I6356555
tp110
a(I5416797
I6574211
tp111
a(I5416797
I6677894
tp112
a(I5446756
I6418147
tp113
a(I5557254
I5917405
tp114
a(I5557254
I6847892
tp115
a(I5640414
I5923650
tp116
a(I5673305
I6240365
tp117
a(I5673305
I6252544
tp118
a(I6411725
I6829368
tp119
a(I5379224
I5650770
tp120
a(I5379224
I5663734
tp121
a(I5379224
I5731757
tp122
a(I5379224
I5781156
tp123
a(I5379224
I5812087
tp124
a(I5379224
I5825327
tp125
a(I5379224
I5841396
tp126
a(I5379224
I5874914
tp127
a(I5379224
I5918180
tp128
a(I5379224
I5945944
tp129
a(I5379224
I6002363
tp130
a(I5379224
I6061018
tp131
a(I5379224
I6064336
tp132
a(I5379224
I6185427
tp133
a(I5379224
I6236365
tp134
a(I5379224
I6282362
tp135
a(I5379224
I6677894
tp136
a(I5379224
I6847892
tp137
a(I5388147
I5479482
tp138
a(I5388147
I5555286
tp139
a(I5388147
I5835907
tp140
a(I5388147
I6321092
tp141
a(I5479482
I5625668
tp142
a(I5479482
I5712899
tp143
a(I5479482
I5918180
tp144
a(I5479482
I5959529
tp145
a(I5479482
I5982324
tp146
a(I5479482
I6148261
tp147
a(I5479482
I6167255
tp148
a(I5479482
I6225901
tp149
a(I5479482
I6236365
tp150
a(I5479482
I6249252
tp151
a(I5479482
I6321092
tp152
a(I5479482
I6405033
tp153
a(I5497149
I5748084
tp154
a(I5497149
I5771001
tp155
a(I5497149
I5825283
tp156
a(I5497149
I5959529
tp157
a(I5497149
I6002363
tp158
a(I5497149
I6100806
tp159
a(I5497149
I6225901
tp160
a(I5546445
I5806005
tp161
a(I5546445
I5918180
tp162
a(I5546445
I5982324
tp163
a(I5546445
I6321092
tp164
a(I5546445
I6560461
tp165
a(I5546445
I6647257
tp166
a(I5587715
I5982324
tp167
a(I5587715
I6061018
tp168
a(I5587715
I6150980
tp169
a(I5587715
I6405132
tp170
a(I5587715
I6847892
tp171
a(I5650770
I5874914
tp172
a(I5650770
I6847892
tp173
a(I5663734
I5982324
tp174
a(I5663734
I5999124
tp175
a(I5663734
I6061018
tp176
a(I5663734
I6131067
tp177
a(I5663734
I6133874
tp178
a(I5663734
I6185427
tp179
a(I5663734
I6236365
tp180
a(I5663734
I6677894
tp181
a(I5712899
I6028537
tp182
a(I5712899
I6167255
tp183
a(I5712899
I6405033
tp184
a(I5712899
I6522875
tp185
a(I5774876
I5936527
tp186
a(I5774876
I5959568
tp187
a(I5774876
I6127928
tp188
a(I5774876
I6600418
tp189
a(I5774876
I6812824
tp190
a(I5797134
I6611740
tp191
a(I5825283
I6330426
tp192
a(I5825283
I6553336
tp193
a(I5825283
I6968375
tp194
a(I5825327
I6013007
tp195
a(I5892441
I6236365
tp196
a(I5892441
I6249252
tp197
a(I5892441
I6553336
tp198
a(I5917405
I6437692
tp199
a(I5917405
I6553336
tp200
a(I5917405
I6847892
tp201
a(I5917405
I7053767
tp202
a(I5959529
I6225901
tp203
a(I5959529
I6364834
tp204
a(I5959529
I6406426
tp205
a(I5959529
I6579231
tp206
a(I5959529
I7020701
tp207
a(I5982324
I6185427
tp208
a(I5982324
I6236365
tp209
a(I5982324
I6249252
tp210
a(I5983161
I6405132
tp211
a(I5983161
I6487500
tp212
a(I6028537
I6405033
tp213
a(I6028537
I6522875
tp214
a(I6028537
I6738697
tp215
a(I6028537
I6810323
tp216
a(I6028537
I6859831
tp217
a(I6028537
I7020701
tp218
a(I6131067
I6332127
tp219
a(I6131067
I6473609
tp220
a(I6131067
I6526335
tp221
a(I6131067
I6711474
tp222
a(I6131067
I6847892
tp223
a(I6225901
I6847892
tp224
a(I6225901
I6893396
tp225
a(I6225901
I7020508
tp226
a(I6225901
I7261690
tp227
a(I6259405
I6414635
tp228
a(I6259405
I6674403
tp229
a(I6677894
I6834195
tp230
a(I5636292
I5809139
tp231
a(I5636292
I5822432
tp232
a(I5636292
I5822436
tp233
a(I5636292
I5825892
tp234
a(I5636292
I5841886
tp235
a(I5636292
I5848155
tp236
a(I5636292
I5859920
tp237
a(I5636292
I5862260
tp238
a(I5636292
I5892900
tp239
a(I5636292
I5910987
tp240
a(I5636292
I5915019
tp241
a(I5636292
I5915027
tp242
a(I5636292
I5917912
tp243
a(I5636292
I5920861
tp244
a(I5636292
I5943422
tp245
a(I5636292
I5949876
tp246
a(I5636292
I5982891
tp247
a(I5636292
I6112181
tp248
a(I5636292
I6122403
tp249
a(I5636292
I6138119
tp250
a(I5636292
I6157721
tp251
a(I5636292
I6185683
tp252
a(I5636292
I6233347
tp253
a(I5636292
I6237786
tp254
a(I5636292
I6240185
tp255
a(I5636292
I6253193
tp256
a(I5636292
I6256737
tp257
a(I5636292
I6292569
tp258
a(I5636292
I6343138
tp259
a(I5636292
I6345104
tp260
a(I5636292
I6363488
tp261
a(I5636292
I6385329
tp262
a(I5636292
I6389402
tp263
a(I5636292
I6427140
tp264
a(I5636292
I6449367
tp265
a(I5636292
I6590996
tp266
a(I5636292
I6611607
tp267
a(I5636292
I6614914
tp268
a(I5636292
I6658568
tp269
a(I5636292
I6785815
tp270
a(I5636292
I6829368
tp271
a(I5636292
I7181017
tp272
a(I5710834
I5822436
tp273
a(I5710834
I5832119
tp274
a(I5710834
I5892900
tp275
a(I5710834
I5910987
tp276
a(I5710834
I5915019
tp277
a(I5710834
I5917912
tp278
a(I5710834
I5920861
tp279
a(I5710834
I5943422
tp280
a(I5710834
I5949876
tp281
a(I5710834
I5982891
tp282
a(I5710834
I6064990
tp283
a(I5710834
I6112181
tp284
a(I5710834
I6122403
tp285
a(I5710834
I6138119
tp286
a(I5710834
I6157721
tp287
a(I5710834
I6185683
tp288
a(I5710834
I6237786
tp289
a(I5710834
I6240185
tp290
a(I5710834
I6243480
tp291
a(I5710834
I6253193
tp292
a(I5710834
I6292569
tp293
a(I5710834
I6345104
tp294
a(I5710834
I6363488
tp295
a(I5710834
I6389402
tp296
a(I5710834
I6427140
tp297
a(I5710834
I6449367
tp298
a(I5710834
I6658568
tp299
a(I5710834
I7181017
tp300
a(I5745604
I5892900
tp301
a(I5745604
I5910987
tp302
a(I5745604
I5915019
tp303
a(I5745604
I5917912
tp304
a(I5745604
I5920861
tp305
a(I5745604
I5943422
tp306
a(I5745604
I5949876
tp307
a(I5745604
I5982891
tp308
a(I5745604
I6112181
tp309
a(I5745604
I6122403
tp310
a(I5745604
I6138119
tp311
a(I5745604
I6157721
tp312
a(I5745604
I6185683
tp313
a(I5745604
I6237786
tp314
a(I5745604
I6240185
tp315
a(I5745604
I6253193
tp316
a(I5745604
I6292569
tp317
a(I5745604
I6343138
tp318
a(I5745604
I6345104
tp319
a(I5745604
I6363488
tp320
a(I5745604
I6389402
tp321
a(I5745604
I6427140
tp322
a(I5745604
I6449367
tp323
a(I5745604
I6590996
tp324
a(I5745604
I6658568
tp325
a(I5745604
I6829368
tp326
a(I5745604
I7181017
tp327
a(I5748763
I5892900
tp328
a(I5748763
I5910987
tp329
a(I5748763
I5915019
tp330
a(I5748763
I5917912
tp331
a(I5748763
I5920861
tp332
a(I5748763
I5943422
tp333
a(I5748763
I5949876
tp334
a(I5748763
I5982891
tp335
a(I5748763
I6112181
tp336
a(I5748763
I6122403
tp337
a(I5748763
I6138119
tp338
a(I5748763
I6157721
tp339
a(I5748763
I6185683
tp340
a(I5748763
I6233347
tp341
a(I5748763
I6237786
tp342
a(I5748763
I6240185
tp343
a(I5748763
I6253193
tp344
a(I5748763
I6292569
tp345
a(I5748763
I6345104
tp346
a(I5748763
I6363488
tp347
a(I5748763
I6389402
tp348
a(I5748763
I6427140
tp349
a(I5748763
I6449367
tp350
a(I5748763
I6658568
tp351
a(I5748763
I7181017
tp352
a(I5748783
I5875249
tp353
a(I5748783
I5892900
tp354
a(I5748783
I5910987
tp355
a(I5748783
I5915019
tp356
a(I5748783
I5917912
tp357
a(I5748783
I5920861
tp358
a(I5748783
I5943422
tp359
a(I5748783
I5949876
tp360
a(I5748783
I5982891
tp361
a(I5748783
I6112181
tp362
a(I5748783
I6122403
tp363
a(I5748783
I6138119
tp364
a(I5748783
I6157721
tp365
a(I5748783
I6185683
tp366
a(I5748783
I6233684
tp367
a(I5748783
I6237786
tp368
a(I5748783
I6240185
tp369
a(I5748783
I6253193
tp370
a(I5748783
I6292569
tp371
a(I5748783
I6345104
tp372
a(I5748783
I6363488
tp373
a(I5748783
I6389402
tp374
a(I5748783
I6427140
tp375
a(I5748783
I6449367
tp376
a(I5748783
I6658568
tp377
a(I5748783
I7181017
tp378
a(I5768426
I5892900
tp379
a(I5768426
I5910987
tp380
a(I5768426
I5915019
tp381
a(I5768426
I5917912
tp382
a(I5768426
I5920861
tp383
a(I5768426
I5943422
tp384
a(I5768426
I5949876
tp385
a(I5768426
I5982891
tp386
a(I5768426
I6112181
tp387
a(I5768426
I6122403
tp388
a(I5768426
I6138119
tp389
a(I5768426
I6157721
tp390
a(I5768426
I6185683
tp391
a(I5768426
I6233684
tp392
a(I5768426
I6237786
tp393
a(I5768426
I6240185
tp394
a(I5768426
I6253193
tp395
a(I5768426
I6292569
tp396
a(I5768426
I6363488
tp397
a(I5768426
I6389402
tp398
a(I5768426
I6400996
tp399
a(I5768426
I6418424
tp400
a(I5768426
I6427140
tp401
a(I5768426
I6449367
tp402
a(I5768426
I6590996
tp403
a(I5768426
I6640145
tp404
a(I5768426
I6658568
tp405
a(I5768426
I6829368
tp406
a(I5768426
I7181017
tp407
a(I5822436
I6064764
tp408
a(I5822436
I7181017
tp409
a(I5832119
I5930767
tp410
a(I5832119
I6240185
tp411
a(I5832119
I6449367
tp412
a(I5832119
I7181017
tp413
a(I5841886
I7181017
tp414
a(I5841978
I6076734
tp415
a(I5841978
I6199048
tp416
a(I5841978
I6411725
tp417
a(I5841978
I6505160
tp418
a(I5841978
I6590996
tp419
a(I5841978
I6625581
tp420
a(I5841978
I6829368
tp421
a(I5841978
I6850252
tp422
a(I5841978
I7181017
tp423
a(I5850481
I6061793
tp424
a(I5850481
I6345104
tp425
a(I5850481
I7181017
tp426
a(I5862260
I6154771
tp427
a(I5862260
I6385329
tp428
a(I5862260
I6400996
tp429
a(I5862260
I6411725
tp430
a(I5862260
I6418424
tp431
a(I5862260
I6590996
tp432
a(I5862260
I6611607
tp433
a(I5862260
I6614914
tp434
a(I5862260
I6640145
tp435
a(I5862260
I6829368
tp436
a(I5862260
I7181017
tp437
a(I6122403
I6385329
tp438
a(I6122403
I6400996
tp439
a(I6122403
I6473609
tp440
a(I6122403
I6590996
tp441
a(I6122403
I6640145
tp442
a(I6122403
I6829368
tp443
a(I5745837
I5991308
tp444
a(I5991308
I6567416
tp445
a(I6236365
I6731940
tp446
a(I6249252
I6414635
tp447
a(I6249252
I6731940
tp448
a(I6249252
I6757740
tp449
a(I5448623
I6418147
tp450
a(I6240365
I6330499
tp451
a(I5731757
I5959529
tp452
a(I5731757
I6100806
tp453
a(I5731757
I6225901
tp454
a(I5731757
I6243039
tp455
a(I5835907
I6321092
tp456
a(I5625668
I5835907
tp457
a(I5625668
I5918180
tp458
a(I5625668
I5982324
tp459
a(I5625668
I6011973
tp460
a(I5625668
I6148261
tp461
a(I5625668
I6167255
tp462
a(I5625668
I6199045
tp463
a(I5625668
I6252544
tp464
a(I5625668
I6321092
tp465
a(I5625668
I6405033
tp466
a(I5625668
I6731940
tp467
a(I6148261
I6332127
tp468
a(I6148261
I6353398
tp469
a(I6148261
I6522875
tp470
a(I6148261
I6847892
tp471
a(I5771001
I5964701
tp472
a(I5771001
I6198394
tp473
a(I5771001
I6565509
tp474
a(I5771001
I6605038
tp475
a(I5771001
I6847892
tp476
a(I5771001
I7020508
tp477
a(I5771001
I7261690
tp478
a(I5999124
I6061018
tp479
a(I5999124
I6185427
tp480
a(I5999124
I6236365
tp481
a(I5999124
I6249252
tp482
a(I5936527
I6232870
tp483
a(I5936527
I6512478
tp484
a(I5936527
I6600418
tp485
a(I5959568
I6512478
tp486
a(I5959568
I6600418
tp487
a(I6127928
I6232870
tp488
a(I6330426
I7041468
tp489
a(I6013007
I6478736
tp490
a(I6013007
I6513532
tp491
a(I6013007
I6612984
tp492
a(I6013007
I6790178
tp493
a(I6437692
I6775267
tp494
a(I6437692
I7053767
tp495
a(I6364834
I6659948
tp496
a(I6364834
I6811533
tp497
a(I6364834
I7020508
tp498
a(I6364834
I7261690
tp499
a(I6406426
I6577899
tp500
a(I6406426
I6733446
tp501
a(I6406426
I6811534
tp502
a(I6579231
I7261690
tp503
a(I6859831
I7020701
tp504
a(I6332127
I6484148
tp505
a(I6332127
I6647269
tp506
a(I5809139
I6061793
tp507
a(I5809139
I6064764
tp508
a(I5809139
I6122403
tp509
a(I5809139
I6233347
tp510
a(I5809139
I6590996
tp511
a(I5809139
I6785815
tp512
a(I5822432
I6311214
tp513
a(I5822432
I6411725
tp514
a(I5822432
I6542927
tp515
a(I5822432
I6611607
tp516
a(I5822432
I6614914
tp517
a(I5822432
I6785815
tp518
a(I5822432
I7181017
tp519
a(I5825892
I6064764
tp520
a(I5825892
I6233684
tp521
a(I5825892
I6590996
tp522
a(I5825892
I6829368
tp523
a(I5848155
I6061793
tp524
a(I5848155
I6064764
tp525
a(I5848155
I7181017
tp526
a(I5859920
I6061793
tp527
a(I5859920
I6611607
tp528
a(I5859920
I6614914
tp529
a(I5892900
I6016476
tp530
a(I5892900
I6122403
tp531
a(I5892900
I6122625
tp532
a(I5892900
I6226618
tp533
a(I5892900
I6263313
tp534
a(I5892900
I6289455
tp535
a(I5892900
I6311214
tp536
a(I5892900
I6314409
tp537
a(I5892900
I6321337
tp538
a(I5892900
I6327652
tp539
a(I5892900
I6330670
tp540
a(I5892900
I6345256
tp541
a(I5892900
I6385596
tp542
a(I5892900
I6389538
tp543
a(I5892900
I6411725
tp544
a(I5892900
I6418421
tp545
a(I5892900
I6449367
tp546
a(I5892900
I6542927
tp547
a(I5892900
I6574609
tp548
a(I5892900
I6584569
tp549
a(I5892900
I6587837
tp550
a(I5892900
I6615258
tp551
a(I5892900
I6650761
tp552
a(I5892900
I6658568
tp553
a(I5892900
I6697824
tp554
a(I5892900
I6785815
tp555
a(I5892900
I6829368
tp556
a(I5892900
I6947571
tp557
a(I5892900
I6980962
tp558
a(I5892900
I7069234
tp559
a(I5892900
I7167844
tp560
a(I5892900
I7181017
tp561
a(I5910987
I6314409
tp562
a(I5910987
I6321337
tp563
a(I5910987
I6327652
tp564
a(I5910987
I6330670
tp565
a(I5910987
I6385596
tp566
a(I5910987
I6400996
tp567
a(I5910987
I6418424
tp568
a(I5910987
I6449367
tp569
a(I5910987
I6584569
tp570
a(I5910987
I6594692
tp571
a(I5910987
I6640145
tp572
a(I5910987
I6658568
tp573
a(I5910987
I6785815
tp574
a(I5910987
I6980962
tp575
a(I5915019
I6212512
tp576
a(I5915019
I6237786
tp577
a(I5915019
I6321337
tp578
a(I5915019
I6327652
tp579
a(I5915019
I6330670
tp580
a(I5915019
I6385596
tp581
a(I5915019
I6449367
tp582
a(I5915019
I6584569
tp583
a(I5915019
I6980962
tp584
a(I5915027
I6064764
tp585
a(I5915027
I6233347
tp586
a(I5915027
I6311214
tp587
a(I5915027
I6542927
tp588
a(I5915027
I6590996
tp589
a(I5915027
I6650761
tp590
a(I5915027
I6829368
tp591
a(I5915027
I6947571
tp592
a(I5915027
I7181017
tp593
a(I5917912
I6128602
tp594
a(I5917912
I6321337
tp595
a(I5917912
I6327652
tp596
a(I5917912
I6330670
tp597
a(I5917912
I6385596
tp598
a(I5917912
I6400996
tp599
a(I5917912
I6418424
tp600
a(I5917912
I6449367
tp601
a(I5917912
I6574609
tp602
a(I5917912
I6584569
tp603
a(I5917912
I6640145
tp604
a(I5920861
I6138119
tp605
a(I5920861
I6327652
tp606
a(I5920861
I6330670
tp607
a(I5920861
I6385596
tp608
a(I5920861
I6400996
tp609
a(I5920861
I6411725
tp610
a(I5920861
I6418424
tp611
a(I5920861
I6449367
tp612
a(I5920861
I6640145
tp613
a(I5920861
I6658568
tp614
a(I5920861
I6785815
tp615
a(I5920861
I6980962
tp616
a(I5943422
I6138119
tp617
a(I5943422
I6233684
tp618
a(I5943422
I6243480
tp619
a(I5943422
I6327652
tp620
a(I5943422
I6330670
tp621
a(I5943422
I6385596
tp622
a(I5943422
I6418421
tp623
a(I5943422
I6449367
tp624
a(I5943422
I6611607
tp625
a(I5943422
I6658568
tp626
a(I5943422
I6785815
tp627
a(I5943422
I7181017
tp628
a(I5949876
I6119229
tp629
a(I5949876
I6269343
tp630
a(I5949876
I6321337
tp631
a(I5949876
I6327652
tp632
a(I5949876
I6330670
tp633
a(I5949876
I6385596
tp634
a(I5949876
I6449367
tp635
a(I5949876
I6584569
tp636
a(I5949876
I6594692
tp637
a(I5949876
I6658568
tp638
a(I5949876
I7181017
tp639
a(I5982891
I6236365
tp640
a(I5982891
I6249252
tp641
a(I5982891
I6321337
tp642
a(I5982891
I6327652
tp643
a(I5982891
I6330670
tp644
a(I5982891
I6385596
tp645
a(I5982891
I6400996
tp646
a(I5982891
I6449367
tp647
a(I5982891
I6584569
tp648
a(I5982891
I6587837
tp649
a(I5982891
I6594692
tp650
a(I5982891
I6615258
tp651
a(I5982891
I6658568
tp652
a(I5982891
I7181017
tp653
a(I6112181
I6327652
tp654
a(I6112181
I6330670
tp655
a(I6112181
I6385596
tp656
a(I6112181
I6449367
tp657
a(I6112181
I6629081
tp658
a(I6112181
I6658568
tp659
a(I6112181
I6785815
tp660
a(I6112181
I7023979
tp661
a(I6112181
I7069234
tp662
a(I6112181
I7181017
tp663
a(I6138119
I6327652
tp664
a(I6138119
I6330670
tp665
a(I6138119
I6385596
tp666
a(I6138119
I6449367
tp667
a(I6138119
I6658568
tp668
a(I6138119
I7023979
tp669
a(I6138119
I7181017
tp670
a(I6157721
I6327652
tp671
a(I6157721
I6330670
tp672
a(I6157721
I6385596
tp673
a(I6157721
I6449367
tp674
a(I6157721
I6658568
tp675
a(I6157721
I6785815
tp676
a(I6157721
I7181017
tp677
a(I6185683
I6327652
tp678
a(I6185683
I6330670
tp679
a(I6185683
I6385596
tp680
a(I6185683
I6449367
tp681
a(I6185683
I6601087
tp682
a(I6185683
I6654032
tp683
a(I6185683
I6658568
tp684
a(I6185683
I6785815
tp685
a(I6185683
I7023979
tp686
a(I6185683
I7167844
tp687
a(I6233347
I6611607
tp688
a(I6237786
I6385596
tp689
a(I6237786
I6449367
tp690
a(I6237786
I6658568
tp691
a(I6240185
I6385596
tp692
a(I6240185
I6449367
tp693
a(I6240185
I6658568
tp694
a(I6253193
I6385596
tp695
a(I6253193
I6449367
tp696
a(I6253193
I6834308
tp697
a(I6253193
I7023979
tp698
a(I6292569
I6449367
tp699
a(I6292569
I6658568
tp700
a(I6345104
I6650761
tp701
a(I6449367
I7023979
tp702
a(I6243480
I6829368
tp703
a(I5875249
I6064764
tp704
a(I5875249
I6505160
tp705
a(I5875249
I6590996
tp706
a(I5875249
I6829368
tp707
a(I6233684
I6611607
tp708
a(I6400996
I7023979
tp709
a(I6418424
I7023979
tp710
a(I6640145
I7379566
tp711
a(I6064764
I6590996
tp712
a(I6064764
I6785815
tp713
a(I6064764
I6829368
tp714
a(I6064764
I7181017
tp715
a(I5930767
I6590996
tp716
a(I5930767
I6625581
tp717
a(I5930767
I6829368
tp718
a(I5930767
I6980962
tp719
a(I6199048
I6418441
tp720
a(I6199048
I6625581
tp721
a(I6505160
I6658423
tp722
a(I6061793
I6611607
tp723
a(I6061793
I6614914
tp724
a(I6330499
I6553336
tp725
a(I6330499
I6611755
tp726
a(dp727
I6252544
(lp728
Vlocat
p729
aVevent
p730
aVsaid
p731
aVmemori
p732
aVmobil
p733
aVcommunic
p734
aVprioriti
p735
aVstore
p736
aVassoci
p737
aVtelecommun
p738
asI5712899
(lp739
Vunit
p740
aVcommunic
p741
aVgps
p742
aVgeograph
p743
aVmobil
p744
aVvoic
p745
aVbase
p746
aVoper
p747
aVinform
p748
aVlocat
p749
asI6427140
(lp750
Velectron
p751
aVdistribut
p752
aVtransact
p753
aVright
p754
aVenviron
p755
aVsecur
p756
aVapplianc
p757
aVvde
p758
aVinform
p759
aVexampl
p760
asI5557254
(lp761
Vcommunic
p762
aVmonitor
p763
aVstation
p764
aVunit
p765
aVvehicl
p766
aVcentral
p767
aVintrus
p768
aVcall
p769
aVcontrol
p770
aVsecur
p771
asI6658568
(lp772
Vtransact
p773
aVrule
p774
aVclearinghous
p775
aVelectron
p776
aVintranet
p777
aVcommerc
p778
aVtrust
p779
aVinfrastructur
p780
aVspecif
p781
aVsecur
p782
asI6418441
(lp783
Vinternet
p784
aVproduct
p785
aVserver
p786
aVinform
p787
aVdissemin
p788
aVxpointer
p789
aVxlink
p790
aVreferenc
p791
aVexist
p792
aVxls
p793
asI7181017
(lp794
Vparti
p795
aVcomprehens
p796
aVinform
p797
aVencrypt
p798
aVnegoti
p799
aVintermediari
p800
aVdecrypt
p801
aVfunction
p802
aVcommunic
p803
aVuntrust
p804
asI6405132
(lp805
Vvehicl
p806
aVhost
p807
aVroadway
p808
aVdgps
p809
aVgps
p810
aVaccid
p811
aVcollis
p812
aVsatellit
p813
aVsignal
p814
aVearth
p815
asI6640145
(lp816
Vinterfac
p817
aVaudio
p818
aVvideo
p819
aVdata
p820
aVpacket
p821
aVintellig
p822
aVmedia
p823
aVcommunic
p824
aVcryptoprocess
p825
aVdigit
p826
asI5825283
(lp827
Vprocessor
p828
aVmonitor
p829
aVgeograph
p830
aVadvers
p831
aVauthor
p832
aVcoupl
p833
aVboundari
p834
aVmay
p835
aVconcern
p836
aVsafeti
p837
asI6590996
(lp838
Vwatermark
p839
aVcolor
p840
aVmap
p841
aVregion
p842
aVuser
p843
aVlook
p844
aVscheme
p845
aVvisibl
p846
aVsmooth
p847
aVtransit
p848
asI5673305
(lp849
Vreport
p850
aVmotor
p851
aVlocat
p852
aVtrack
p853
aVvehicl
p854
aVstolen
p855
aVtheft
p856
aVknown
p857
aVanalyz
p858
aVmobil
p859
asI5228056
(lp860
Vgeneric
p861
aVchip
p862
aVcode
p863
aVspectrum
p864
aVspread
p865
aVmessag
p866
aVsignal
p867
aVgenerat
p868
aVtransmitt
p869
aVmixer
p870
asI5748763
(lp871
Vsteganographi
p872
aVperceptu
p873
aVsignal
p874
aVidentif
p875
aVpsychovisu
p876
aVglobal
p877
aVvideo
p878
aVimag
p879
aVimageri
p880
aVcode
p881
asI5774876
(lp882
Vtag
p883
aVobject
p884
aVcircuitri
p885
aVelectron
p886
aVgroup
p887
aVattach
p888
aVrerout
p889
aVmonitor
p890
aVasset
p891
aVstorag
p892
asI6400996
(lp893
Vrecognit
p894
aVpredict
p895
aVuser
p896
aVpattern
p897
aVmultimedia
p898
aVstream
p899
aVsystem
p900
aVinexact
p901
aVfeedback
p902
aVdata
p903
asI6579231
(lp904
Vsubject
p905
aVmedic
p906
aVphysiolog
p907
aVmonitor
p908
aVunit
p909
aVassist
p910
aVexpediti
p911
aVill
p912
aVcollect
p913
aVdispatch
p914
asI5309474
(lp915
Vorthogon
p916
aVspread
p917
aVmobil
p918
aVbpsk
p919
aVlink
p920
aVqpsk
p921
aVcommunic
p922
aVcell
p923
aVchannel
p924
aVinterleav
p925
asI6330499
(lp926
Vvehicl
p927
aVdiagnost
p928
aVclient
p929
aVmonitor
p930
aVcommunic
p931
aVhealth
p932
aVremot
p933
aVcomput
p934
aVdata
p935
aVsystem
p936
asI6321158
(lp937
Virmi
p938
aVrout
p939
aVmap
p940
aVuser
p941
aVgps
p942
aVdetail
p943
aVpda
p944
aVdesktop
p945
aVinform
p946
aVcartograph
p947
asI5416797
(lp948
Vorthogon
p949
aVspread
p950
aVmobil
p951
aVbpsk
p952
aVlink
p953
aVqpsk
p954
aVcommunic
p955
aVcell
p956
aVchannel
p957
aVinterleav
p958
asI6345256
(lp959
Vcontent
p960
aVretriev
p961
aVreadabl
p962
aVelectron
p963
aVdatabas
p964
aVdata
p965
aVassoci
p966
aVmedium
p967
aVidentifi
p968
aVstore
p969
asI6327652
(lp970
Vtrust
p971
aVident
p972
aVload
p973
aVcompon
p974
aVuntrust
p975
aVdigit
p976
aVright
p977
aVsignatur
p978
aVoper
p979
aVmanag
p980
asI5748783
(lp981
Vsignal
p982
aVembed
p983
aVdigit
p984
aVsymmetri
p985
aVencod
p986
aVimpercept
p987
aVnotwithstand
p988
aVsourc
p989
aVundergon
p990
aVfacilit
p991
asI6233347
(lp992
Vwatermark
p993
aVembed
p994
aVsignal
p995
aVvalu
p996
aVhost
p997
aVgenerat
p998
aVensembl
p999
aVtransform
p1000
aVadapt
p1001
aVquantize
p1002
asI5875249
(lp1003
Vstamp
p1004
aVverif
p1005
aVimag
p1006
aVdiffuss
p1007
aVprocess
p1008
aVcontent
p1009
aVreadili
p1010
aVkey
p1011
aVsafeguard
p1012
aVinform
p1013
asI7069234
(lp1014
Vbuyer
p1015
aVseller
p1016
aVagreement
p1017
aVnetwork
p1018
aVutil
p1019
aVcredit
p1020
aVsign
p1021
aVsent
p1022
aVtrade
p1023
aVassess
p1024
asI6512478
(lp1025
Vrelay
p1026
aVtag
p1027
aVtrack
p1028
aVinform
p1029
aVtransmiss
p1030
aVapplic
p1031
aVstation
p1032
aVsporad
p1033
aVmay
p1034
aVtime
p1035
asI6968375
(lp1036
Vquestion
p1037
aVindividu
p1038
aVremot
p1039
aVqueri
p1040
aVscript
p1041
aVserver
p1042
aVsystem
p1043
aVrespons
p1044
aVset
p1045
aVservic
p1046
asI5841978
(lp1047
Vobject
p1048
aVlink
p1049
aVnetwork
p1050
aVembed
p1051
aVsteganograph
p1052
aVhot
p1053
aVweb
p1054
aVurl
p1055
aVworld
p1056
aVbrowser
p1057
asI7167844
(lp1058
Vtrade
p1059
aVdocument
p1060
aVseller
p1061
aVterm
p1062
aVbuyer
p1063
aVnegoti
p1064
aVelectron
p1065
aVamend
p1066
aVfonn
p1067
aVproforma
p1068
asI6112181
(lp1069
Vnarrowcast
p1070
aVclassif
p1071
aVclass
p1072
aVmatch
p1073
aVthing
p1074
aVcategori
p1075
aVclassifi
p1076
aVscheme
p1077
aVutil
p1078
aVright
p1079
asI6697824
(lp1080
Vuser
p1081
aVcontent
p1082
aVattribut
p1083
aVprofil
p1084
aVdeliv
p1085
aVmatch
p1086
aVcollect
p1087
aVmanag
p1088
aVcommerc
p1089
aVwebsit
p1090
asI6011973
(lp1091
sI6389538
(lp1092
Vcontent
p1093
aVlicens
p1094
aVplay
p1095
aVplayer
p1096
aVusag
p1097
aVdata
p1098
aVtrack
p1099
aVuser
p1100
aVlog
p1101
aVdigit
p1102
asI6356555
(lp1103
Vbarker
p1104
aVscdma
p1105
aVdata
p1106
aVcode
p1107
aVframe
p1108
aVcellur
p1109
aVdelay
p1110
aVchannel
p1111
aVgap
p1112
aVsynchron
p1113
asI6013007
(lp1114
sI5859920
(lp1115
Vimag
p1116
aVdata
p1117
aVembed
p1118
aVrecov
p1119
aVdigit
p1120
aVsourc
p1121
aVconvolv
p1122
aVdispers
p1123
aVcarrier
p1124
aVmulti
p1125
asI6233684
(lp1126
Vwork
p1127
aVrender
p1128
aVdigit
p1129
aVwatermark
p1130
aVdistribut
p1131
aVtrust
p1132
aVrepositori
p1133
aVcopi
p1134
aVtypic
p1135
aVright
p1136
asI6612984
(lp1137
Vmeasur
p1138
aVtransmit
p1139
aVphysiolog
p1140
aVattribut
p1141
aVsignal
p1142
aVinternet
p1143
aVsystem
p1144
aVmedic
p1145
aVdata
p1146
aVremot
p1147
asI5555286
(lp1148
Vdialer
p1149
aVphone
p1150
aVcellular
p1151
aVdial
p1152
aVemerg
p1153
aVactiv
p1154
aVlojack
p1155
aVkeypad
p1156
aVdetector
p1157
aVspeech
p1158
asI6240185
(lp1159
Vsteganograph
p1160
aVright
p1161
aVinform
p1162
aVtechniqu
p1163
aVelectron
p1164
aVmanag
p1165
aVsignal
p1166
aVdigit
p1167
aVindel
p1168
aVinsecur
p1169
asI5945944
(lp1170
Vgps
p1171
aVtime
p1172
aVreceiv
p1173
aVsignal
p1174
aVdetermin
p1175
aVsatellit
p1176
aVphone
p1177
aVglobal
p1178
aVposit
p1179
aVinform
p1180
asI6292569
(lp1181
Vsignatur
p1182
aVtamper
p1183
aVfactor
p1184
aVenviron
p1185
aVverifi
p1186
aVwork
p1187
aValgorithm
p1188
aVdigit
p1189
aVload
p1190
aVresist
p1191
asI6237786
(lp1192
Velectron
p1193
aVdistribut
p1194
aVtransact
p1195
aVright
p1196
aVenviron
p1197
aVsecur
p1198
aVapplianc
p1199
aVvde
p1200
aVinform
p1201
aVexampl
p1202
asI5848155
(lp1203
Vwatermark
p1204
aVunwatermark
p1205
aVspectrum
p1206
aVspread
p1207
aVembed
p1208
aVdata
p1209
aVmethodolog
p1210
aVmultimedia
p1211
aVtempor
p1212
aVversion
p1213
asI5920861
(lp1214
Vright
p1215
aVabstract
p1216
aVmanag
p1217
aVdata
p1218
aVrepresent
p1219
aVstructur
p1220
aVdescript
p1221
aVinteroper
p1222
aVcompromis
p1223
aVexampl
p1224
asI6256737
(lp1225
Vbiometr
p1226
aVcertif
p1227
aVpolici
p1228
aVtemplat
p1229
aVauthent
p1230
aVmeasur
p1231
aVenterpris
p1232
aVuser
p1233
aVpresent
p1234
aVsystem
p1235
asI5446756
(lp1236
Vcode
p1237
aVpower
p1238
aVtransmitt
p1239
aVqualiti
p1240
aVfecc
p1241
aVlevel
p1242
aVsignal
p1243
aVcellular
p1244
aVoutput
p1245
aVnode
p1246
asI6236365
(lp1247
Vlocat
p1248
aVstation
p1249
aVmobil
p1250
aVurban
p1251
aVcommerci
p1252
aVcmrrs
p1253
aVnamp
p1254
aVrequest
p1255
aVsuburban
p1256
aVsystem
p1257
asI6263313
(lp1258
Vcontent
p1259
aVdigit
p1260
aVencod
p1261
aVgenr
p1262
aVselect
p1263
aVparamet
p1264
aValgorithm
p1265
aVcompress
p1266
aVmetadata
p1267
aVlevel
p1268
asI6353398
(lp1269
Vinform
p1270
aVspecif
p1271
aVuser
p1272
aVlocat
p1273
aVregion
p1274
aVdirect
p1275
aVsystem
p1276
aVglobal
p1277
aVpush
p1278
aVdynam
p1279
asI6240365
(lp1280
Vprocessor
p1281
aVvehicl
p1282
aVcentral
p1283
aVcontrol
p1284
aVcoupl
p1285
aVlocal
p1286
aVreader
p1287
aVprovis
p1288
aVautom
p1289
aVcard
p1290
asI7379566
(lp1291
Vcamera
p1292
aVapplic
p1293
aVmotion
p1294
aVdetermin
p1295
aVmobil
p1296
aVuser
p1297
aVdescript
p1298
aVseri
p1299
aVinput
p1300
aVmove
p1301
asI6133874
(lp1302
Vsps
p1303
aVsatellit
p1304
aVpseudorang
p1305
aVapproxim
p1306
aVacquir
p1307
aVestim
p1308
aVdetermin
p1309
aVcell
p1310
aVlocat
p1311
aVsearch
p1312
asI6834195
(lp1313
Vdigit
p1314
aVcontent
p1315
aVschedul
p1316
aVuser
p1317
aVclient
p1318
aVitem
p1319
aVcontextu
p1320
aVsoftwar
p1321
aVnetwork
p1322
aVagent
p1323
asI5982324
(lp1324
Vgps
p1325
aVcellular
p1326
aVsatellit
p1327
aVrequisit
p1328
aVcalcul
p1329
aVtermin
p1330
aVaspect
p1331
aVview
p1332
aVmobil
p1333
aVnetwork
p1334
asI5999124
(lp1335
Vsps
p1336
aVcommunic
p1337
aVcell
p1338
aVsatellit
p1339
aVmessag
p1340
aVtime
p1341
aVbase
p1342
aVtravel
p1343
aVsignal
p1344
aVtransceiv
p1345
asI6282362
(lp1346
Vimag
p1347
aVcaptur
p1348
aVdata
p1349
aVmedia
p1350
aVentiti
p1351
aVhyper
p1352
aVgeo
p1353
aVdigit
p1354
aVlink
p1355
aVmap
p1356
asI6064764
(lp1357
Vwatermark
p1358
aVtamper
p1359
aVimag
p1360
aVfragil
p1361
aVhash
p1362
aVinsert
p1363
aVextract
p1364
aVsignatur
p1365
aVbeen
p1366
aVaccomplish
p1367
asI5943422
(lp1368
Vsteganograph
p1369
aVinform
p1370
aVtechniqu
p1371
aVright
p1372
aVelectron
p1373
aVmanag
p1374
aVsignal
p1375
aVdigit
p1376
aVindel
p1377
aVinsecur
p1378
asI6122625
(lp1379
Vmoney
p1380
aVbank
p1381
aVissu
p1382
aVtransact
p1383
aVelectron
p1384
aVmonetari
p1385
aVsubscrib
p1386
aVcorrespond
p1387
aVreconcili
p1388
aVsecur
p1389
asI6574211
(lp1390
Vpacket
p1391
aVdata
p1392
aVstation
p1393
aVnack
p1394
aVrate
p1395
aVtransmiss
p1396
aVforward
p1397
aVlink
p1398
aVmobil
p1399
aVtransmit
p1400
asI6594692
(lp1401
Vautom
p1402
aVupdat
p1403
aVelectron
p1404
aVimmediaci
p1405
aVwide
p1406
aVserver
p1407
aVhyperlink
p1408
aVofflin
p1409
aVcatalog
p1410
aVcommerc
p1411
asI6565509
(lp1412
Vsensor
p1413
aVanalyt
p1414
aVunit
p1415
aVdisplay
p1416
aVmonitor
p1417
aVconduct
p1418
aVtransmitt
p1419
aVhous
p1420
aVrecess
p1421
aVreceiv
p1422
asI6733446
(lp1423
Vlisten
p1424
aVperiod
p1425
aVmessag
p1426
aVtelemetri
p1427
aVattent
p1428
aVmedic
p1429
aVminim
p1430
aVprescrib
p1431
aVconsumpt
p1432
aVestim
p1433
asI6253193
(lp1434
Velectron
p1435
aVdistribut
p1436
aVtransact
p1437
aVenviron
p1438
aVsecur
p1439
aVapplianc
p1440
aVvde
p1441
aVinform
p1442
aVexampl
p1443
aVvirtual
p1444
asI6574609
(lp1445
Vencrypt
p1446
aVmetadata
p1447
aVcontent
p1448
aVdata
p1449
aVkey
p1450
aVtransfer
p1451
aVusag
p1452
aVpromot
p1453
aVelectron
p1454
aVcustom
p1455
asI6790178
(lp1456
Vphysiolog
p1457
aVmonitor
p1458
aVassist
p1459
aVperson
p1460
aVdigit
p1461
aVdata
p1462
aVmodul
p1463
aVpdas
p1464
aVembodi
p1465
aVonboard
p1466
asI6611607
(lp1467
Vwatermark
p1468
aVdecod
p1469
aVmedia
p1470
aVmultimedia
p1471
aVcontent
p1472
aVsignal
p1473
aVanoth
p1474
aVmetadata
p1475
aVfrom
p1476
aVyet
p1477
asI5379224
(lp1478
Vgps
p1479
aVworkstat
p1480
aVsatellit
p1481
aVdata
p1482
aVsampl
p1483
aVtelemetri
p1484
aVsensor
p1485
aVtrack
p1486
aVradiosond
p1487
aVsonobuoy
p1488
asI5745604
(lp1489
Videntif
p1490
aVcarrier
p1491
aVrobust
p1492
aVsignal
p1493
aVcode
p1494
aVdiscern
p1495
aVholograph
p1496
aVidentifi
p1497
aVdespit
p1498
aVpermeat
p1499
asI6389402
(lp1500
Velectron
p1501
aVdistribut
p1502
aVtransact
p1503
aVright
p1504
aVenviron
p1505
aVsecur
p1506
aVapplianc
p1507
aVvde
p1508
aVinform
p1509
aVexampl
p1510
asI7020701
(lp1511
Vwin
p1512
aVnetwork
p1513
aVwireless
p1514
aVlow
p1515
aVmicrosensor
p1516
aVsensor
p1517
aVembed
p1518
aVinternetwork
p1519
aVnode
p1520
aVenviron
p1521
asI6364834
(lp1522
Vmonitor
p1523
aVremot
p1524
aVmedic
p1525
aVparamet
p1526
aVopportun
p1527
aVafford
p1528
aVintegr
p1529
aVsystem
p1530
aVtie
p1531
aVcompon
p1532
asI5781156
(lp1533
Vgps
p1534
aVsignal
p1535
aVpseudorang
p1536
aVsampl
p1537
aVdownconvert
p1538
aVsnapshot
p1539
aVreceiv
p1540
aVfrequenc
p1541
aVsatellit
p1542
aVdigit
p1543
asI6148261
(lp1544
Vpcd
p1545
aVdata
p1546
aVrequest
p1547
aVtag
p1548
aVdisplay
p1549
aVperson
p1550
aVcommunic
p1551
aVinterrog
p1552
aVgps
p1553
aVsort
p1554
asI6629081
(lp1555
Vsettl
p1556
aVloan
p1557
aVaccount
p1558
aVoption
p1559
aVbalanc
p1560
aVfinanc
p1561
aVimport
p1562
aVsettlement
p1563
aVbuyer
p1564
aVbook
p1565
asI5982891
(lp1566
Velectron
p1567
aVdistribut
p1568
aVtransact
p1569
aVenviron
p1570
aVsecur
p1571
aVapplianc
p1572
aVvde
p1573
aVinform
p1574
aVexampl
p1575
aVvirtual
p1576
asI5745837
(lp1577
Vatm
p1578
aVcpes
p1579
aVbandwidth
p1580
aValloc
p1581
aVmac
p1582
aVscdma
p1583
aVreserv
p1584
aVcatv
p1585
aVcode
p1586
aVbyte
p1587
asI6385329
(lp1588
Vwatermark
p1589
aVwavelet
p1590
aVsignal
p1591
aVdomain
p1592
aVembed
p1593
aVemb
p1594
aVdecompos
p1595
aVgeometr
p1596
aVversion
p1597
aVdistort
p1598
asI6711474
(lp1599
Vautomobil
p1600
aVwireless
p1601
aVmay
p1602
aVmerchant
p1603
aVinteract
p1604
aVpurchas
p1605
aVuser
p1606
aVinform
p1607
aVtransmiss
p1608
aVgood
p1609
asI6601087
(lp1610
Vdocument
p1611
aVshare
p1612
aVconfer
p1613
aVapplic
p1614
aVscreen
p1615
aVowner
p1616
aVview
p1617
aVinstant
p1618
aVrefer
p1619
aVinteract
p1620
asI6484148
(lp1621
Vadvertis
p1622
aVindividu
p1623
aVtarget
p1624
aVidentifi
p1625
aVsignal
p1626
aVelectron
p1627
aVcellular
p1628
aVconsum
p1629
aVsame
p1630
aVtelephon
p1631
asI5748084
(lp1632
Vbeacon
p1633
aVcomput
p1634
aVrecoveri
p1635
aVowner
p1636
aVsoftwar
p1637
aVfile
p1638
aVdata
p1639
aVtransmitt
p1640
aVcommunic
p1641
aVtamper
p1642
asI6226618
(lp1643
Vkey
p1644
aVdecrypt
p1645
aVencrypt
p1646
aVprivat
p1647
aVpublic
p1648
aVdata
p1649
aVuser
p1650
aVpossess
p1651
aVsystem
p1652
aVsecond
p1653
asI6002363
(lp1654
Vgps
p1655
aVconvert
p1656
aVfrequenc
p1657
aVcommunic
p1658
aVantenna
p1659
aVprocessor
p1660
aVsignal
p1661
aVsynthes
p1662
aVcoupl
p1663
aVrepres
p1664
asI6731940
(lp1665
Vbillboard
p1666
aVpublic
p1667
aVmobil
p1668
aVinform
p1669
aVtraffic
p1670
aVcustom
p1671
aVboradcast
p1672
aVuser
p1673
aVrequest
p1674
aVinternet
p1675
asI5339330
(lp1676
Vsatellit
p1677
aVnode
p1678
aVfecc
p1679
aVgain
p1680
aVantenna
p1681
aVcell
p1682
aVcode
p1683
aVcellular
p1684
aVmultiplex
p1685
aVtransmitt
p1686
asI5636292
(lp1687
Vcarrier
p1688
aVidentif
p1689
aVsteganographi
p1690
aVsignal
p1691
aVdiscern
p1692
aVidentifi
p1693
aVdespit
p1694
aVpermeat
p1695
aVimpress
p1696
aVrobust
p1697
asI6505160
(lp1698
Vobject
p1699
aVmedia
p1700
aVserver
p1701
aVidentifi
p1702
aVcontext
p1703
aVrequest
p1704
aVmetadata
p1705
aVexperi
p1706
aVplayback
p1707
aVinform
p1708
asI6658423
(lp1709
Vduplic
p1710
aVfingerprint
p1711
aVdocument
p1712
aVnear
p1713
aVlist
p1714
aVassign
p1715
aVextract
p1716
aVpopul
p1717
aVconsid
p1718
aVnumber
p1719
asI6850252
(lp1720
Vmetadata
p1721
aVmedia
p1722
aVcontent
p1723
aVuser
p1724
aVintellig
p1725
aVinterfac
p1726
aVapplianc
p1727
aVexampl
p1728
aVelectron
p1729
aVprocess
p1730
asI6259405
(lp1731
Vpcd
p1732
aVinform
p1733
aVgeograph
p1734
aVaccess
p1735
aVnetwork
p1736
aVmobil
p1737
aVservic
p1738
aVpoint
p1739
aVuser
p1740
aVknown
p1741
asI5546445
(lp1742
Vmobil
p1743
aVsite
p1744
aVcall
p1745
aVunit
p1746
aVcell
p1747
aVtelephon
p1748
aVgeograph
p1749
aVnavstar
p1750
aVmanag
p1751
aVcellular
p1752
asI6064336
(lp1753
Vgps
p1754
aValmanac
p1755
aVprecis
p1756
aVsatellit
p1757
aVsignal
p1758
aVcarrier
p1759
aVoscil
p1760
aVfrequenc
p1761
aVlocal
p1762
aVremot
p1763
asI6810323
(lp1764
Vwaypoint
p1765
aVinform
p1766
aVgeograph
p1767
aVstore
p1768
aVmobil
p1769
aVuser
p1770
aVremot
p1771
aVassoci
p1772
aV200
p1773
aVvehicl
p1774
asI6167255
(lp1775
Vmenu
p1776
aVservic
p1777
aVmobil
p1778
aVcenter
p1779
aVcommunic
p1780
aVunit
p1781
aVnetwork
p1782
aVoption
p1783
aVenhanc
p1784
aVinterfac
p1785
asI5280472
(lp1786
Vcdma
p1787
aVmicrocellular
p1788
aVantenna
p1789
aVsystem
p1790
aVsignal
p1791
aVpbx
p1792
aVcommunic
p1793
aVmultipath
p1794
aVdistribut
p1795
aVutil
p1796
asI5892900
(lp1797
Velectron
p1798
aVsecur
p1799
aVdistribut
p1800
aVenviron
p1801
aVtransact
p1802
aVcommerc
p1803
aVapplianc
p1804
aVvde
p1805
aVinform
p1806
aVprotect
p1807
asI6615258
(lp1808
Vcustom
p1809
aVmanag
p1810
aVentitl
p1811
aVservic
p1812
aVdata
p1813
aVinterfac
p1814
aVinternet
p1815
aVworkstat
p1816
aVenterpris
p1817
aVuser
p1818
asI6321337
(lp1819
Venviron
p1820
aVsimplifi
p1821
aVmessag
p1822
aVintern
p1823
aVrepresent
p1824
aVprotocol
p1825
aVextern
p1826
aVconvert
p1827
aVcontent
p1828
aVtrust
p1829
asI5917405
(lp1830
Vvehicl
p1831
aVcontrol
p1832
aVdevic
p1833
aVthird
p1834
aVlocat
p1835
aVremot
p1836
aVsignal
p1837
aVsecond
p1838
aVtransmit
p1839
aVfirst
p1840
asI5640414
(lp1841
Vstation
p1842
aVmobil
p1843
aVbase
p1844
aVcommunic
p1845
aVpilot
p1846
aVstrength
p1847
aVcdma
p1848
aVthrough
p1849
aVreport
p1850
aVsignal
p1851
asI6332127
(lp1852
Vweb
p1853
aVgeograph
p1854
aVcomput
p1855
aVprogram
p1856
aVwithin
p1857
aVcoupon
p1858
aVpage
p1859
aVproduct
p1860
aVadvertis
p1861
aVvalid
p1862
asI6061793
(lp1863
sI5874914
(lp1864
Vgps
p1865
aVsignal
p1866
aVpseudorang
p1867
aVsampl
p1868
aVdownconvert
p1869
aVsnapshot
p1870
aVreceiv
p1871
aVfrequenc
p1872
aVsatellit
p1873
aVdigit
p1874
asI6418147
(lp1875
Vvocod
p1876
aVgateway
p1877
aVsignal
p1878
aVsatellit
p1879
aVuser
p1880
aVrate
p1881
aVgeo
p1882
aVtermin
p1883
aVterrestri
p1884
aVaudio
p1885
asI6611755
(lp1886
Vfleet
p1887
aVvehicl
p1888
aVreport
p1889
aVtime
p1890
aVslot
p1891
aVmanag
p1892
aVtransmiss
p1893
aVnetwork
p1894
aVhalf
p1895
aVprecis
p1896
asI5768426
(lp1897
Vcarrier
p1898
aVidentif
p1899
aVsignal
p1900
aVcode
p1901
aVemb
p1902
aVdiscern
p1903
aVholograph
p1904
aVidentifi
p1905
aVdespit
p1906
aVpermeat
p1907
asI6577899
(lp1908
Vinfus
p1909
aVdeliveri
p1910
aVaccumul
p1911
aVpump
p1912
aVprocessor
p1913
aVincrement
p1914
aVdrug
p1915
aVdeliver
p1916
aVambulatori
p1917
aVoccur
p1918
asI6605038
(lp1919
Vgalvan
p1920
aVdata
p1921
aVsensor
p1922
aVskin
p1923
aVmonitor
p1924
aVgsr
p1925
aVheat
p1926
aVanalyt
p1927
aVleast
p1928
aVstatus
p1929
asI6185683
(lp1930
Vtrusted
p1931
aVdocument
p1932
aVtrust
p1933
aVtransact
p1934
aVelectron
p1935
aVcourier
p1936
aVsteganographi
p1937
aVedi
p1938
aVitem
p1939
aVwit
p1940
asI6198394
(lp1941
Vsoldier
p1942
aVphysiological
p1943
aVcasualti
p1944
aVremot
p1945
aVsensor
p1946
aVstatus
p1947
aVmonitor
p1948
aVpersonnel
p1949
aVcare
p1950
aVdiagnosi
p1951
asI6553336
(lp1952
Vtransduc
p1953
aVmonitor
p1954
aVmodul
p1955
aVcommunic
p1956
aVvia
p1957
aVuser
p1958
aVwide
p1959
aVcontrol
p1960
aVanalyz
p1961
aVremot
p1962
asI6028537
(lp1963
Vvehicl
p1964
aVaccessori
p1965
aVprocessor
p1966
aVcommand
p1967
aVremot
p1968
aVenabl
p1969
aVrequest
p1970
aVcoupl
p1971
aVuser
p1972
aVtransceiv
p1973
asI6584569
(lp1974
Vapplic
p1975
aVvulner
p1976
aVclient
p1977
aVexploit
p1978
aVmutat
p1979
aVweb
p1980
aVattack
p1981
aVpre
p1982
aVanomal
p1983
aVrequest
p1984
asI5587715
(lp1985
Vlongitud
p1986
aVlatitud
p1987
aVobject
p1988
aVapproxim
p1989
aVcorrect
p1990
aVaccuraci
p1991
aVsatellit
p1992
aVdifferenti
p1993
aVfix
p1994
aVpoint
p1995
asI6199045
(lp1996
Vmobil
p1997
aVinform
p1998
aVsite
p1999
aVserver
p2000
aVunit
p2001
aVcentral
p2002
aVcircuitri
p2003
aVposit
p2004
aVrespons
p2005
aVloudspeak
p2006
asI6138119
(lp2007
Vright
p2008
aVabstract
p2009
aVmanag
p2010
aVdata
p2011
aVrepresent
p2012
aVstructur
p2013
aVdescript
p2014
aVinteroper
p2015
aVcompromis
p2016
aVexampl
p2017
asI6199048
(lp2018
Vupc
p2019
aVcode
p2020
aVprodoct
p2021
aVurl
p2022
aVaccess
p2023
aVinternet
p2024
aVsymbol
p2025
aVnetwork
p2026
aVresourc
p2027
aVdatabas
p2028
asI6738697
(lp2029
Vvehicl
p2030
aVdiagnost
p2031
aVsensor
p2032
aVstate
p2033
aVoutput
p2034
aVtelemat
p2035
aVprocessor
p2036
aVdata
p2037
aVrepres
p2038
aVgenerat
p2039
asI6449367
(lp2040
Vsteganograph
p2041
aVright
p2042
aVinform
p2043
aVtechniqu
p2044
aVelectron
p2045
aVmanag
p2046
aVsignal
p2047
aVdigit
p2048
aVindel
p2049
aVinsecur
p2050
asI5797134
(lp2051
Vcost
p2052
aVinsur
p2053
aVsurcharg
p2054
aVdiscount
p2055
aVraw
p2056
aVautomobil
p2057
aVmonitor
p2058
aVretrospect
p2059
aVvehicl
p2060
aVsafeti
p2061
asI5930767
(lp2062
Vtransact
p2063
aVdata
p2064
aVelement
p2065
aVapprov
p2066
aVsecond
p2067
aVnetwork
p2068
aVindic
p2069
aVelectron
p2070
aVreceiv
p2071
aVparti
p2072
asI6119229
(lp2073
Vobject
p2074
aVdigit
p2075
aVuser
p2076
aVownership
p2077
aVtermin
p2078
aVcommunic
p2079
aVcentral
p2080
aVsystem
p2081
aVcomput
p2082
aVidentif
p2083
asI5917912
(lp2084
Velectron
p2085
aVdistribut
p2086
aVtransact
p2087
aVenviron
p2088
aVsecur
p2089
aVapplianc
p2090
aVvde
p2091
aVinform
p2092
aVexampl
p2093
aVvirtual
p2094
asI5835907
(lp2095
Vgis
p2096
aVpcs
p2097
aVemerg
p2098
aVsubscrib
p2099
aVfriend
p2100
aVlocat
p2101
aVclassif
p2102
aVvru
p2103
aVvoic
p2104
aVciti
p2105
asI6330670
(lp2106
Vright
p2107
aVmanag
p2108
aVuntrust
p2109
aVtrust
p2110
aVpage
p2111
aVdigit
p2112
aVfile
p2113
aVdata
p2114
aVmemori
p2115
aVoper
p2116
asI6785815
(lp2117
Vwatermark
p2118
aVsignatur
p2119
aVstrong
p2120
aVsignal
p2121
aVdata
p2122
aVfound
p2123
aVdigit
p2124
aVpresenc
p2125
aVabsenc
p2126
aVunregist
p2127
asI6834308
(lp2128
Vmedia
p2129
aVcontent
p2130
aVsampl
p2131
aVpresent
p2132
aVplayer
p2133
aVidentifi
p2134
aVuser
p2135
aVaction
p2136
aVinform
p2137
aVdigit
p2138
asI6406426
(lp2139
Vmonitor
p2140
aVmedic
p2141
aValert
p2142
aVpatient
p2143
aVtherapeut
p2144
aVcaregiv
p2145
aVsystem
p2146
aVcommunic
p2147
aVlink
p2148
aVintegr
p2149
asI6289455
(lp2150
Vcryptograph
p2151
aVprocessor
p2152
aVcontent
p2153
aVright
p2154
aVkey
p2155
aVaccess
p2156
aVtransform
p2157
aVprotect
p2158
aValgorithm
p2159
aVunit
p2160
asI6611740
(lp2161
Vdata
p2162
aVdiagnost
p2163
aVpacket
p2164
aVoutgo
p2165
aVapplianc
p2166
aVvehicl
p2167
aVsoftwar
p2168
aVcommunic
p2169
aVnetwork
p2170
aVwireless
p2171
asI6128602
(lp2172
Vfinanci
p2173
aVentiti
p2174
aVsystem
p2175
aVtransact
p2176
aVreal
p2177
aVbackroom
p2178
aVconsolid
p2179
aVmonitor
p2180
aVarchitectur
p2181
aVtime
p2182
asI6385596
(lp2183
Vmedia
p2184
aVpurchas
p2185
aVplayer
p2186
aVonlin
p2187
aVmusic
p2188
aVencrypt
p2189
aVserver
p2190
aVdata
p2191
aVpassport
p2192
aVaudio
p2193
asI6249252
(lp2194
Vlocat
p2195
aVinfrastructur
p2196
aVurban
p2197
aVcommerci
p2198
aVpoor
p2199
aVwireless
p2200
aVnamp
p2201
aVstation
p2202
aVrequest
p2203
aVsuburban
p2204
asI6232870
(lp2205
Vrfid
p2206
aVapplic
p2207
aVdevic
p2208
aVmagnet
p2209
aVhandheld
p2210
aVbook
p2211
aVlibrari
p2212
aVtag
p2213
aVitem
p2214
aVidentif
p2215
asI6016476
(lp2216
sI6414635
(lp2217
Vpcd
p2218
aVgeograph
p2219
aVservic
p2220
aVaccess
p2221
aVpoint
p2222
aVlocat
p2223
aVmay
p2224
aVprecis
p2225
aVknown
p2226
aVcircuitri
p2227
asI6625581
(lp2228
Vcpir
p2229
aVapplet
p2230
aVupn
p2231
aVconsum
p2232
aVenabl
p2233
aVproduct
p2234
aVurl
p2235
aVadvertis
p2236
aVwww
p2237
aVhtml
p2238
asI6311214
(lp2239
Vobject
p2240
aVsteganograph
p2241
aVpostal
p2242
aVbit
p2243
aVlink
p2244
aVprint
p2245
aVdata
p2246
aVbook
p2247
aVadvertis
p2248
aVoptic
p2249
asI5825327
(lp2250
Vgps
p2251
aVantenna
p2252
aVgarment
p2253
aVreceiv
p2254
aVtransmitt
p2255
aVcommunic
p2256
aVdescrib
p2257
aVtrack
p2258
aValso
p2259
aVemploy
p2260
asI6154771
(lp2261
Vhypervideo
p2262
aVthumbnail
p2263
aVhyperlink
p2264
aVscene
p2265
aVsuv
p2266
aVisp
p2267
aVnetwork
p2268
aVdecompress
p2269
aVvideo
p2270
aVstream
p2271
asI6650761
(lp2272
Vsteganograph
p2273
aVperson
p2274
aVbusi
p2275
aVcard
p2276
aVupdat
p2277
aVencod
p2278
aVinform
p2279
aVbit
p2280
aVcontact
p2281
aVwatermark
p2282
asI6829368
(lp2283
Vobject
p2284
aVmedia
p2285
aVserver
p2286
aVidentifi
p2287
aVcontext
p2288
aVrequest
p2289
aVmetadata
p2290
aVexperi
p2291
aVplayback
p2292
aVinform
p2293
asI6243039
(lp2294
Vlocat
p2295
aVchild
p2296
aVcall
p2297
aVparent
p2298
aVvru
p2299
aVvia
p2300
aVanytim
p2301
aVsite
p2302
aVweb
p2303
aVanywher
p2304
asI6437692
(lp2305
Vmonitor
p2306
aVtransmitt
p2307
aVdedic
p2308
aVsystem
p2309
aVcomput
p2310
aVwireless
p2311
aVremot
p2312
aVdefin
p2313
aVnetwork
p2314
aVcompil
p2315
asI5497149
(lp2316
Vglobal
p2317
aVmessag
p2318
aVtime
p2319
aVprotect
p2320
aVobject
p2321
aValert
p2322
aVposit
p2323
aVissu
p2324
aVsystem
p2325
aVzone
p2326
asI6076734
(lp2327
Vencod
p2328
aVcomput
p2329
aVsensor
p2330
aVinform
p2331
aVuser
p2332
aVinterfac
p2333
aVphysic
p2334
aVcertain
p2335
aVmedium
p2336
aVsuitabl
p2337
asI5923650
(lp2338
Vschedul
p2339
aVlevel
p2340
aVstation
p2341
aVselector
p2342
aVhandoff
p2343
aVsoft
p2344
aVperform
p2345
aVbase
p2346
aVrevers
p2347
aVremot
p2348
asI6243480
(lp2349
Vwatermark
p2350
aVrepresent
p2351
aVauthent
p2352
aVdigit
p2353
aVagent
p2354
aVcode
p2355
aVsemant
p2356
aVinform
p2357
aVanalog
p2358
aVnode
p2359
asI5625668
(lp2360
Vcellular
p2361
aVgps
p2362
aVtransceiv
p2363
aVtelephon
p2364
aVlongitud
p2365
aVmeaning
p2366
aVlatitud
p2367
aVinquiri
p2368
aVspoken
p2369
aVdescriptor
p2370
asI6100806
(lp2371
Vmonitor
p2372
aVperson
p2373
aVremot
p2374
aVwould
p2375
aVobject
p2376
aVinanim
p2377
aVstation
p2378
aVtrack
p2379
aVpoison
p2380
aVunit
p2381
asI5414728
(lp2382
Vchannel
p2383
aVsignal
p2384
aVphase
p2385
aVquadratur
p2386
aVcommunic
p2387
aVpseudorandom
p2388
aVinform
p2389
aVmodul
p2390
aVspread
p2391
aVsub
p2392
asI5991308
(lp2393
Vbyte
p2394
aV9th
p2395
aVatm
p2396
aVcell
p2397
aVethernet
p2398
aVpacket
p2399
aVscdma
p2400
aVvpi
p2401
aVvci
p2402
aVdownstream
p2403
asI6859831
(lp2404
Vwin
p2405
aVnetwork
p2406
aVnode
p2407
aVwireless
p2408
aVlow
p2409
aVmicrosensor
p2410
aVsensor
p2411
aVembed
p2412
aVinternetwork
p2413
aVenviron
p2414
asI5915027
(lp2415
Vwatermark
p2416
aVsubregion
p2417
aVsubimag
p2418
aVdata
p2419
aVrepeat
p2420
aVdigit
p2421
aVaudio
p2422
aVsimilar
p2423
aVvideo
p2424
aVextract
p2425
asI6600418
(lp2426
Vrfid
p2427
aVtag
p2428
aVobject
p2429
aVident
p2430
aVlocat
p2431
aVvehicl
p2432
aVoutfit
p2433
aVinstruct
p2434
aVradio
p2435
aVmove
p2436
asI6127928
(lp2437
Vexcit
p2438
aVdocument
p2439
aVtransceiv
p2440
aVlocal
p2441
aVfrequenc
p2442
aVtag
p2443
aVdrawer
p2444
aVhost
p2445
aVoffic
p2446
aVcode
p2447
asI5650770
(lp2448
Vremot
p2449
aVunit
p2450
aVstation
p2451
aVbase
p2452
aVenvironment
p2453
aVpower
p2454
aVmonitor
p2455
aVsummon
p2456
aVexcess
p2457
aVlevel
p2458
asI6775267
(lp2459
Vbill
p2460
aVservic
p2461
aVdefault
p2462
aVqualiti
p2463
aVrate
p2464
aVbit
p2465
aVuser
p2466
aVcost
p2467
aVbroadband
p2468
aVresourc
p2469
asI6893396
(lp2470
Vpatient
p2471
aVcare
p2472
aVwearabl
p2473
aVmedic
p2474
aVmonitor
p2475
aVwireless
p2476
aVinternet
p2477
aVvoic
p2478
aVvia
p2479
aVhost
p2480
asI6659948
(lp2481
Vlisten
p2482
aVperiod
p2483
aVmessag
p2484
aVtelemetri
p2485
aVattent
p2486
aVmedic
p2487
aVminim
p2488
aVprescrib
p2489
aVconsumpt
p2490
aVestim
p2491
asI5892441
(lp2492
Vtag
p2493
aVobject
p2494
aVcircuitri
p2495
aVelectron
p2496
aVgroup
p2497
aVattach
p2498
aVrerout
p2499
aVcommunic
p2500
aVmonitor
p2501
aVstorag
p2502
asI5479482
(lp2503
Vcellular
p2504
aVgeo
p2505
aVtermin
p2506
aVcoordin
p2507
aVgps
p2508
aVpsap
p2509
aV911
p2510
aVcall
p2511
aVinform
p2512
aVtransmit
p2513
asI6064990
(lp2514
Vaccount
p2515
aVfinanci
p2516
aVtransact
p2517
aVinform
p2518
aVelectron
p2519
aVuser
p2520
aVmessag
p2521
aVcontact
p2522
aVpager
p2523
aVcomput
p2524
asI6363488
(lp2525
Velectron
p2526
aVdistribut
p2527
aVtransact
p2528
aVright
p2529
aVenviron
p2530
aVsecur
p2531
aVapplianc
p2532
aVvde
p2533
aVinform
p2534
aVexampl
p2535
asI6345104
(lp2536
Vwatermark
p2537
aVdocument
p2538
aVpassport
p2539
aVphotocopi
p2540
aVpattern
p2541
aVcalibr
p2542
aVinform
p2543
aVencod
p2544
aVsecur
p2545
aVbinari
p2546
asI6980962
(lp2547
Vbuy
p2548
aVopportun
p2549
aVmarket
p2550
aVmembership
p2551
aVcommerc
p2552
aVbusi
p2553
aVowner
p2554
aVtransact
p2555
aVindepend
p2556
aVcustom
p2557
asI5103459
(lp2558
Vorthogon
p2559
aVspread
p2560
aVmobil
p2561
aVbpsk
p2562
aVlink
p2563
aVqpsk
p2564
aVcommunic
p2565
aVcell
p2566
aVchannel
p2567
aVinterleav
p2568
asI5825892
(lp2569
Vwatermark
p2570
aVbright
p2571
aVplane
p2572
aVimpart
p2573
aVrobust
p2574
aVrandom
p2575
aVmark
p2576
aVimag
p2577
aVvalu
p2578
aVdigit
p2579
asI5959529
(lp2580
Vsensor
p2581
aVmonitor
p2582
aVreprogramm
p2583
aVportabl
p2584
aVunit
p2585
aVinanim
p2586
aVremot
p2587
aVsubject
p2588
aVinterfac
p2589
aVworn
p2590
asI7023979
(lp2591
Vclassif
p2592
aVskill
p2593
aVcommunic
p2594
aVrout
p2595
aVdatabas
p2596
aVcall
p2597
aVprocessor
p2598
aVtelephoni
p2599
aVagent
p2600
aVreceiv
p2601
asI5974380
(lp2602
Vaudio
p2603
aVcoder
p2604
aVsubband
p2605
aVencod
p2606
aVkhz
p2607
aVperfect
p2608
aVdecod
p2609
aVreconstruct
p2610
aVpsycho
p2611
aVpredict
p2612
asI5991279
(lp2613
Vsatellit
p2614
aVpacket
p2615
aVlink
p2616
aVcommunic
p2617
aVtdm
p2618
aVtermin
p2619
aVcdma
p2620
aVtransmiss
p2621
aVchannel
p2622
aVreturn
p2623
asI5850481
(lp2624
Vcarrier
p2625
aVidentif
p2626
aVsteganograph
p2627
aVsignal
p2628
aVdiscern
p2629
aVidentifi
p2630
aVdespit
p2631
aVpermeat
p2632
aVimpress
p2633
aVrobust
p2634
asI5388147
(lp2635
Vcellular
p2636
aVtelecommun
p2637
aVgeo
p2638
aVswitch
p2639
aVcoordin
p2640
aVtelephon
p2641
aVrural
p2642
aVdatabas
p2643
aVconvers
p2644
aVmunicip
p2645
asI5862260
(lp2646
Vwatermark
p2647
aVproprietor
p2648
aVaudio
p2649
aVvideo
p2650
aVdissemin
p2651
aVproprietari
p2652
aVempir
p2653
aVsurvey
p2654
aVdata
p2655
aVcomput
p2656
asI5812087
(lp2657
Vsatellit
p2658
aVsps
p2659
aVrecord
p2660
aVmessag
p2661
aVtime
p2662
aVdata
p2663
aVentiti
p2664
aVwas
p2665
aVbasest
p2666
aVtypic
p2667
asI6131067
(lp2668
Vremot
p2669
aVserver
p2670
aVclient
p2671
aVsensor
p2672
aVinterrog
p2673
aVgps
p2674
aVlocat
p2675
aVreport
p2676
aVuser
p2677
aVlongitud
p2678
asI6513532
(lp2679
Vconsumpt
p2680
aVactiv
p2681
aVnotat
p2682
aVdiet
p2683
aVmonitor
p2684
aVbodi
p2685
aVindic
p2686
aVcalcul
p2687
aVsubject
p2688
aVsignal
p2689
asI5822436
(lp2690
Vphotograph
p2691
aVembed
p2692
aVkiosk
p2693
aVcopi
p2694
aVlivelihood
p2695
aVduplic
p2696
aVredress
p2697
aVinform
p2698
aVamateur
p2699
aVwed
p2700
asI6526335
(lp2701
Vautomobil
p2702
aVwireless
p2703
aVmay
p2704
aVmerchant
p2705
aVinteract
p2706
aVpurchas
p2707
aVuser
p2708
aVinform
p2709
aVtransmiss
p2710
aVgood
p2711
asI6614914
(lp2712
Vwatermark
p2713
aVembedd
p2714
aVsignal
p2715
aVreader
p2716
aVcombin
p2717
aVdetector
p2718
aVorient
p2719
aVcorrupt
p2720
aVlook
p2721
aVtextur
p2722
asI6677894
(lp2723
Vclient
p2724
aVlocat
p2725
aVinform
p2726
aVinterest
p2727
aVweb
p2728
aVinternet
p2729
aVvia
p2730
aVsps
p2731
aVserver
p2732
aVworld
p2733
asI6473609
(lp2734
Vserver
p2735
aVmobil
p2736
aVengin
p2737
aVinternet
p2738
aVlink
p2739
aVcomput
p2740
aVmarkup
p2741
aVdevic
p2742
aVinteract
p2743
aVconsider
p2744
asI5915019
(lp2745
Velectron
p2746
aVdistribut
p2747
aVtransact
p2748
aVenviron
p2749
aVsecur
p2750
aVapplianc
p2751
aVvde
p2752
aVinform
p2753
aVexampl
p2754
aVvirtual
p2755
asI5414796
(lp2756
Vspeech
p2757
aVrate
p2758
aVcode
p2759
aVframe
p2760
aVactiv
p2761
aVpacket
p2762
aVlevel
p2763
aVcorrespond
p2764
aVvocod
p2765
aVvocal
p2766
asI6811533
(lp2767
Vmessag
p2768
aVtelemetri
p2769
aVmedic
p2770
aVrobust
p2771
aVcode
p2772
aVvalid
p2773
aVcommunic
p2774
aVprotocol
p2775
aVmultipart
p2776
aVdata
p2777
asI6811534
(lp2778
Vlisten
p2779
aVperiod
p2780
aVmessag
p2781
aVtelemetri
p2782
aVattent
p2783
aVmedic
p2784
aVminim
p2785
aVprescrib
p2786
aVconsumpt
p2787
aVestim
p2788
asI5936527
(lp2789
Vexcit
p2790
aVdocument
p2791
aVtransceiv
p2792
aVlocal
p2793
aVfrequenc
p2794
aVtag
p2795
aVdrawer
p2796
aVhost
p2797
aVoffic
p2798
aVcode
p2799
asI5959568
(lp2800
Vtag
p2801
aVobject
p2802
aVsymbol
p2803
aVcircuitri
p2804
aVtrip
p2805
aVmeasur
p2806
aVdistanc
p2807
aVround
p2808
aVelectron
p2809
aVgroup
p2810
asI6812824
(lp2811
Vtag
p2812
aVantenna
p2813
aVrls
p2814
aVsignal
p2815
aVhost
p2816
aVwireless
p2817
aVtriangul
p2818
aVtrack
p2819
aVcarrier
p2820
aVrecurs
p2821
asI6330426
(lp2822
Veduc
p2823
aVfile
p2824
aVserver
p2825
aVindividu
p2826
aVcard
p2827
aVprogram
p2828
aVprocessor
p2829
aVmemori
p2830
aVremot
p2831
aVwatch
p2832
asI6847892
(lp2833
Valert
p2834
aVtechnolog
p2835
aVasp
p2836
aVwireless
p2837
aVdata
p2838
aVposit
p2839
aVapplic
p2840
aVmeasur
p2841
aVpresent
p2842
aVlocal
p2843
asI6157721
(lp2844
Vsignatur
p2845
aVtamper
p2846
aVfactor
p2847
aVdigit
p2848
aVenviron
p2849
aVverifi
p2850
aVwork
p2851
aValgorithm
p2852
aVcompromis
p2853
aVload
p2854
asI6150980
(lp2855
Vgps
p2856
aVtime
p2857
aVreceiv
p2858
aVsignal
p2859
aVdetermin
p2860
aVsatellit
p2861
aVphone
p2862
aVglobal
p2863
aVposit
p2864
aVinform
p2865
asI5964701
(lp2866
Vfinger
p2867
aVmonitor
p2868
aVpatient
p2869
aVring
p2870
aVsensor
p2871
aVblood
p2872
aVfiduci
p2873
aVapparel
p2874
aVpuls
p2875
aVdatum
p2876
asI6269343
(lp2877
Vbuyer
p2878
aVseller
p2879
aVoffer
p2880
aVprice
p2881
aVdemand
p2882
aVaggreg
p2883
aVpotenti
p2884
aVgiven
p2885
aVdiscount
p2886
aVvolum
p2887
asI6212512
(lp2888
Vfile
p2889
aVdatabas
p2890
aVexplor
p2891
aVwindow
p2892
aVprotect
p2893
aVvault
p2894
aVsecondari
p2895
aVdata
p2896
aVmedium
p2897
aVappear
p2898
asI6122403
(lp2899
Vsteganograph
p2900
aVdecod
p2901
aVhotlink
p2902
aVregistr
p2903
aVimprov
p2904
aVgraticul
p2905
aVsublimin
p2906
aVunencod
p2907
aVembed
p2908
aVcovert
p2909
asI5223844
(lp2910
Vvehicl
p2911
aVmobil
p2912
aVcenter
p2913
aVtheft
p2914
aVtrack
p2915
aValarm
p2916
aVemerg
p2917
aVlocat
p2918
aVguardian
p2919
aVunit
p2920
asI6405033
(lp2921
Vservic
p2922
aVcenter
p2923
aVmobil
p2924
aVunit
p2925
aVrequest
p2926
aVnetwork
p2927
aVcommunic
p2928
aVenhanc
p2929
aVtradit
p2930
aVswitch
p2931
asI5731757
(lp2932
Vtransceiv
p2933
aVportabl
p2934
aVsensor
p2935
aVtamper
p2936
aVtrack
p2937
aVworn
p2938
aVsubject
p2939
aVcommunic
p2940
aVmessag
p2941
aVwireless
p2942
asI5448623
(lp2943
Vsatellit
p2944
aVterrestri
p2945
aVgateway
p2946
aVorbit
p2947
aV101
p2948
aVtelephon
p2949
aV501
p2950
aVuser
p2951
aVrelay
p2952
aVsingl
p2953
asI6947571
(lp2954
Vphone
p2955
aVwatermark
p2956
aVsteganograph
p2957
aVdecod
p2958
aVoptic
p2959
aVvarieti
p2960
aVgestur
p2961
aVsens
p2962
aVdigit
p2963
aVinfer
p2964
asI5949876
(lp2965
Velectron
p2966
aVdistribut
p2967
aVtransact
p2968
aVenviron
p2969
aVsecur
p2970
aVapplianc
p2971
aVvde
p2972
aVinform
p2973
aVexampl
p2974
aVvirtual
p2975
asI5806005
(lp2976
Vcellular
p2977
aVcamera
p2978
aVtelephon
p2979
aVimag
p2980
aVcpu
p2981
aVtransmitt
p2982
aVdigit
p2983
aVstill
p2984
aVmemori
p2985
aVdata
p2986
asI5832119
(lp2987
Vsteganograph
p2988
aVembed
p2989
aVplayback
p2990
aVcopi
p2991
aVkiosk
p2992
aVbit
p2993
aVempir
p2994
aVmulti
p2995
aVcontrol
p2996
aVrecord
p2997
asI5983161
(lp2998
Vcollis
p2999
aVvehicl
p3000
aVgps
p3001
aVkinemat
p3002
aVcomm1
p3003
aVcomm2
p3004
aVhazard
p3005
aVwarn
p3006
aV484
p3007
aVpseudolit
p3008
asI7041468
(lp3009
Vglucos
p3010
aVtest
p3011
aVstrip
p3012
aVhous
p3013
aVreceptacl
p3014
aVhand
p3015
aVheld
p3016
aVconnector
p3017
aVmodul
p3018
aVamount
p3019
asI6587837
(lp3020
Vmetadata
p3021
aVcontent
p3022
aValter
p3023
aVelectron
p3024
aVcreat
p3025
aVonlin
p3026
aVoffer
p3027
aVstore
p3028
aVtransact
p3029
aVreadabl
p3030
asI6418421
(lp3031
Vcontent
p3032
aVlicens
p3033
aVplay
p3034
aVplayer
p3035
aVdata
p3036
aVusag
p3037
aVlog
p3038
aVtrack
p3039
aVuser
p3040
aVdigit
p3041
asI6478736
(lp3042
Vrmr
p3043
aVcalor
p3044
aVperson
p3045
aVcalcul
p3046
aVprogram
p3047
aVweight
p3048
aVcalorimet
p3049
aVcalori
p3050
aVexpenditur
p3051
aVmanag
p3052
asI6321092
(lp3053
Vlfs
p3054
aVlfe
p3055
aV118
p3056
aV116
p3057
aVwireless
p3058
aVlocat
p3059
aVmsc
p3060
aVapplic
p3061
aV114
p3062
aV108
p3063
asI6757740
(lp3064
Vgeograph
p3065
aVvisitor
p3066
aVlocat
p3067
aVrout
p3068
aVsite
p3069
aVweb
p3070
aVinternet
p3071
aVdetermin
p3072
aVdatabas
p3073
aVhost
p3074
asI7053767
(lp3075
Vmonitor
p3076
aVtransmitt
p3077
aVdedic
p3078
aVsystem
p3079
aVcomput
p3080
aVwireless
p3081
aVremot
p3082
aVdefin
p3083
aVnetwork
p3084
aVcompil
p3085
asI5910987
(lp3086
Velectron
p3087
aVdistribut
p3088
aVtransact
p3089
aVenviron
p3090
aVsecur
p3091
aVapplianc
p3092
aVvde
p3093
aVinform
p3094
aVexampl
p3095
aVvirtual
p3096
asI6487500
(lp3097
Vcollis
p3098
aVvehicl
p3099
aVgps
p3100
aVkinemat
p3101
aVcomm1
p3102
aVcomm2
p3103
aVhazard
p3104
aVwarn
p3105
aV484
p3106
aVpseudolit
p3107
asI6411725
(lp3108
Vvideo
p3109
aVwatermark
p3110
aVobject
p3111
aVaudio
p3112
aVinform
p3113
aVaccompani
p3114
aVaction
p3115
aVcharact
p3116
aVetc
p3117
aVsteganograph
p3118
asI6567416
(lp3119
Vminislot
p3120
aVaccess
p3121
aVprioriti
p3122
aVsub
p3123
aVclass
p3124
aVhost
p3125
aVremot
p3126
aVcontent
p3127
aVuplink
p3128
aVmessag
p3129
asI6185427
(lp3130
Vsps
p3131
aVdigit
p3132
aVsatellit
p3133
aVprocess
p3134
aVlocat
p3135
aVwireless
p3136
aVstation
p3137
aVinform
p3138
aVsystem
p3139
aVfirst
p3140
asI5771001
(lp3141
Vhome
p3142
aVperson
p3143
aVrelay
p3144
aValarm
p3145
aVcellular
p3146
aVinform
p3147
aVstation
p3148
aVpeopl
p3149
aVelectron
p3150
aValert
p3151
asI6647257
(lp3152
Vsubscrib
p3153
aVmessag
p3154
aVtarget
p3155
aVvoce
p3156
aVwireless
p3157
aVmobil
p3158
aVmail
p3159
aVtelemarket
p3160
aVsponsor
p3161
aVdemograph
p3162
asI6061018
(lp3163
sI6542927
(lp3164
Vsteganograph
p3165
aVobject
p3166
aVpostal
p3167
aVbit
p3168
aVlink
p3169
aVprint
p3170
aVdata
p3171
aVbook
p3172
aVadvertis
p3173
aVmail
p3174
asI7020508
(lp3175
Vhous
p3176
aVapparatus
p3177
aVheart
p3178
aVthermal
p3179
aValtern
p3180
aVcommunic
p3181
aVbodi
p3182
aVthereto
p3183
aVcontextu
p3184
aVdetect
p3185
asI5841886
(lp3186
Vphotograph
p3187
aVdocument
p3188
aVidentif
p3189
aVinform
p3190
aVsecur
p3191
aVpertain
p3192
aVimag
p3193
aVcorrel
p3194
aVembed
p3195
aVencod
p3196
asI5822432
(lp3197
Vwatermark
p3198
aVkey
p3199
aVdigit
p3200
aVdecod
p3201
aVencod
p3202
aVrandom
p3203
aVpseudo
p3204
aVenvelop
p3205
aVhuman
p3206
aVnotari
p3207
asI6654032
(lp3208
Vdocument
p3209
aVshare
p3210
aVremot
p3211
aVconfer
p3212
aVapplic
p3213
aVserver
p3214
aVscreen
p3215
aVowner
p3216
aVview
p3217
aVinstant
p3218
asI6343138
(lp3219
Vhidden
p3220
aVsignal
p3221
aVidentif
p3222
aVvideo
p3223
aVimageri
p3224
aVdiscern
p3225
aVcarrier
p3226
aVtherebi
p3227
aVcan
p3228
aVcopi
p3229
asI6674403
(lp3230
Vlocal
p3231
aVmobil
p3232
aVaccess
p3233
aVtrack
p3234
aVnetwork
p3235
aVknowledg
p3236
aVpoint
p3237
aVabout
p3238
aVbetter
p3239
aVspace
p3240
asI5918180
(lp3241
Vtelephon
p3242
aVvehicl
p3243
aVglobal
p3244
aVspacial
p3245
aVcellular
p3246
aVlocat
p3247
aVgps
p3248
aVspeech
p3249
aVenunci
p3250
aVcoordin
p3251
asI6647269
(lp3252
Vadvertis
p3253
aVbusi
p3254
aVuser
p3255
aVcontent
p3256
aVenter
p3257
aVdeliv
p3258
aVstore
p3259
aVineffect
p3260
aVmobil
p3261
aVbeen
p3262
asI6225901
(lp3263
Vsensor
p3264
aVmonitor
p3265
aVreprogramm
p3266
aVportabl
p3267
aVunit
p3268
aVinanim
p3269
aVremot
p3270
aVsubject
p3271
aVinterfac
p3272
aVworn
p3273
asI5710834
(lp3274
Vcarrier
p3275
aVidentif
p3276
aVsignal
p3277
aVcode
p3278
aVdiscern
p3279
aVidentifi
p3280
aVdespit
p3281
aVpermeat
p3282
aVimpress
p3283
aVrobust
p3284
asI5809139
(lp3285
Vwatermark
p3286
aVunwatermark
p3287
aVcoeffici
p3288
aVvideo
p3289
aVbit
p3290
aVsignal
p3291
aVtransform
p3292
aVcode
p3293
aVsequenc
p3294
aVcompress
p3295
asI5841396
(lp3296
Vgps
p3297
aValmanac
p3298
aVprecis
p3299
aVsatellit
p3300
aVsignal
p3301
aVcarrier
p3302
aVoscil
p3303
aVfrequenc
p3304
aVlocal
p3305
aVremot
p3306
asI5490165
(lp3307
Vdemodul
p3308
aVreassign
p3309
aVemphas
p3310
aVelement
p3311
aVassign
p3312
aVavail
p3313
aVstrength
p3314
aVmaximum
p3315
aVsearcher
p3316
aVsignal
p3317
asI5663734
(lp3318
Vgps
p3319
aVsignal
p3320
aVpseudorang
p3321
aVsampl
p3322
aVdownconvert
p3323
aVsnapshot
p3324
aVreceiv
p3325
aVfrequenc
p3326
aVsatellit
p3327
aVdigit
p3328
asI6314409
(lp3329
Vrule
p3330
aVprotect
p3331
aVaccess
p3332
aVdata
p3333
aVportion
p3334
aVuseabl
p3335
aVconcern
p3336
aVenforc
p3337
aVright
p3338
aVonli
p3339
asI6418424
(lp3340
Vrecognit
p3341
aVpredict
p3342
aVuser
p3343
aVpattern
p3344
aVmultimedia
p3345
aVstream
p3346
aVinterfac
p3347
aVinexact
p3348
aVsystem
p3349
aVfeedback
p3350
asI7261690
(lp3351
Vdata
p3352
aVparamet
p3353
aVphysiolog
p3354
aVindic
p3355
aVcontextu
p3356
aVanalyt
p3357
aVstatus
p3358
aVleast
p3359
aVindividu
p3360
aVmonitor
p3361
asI6522875
(lp3362
Vweb
p3363
aVbrowser
p3364
aVgeograph
p3365
aVpage
p3366
aVnavig
p3367
aVmobil
p3368
aVarea
p3369
aVtown
p3370
aVunit
p3371
aVuser
p3372
asI6560461
(lp3373
Vpage
p3374
aVglobal
p3375
aVremot
p3376
aVsubscrib
p3377
aVcaller
p3378
aVpossess
p3379
aVreport
p3380
aVdivulg
p3381
aVunit
p3382
aVreceiv
p3383
astp3384
.