((lp0
I5143854
aI5288514
aI5324633
aI5384261
aI5405783
aI5412087
aI5424186
aI5445934
aI5451683
aI5474796
aI5489678
aI5510270
aI5512131
aI5527681
aI5545531
aI5547839
aI5556752
aI5571639
aI5578832
aI5585069
aI5593839
aI5599695
aI5605662
aI5624711
aI5631734
aI5632957
aI5633724
aI5639603
aI5653939
aI5677195
aI5681484
aI5744305
aI5755942
aI5776748
aI5800992
aI5807522
aI5837832
aI5843767
aI5846396
aI5846708
aI5849486
aI5856174
aI5858804
aI5863708
aI5874219
aI5900160
aI5922591
aI5959098
aI5985356
aI6004617
aI6040138
aI6043080
aI6045996
aI6051380
aI6103479
aI6156501
aI6168948
aI6180239
aI6197595
aI6776094
aI5565324
aI5593838
aI5674698
aI5942443
aI5961923
aI6054270
aI6274320
aI6767706
aI5658802
aI6030917
aI6130098
aI6340588
aI5620850
aI5872010
aI5958694
aI6355198
aI6540895
aI6696220
aI6429027
aI5674743
aI6060327
aI5800690
aI5842787
aI5858195
aI5869004
aI5876675
aI5922617
aI5932100
aI5948227
aI5957579
aI5965001
aI5976336
aI5989402
aI6007690
aI6012902
aI6046056
aI6068752
aI6167910
aI6174675
aI6235471
aI6251343
aI6440725
aI6632655
aI6103199
aI5779868
aI5863502
aI5880071
aI6264825
aI6377894
aI6773671
aI7344499
aI6133436
aI5965452
aI6066448
aI6330464
aI6327410
aI6355431
aI5885470
aI6540675
aI6923764
aI6541266
aI6126899
aI6123861
aI6517995
aI6281006
aI6023540
aI6207229
aI6251303
aI6306610
aI6322901
aI5726751
aI5922537
aI6207392
aI6379929
aI6210896
aI6287765
aI6613379
aI7041068
aI7198606
aI5900130
aI6334960
aI7074307
aI7366556
aI7424318
aI7460898
aI7467003
aI7471972
aI7613491
aI7637868
aI7651596
aI7657297
aI7715893
aI6645142
aI6743635
aI7711402
aI6862465
aI6931327
aI7081195
aI7133710
aI7134999
aI7192450
aI7226978
aI7276029
aI7364592
aI7583990
aI7599726
aI7632228
aI6738654
aI6491666
aI6656162
aI7041468
aI6576291
aI6710366
aI6878871
aI6485461
aI6656158
aI6656159
aI6669669
aI6692457
aI6699218
aI6723072
aI6749587
aI6768425
aI6830558
aI6960192
aI7018360
aI7029455
aI7137964
aI6965791
aI7494465
aI7519408
aI7591801
aI7640048
aI7654956
aI7713574
aI7618369
aI7299082
aI7044911
aI7108778
aI7379765
aI7615007
aI6616765
a(lp1
(lp2
I5143854
aa(lp3
I5288514
aI5324633
aI5384261
aI5405783
aI5412087
aI5424186
aI5445934
aI5451683
aI5474796
aI5489678
aI5510270
aI5512131
aI5527681
aI5545531
aI5547839
aI5556752
aI5571639
aI5578832
aI5585069
aI5593839
aI5599695
aI5605662
aI5624711
aI5631734
aI5632957
aI5633724
aI5639603
aI5653939
aI5677195
aI5681484
aI5744305
aI5755942
aI5776748
aI5800992
aI5807522
aI5837832
aI5843767
aI5846396
aI5846708
aI5849486
aI5856174
aI5858804
aI5863708
aI5874219
aI5900160
aI5922591
aI5959098
aI5985356
aI6004617
aI6040138
aI6043080
aI6045996
aI6051380
aI6103479
aI6156501
aI6168948
aI6180239
aI6197595
aI6776094
aa(lp4
I5565324
aI5593838
aI5674698
aI5942443
aI5961923
aI6054270
aI6274320
aI6767706
aI5658802
aI6030917
aI6130098
aI6340588
aI5620850
aI5872010
aI5958694
aI6355198
aI6540895
aI6696220
aI6429027
aI5674743
aI6060327
aI5800690
aI5842787
aI5858195
aI5869004
aI5876675
aI5922617
aI5932100
aI5948227
aI5957579
aI5965001
aI5976336
aI5989402
aI6007690
aI6012902
aI6046056
aI6068752
aI6167910
aI6174675
aI6235471
aI6251343
aI6440725
aI6632655
aI6103199
aI5779868
aI5863502
aI5880071
aI6264825
aI6377894
aI6773671
aI7344499
aI6133436
aI5965452
aI6066448
aI6330464
aI6327410
aI6355431
aI5885470
aI6540675
aI6923764
aI6541266
aI6126899
aI6123861
aI6517995
aI6281006
aa(lp5
I6023540
aI6207229
aI6251303
aI6306610
aI6322901
aI5726751
aI5922537
aI6207392
aI6379929
aI6210896
aI6287765
aI6613379
aI7041068
aI7198606
aI5900130
aI6334960
aI7074307
aI7366556
aI7424318
aI7460898
aI7467003
aI7471972
aI7613491
aI7637868
aI7651596
aI7657297
aI7715893
aI6645142
aI6743635
aI7711402
aI6862465
aI6931327
aI7081195
aI7133710
aI7134999
aI7192450
aI7226978
aI7276029
aI7364592
aI7583990
aI7599726
aI7632228
aI6738654
aI6491666
aI6656162
aI7041468
aa(lp6
I6576291
aI6710366
aI6878871
aI6485461
aI6656158
aI6656159
aI6669669
aI6692457
aI6699218
aI6723072
aI6749587
aI6768425
aI6830558
aI6960192
aI7018360
aI7029455
aI7137964
aI6965791
aI7494465
aI7519408
aI7591801
aI7640048
aI7654956
aI7713574
aI7618369
aI7299082
aI7044911
aI7108778
aI7379765
aI7615007
aI6616765
aa(lp7
(I5143854
I5288514
tp8
a(I5143854
I5324633
tp9
a(I5143854
I5384261
tp10
a(I5143854
I5405783
tp11
a(I5143854
I5412087
tp12
a(I5143854
I5424186
tp13
a(I5143854
I5445934
tp14
a(I5143854
I5451683
tp15
a(I5143854
I5474796
tp16
a(I5143854
I5489678
tp17
a(I5143854
I5510270
tp18
a(I5143854
I5512131
tp19
a(I5143854
I5527681
tp20
a(I5143854
I5545531
tp21
a(I5143854
I5547839
tp22
a(I5143854
I5556752
tp23
a(I5143854
I5571639
tp24
a(I5143854
I5578832
tp25
a(I5143854
I5585069
tp26
a(I5143854
I5593839
tp27
a(I5143854
I5599695
tp28
a(I5143854
I5605662
tp29
a(I5143854
I5624711
tp30
a(I5143854
I5631734
tp31
a(I5143854
I5632957
tp32
a(I5143854
I5633724
tp33
a(I5143854
I5639603
tp34
a(I5143854
I5653939
tp35
a(I5143854
I5677195
tp36
a(I5143854
I5681484
tp37
a(I5143854
I5744305
tp38
a(I5143854
I5755942
tp39
a(I5143854
I5776748
tp40
a(I5143854
I5800992
tp41
a(I5143854
I5807522
tp42
a(I5143854
I5837832
tp43
a(I5143854
I5843767
tp44
a(I5143854
I5846396
tp45
a(I5143854
I5846708
tp46
a(I5143854
I5849486
tp47
a(I5143854
I5856174
tp48
a(I5143854
I5858804
tp49
a(I5143854
I5863708
tp50
a(I5143854
I5874219
tp51
a(I5143854
I5900160
tp52
a(I5143854
I5922591
tp53
a(I5143854
I5959098
tp54
a(I5143854
I5985356
tp55
a(I5143854
I6004617
tp56
a(I5143854
I6040138
tp57
a(I5143854
I6043080
tp58
a(I5143854
I6045996
tp59
a(I5143854
I6051380
tp60
a(I5143854
I6103479
tp61
a(I5143854
I6156501
tp62
a(I5143854
I6168948
tp63
a(I5143854
I6180239
tp64
a(I5143854
I6197595
tp65
a(I5143854
I6776094
tp66
a(I5288514
I5412087
tp67
a(I5288514
I5545531
tp68
a(I5288514
I5556752
tp69
a(I5288514
I5565324
tp70
a(I5288514
I5571639
tp71
a(I5288514
I5593839
tp72
a(I5288514
I5624711
tp73
a(I5288514
I5874219
tp74
a(I5288514
I5985356
tp75
a(I5288514
I6004617
tp76
a(I5324633
I5412087
tp77
a(I5324633
I5585069
tp78
a(I5324633
I5593838
tp79
a(I5324633
I5624711
tp80
a(I5324633
I5674698
tp81
a(I5324633
I5681484
tp82
a(I5324633
I5755942
tp83
a(I5324633
I5846396
tp84
a(I5324633
I5858804
tp85
a(I5324633
I5863708
tp86
a(I5324633
I6045996
tp87
a(I5384261
I5545531
tp88
a(I5384261
I5585069
tp89
a(I5384261
I5653939
tp90
a(I5384261
I5681484
tp91
a(I5384261
I5755942
tp92
a(I5384261
I5846396
tp93
a(I5384261
I5846708
tp94
a(I5384261
I5856174
tp95
a(I5384261
I5858804
tp96
a(I5384261
I5863708
tp97
a(I5384261
I5874219
tp98
a(I5384261
I5922591
tp99
a(I5384261
I5942443
tp100
a(I5384261
I5959098
tp101
a(I5384261
I5985356
tp102
a(I5384261
I6004617
tp103
a(I5384261
I6043080
tp104
a(I5384261
I6103479
tp105
a(I5384261
I6168948
tp106
a(I5384261
I6197595
tp107
a(I5405783
I5510270
tp108
a(I5412087
I5585069
tp109
a(I5412087
I5681484
tp110
a(I5412087
I5755942
tp111
a(I5412087
I5807522
tp112
a(I5412087
I5846396
tp113
a(I5412087
I5858804
tp114
a(I5412087
I5863708
tp115
a(I5412087
I6045996
tp116
a(I5412087
I6103479
tp117
a(I5412087
I6156501
tp118
a(I5424186
I5578832
tp119
a(I5424186
I5585069
tp120
a(I5424186
I5681484
tp121
a(I5424186
I5755942
tp122
a(I5424186
I5846396
tp123
a(I5424186
I5856174
tp124
a(I5424186
I5858804
tp125
a(I5424186
I5863708
tp126
a(I5424186
I5874219
tp127
a(I5424186
I5922591
tp128
a(I5424186
I5959098
tp129
a(I5424186
I5961923
tp130
a(I5424186
I6043080
tp131
a(I5424186
I6168948
tp132
a(I5424186
I6197595
tp133
a(I5445934
I5744305
tp134
a(I5445934
I5800992
tp135
a(I5445934
I5807522
tp136
a(I5445934
I6045996
tp137
a(I5445934
I6054270
tp138
a(I5445934
I6274320
tp139
a(I5445934
I6767706
tp140
a(I5451683
I5624711
tp141
a(I5474796
I5658802
tp142
a(I5474796
I5807522
tp143
a(I5474796
I6030917
tp144
a(I5474796
I6130098
tp145
a(I5474796
I6156501
tp146
a(I5474796
I6340588
tp147
a(I5489678
I5959098
tp148
a(I5489678
I5961923
tp149
a(I5510270
I5807522
tp150
a(I5512131
I5620850
tp151
a(I5512131
I5776748
tp152
a(I5512131
I5872010
tp153
a(I5512131
I5900160
tp154
a(I5512131
I5958694
tp155
a(I5512131
I6180239
tp156
a(I5512131
I6355198
tp157
a(I5512131
I6540895
tp158
a(I5512131
I6696220
tp159
a(I5512131
I6776094
tp160
a(I5527681
I5837832
tp161
a(I5527681
I5959098
tp162
a(I5527681
I5961923
tp163
a(I5527681
I6004617
tp164
a(I5527681
I6054270
tp165
a(I5527681
I6156501
tp166
a(I5545531
I5807522
tp167
a(I5545531
I5874219
tp168
a(I5545531
I5959098
tp169
a(I5545531
I6429027
tp170
a(I5547839
I5674743
tp171
a(I5547839
I5961923
tp172
a(I5556752
I5807522
tp173
a(I5556752
I5874219
tp174
a(I5556752
I5959098
tp175
a(I5556752
I6060327
tp176
a(I5556752
I6156501
tp177
a(I5571639
I5874219
tp178
a(I5571639
I6040138
tp179
a(I5578832
I5807522
tp180
a(I5578832
I5874219
tp181
a(I5585069
I5800690
tp182
a(I5585069
I5842787
tp183
a(I5585069
I5858195
tp184
a(I5585069
I5869004
tp185
a(I5585069
I5876675
tp186
a(I5585069
I5922617
tp187
a(I5585069
I5932100
tp188
a(I5585069
I5942443
tp189
a(I5585069
I5948227
tp190
a(I5585069
I5957579
tp191
a(I5585069
I5958694
tp192
a(I5585069
I5965001
tp193
a(I5585069
I5976336
tp194
a(I5585069
I5989402
tp195
a(I5585069
I6007690
tp196
a(I5585069
I6012902
tp197
a(I5585069
I6043080
tp198
a(I5585069
I6046056
tp199
a(I5585069
I6068752
tp200
a(I5585069
I6130098
tp201
a(I5585069
I6167910
tp202
a(I5585069
I6174675
tp203
a(I5585069
I6235471
tp204
a(I5585069
I6251343
tp205
a(I5585069
I6440725
tp206
a(I5585069
I6632655
tp207
a(I5599695
I6103199
tp208
a(I5605662
I5779868
tp209
a(I5605662
I5800690
tp210
a(I5605662
I5807522
tp211
a(I5605662
I5849486
tp212
a(I5605662
I5858195
tp213
a(I5605662
I5863502
tp214
a(I5605662
I5869004
tp215
a(I5605662
I5880071
tp216
a(I5605662
I5932100
tp217
a(I5605662
I5942443
tp218
a(I5605662
I5965001
tp219
a(I5605662
I6046056
tp220
a(I5605662
I6051380
tp221
a(I5605662
I6264825
tp222
a(I5605662
I6340588
tp223
a(I5605662
I6377894
tp224
a(I5605662
I6440725
tp225
a(I5605662
I6773671
tp226
a(I5605662
I7344499
tp227
a(I5624711
I5961923
tp228
a(I5624711
I6133436
tp229
a(I5631734
I6103199
tp230
a(I5632957
I5849486
tp231
a(I5632957
I5932100
tp232
a(I5632957
I5965452
tp233
a(I5632957
I6045996
tp234
a(I5632957
I6051380
tp235
a(I5632957
I6066448
tp236
a(I5632957
I6264825
tp237
a(I5632957
I7344499
tp238
a(I5633724
I6330464
tp239
a(I5639603
I5961923
tp240
a(I5639603
I6327410
tp241
a(I5639603
I6340588
tp242
a(I5639603
I6355431
tp243
a(I5639603
I6429027
tp244
a(I5653939
I5849486
tp245
a(I5653939
I5922591
tp246
a(I5653939
I6051380
tp247
a(I5653939
I6168948
tp248
a(I5653939
I6197595
tp249
a(I5653939
I6632655
tp250
a(I5677195
I6054270
tp251
a(I5677195
I6133436
tp252
a(I5681484
I5885470
tp253
a(I5681484
I5932100
tp254
a(I5681484
I6007690
tp255
a(I5681484
I6167910
tp256
a(I5681484
I6235471
tp257
a(I5681484
I6540675
tp258
a(I5681484
I6540895
tp259
a(I5681484
I6923764
tp260
a(I5744305
I6054270
tp261
a(I5755942
I6007690
tp262
a(I5755942
I6541266
tp263
a(I5755942
I6632655
tp264
a(I5776748
I6696220
tp265
a(I5776748
I6776094
tp266
a(I5800992
I6156501
tp267
a(I5800992
I6274320
tp268
a(I5807522
I5922617
tp269
a(I5807522
I6054270
tp270
a(I5837832
I6767706
tp271
a(I5843767
I6168948
tp272
a(I5843767
I6197595
tp273
a(I5843767
I6264825
tp274
a(I5843767
I6440725
tp275
a(I5846396
I6012902
tp276
a(I5846708
I5922617
tp277
a(I5846708
I6767706
tp278
a(I5849486
I6051380
tp279
a(I5856174
I6440725
tp280
a(I5856174
I6540895
tp281
a(I5856174
I6632655
tp282
a(I5858804
I6126899
tp283
a(I5863708
I6327410
tp284
a(I5863708
I6355431
tp285
a(I5863708
I6429027
tp286
a(I5874219
I6429027
tp287
a(I5900160
I6123861
tp288
a(I5900160
I6517995
tp289
a(I5900160
I6696220
tp290
a(I5900160
I6776094
tp291
a(I5922591
I6440725
tp292
a(I5922591
I6540895
tp293
a(I6043080
I6440725
tp294
a(I6043080
I6767706
tp295
a(I6051380
I6281006
tp296
a(I6051380
I6327410
tp297
a(I6051380
I6355431
tp298
a(I6168948
I6440725
tp299
a(I6180239
I6696220
tp300
a(I6180239
I6776094
tp301
a(I6197595
I6440725
tp302
a(I5565324
I5961923
tp303
a(I5565324
I6023540
tp304
a(I5565324
I6207229
tp305
a(I5565324
I6251303
tp306
a(I5565324
I6306610
tp307
a(I5565324
I6322901
tp308
a(I5565324
I6327410
tp309
a(I5565324
I6340588
tp310
a(I5565324
I6355431
tp311
a(I5565324
I6429027
tp312
a(I5593838
I5726751
tp313
a(I5593838
I5779868
tp314
a(I5593838
I5800690
tp315
a(I5593838
I5842787
tp316
a(I5593838
I5869004
tp317
a(I5593838
I5876675
tp318
a(I5593838
I5880071
tp319
a(I5593838
I5942443
tp320
a(I5593838
I5948227
tp321
a(I5593838
I5957579
tp322
a(I5593838
I5958694
tp323
a(I5593838
I5965001
tp324
a(I5593838
I5976336
tp325
a(I5593838
I5989402
tp326
a(I5593838
I6007690
tp327
a(I5593838
I6046056
tp328
a(I5593838
I6051380
tp329
a(I5593838
I6068752
tp330
a(I5593838
I6167910
tp331
a(I5593838
I6174675
tp332
a(I5593838
I6235471
tp333
a(I5593838
I6251343
tp334
a(I5593838
I6632655
tp335
a(I5674698
I5922537
tp336
a(I5674698
I6207229
tp337
a(I5674698
I6207392
tp338
a(I5674698
I6251303
tp339
a(I5674698
I6306610
tp340
a(I5674698
I6322901
tp341
a(I5674698
I6429027
tp342
a(I5942443
I6068752
tp343
a(I5942443
I6235471
tp344
a(I5942443
I6632655
tp345
a(I5961923
I6340588
tp346
a(I5658802
I6377894
tp347
a(I5658802
I6773671
tp348
a(I5620850
I6264825
tp349
a(I5620850
I6355198
tp350
a(I5872010
I6103199
tp351
a(I5872010
I6379929
tp352
a(I5958694
I6068752
tp353
a(I5958694
I6235471
tp354
a(I5958694
I6632655
tp355
a(I5674743
I5932100
tp356
a(I5674743
I6210896
tp357
a(I5674743
I6235471
tp358
a(I5674743
I6287765
tp359
a(I6060327
I6281006
tp360
a(I6060327
I6613379
tp361
a(I6060327
I7041068
tp362
a(I6060327
I7198606
tp363
a(I5800690
I5900130
tp364
a(I5800690
I5976336
tp365
a(I5800690
I6068752
tp366
a(I5800690
I6167910
tp367
a(I5800690
I6174675
tp368
a(I5800690
I6251343
tp369
a(I5800690
I6540895
tp370
a(I5800690
I6632655
tp371
a(I5800690
I6767706
tp372
a(I5842787
I6068752
tp373
a(I5842787
I6167910
tp374
a(I5842787
I6235471
tp375
a(I5842787
I6251343
tp376
a(I5842787
I6440725
tp377
a(I5842787
I6632655
tp378
a(I5858195
I6168948
tp379
a(I5858195
I6197595
tp380
a(I5858195
I6632655
tp381
a(I5869004
I6068752
tp382
a(I5869004
I6167910
tp383
a(I5869004
I6251343
tp384
a(I5869004
I6440725
tp385
a(I5869004
I6540895
tp386
a(I5869004
I6632655
tp387
a(I5876675
I6068752
tp388
a(I5876675
I6167910
tp389
a(I5876675
I6251343
tp390
a(I5876675
I6632655
tp391
a(I5876675
I7344499
tp392
a(I5932100
I6540895
tp393
a(I5948227
I6068752
tp394
a(I5948227
I6632655
tp395
a(I5948227
I6767706
tp396
a(I5957579
I6068752
tp397
a(I5957579
I6632655
tp398
a(I5965001
I6632655
tp399
a(I5965001
I6767706
tp400
a(I5976336
I6168948
tp401
a(I5976336
I6197595
tp402
a(I5976336
I6632655
tp403
a(I5989402
I6632655
tp404
a(I6007690
I6632655
tp405
a(I6007690
I6767706
tp406
a(I6012902
I6632655
tp407
a(I6046056
I6334960
tp408
a(I6046056
I6632655
tp409
a(I6046056
I6696220
tp410
a(I6068752
I6440725
tp411
a(I6235471
I6632655
tp412
a(I6235471
I6767706
tp413
a(I6103199
I6767706
tp414
a(I5779868
I5900130
tp415
a(I5779868
I5976336
tp416
a(I5779868
I6068752
tp417
a(I5779868
I6167910
tp418
a(I5779868
I6174675
tp419
a(I5779868
I6251343
tp420
a(I5779868
I6632655
tp421
a(I5863502
I6440725
tp422
a(I5863502
I6632655
tp423
a(I5880071
I6068752
tp424
a(I5880071
I6167910
tp425
a(I5880071
I6251343
tp426
a(I5880071
I6440725
tp427
a(I5880071
I6540895
tp428
a(I5880071
I6632655
tp429
a(I6264825
I7074307
tp430
a(I6264825
I7366556
tp431
a(I6264825
I7424318
tp432
a(I6264825
I7460898
tp433
a(I6264825
I7467003
tp434
a(I6264825
I7471972
tp435
a(I6264825
I7613491
tp436
a(I6264825
I7637868
tp437
a(I6264825
I7651596
tp438
a(I6264825
I7657297
tp439
a(I6264825
I7715893
tp440
a(I6377894
I6645142
tp441
a(I6377894
I6743635
tp442
a(I6773671
I7041068
tp443
a(I6773671
I7198606
tp444
a(I6066448
I7074307
tp445
a(I6066448
I7471972
tp446
a(I6066448
I7613491
tp447
a(I6066448
I7637868
tp448
a(I6066448
I7657297
tp449
a(I6066448
I7711402
tp450
a(I6066448
I7715893
tp451
a(I6330464
I6862465
tp452
a(I6330464
I6931327
tp453
a(I6330464
I7081195
tp454
a(I6330464
I7133710
tp455
a(I6330464
I7134999
tp456
a(I6330464
I7192450
tp457
a(I6330464
I7226978
tp458
a(I6330464
I7276029
tp459
a(I6330464
I7364592
tp460
a(I6330464
I7471972
tp461
a(I6330464
I7583990
tp462
a(I6330464
I7599726
tp463
a(I6330464
I7613491
tp464
a(I6330464
I7632228
tp465
a(I6330464
I7637868
tp466
a(I6330464
I7651596
tp467
a(I6330464
I7657297
tp468
a(I6330464
I7711402
tp469
a(I5885470
I6068752
tp470
a(I5885470
I6251343
tp471
a(I5885470
I6540895
tp472
a(I5885470
I6632655
tp473
a(I6540675
I6738654
tp474
a(I6540675
I6923764
tp475
a(I6540675
I7041068
tp476
a(I6540675
I7198606
tp477
a(I6126899
I6540675
tp478
a(I6126899
I6923764
tp479
a(I6123861
I6491666
tp480
a(I6123861
I6540675
tp481
a(I6123861
I6656162
tp482
a(I6123861
I6923764
tp483
a(I6281006
I7041068
tp484
a(I6281006
I7041468
tp485
a(I6281006
I7198606
tp486
a(I6023540
I6327410
tp487
a(I6023540
I6355431
tp488
a(I6023540
I6429027
tp489
a(I6207229
I6576291
tp490
a(I6207229
I6710366
tp491
a(I6322901
I6710366
tp492
a(I6322901
I6878871
tp493
a(I5726751
I5932100
tp494
a(I5726751
I6485461
tp495
a(I5726751
I6540895
tp496
a(I5726751
I6656158
tp497
a(I5726751
I6656159
tp498
a(I5726751
I6669669
tp499
a(I5726751
I6692457
tp500
a(I5726751
I6699218
tp501
a(I5726751
I6723072
tp502
a(I5726751
I6749587
tp503
a(I5726751
I6768425
tp504
a(I5726751
I6830558
tp505
a(I5726751
I6960192
tp506
a(I5726751
I7018360
tp507
a(I5726751
I7029455
tp508
a(I5726751
I7137964
tp509
a(I6207392
I6710366
tp510
a(I6613379
I6965791
tp511
a(I6613379
I7081195
tp512
a(I6613379
I7192450
tp513
a(I6613379
I7276029
tp514
a(I6613379
I7366556
tp515
a(I6613379
I7424318
tp516
a(I6613379
I7460898
tp517
a(I6613379
I7467003
tp518
a(I6613379
I7471972
tp519
a(I6613379
I7494465
tp520
a(I6613379
I7519408
tp521
a(I6613379
I7583990
tp522
a(I6613379
I7591801
tp523
a(I6613379
I7599726
tp524
a(I6613379
I7613491
tp525
a(I6613379
I7632228
tp526
a(I6613379
I7640048
tp527
a(I6613379
I7654956
tp528
a(I6613379
I7711402
tp529
a(I6613379
I7713574
tp530
a(I6613379
I7715893
tp531
a(I7041068
I7618369
tp532
a(I7198606
I7618369
tp533
a(I5900130
I7041068
tp534
a(I5900130
I7198606
tp535
a(I6334960
I6696220
tp536
a(I7074307
I7299082
tp537
a(I7074307
I7519408
tp538
a(I7074307
I7583990
tp539
a(I7074307
I7591801
tp540
a(I7074307
I7599726
tp541
a(I7074307
I7618369
tp542
a(I7074307
I7632228
tp543
a(I7074307
I7637868
tp544
a(I7074307
I7640048
tp545
a(I7074307
I7654956
tp546
a(I7074307
I7657297
tp547
a(I7074307
I7713574
tp548
a(I7074307
I7715893
tp549
a(I7366556
I7654956
tp550
a(I7424318
I7640048
tp551
a(I7424318
I7654956
tp552
a(I7460898
I7640048
tp553
a(I7460898
I7654956
tp554
a(I7467003
I7640048
tp555
a(I7467003
I7654956
tp556
a(I7471972
I7715893
tp557
a(I6645142
I6768425
tp558
a(I6645142
I7044911
tp559
a(I6743635
I7654956
tp560
a(I6862465
I7074307
tp561
a(I6862465
I7081195
tp562
a(I6862465
I7108778
tp563
a(I6862465
I7299082
tp564
a(I6862465
I7364592
tp565
a(I6862465
I7366556
tp566
a(I6862465
I7379765
tp567
a(I6862465
I7424318
tp568
a(I6862465
I7460898
tp569
a(I6862465
I7467003
tp570
a(I6862465
I7494465
tp571
a(I6862465
I7519408
tp572
a(I6862465
I7591801
tp573
a(I6862465
I7613491
tp574
a(I6862465
I7615007
tp575
a(I6862465
I7618369
tp576
a(I6862465
I7632228
tp577
a(I6862465
I7637868
tp578
a(I6862465
I7640048
tp579
a(I6862465
I7657297
tp580
a(I6862465
I7711402
tp581
a(I6862465
I7713574
tp582
a(I6862465
I7715893
tp583
a(I6931327
I7299082
tp584
a(I6931327
I7366556
tp585
a(I6931327
I7424318
tp586
a(I6931327
I7460898
tp587
a(I6931327
I7467003
tp588
a(I6931327
I7519408
tp589
a(I6931327
I7583990
tp590
a(I6931327
I7591801
tp591
a(I6931327
I7599726
tp592
a(I6931327
I7615007
tp593
a(I6931327
I7618369
tp594
a(I6931327
I7632228
tp595
a(I6931327
I7640048
tp596
a(I6931327
I7715893
tp597
a(I7081195
I7299082
tp598
a(I7081195
I7618369
tp599
a(I7081195
I7657297
tp600
a(I7081195
I7715893
tp601
a(I7134999
I7299082
tp602
a(I7134999
I7519408
tp603
a(I7134999
I7583990
tp604
a(I7134999
I7591801
tp605
a(I7134999
I7599726
tp606
a(I7134999
I7613491
tp607
a(I7134999
I7618369
tp608
a(I7134999
I7632228
tp609
a(I7134999
I7640048
tp610
a(I7134999
I7651596
tp611
a(I7134999
I7715893
tp612
a(I7192450
I7299082
tp613
a(I7192450
I7583990
tp614
a(I7192450
I7599726
tp615
a(I7192450
I7613491
tp616
a(I7192450
I7618369
tp617
a(I7192450
I7632228
tp618
a(I7226978
I7299082
tp619
a(I7226978
I7618369
tp620
a(I7226978
I7713574
tp621
a(I7276029
I7519408
tp622
a(I7276029
I7615007
tp623
a(I7276029
I7618369
tp624
a(I7276029
I7640048
tp625
a(I7276029
I7715893
tp626
a(I6491666
I6616765
tp627
a(dp628
I6723072
(lp629
Vplunger
p630
aVreservoir
p631
aVassembl
p632
aVcharg
p633
aVexit
p634
aVport
p635
aVlength
p636
aVmemori
p637
aVuncharg
p638
aVpatient
p639
asI7074307
(lp640
Vanalyt
p641
aVelectrochem
p642
aVelectrod
p643
aVauxiliari
p644
aVinterfer
p645
aVoxygen
p646
aVmeasur
p647
aVenzym
p648
aVadvantag
p649
aVinaccuraci
p650
asI5837832
(lp651
Vprobe
p652
aVexact
p653
aVsequenc
p654
aVarray
p655
aVcomplementari
p656
aVnucleic
p657
aVchip
p658
aVrefer
p659
aVoligonucleotid
p660
aVacid
p661
asI7299082
(lp662
Vanalyt
p663
aVcalibr
p664
aVconcentr
p665
aVmeasur
p666
aVbodili
p667
aVsite
p668
aVfinger
p669
aVblood
p670
aVdevic
p671
aVoff
p672
asI5489678
(lp673
Vphotolabil
p674
aVtechniqu
p675
aVphotoremov
p676
aVprotect
p677
aVgroup
p678
aVchemic
p679
aVnucleosid
p680
aVlinker
p681
aVchemistri
p682
aVphotolithographi
p683
asI5556752
(lp684
Vlibrari
p685
aVstrand
p686
aVunimolecular
p687
aVoligonucleotid
p688
aVdoubl
p689
aVprobe
p690
aVdiscoveri
p691
aVscreen
p692
aVdrug
p693
aVrestrict
p694
asI6491666
(lp695
Vapparati
p696
aVmolecul
p697
aVmicrochip
p698
aVdrug
p699
aVsalin
p700
aVintraven
p701
aVcarrier
p702
aVreleas
p703
aVfluid
p704
aVdeliveri
p705
asI5989402
(lp706
Vmicrofluid
p707
aVmonitor
p708
aVcontrol
p709
aVancillari
p710
aVsystem
p711
aVinterfac
p712
aVenvironment
p713
aVperform
p714
aVconjunct
p715
aVtypic
p716
asI5885470
(lp717
Vmicrofabr
p718
aVbiochemistri
p719
aVbiotechnolog
p720
aVpolymer
p721
aVbiochem
p722
aVmicrofluid
p723
aVchemistri
p724
aVanalys
p725
aVfield
p726
aVfluidic
p727
asI5726751
(lp728
Vcytomet
p729
aVphotodetector
p730
aVangl
p731
aVflow
p732
aVgroov
p733
aVreflect
p734
aVcollect
p735
aVlarg
p736
aVscatter
p737
aVsmall
p738
asI5800992
(lp739
Vbiolog
p740
aVmacromolecul
p741
aVsequenc
p742
aVfingerprint
p743
aVclassif
p744
aVreagent
p745
aVrecognit
p746
aVnucleic
p747
aVtypic
p748
aVmap
p749
asI7460898
(lp750
Vanalyt
p751
aVsensor
p752
aVcontinu
p753
aVmeasur
p754
aVdata
p755
aVsuch
p756
aVglucos
p757
aVelectrod
p758
aVbackground
p759
aVsuspend
p760
asI6281006
(lp761
Vaffin
p762
aVligand
p763
aVelectrochem
p764
aVassay
p765
aVreceptor
p766
aVbind
p767
aVdetect
p768
aVsystem
p769
aVfor
p770
asI5755942
(lp771
Varray
p772
aVsampl
p773
aVmicrolaboratori
p774
aVtest
p775
aVmicroelectron
p776
aVchannel
p777
aVlight
p778
aVsynthes
p779
aVsynthesi
p780
aVpartit
p781
asI5874219
(lp782
Vbiolog
p783
aVchip
p784
aVprobe
p785
aVplate
p786
aVtest
p787
aVassay
p788
aVconcurr
p789
aVwell
p790
aVmolecul
p791
aVtarget
p792
asI7041068
(lp793
Vsampl
p794
aVmodul
p795
aVlancet
p796
aVmay
p797
aVcartridg
p798
aVpenetr
p799
aVtissu
p800
aVanalyz
p801
aVoption
p802
aVdevic
p803
asI5653939
(lp804
Vsite
p805
aVtest
p806
aVmolecular
p807
aVstructur
p808
aVprobe
p809
aVsubstanc
p810
aVtarget
p811
aVsampl
p812
aVbond
p813
aVmonolith
p814
asI6051380
(lp815
Vmicroloc
p816
aVreaction
p817
aVanalyt
p818
aVspecif
p819
aVbiolog
p820
aVmolecular
p821
aVreactant
p822
aVentiti
p823
aVstringenc
p824
aVnucleic
p825
asI7715893
(lp826
Vanalyt
p827
aVcalibr
p828
aVbaselin
p829
aVsensor
p830
aVmeasur
p831
aVcontinu
p832
aVsensit
p833
aVsuch
p834
aVglucos
p835
aVsuspend
p836
asI5571639
(lp837
Vdesign
p838
aVcomput
p839
aVarray
p840
aVaspect
p841
aV104
p842
aVbenefici
p843
aVlithograph
p844
aV110
p845
aVlayout
p846
aVdna
p847
asI5424186
(lp848
Vpredefin
p849
aVirradi
p850
aVsubstrat
p851
aVoligonucleotid
p852
aVnucleotid
p853
aVregion
p854
aVfirst
p855
aVdivers
p856
aVimmobil
p857
aVstep
p858
asI5545531
(lp859
Vbiolog
p860
aVchip
p861
aVprobe
p862
aVplate
p863
aVtest
p864
aVconcurr
p865
aVwell
p866
aVmolecul
p867
aVtarget
p868
aVreaction
p869
asI6960192
(lp870
Vfluid
p871
aVperson
p872
aVtransport
p873
aVreservoir
p874
aVhous
p875
aVskin
p876
aVdistal
p877
aVdevic
p878
aVpenetr
p879
aVexit
p880
asI5288514
(lp881
Vsynthesi
p882
aVcombinatori
p883
aVbenzodiazepin
p884
aVlibrari
p885
aVcompound
p886
aVimport
p887
aVsolid
p888
aVnonpolymer
p889
aVderiv
p890
aVphase
p891
asI5932100
(lp892
Vmicrofabr
p893
aVextract
p894
aVstream
p895
aVdifferenti
p896
aVsampl
p897
aVparticl
p898
aVpicolit
p899
aVdesir
p900
aVdiffus
p901
aVtransport
p902
asI5384261
(lp903
Vmethodolgi
p904
aVsubstrat
p905
aVpolym
p906
aV409
p907
aV407
p908
aVchannel
p909
aV403
p910
aV401
p911
aVlarg
p912
aVarray
p913
asI6040138
(lp914
sI5985356
(lp915
Vmateri
p916
aVprepar
p917
aVdivers
p918
aVproperti
p919
aVsolid
p920
aVpredefin
p921
aVorgan
p922
aVinorgan
p923
aVexampl
p924
aVsynthesi
p925
asI5863502
(lp926
Vreaction
p927
aVfluid
p928
aVchannel
p929
aVexchang
p930
aVflow
p931
aVparallel
p932
aVway
p933
aVsuch
p934
aVchamber
p935
aVcassett
p936
asI5578832
(lp937
Vexcit
p938
aVsampl
p939
aVradiat
p940
aVimag
p941
aVlabel
p942
aVwavelength
p943
aVcollect
p944
aVimmobil
p945
aVoptic
p946
aVmarker
p947
asI6429027
(lp948
Vmicrospher
p949
aVarray
p950
aVcomposit
p951
aVdecod
p952
aVsensor
p953
aVutil
p954
aVrelat
p955
aVinvent
p956
aVmethod
p957
aVfor
p958
asI7133710
(lp959
Vglucos
p960
aVanalyz
p961
aVbiolog
p962
aVcompact
p963
aVprefer
p964
aVnear
p965
aVnoninvas
p966
aVparamet
p967
aVspectroscopi
p968
aVcontinu
p969
asI5405783
(lp970
Vtechniqu
p971
aVphotolabil
p972
aVsynthesi
p973
aVmonom
p974
aVsolid
p975
aVphotolithograph
p976
aVarray
p977
aVpolym
p978
aVchemistri
p979
aVphotolithographi
p980
asI7632228
(lp981
Vbiointerfac
p982
aVimplant
p983
aVmembran
p984
aVdomain
p985
aVdevic
p986
aVcell
p987
aVbarrier
p988
aVinterfer
p989
aVdeliveri
p990
aVformat
p991
asI6767706
(lp992
Vmolecul
p993
aVhybrid
p994
aVpolynucleotid
p995
aVprotein
p996
aVmicrofabr
p997
aVdna
p998
aVdetect
p999
aVantibodi
p1000
aVantigen
p1001
aVreport
p1002
asI6710366
(lp1003
Vnanocomposit
p1004
aVsup
p1005
aVmateri
p1006
aVmatrix
p1007
aVlambda
p1008
aVquantum
p1009
aVnonlinear
p1010
aVgamma
p1011
aVdot
p1012
aVrefract
p1013
asI6540895
(lp1014
Vmicrofabr
p1015
aVbranch
p1016
aVchannel
p1017
aVcell
p1018
aVsort
p1019
aVdetect
p1020
aVregion
p1021
aVanalysi
p1022
aVreport
p1023
aVpoint
p1024
asI6330464
(lp1025
Vindic
p1026
aVanalyt
p1027
aVmolecul
p1028
aVradiat
p1029
aVsensor
p1030
aVsourc
p1031
aVbodi
p1032
aVinductor
p1033
aVemit
p1034
aVconcentr
p1035
asI5976336
(lp1036
Vmicrofluid
p1037
aVgeometri
p1038
aVincorpor
p1039
aVborn
p1040
aVmateri
p1041
aVchannel
p1042
aVthese
p1043
aVthroughput
p1044
aVdevic
p1045
aVimprov
p1046
asI7226978
(lp1047
Vglucos
p1048
aVmembran
p1049
aVmatrix
p1050
aVphotomicroscopi
p1051
aVpolym
p1052
aVmicrodomain
p1053
aVthroughout
p1054
aVimplant
p1055
aVdispers
p1056
aVtransport
p1057
asI6133436
(lp1058
Vbead
p1059
aVnucleic
p1060
aVsolid
p1061
aVchemistri
p1062
aVacid
p1063
aVimmobil
p1064
aVconjug
p1065
aVsupport
p1066
aVpractition
p1067
aVnovel
p1068
asI6066448
(lp1069
Velectrochemiluminesc
p1070
aVmulti
p1071
aVtest
p1072
aVspecif
p1073
aVarray
p1074
aVreagent
p1075
aVmultipli
p1076
aVexcit
p1077
aVdomain
p1078
aVprocedur
p1079
asI5620850
(lp1080
Vbiolog
p1081
aVarticl
p1082
aVpartner
p1083
aVmolecul
p1084
aVbind
p1085
aVchelat
p1086
aVcoordin
p1087
aVadher
p1088
aVpolyamino
p1089
aVion
p1090
asI7198606
(lp1091
Vpenetr
p1092
aVcartridg
p1093
aVtissu
p1094
aVmember
p1095
aVanalyt
p1096
aVdriver
p1097
aVcouplabl
p1098
aVsingl
p1099
aVfluid
p1100
aVbodi
p1101
asI6692457
(lp1102
Vdiaphragm
p1103
aVflow
p1104
aVsensor
p1105
aVpatient
p1106
aVassembl
p1107
aVpath
p1108
aVchamber
p1109
aVexit
p1110
aVsurfac
p1111
aVcondit
p1112
asI5510270
(lp1113
Vnucleotid
p1114
aVpredefin
p1115
aVimmobil
p1116
aVoligonucleotid
p1117
aVregion
p1118
aVirradi
p1119
aVsubstrat
p1120
aVscreen
p1121
aVdivers
p1122
aVpart
p1123
asI6440725
(lp1124
Velut
p1125
aVsampl
p1126
aVcartridg
p1127
aV122
p1128
aVanalyt
p1129
aVflow
p1130
aVfluid
p1131
aVpath
p1132
aVcompon
p1133
aVthrough
p1134
asI5527681
(lp1135
Vsystemat
p1136
aVpolym
p1137
aVphotolabil
p1138
aVsynthesi
p1139
aVchemic
p1140
aVsubstitut
p1141
aVtarget
p1142
aVarray
p1143
aVchemistri
p1144
aVphotolithographi
p1145
asI7637868
(lp1146
Vimplant
p1147
aVbead
p1148
aVbeliev
p1149
aVcomposit
p1150
aVmateri
p1151
aVdevic
p1152
aVmatrix
p1153
aVhollow
p1154
aVmix
p1155
aVincorpor
p1156
asI5677195
(lp1157
Vmethodolgi
p1158
aVsubstrat
p1159
aVpolym
p1160
aV409
p1161
aV407
p1162
aVchannel
p1163
aV403
p1164
aV401
p1165
aVcombinatori
p1166
aVarray
p1167
asI5965452
(lp1168
Vsampl
p1169
aVhold
p1170
aVelectrod
p1171
aVcircuit
p1172
aVtimeshar
p1173
aVarray
p1174
aVbiolog
p1175
aVmultiplex
p1176
aVmatrix
p1177
aVcapacitor
p1178
asI5512131
(lp1179
Vstamp
p1180
aVsam
p1181
aVpattern
p1182
aVspeci
p1183
aVmonolay
p1184
aVsurfac
p1185
aVmicrostamp
p1186
aVmateri
p1187
aVaddit
p1188
aVself
p1189
asI7599726
(lp1190
Vanalyt
p1191
aVcalibr
p1192
aVsensor
p1193
aVevalu
p1194
aVdata
p1195
aVrefer
p1196
aVclinic
p1197
aVretrospect
p1198
aVupdat
p1199
aVaccept
p1200
asI6878871
(lp1201
Vnanostructur
p1202
aVnanocomposit
p1203
aVphotovolta
p1204
aVarchitectur
p1205
aVpopul
p1206
aVdevic
p1207
aVplanar
p1208
aVphotoact
p1209
aVnanocryst
p1210
aVfeatur
p1211
asI6656158
(lp1212
Vreservoir
p1213
aVscrew
p1214
aVplunger
p1215
aVlead
p1216
aVlength
p1217
aVelement
p1218
aVexit
p1219
aVuncharg
p1220
aVwall
p1221
aVperipheri
p1222
asI6103199
(lp1223
Vmicrofluid
p1224
aVsampl
p1225
aVarray
p1226
aVelectroflow
p1227
aVplanar
p1228
aVprocess
p1229
aVnetwork
p1230
aVconduct
p1231
aVcaviti
p1232
aVchannel
p1233
asI7583990
(lp1234
Vanalyt
p1235
aVcalibr
p1236
aVsensor
p1237
aVevalu
p1238
aVdata
p1239
aVrefer
p1240
aVclinic
p1241
aVretrospect
p1242
aVupdat
p1243
aVaccept
p1244
asI6656162
(lp1245
Vstent
p1246
aVdrug
p1247
aVreleas
p1248
aVreservoir
p1249
aVimplant
p1250
aVmore
p1251
aVdeliveri
p1252
aVtwo
p1253
aVleast
p1254
aVdevic
p1255
asI6576291
(lp1256
Vnanocrystallit
p1257
aVphotoluminesc
p1258
aVcan
p1259
aVsemiconduct
p1260
aVquantum
p1261
aVpopul
p1262
aVnarrow
p1263
aVemiss
p1264
aVsalt
p1265
aVeffici
p1266
asI6696220
(lp1267
Vreconvers
p1268
aVcolor
p1269
aVviewabl
p1270
aVimprint
p1271
aVnano
p1272
aVtemplat
p1273
aVmicro
p1274
aVsuit
p1275
aVroom
p1276
aVphotograph
p1277
asI7711402
(lp1278
Vanalyt
p1279
aVmicroarchitectur
p1280
aVdevic
p1281
aVimplant
p1282
aVmonitor
p1283
aVglucos
p1284
aVlevel
p1285
aVallow
p1286
aVdetermin
p1287
aVblood
p1288
asI5942443
(lp1289
Vscreen
p1290
aVthroughput
p1291
aVassay
p1292
aVmicroscal
p1293
aVbiochem
p1294
aVmicrofluid
p1295
aVfluidic
p1296
aVhigh
p1297
aVvarieti
p1298
aVdevic
p1299
asI7137964
(lp1300
Vfluid
p1301
aVexit
p1302
aVflow
p1303
aVdevic
p1304
aVinstruct
p1305
aVdeliveri
p1306
aVinfus
p1307
aVlocal
p1308
aVport
p1309
aVprocessor
p1310
asI5585069
(lp1311
Varray
p1312
aVsampl
p1313
aVmicrolaboratori
p1314
aVtest
p1315
aVfluidic
p1316
aVmicroelectron
p1317
aVclinic
p1318
aVchannel
p1319
aVlight
p1320
aVsynthes
p1321
asI7519408
(lp1322
Vglucos
p1323
aVsensor
p1324
aVcontinu
p1325
aVstream
p1326
aVcalibr
p1327
aVintegr
p1328
aVreceiv
p1329
aVmonitor
p1330
aVsingl
p1331
aVpoint
p1332
asI5744305
(lp1333
Vtechniqu
p1334
aVphotoremov
p1335
aVphotolabil
p1336
aVchemic
p1337
aVlinker
p1338
aVchemistri
p1339
aVphotolithographi
p1340
aVprotect
p1341
aVstrategi
p1342
aVdivers
p1343
asI5658802
(lp1344
Varray
p1345
aVminiatur
p1346
aVdrop
p1347
aVdispens
p1348
aVsubstrat
p1349
aVthousand
p1350
aVcentimet
p1351
aVsmall
p1352
aVtwenti
p1353
aVimmunoassay
p1354
asI5846708
(lp1355
Vsite
p1356
aVtest
p1357
aVmolecular
p1358
aVstructur
p1359
aVprobe
p1360
aVsubstanc
p1361
aVtarget
p1362
aVsampl
p1363
aVbond
p1364
aVmonolith
p1365
asI6776094
(lp1366
Vmonolay
p1367
aVself
p1368
aVsurfac
p1369
aVarticl
p1370
aVprint
p1371
aVmolecular
p1372
aVassembl
p1373
aVstamp
p1374
aVmicrocontact
p1375
aVnonplanar
p1376
asI6068752
(lp1377
Vmicrofluid
p1378
aVgeometri
p1379
aVincorpor
p1380
aVborn
p1381
aVmateri
p1382
aVchannel
p1383
aVthese
p1384
aVthroughput
p1385
aVdevic
p1386
aVimprov
p1387
asI6023540
(lp1388
sI6965791
(lp1389
Vbiosensor
p1390
aVprobe
p1391
aVsensor
p1392
aVimplant
p1393
aVdue
p1394
aVsubcutan
p1395
aVinterstiti
p1396
aVpercutan
p1397
aVirrit
p1398
aVinfer
p1399
asI5633724
(lp1400
Vtir
p1401
aVevanesc
p1402
aVarray
p1403
aVlight
p1404
aVsubstanc
p1405
aVtarget
p1406
aVexcit
p1407
aVdetector
p1408
aVemit
p1409
aVreflect
p1410
asI6616765
(lp1411
Vcoat
p1412
aVpattern
p1413
aVstent
p1414
aVprosthesi
p1415
aVdisclos
p1416
aVdeposit
p1417
aVonto
p1418
aVexampl
p1419
aVapparatus
p1420
aVform
p1421
asI5961923
(lp1422
Vmatrix
p1423
aVmemori
p1424
aVmatric
p1425
aVassay
p1426
aVmacromolecul
p1427
aVbiolog
p1428
aVcombin
p1429
aVimmunoassay
p1430
aVmolecul
p1431
aVmateri
p1432
asI7640048
(lp1433
Vanalyt
p1434
aVhost
p1435
aVtranscutan
p1436
aVglucos
p1437
aVmeasur
p1438
aVpresent
p1439
aVrelat
p1440
aVinvent
p1441
aVsensor
p1442
aVgeneral
p1443
asI5965001
(lp1444
Vmicrofluid
p1445
aVmultiplex
p1446
aVelectroosmot
p1447
aVelectrod
p1448
aVvoltag
p1449
aVelectrokinet
p1450
aVfluid
p1451
aVvari
p1452
aVelectrophoret
p1453
aVforc
p1454
asI5674698
(lp1455
sI6632655
(lp1456
Vmicrofluid
p1457
aVflowabl
p1458
aVassay
p1459
aVarray
p1460
aVmicroparticl
p1461
aVparticl
p1462
aVhydrodynam
p1463
aVfix
p1464
aVsystem
p1465
aVset
p1466
asI6699218
(lp1467
Vfluid
p1468
aVtransport
p1469
aVtube
p1470
aVdistal
p1471
aVmember
p1472
aVpenetr
p1473
aVpassageway
p1474
aVexpans
p1475
aVdispens
p1476
aVtranscutan
p1477
asI6156501
(lp1478
Voligonucleotid
p1479
aVanalogu
p1480
aVnucleic
p1481
aVarray
p1482
aVacid
p1483
aVunmodifi
p1484
aVnucleotid
p1485
aVbound
p1486
aVhybrid
p1487
aVprobe
p1488
asI6862465
(lp1489
Vanalyt
p1490
aVdevic
p1491
aVimplant
p1492
aVmonitor
p1493
aVglucos
p1494
aVlevel
p1495
aVallow
p1496
aVarchitectur
p1497
aVdetermin
p1498
aVblood
p1499
asI6749587
(lp1500
Vassembl
p1501
aVreusabl
p1502
aVdispens
p1503
aVexit
p1504
aVlocal
p1505
aVport
p1506
aVflow
p1507
aVdispos
p1508
aVmeter
p1509
aVfluid
p1510
asI7029455
(lp1511
Vfluid
p1512
aVexit
p1513
aVflow
p1514
aVdevic
p1515
aVinstruct
p1516
aVdeliveri
p1517
aVinfus
p1518
aVlocal
p1519
aVport
p1520
aVprocessor
p1521
asI6738654
(lp1522
Vanalyt
p1523
aVconcentr
p1524
aVmeasur
p1525
aVmonitor
p1526
aVsingl
p1527
aVtime
p1528
aVhost
p1529
aVmake
p1530
aVgiven
p1531
aVuse
p1532
asI5958694
(lp1533
Vnucleic
p1534
aVnucleotid
p1535
aVtarget
p1536
aVsequenc
p1537
aVmicrofluid
p1538
aVacid
p1539
aVfragment
p1540
aVgiven
p1541
aVnest
p1542
aVoccupi
p1543
asI5922537
(lp1544
Vparticl
p1545
aVphage
p1546
aVentiti
p1547
aVassay
p1548
aVlabel
p1549
aVbiosensor
p1550
aVcompetit
p1551
aVreport
p1552
aVvarieti
p1553
aVparamagnet
p1554
asI6517995
(lp1555
Vemboss
p1556
aVdeposit
p1557
aVpattern
p1558
aVliquid
p1559
aVstamp
p1560
aVelastomer
p1561
aVcure
p1562
aVliquefi
p1563
aVmateri
p1564
aVnumer
p1565
asI5593838
(lp1566
Varray
p1567
aVsampl
p1568
aVmicrolaboratori
p1569
aVsynthes
p1570
aVmani
p1571
aVchannel
p1572
aVtest
p1573
aVprocess
p1574
aVmicroelectron
p1575
aVwell
p1576
asI5593839
(lp1577
Vdesign
p1578
aVcomput
p1579
aVarray
p1580
aVaspect
p1581
aVbenefici
p1582
aVlithograph
p1583
aVlayout
p1584
aVdna
p1585
aVaccord
p1586
aVaid
p1587
asI5800690
(lp1588
Vmicrofluid
p1589
aVmultiplex
p1590
aVelectroosmot
p1591
aVelectrod
p1592
aVvoltag
p1593
aVelectrokinet
p1594
aVfluid
p1595
aVvari
p1596
aVelectrophoret
p1597
aVforc
p1598
asI5631734
(lp1599
V230
p1600
aVfluoresc
p1601
aVtarget
p1602
aVdetect
p1603
aVbind
p1604
aVlight
p1605
aVsubstrat
p1606
aVsequenc
p1607
aVpolym
p1608
aVphoton
p1609
asI5674743
(lp1610
sI6207229
(lp1611
Vphotoluminesc
p1612
aVnanocryst
p1613
aVang
p1614
aVnanoparticl
p1615
aVcdx
p1616
aVzni
p1617
aVnanocrystallit
p1618
aVcoat
p1619
aVfwhm
p1620
aVexhibit
p1621
asI6355198
(lp1622
Vbiochem
p1623
aVwaveguid
p1624
aVchemic
p1625
aVmicromold
p1626
aVprecursor
p1627
aVindent
p1628
aVclad
p1629
aVrefract
p1630
aVcan
p1631
aVsubstrat
p1632
asI6322901
(lp1633
Vphotoluminesc
p1634
aVnanocryst
p1635
aVang
p1636
aVnanoparticl
p1637
aVcdx
p1638
aVzni
p1639
aVnanocrystallit
p1640
aVcoat
p1641
aVfwhm
p1642
aVexhibit
p1643
asI5880071
(lp1644
Vmicrofluid
p1645
aVelectropipettor
p1646
aVmateri
p1647
aVtransport
p1648
aVionic
p1649
aVelectrophoret
p1650
aVchannel
p1651
aVconcentr
p1652
aVelectrophores
p1653
aVspacer
p1654
asI7654956
(lp1655
Vtranscutan
p1656
aVanalyt
p1657
aVhost
p1658
aVglucos
p1659
aVmeasur
p1660
aVpresent
p1661
aVrelat
p1662
aVinvent
p1663
aVsensor
p1664
aVgeneral
p1665
asI7651596
(lp1666
Vcellulos
p1667
aVanalyt
p1668
aVdomain
p1669
aVinterfer
p1670
aVhost
p1671
aVglucos
p1672
aVmeasur
p1673
aVpresent
p1674
aVbase
p1675
aVincorpor
p1676
asI5957579
(lp1677
Vmicrofluid
p1678
aVchannel
p1679
aVvari
p1680
aVdepth
p1681
aVdescrib
p1682
aVprevious
p1683
aVincorpor
p1684
aVunexpect
p1685
aVbenefici
p1686
aVbenefit
p1687
asI6274320
(lp1688
Vnucleic
p1689
aVacid
p1690
aVsequenc
p1691
aVmolecul
p1692
aVpopul
p1693
aVanneal
p1694
aVcircular
p1695
aVamplifi
p1696
aVbyproduct
p1697
aVprimer
p1698
asI6613379
(lp1699
Vmembran
p1700
aVpolyethersulphon
p1701
aVanalyt
p1702
aVwire
p1703
aVfine
p1704
aVsulphon
p1705
aVsensor
p1706
aVsilan
p1707
aVpermeabl
p1708
aVneedl
p1709
asI5143854
(lp1710
Vphotoremov
p1711
aVpolypeptid
p1712
aVarray
p1713
aVsynthes
p1714
aVregion
p1715
aVactiv
p1716
aVattach
p1717
aVsubstrat
p1718
aVphotolithograph
p1719
aVgroup
p1720
asI7134999
(lp1721
Vsensor
p1722
aVsens
p1723
aVbodili
p1724
aVimplant
p1725
aVbodi
p1726
aVglucos
p1727
aVcapsul
p1728
aVforeign
p1729
aVregion
p1730
aVanalyt
p1731
asI5863708
(lp1732
Vchannel
p1733
aVpassag
p1734
aVfirst
p1735
aVsurfac
p1736
aVsecond
p1737
aVfourth
p1738
aVintersect
p1739
aVsubstrat
p1740
aVwherein
p1741
aVcapillari
p1742
asI5605662
(lp1743
Vreaction
p1744
aVanalyt
p1745
aVspecif
p1746
aVbiolog
p1747
aVmolecular
p1748
aVreactant
p1749
aVmicroloc
p1750
aVentiti
p1751
aVstringenc
p1752
aVdevic
p1753
asI5922591
(lp1754
Vsampl
p1755
aVnucleic
p1756
aVdiagnost
p1757
aVintegr
p1758
aVacquisit
p1759
aVnovo
p1760
aVacid
p1761
aVapplic
p1762
aVanalysi
p1763
aVdevic
p1764
asI7713574
(lp1765
Vtranscutan
p1766
aVanalyt
p1767
aVhost
p1768
aVglucos
p1769
aVmeasur
p1770
aVpresent
p1771
aVrelat
p1772
aVinvent
p1773
aVsensor
p1774
aVgeneral
p1775
asI6060327
(lp1776
sI6768425
(lp1777
Vremot
p1778
aVprocessor
p1779
aVmedic
p1780
aVlocal
p1781
aVtreatment
p1782
aVcommunic
p1783
aVconnect
p1784
aVelement
p1785
aVcontrol
p1786
aVapparatus
p1787
asI6045996
(lp1788
sI5445934
(lp1789
Vphotoremov
p1790
aVsubstrat
p1791
aVmonom
p1792
aVsequenc
p1793
aVselect
p1794
aVoligonucleotid
p1795
aVgroup
p1796
aVarea
p1797
aVamino
p1798
aVbind
p1799
asI7044911
(lp1800
Vphysiolog
p1801
aVdeviat
p1802
aVautomat
p1803
aVstate
p1804
aVplatform
p1805
aVparamet
p1806
aVbioactiv
p1807
aVmonitor
p1808
aVdistribut
p1809
aVgateway
p1810
asI6306610
(lp1811
Vnanocryst
p1812
aVemiss
p1813
aVspectral
p1814
aVbiolog
p1815
aVwherein
p1816
aVquantum
p1817
aVtunabl
p1818
aVdot
p1819
aVsaid
p1820
aVfluoresc
p1821
asI6126899
(lp1822
Vanalyt
p1823
aVsampl
p1824
aVdetect
p1825
aVchamber
p1826
aVinlet
p1827
aVdevic
p1828
aVdead
p1829
aVquantit
p1830
aVreagent
p1831
aVabsenc
p1832
asI7379765
(lp1833
Voxygen
p1834
aVmembran
p1835
aVimplant
p1836
aVutil
p1837
aVsolubl
p1838
aVdevic
p1839
aVavail
p1840
aVenviron
p1841
aVdeficit
p1842
aVsourc
p1843
asI5843767
(lp1844
Vmicrofabr
p1845
aVdiscret
p1846
aVbind
p1847
aVreaction
p1848
aVflowthrough
p1849
aVapparatus
p1850
aVsubstrat
p1851
aVisol
p1852
aVregion
p1853
aVcours
p1854
asI7615007
(lp1855
Vvascular
p1856
aVanalyt
p1857
aVsensor
p1858
aVhost
p1859
aVcirculatori
p1860
aVsystem
p1861
aVcontinu
p1862
aVglucos
p1863
aVmeasur
p1864
aVsome
p1865
asI5922617
(lp1866
Vheader
p1867
aVpreprepar
p1868
aVtrack
p1869
aVassay
p1870
aVrapid
p1871
aVsite
p1872
aVinteract
p1873
aVdisk
p1874
aVemit
p1875
aVinterpret
p1876
asI6007690
(lp1877
Velectrophoret
p1878
aVflowpath
p1879
aVmicrofluid
p1880
aVbioresearch
p1881
aVenrich
p1882
aVmain
p1883
aVdiagnost
p1884
aVintegr
p1885
aVsubject
p1886
aVgenom
p1887
asI7424318
(lp1888
Vanalyt
p1889
aVsensor
p1890
aVcontinu
p1891
aVmeasur
p1892
aVdata
p1893
aVsuch
p1894
aVglucos
p1895
aVelectrod
p1896
aVbackground
p1897
aVsuspend
p1898
asI5547839
(lp1899
Vpolym
p1900
aVmicroflouresc
p1901
aVimmobil
p1902
aVlabel
p1903
aVmonom
p1904
aVmacromolecul
p1905
aVsequenc
p1906
aVsolid
p1907
aVchemistri
p1908
aVtermin
p1909
asI7494465
(lp1910
Vtranscutan
p1911
aVanalyt
p1912
aVhost
p1913
aVglucos
p1914
aVmeasur
p1915
aVpresent
p1916
aVrelat
p1917
aVinvent
p1918
aVsensor
p1919
aVgeneral
p1920
asI5948227
(lp1921
Velectrophoret
p1922
aVcapillari
p1923
aVcharg
p1924
aVmacromolecular
p1925
aVsurfac
p1926
aVchannel
p1927
aVadsorb
p1928
aVnet
p1929
aVspeci
p1930
aVsepar
p1931
asI5681484
(lp1932
Varray
p1933
aVsampl
p1934
aVchannel
p1935
aVmicrolaboratori
p1936
aVsynthes
p1937
aVmani
p1938
aVintersect
p1939
aVetch
p1940
aVtest
p1941
aVprocess
p1942
asI6235471
(lp1943
Vbiochem
p1944
aVfluid
p1945
aVmicroscal
p1946
aVscreen
p1947
aVperform
p1948
aVmicrofluid
p1949
aVgenom
p1950
aViter
p1951
aVsystem
p1952
aVpurif
p1953
asI6210896
(lp1954
Vmolecular
p1955
aVpolym
p1956
aVmotor
p1957
aVstation
p1958
aVaris
p1959
aVanalysi
p1960
aVinteract
p1961
aVlinear
p1962
aVagent
p1963
aVspecif
p1964
asI7657297
(lp1965
Vsensor
p1966
aVanalyt
p1967
aVimplant
p1968
aVbodi
p1969
aVhost
p1970
aVsens
p1971
aVcapsul
p1972
aVforeign
p1973
aVimmobil
p1974
aVminiatur
p1975
asI7108778
(lp1976
Voxygen
p1977
aVelectrod
p1978
aVelectrochem
p1979
aVanalyt
p1980
aVgenerat
p1981
aVsensor
p1982
aVischem
p1983
aVincreas
p1984
aVovercom
p1985
aVsystem
p1986
asI6123861
(lp1987
Vreservoir
p1988
aVmolecul
p1989
aVmicrochip
p1990
aVreleas
p1991
aVdrug
p1992
aVdisintegr
p1993
aVmatric
p1994
aVetch
p1995
aVfabric
p1996
aVpassiv
p1997
asI5324633
(lp1998
Vfluoresc
p1999
aVreceptor
p2000
aVaffin
p2001
aVbind
p2002
aVintens
p2003
aVmeasur
p2004
aVlabel
p2005
aVrate
p2006
aV316
p2007
aVconfoc
p2008
asI6197595
(lp2009
Vsampl
p2010
aVnucleic
p2011
aVdiagnost
p2012
aVintegr
p2013
aVacquisit
p2014
aVnovo
p2015
aVacid
p2016
aVapplic
p2017
aVanalysi
p2018
aVdevic
p2019
asI7613491
(lp2020
Vpoli
p2021
aVpolym
p2022
aVmembran
p2023
aVsilicon
p2024
aVanalyt
p2025
aVoxid
p2026
aVblend
p2027
aVethylen
p2028
aVsolubl
p2029
aVtriblock
p2030
asI5900130
(lp2031
Vmicrochannel
p2032
aVintersect
p2033
aVthird
p2034
aVfourth
p2035
aVliquid
p2036
aVmove
p2037
aVstage
p2038
aVsampl
p2039
aVcarrier
p2040
aVconcurr
p2041
asI5842787
(lp2042
Vmicrofluid
p2043
aVchannel
p2044
aVvari
p2045
aVdepth
p2046
aVdescrib
p2047
aVprevious
p2048
aVincorpor
p2049
aVunexpect
p2050
aVbenefici
p2051
aVbenefit
p2052
asI7471972
(lp2053
Velectrod
p2054
aVimplant
p2055
aVcounter
p2056
aVbodi
p2057
aVwork
p2058
aVelectrochem
p2059
aVhead
p2060
aVreactiv
p2061
aVsensor
p2062
aVnonconduct
p2063
asI6669669
(lp2064
Vexit
p2065
aVlamin
p2066
aVpatient
p2067
aVport
p2068
aVpassageway
p2069
aVfluid
p2070
aVtranscutan
p2071
aVlend
p2072
aVassembl
p2073
aVdevic
p2074
asI6167910
(lp2075
Vmicrofluid
p2076
aVlayer
p2077
aVmicrofabr
p2078
aVsubstrat
p2079
aVmicroscal
p2080
aVaspect
p2081
aVmulti
p2082
aVvarious
p2083
aVchannel
p2084
aVlike
p2085
asI6046056
(lp2086
Vscreen
p2087
aVthroughput
p2088
aVassay
p2089
aVmicroscal
p2090
aVbiochem
p2091
aVmicrofluid
p2092
aVfluidic
p2093
aVhigh
p2094
aVvarieti
p2095
aVdevic
p2096
asI5776748
(lp2097
Vcytophob
p2098
aVcytophil
p2099
aVisland
p2100
aVcell
p2101
aVadher
p2102
aVmicrostamp
p2103
aVregion
p2104
aVsam
p2105
aVcytometri
p2106
aVmonolay
p2107
asI7344499
(lp2108
Vmicroneedl
p2109
aVbiolog
p2110
aVfluid
p2111
aVcollect
p2112
aVantigen
p2113
aVprefer
p2114
aVwithdraw
p2115
aVsens
p2116
aVcarcinoembryon
p2117
aVpainless
p2118
asI6168948
(lp2119
Vnucleic
p2120
aVminiatur
p2121
aVacid
p2122
aVgenet
p2123
aVdiagnost
p2124
aVbind
p2125
aVsite
p2126
aVanalysi
p2127
aVzone
p2128
aVextract
p2129
asI7018360
(lp2130
Vflow
p2131
aVexit
p2132
aVpath
p2133
aVrestrict
p2134
aVpatient
p2135
aVair
p2136
aVfluid
p2137
aVport
p2138
aVdevic
p2139
aVtranscutan
p2140
asI7591801
(lp2141
Vintegr
p2142
aVglucos
p2143
aVdeliveri
p2144
aVdoctor
p2145
aVmedica
p2146
aVuser
p2147
aVexampl
p2148
aVautom
p2149
aVamount
p2150
aVmanual
p2151
asI5846396
(lp2152
Vfeeder
p2153
aVreservoir
p2154
aVchannel
p2155
aVdistribut
p2156
aVbeta
p2157
aValpha
p2158
aVfourth
p2159
aVthird
p2160
aVsecond
p2161
aVsituat
p2162
asI6054270
(lp2163
sI6931327
(lp2164
Vanalyt
p2165
aVcalibr
p2166
aVsensor
p2167
aVevalu
p2168
aVdata
p2169
aVrefer
p2170
aVclinic
p2171
aVretrospect
p2172
aVupdat
p2173
aVaccept
p2174
asI5900160
(lp2175
Vmonolay
p2176
aVself
p2177
aVarticl
p2178
aVsurfac
p2179
aVprint
p2180
aVmolecular
p2181
aVetch
p2182
aVassembl
p2183
aVstamp
p2184
aVmicrocontact
p2185
asI7192450
(lp2186
Vmembran
p2187
aVanalyt
p2188
aVimplant
p2189
aVbiointerfac
p2190
aVcell
p2191
aVvivo
p2192
aVdomain
p2193
aVterm
p2194
aVtissu
p2195
aVcontractil
p2196
asI6540675
(lp2197
Vanalysi
p2198
aVneedl
p2199
aVsite
p2200
aVadapt
p2201
aVanalyt
p2202
aVlight
p2203
aVretract
p2204
aVhous
p2205
aVtip
p2206
aVposit
p2207
asI5624711
(lp2208
Vderivat
p2209
aVligand
p2210
aVsolid
p2211
aVsynthesi
p2212
aVglycan
p2213
aVsupport
p2214
aVarray
p2215
aVcoat
p2216
aVoligonucleotid
p2217
aVoligom
p2218
asI6004617
(lp2219
Vmateri
p2220
aVprepar
p2221
aVdivers
p2222
aVproperti
p2223
aVsolid
p2224
aVpredefin
p2225
aVorgan
p2226
aVinorgan
p2227
aVexampl
p2228
aVsynthesi
p2229
asI5872010
(lp2230
Vfluid
p2231
aVmicroscal
p2232
aVchip
p2233
aVmicrochip
p2234
aVsampl
p2235
aVhandl
p2236
aVport
p2237
aVpicolit
p2238
aVnanolit
p2239
aVoff
p2240
asI5565324
(lp2241
Vchoic
p2242
aVparticl
p2243
aVtag
p2244
aVcombinatori
p2245
aVdefin
p2246
aVhistori
p2247
aVstage
p2248
aVwhere
p2249
aVsynthet
p2250
aVmolecul
p2251
asI5849486
(lp2252
Vdna
p2253
aVfluidic
p2254
aVbiochip
p2255
aVfluoresc
p2256
aVdiagnost
p2257
aVhybrid
p2258
aVperturb
p2259
aVaflow
p2260
aVselfaddress
p2261
aVanalysi
p2262
asI6180239
(lp2263
Vmonolay
p2264
aVself
p2265
aVarticl
p2266
aVsurfac
p2267
aVprint
p2268
aVmolecular
p2269
aVassembl
p2270
aVstamp
p2271
aVmicrocontact
p2272
aVderiv
p2273
asI5858195
(lp2274
Vmicrochip
p2275
aVanalyt
p2276
aVelectrochromatographi
p2277
aVintersect
p2278
aVmanipul
p2279
aVchannel
p2280
aVelectrokinet
p2281
aVchemic
p2282
aVmicrofluid
p2283
aVphotolithograph
p2284
asI6287765
(lp2285
Vmultimolecular
p2286
aVheteropolymer
p2287
aVnucleotid
p2288
aVmultival
p2289
aVnonoligonucleotid
p2290
aVnonaptamer
p2291
aVnonnucleotid
p2292
aVspecif
p2293
aVaptamer
p2294
aVpopul
p2295
asI6645142
(lp2296
Vinstrument
p2297
aVglucos
p2298
aVpractition
p2299
aVcomplianc
p2300
aVguidanc
p2301
aVmonitor
p2302
aVcalibr
p2303
aVnetwork
p2304
aVpatient
p2305
aVsupervisori
p2306
asI6379929
(lp2307
Visotherm
p2308
aVmicrofabr
p2309
aVamplif
p2310
aVnucleic
p2311
aVgene
p2312
aVenvis
p2313
aVsubstrat
p2314
aVacid
p2315
aVcomposit
p2316
aVdiagnost
p2317
asI5779868
(lp2318
Vmicrofluid
p2319
aVelectropipettor
p2320
aVtransport
p2321
aVmateri
p2322
aVionic
p2323
aVelectrophoret
p2324
aVchannel
p2325
aVconcentr
p2326
aVelectrophores
p2327
aVelectrokinet
p2328
asI7618369
(lp2329
Vcalibr
p2330
aVanalyt
p2331
aVparamet
p2332
aVupdat
p2333
aVdynam
p2334
aVvalu
p2335
aVkit
p2336
aVprogram
p2337
aVsensor
p2338
aVcomput
p2339
asI6030917
(lp2340
sI6207392
(lp2341
Vnanocryst
p2342
aVlink
p2343
aVsemiconductor
p2344
aVaffin
p2345
aVmore
p2346
aVcapabl
p2347
aVenergi
p2348
aVmolecul
p2349
aVprobe
p2350
aVexposur
p2351
asI7364592
(lp2352
Vbiointerfac
p2353
aVmacro
p2354
aVarchitectur
p2355
aVmicro
p2356
aVmembran
p2357
aVtissu
p2358
aVfbc
p2359
aVorgan
p2360
aVcontractur
p2361
aVneovascular
p2362
asI5807522
(lp2363
Vmicroarray
p2364
aVbiolog
p2365
aVdispens
p2366
aVvolum
p2367
aVsampl
p2368
aVsupport
p2369
aVcapillari
p2370
aVtap
p2371
aVreagent
p2372
aVfashion
p2373
asI5451683
(lp2374
Vligand
p2375
aVimmobil
p2376
aVanti
p2377
aVbiotin
p2378
aVavidin
p2379
aVsurfac
p2380
aVhormon
p2381
aVmatrix
p2382
aVaffin
p2383
aVregion
p2384
asI6377894
(lp2385
Vinstrument
p2386
aVstrip
p2387
aVtest
p2388
aVcalibr
p2389
aVinvalid
p2390
aVstorag
p2391
aVdate
p2392
aVparamet
p2393
aVanalyt
p2394
aVdata
p2395
asI6773671
(lp2396
Vmultichemistri
p2397
aVtest
p2398
aVstrip
p2399
aVmeasur
p2400
aVfunction
p2401
aVtype
p2402
aVmultipl
p2403
aVcombin
p2404
aVport
p2405
aVindic
p2406
asI7366556
(lp2407
Vanalyt
p2408
aVsensor
p2409
aVcontinu
p2410
aVmeasur
p2411
aVdata
p2412
aVsuch
p2413
aVglucos
p2414
aVelectrod
p2415
aVbackground
p2416
aVsuspend
p2417
asI5856174
(lp2418
Vsampl
p2419
aVnucleic
p2420
aVdiagnost
p2421
aVintegr
p2422
aVacquisit
p2423
aVnovo
p2424
aVacid
p2425
aVapplic
p2426
aVanalysi
p2427
aVdevic
p2428
asI6251303
(lp2429
Vnanocryst
p2430
aVquantum
p2431
aVoverco
p2432
aVdot
p2433
aVang
p2434
aVlayer
p2435
aVhydrophob
p2436
aVwater
p2437
aVsolubl
p2438
aVgroup
p2439
asI6130098
(lp2440
Vmicrodroplet
p2441
aVmicroscal
p2442
aVmicrochannel
p2443
aVelectrophoresi
p2444
aVchannel
p2445
aVdroplet
p2446
aVpropel
p2447
aVdiscret
p2448
aVsame
p2449
aVetch
p2450
asI5639603
(lp2451
Vsynthes
p2452
aVcompound
p2453
aVstochast
p2454
aVscreen
p2455
aVdivers
p2456
aVtag
p2457
aVmolecular
p2458
aVisol
p2459
aVcollect
p2460
aVlarg
p2461
asI6103479
(lp2462
sI6923764
(lp2463
Vanalysi
p2464
aVneedl
p2465
aVsite
p2466
aVadapt
p2467
aVanalyt
p2468
aVlight
p2469
aVretract
p2470
aVhous
p2471
aVtip
p2472
aVposit
p2473
asI5959098
(lp2474
Vsequenc
p2475
aVarray
p2476
aVpolym
p2477
aVphotolithograph
p2478
aVprepar
p2479
aVthroughput
p2480
aVprocess
p2481
aVdistinct
p2482
aVresolut
p2483
aVmonom
p2484
asI6656159
(lp2485
Vreservoir
p2486
aVscrew
p2487
aVplunger
p2488
aVlead
p2489
aVlength
p2490
aVelement
p2491
aVexit
p2492
aVuncharg
p2493
aVwall
p2494
aVperipheri
p2495
asI7041468
(lp2496
Vglucos
p2497
aVtest
p2498
aVstrip
p2499
aVhous
p2500
aVreceptacl
p2501
aVhand
p2502
aVheld
p2503
aVconnector
p2504
aVmodul
p2505
aVamount
p2506
asI5632957
(lp2507
Vmicroloc
p2508
aVdna
p2509
aVreaction
p2510
aVdiagnost
p2511
aVbiolog
p2512
aVinterfac
p2513
aVcleav
p2514
aVmolecular
p2515
aVprefer
p2516
aVhybrid
p2517
asI5876675
(lp2518
Vmicrofluid
p2519
aVfoul
p2520
aVmanual
p2521
aVhandl
p2522
aVdevic
p2523
aVeasier
p2524
aVresult
p2525
aVcontact
p2526
aVcontamin
p2527
aVotherwis
p2528
asI6327410
(lp2529
Vmicrospher
p2530
aVbioactiv
p2531
aVanalyt
p2532
aVarray
p2533
aVinterrogat
p2534
aVsubstrat
p2535
aVdiscret
p2536
aVagent
p2537
aVeither
p2538
aVrandom
p2539
asI6043080
(lp2540
sI5412087
(lp2541
Vimmobil
p2542
aVligand
p2543
aVanti
p2544
aVoligonucleotid
p2545
aVmatrix
p2546
aVphotoremov
p2547
aVspatial
p2548
aVbiolog
p2549
aVirradi
p2550
aVsurfac
p2551
asI5869004
(lp2552
Vmicrofluid
p2553
aVdilut
p2554
aVperfom
p2555
aVconcentr
p2556
aVsitu
p2557
aVgeneral
p2558
aVcontext
p2559
aVsystem
p2560
aVjust
p2561
aVapparatus
p2562
asI5599695
(lp2563
Vdeprotect
p2564
aVprint
p2565
aVmateri
p2566
aVtca
p2567
aVagent
p2568
aVdmt
p2569
aVnucleosid
p2570
aVarray
p2571
aVchemistri
p2572
aVreli
p2573
asI6541266
(lp2574
Vanalyt
p2575
aVtest
p2576
aVcalcul
p2577
aVglucos
p2578
aVascertain
p2579
aVpoint
p2580
aVlevel
p2581
aVmeasur
p2582
aVphotomet
p2583
aVsup
p2584
asI6174675
(lp2585
Vport
p2586
aVchannel
p2587
aVfluid
p2588
aVmonitor
p2589
aVlcr
p2590
aV421
p2591
aV413
p2592
aV407
p2593
aVtherebetween
p2594
aVsubstrat
p2595
asI6485461
(lp2596
Vinfus
p2597
aVbladder
p2598
aVcannula
p2599
aVdeliveri
p2600
aVliquid
p2601
aVneedl
p2602
aVhous
p2603
aVdeliv
p2604
aVinject
p2605
aVdispos
p2606
asI6251343
(lp2607
Vmicrofluid
p2608
aVcover
p2609
aVport
p2610
aVbodi
p2611
aVlayer
p2612
aVstructur
p2613
aVchannel
p2614
aVmicroscal
p2615
aVapertur
p2616
aVdispos
p2617
asI6830558
(lp2618
Vdiaphragm
p2619
aVsensor
p2620
aVflow
p2621
aVelectrod
p2622
aVassembl
p2623
aVpatient
p2624
aVpath
p2625
aVchamber
p2626
aVexit
p2627
aVcondit
p2628
asI6012902
(lp2629
Velectroosmot
p2630
aVmicropump
p2631
aVchannel
p2632
aVpump
p2633
aVflow
p2634
aVapplic
p2635
aVwhere
p2636
aVprohibit
p2637
aVdesir
p2638
aVfluid
p2639
asI6355431
(lp2640
Vamplif
p2641
aVnucleic
p2642
aVtarget
p2643
aVquantifi
p2644
aVacid
p2645
aVbead
p2646
aVdetect
p2647
aVvarieti
p2648
aVtechniqu
p2649
aVreaction
p2650
asI6340588
(lp2651
Vmatrix
p2652
aVmemori
p2653
aVmatric
p2654
aVcombin
p2655
aVassay
p2656
aVmacromolecul
p2657
aVbiolog
p2658
aVimmunoassay
p2659
aVmolecul
p2660
aVmateri
p2661
asI7276029
(lp2662
Vanalyt
p2663
aVcalibr
p2664
aVsensor
p2665
aVevalu
p2666
aVdata
p2667
aVrefer
p2668
aVclinic
p2669
aVretrospect
p2670
aVupdat
p2671
aVaccept
p2672
asI6334960
(lp2673
Vpolymeriz
p2674
aVrelief
p2675
aVpolymer
p2676
aVsolidifi
p2677
aVtransfer
p2678
aVfluid
p2679
aVmold
p2680
aVlayer
p2681
aVcomposit
p2682
aVmateri
p2683
asI6743635
(lp2684
Vmeter
p2685
aVsampl
p2686
aVstrip
p2687
aVglucos
p2688
aVelectrod
p2689
aVblood
p2690
aVtest
p2691
aVcounter
p2692
aVauto
p2693
aVwork
p2694
asI5858804
(lp2695
Vmoieti
p2696
aVbind
p2697
aVsampl
p2698
aVwell
p2699
aVfirst
p2700
aVchannel
p2701
aVprospect
p2702
aVsecond
p2703
aVcrossov
p2704
aVimmunolog
p2705
asI7081195
(lp2706
Vanalyt
p2707
aVmeasur
p2708
aVinterfer
p2709
aVelectrochem
p2710
aVacetaminophen
p2711
aVconcentr
p2712
aVcalcul
p2713
aVfree
p2714
aVglucos
p2715
aVsensor
p2716
asI6264825
(lp2717
Vetm
p2718
aVanalyt
p2719
aVacceler
p2720
aVbind
p2721
aVdetect
p2722
aVtarget
p2723
aVelectron
p2724
aVproceed
p2725
aVindirect
p2726
aVligand
p2727
asI7467003
(lp2728
Vanalyt
p2729
aVsensor
p2730
aVcontinu
p2731
aVmeasur
p2732
aVdata
p2733
aVsuch
p2734
aVglucos
p2735
aVelectrod
p2736
aVbackground
p2737
aVsuspend
p2738
asI5474796
(lp2739
Vpeptid
p2740
aVmacromolecul
p2741
aVbind
p2742
aVarray
p2743
aVbiolog
p2744
aVmimet
p2745
aVsequenc
p2746
aVoligonucleotid
p2747
aVactiv
p2748
aVapparatus
p2749
astp2750
.