((lp0
I4340563
aI4436780
aI4627811
aI4652487
aI4655760
aI4657802
aI4668566
aI4720415
aI4789699
aI4863779
aI5145727
aI5149576
aI5169712
aI5178931
aI5188885
aI5208098
aI5213881
aI5336552
aI5374262
aI5382400
aI5405342
aI5486166
aI5490846
aI5509913
aI5536555
aI5540976
aI5695868
aI5759926
aI5804021
aI5820973
aI5883028
aI5932299
aI5997981
aI6015764
aI4741944
aI4798603
aI4863785
aI5192606
aI5364382
aI5429629
aI5509915
aI5672399
aI4781966
aI4857067
aI4965122
aI4981747
aI5114781
aI5116662
aI5143679
aI5156793
aI5167897
aI5226992
aI5336545
aI5385775
aI5472775
aI4847134
aI4891258
aI4938753
aI4938757
aI4940464
aI4990147
aI5037416
aI5151092
aI5171239
aI5269775
aI5527302
aI5611790
aI6645190
aI5200248
aI5277976
aI4861652
aI4939016
aI6096668
aI6225243
aI5032120
aI5938648
aI5334446
aI5393599
aI5562646
aI5599335
aI5669894
aI5843056
aI5698322
aI6135987
aI6036805
aI6432098
aI5990377
aI5935883
aI6379383
aI6537310
aI6544249
aI6695865
aI6733513
aI6746773
aI6849085
aI6955656
aI7108701
aI7195641
aI7792562
aI5871763
aI5147343
aI5147345
aI5149335
aI5217445
aI5304161
aI5342338
aI5360420
aI5387207
aI5387209
aI5439458
aI5496298
aI5531728
aI5562650
aI5601542
aI5911222
aI6107537
aI5294482
aI5300054
aI5399219
aI5540796
aI5595618
aI5846232
aI6179890
aI6673136
aI6743273
aI5236430
aI5242436
aI5246433
aI5591152
aI5669897
aI6004306
aI5645542
aI5580411
aI6120487
aI5554145
aI5957908
aI5531732
aI5897545
aI6120489
aI5370634
aI5458590
aI5569234
aI5766389
aI5171236
aI5306266
aI5397318
aI5514121
aI5358500
aI5624427
aI6039302
aI5865823
aI6167948
aI6290685
aI6375871
aI6420622
aI5108827
aI5284703
aI5389202
aI6156842
aI6200669
aI6759431
aI7186265
aI6865810
aI6666841
aI6736791
aI7506791
aI7588175
aI7588176
aI7604151
aI7607557
aI7669746
aI7669747
aI7673781
aI7673782
aI7731072
aI7735703
aI7794475
aI7934630
aI5460622
aI5770086
aI6261679
aI6271278
aI5268224
aI5397316
aI5840403
aI6685681
aI6752794
aI6800074
aI6855135
aI6936037
aI6951553
aI6979324
aI7022113
aI7195624
aI7276051
aI5624420
aI6701922
aI6939451
aI6315864
aI6664335
aI6758863
aI7597229
aI7604150
aI7658311
aI7673780
aI7721931
aI7721934
aI7721936
aI7738971
aI7753245
aI7753904
aI7799039
aI7810693
aI7819299
aI7832408
aI7845537
aI7900805
aI7905380
aI7918377
aI7819296
aI7819297
aI7819298
aI7832612
aI7837080
aI7857186
aI7861906
aI7866527
aI7905381
aI7922061
aI7954686
aI8011555
a(lp1
(lp2
I4340563
aa(lp3
I4436780
aI4627811
aI4652487
aI4655760
aI4657802
aI4668566
aI4720415
aI4789699
aI4863779
aI5145727
aI5149576
aI5169712
aI5178931
aI5188885
aI5208098
aI5213881
aI5336552
aI5374262
aI5382400
aI5405342
aI5486166
aI5490846
aI5509913
aI5536555
aI5540976
aI5695868
aI5759926
aI5804021
aI5820973
aI5883028
aI5932299
aI5997981
aI6015764
aa(lp4
I4741944
aI4798603
aI4863785
aI5192606
aI5364382
aI5429629
aI5509915
aI5672399
aI4781966
aI4857067
aI4965122
aI4981747
aI5114781
aI5116662
aI5143679
aI5156793
aI5167897
aI5226992
aI5336545
aI5385775
aI5472775
aI4847134
aI4891258
aI4938753
aI4938757
aI4940464
aI4990147
aI5037416
aI5151092
aI5171239
aI5269775
aI5527302
aI5611790
aI6645190
aI5200248
aI5277976
aI4861652
aI4939016
aI6096668
aI6225243
aI5032120
aI5938648
aI5334446
aI5393599
aI5562646
aI5599335
aI5669894
aI5843056
aI5698322
aI6135987
aI6036805
aI6432098
aI5990377
aI5935883
aI6379383
aI6537310
aI6544249
aI6695865
aI6733513
aI6746773
aI6849085
aI6955656
aI7108701
aI7195641
aI7792562
aa(lp5
I5871763
aI5147343
aI5147345
aI5149335
aI5217445
aI5304161
aI5342338
aI5360420
aI5387207
aI5387209
aI5439458
aI5496298
aI5531728
aI5562650
aI5601542
aI5911222
aI6107537
aI5294482
aI5300054
aI5399219
aI5540796
aI5595618
aI5846232
aI6179890
aI6673136
aI6743273
aI5236430
aI5242436
aI5246433
aI5591152
aI5669897
aI6004306
aI5645542
aI5580411
aI6120487
aI5554145
aI5957908
aI5531732
aI5897545
aI6120489
aI5370634
aI5458590
aI5569234
aI5766389
aI5171236
aI5306266
aI5397318
aI5514121
aI5358500
aI5624427
aI6039302
aI5865823
aI6167948
aI6290685
aI6375871
aI6420622
aI5108827
aI5284703
aI5389202
aI6156842
aI6200669
aI6759431
aI7186265
aI6865810
aI6666841
aI6736791
aI7506791
aI7588175
aI7588176
aI7604151
aI7607557
aI7669746
aI7669747
aI7673781
aI7673782
aI7731072
aI7735703
aI7794475
aI7934630
aa(lp6
I5460622
aI5770086
aI6261679
aI6271278
aI5268224
aI5397316
aI5840403
aI6685681
aI6752794
aI6800074
aI6855135
aI6936037
aI6951553
aI6979324
aI7022113
aI7195624
aI7276051
aI5624420
aI6701922
aI6939451
aI6315864
aI6664335
aI6758863
aI7597229
aI7604150
aI7658311
aI7673780
aI7721931
aI7721934
aI7721936
aI7738971
aI7753245
aI7753904
aI7799039
aI7810693
aI7819299
aI7832408
aI7845537
aI7900805
aI7905380
aI7918377
aI7819296
aI7819297
aI7819298
aI7832612
aI7837080
aI7857186
aI7861906
aI7866527
aI7905381
aI7922061
aI7954686
aI8011555
aa(lp7
(I4340563
I4436780
tp8
a(I4340563
I4627811
tp9
a(I4340563
I4652487
tp10
a(I4340563
I4655760
tp11
a(I4340563
I4657802
tp12
a(I4340563
I4668566
tp13
a(I4340563
I4720415
tp14
a(I4340563
I4789699
tp15
a(I4340563
I4863779
tp16
a(I4340563
I5145727
tp17
a(I4340563
I5149576
tp18
a(I4340563
I5169712
tp19
a(I4340563
I5178931
tp20
a(I4340563
I5188885
tp21
a(I4340563
I5208098
tp22
a(I4340563
I5213881
tp23
a(I4340563
I5336552
tp24
a(I4340563
I5374262
tp25
a(I4340563
I5382400
tp26
a(I4340563
I5405342
tp27
a(I4340563
I5486166
tp28
a(I4340563
I5490846
tp29
a(I4340563
I5509913
tp30
a(I4340563
I5536555
tp31
a(I4340563
I5540976
tp32
a(I4340563
I5695868
tp33
a(I4340563
I5759926
tp34
a(I4340563
I5804021
tp35
a(I4340563
I5820973
tp36
a(I4340563
I5883028
tp37
a(I4340563
I5932299
tp38
a(I4340563
I5997981
tp39
a(I4340563
I6015764
tp40
a(I4436780
I4668566
tp41
a(I4436780
I4741944
tp42
a(I4436780
I4798603
tp43
a(I4436780
I4863785
tp44
a(I4436780
I5145727
tp45
a(I4436780
I5149576
tp46
a(I4436780
I5178931
tp47
a(I4436780
I5192606
tp48
a(I4436780
I5364382
tp49
a(I4436780
I5429629
tp50
a(I4436780
I5509915
tp51
a(I4436780
I5672399
tp52
a(I4436780
I6015764
tp53
a(I4627811
I5145727
tp54
a(I4627811
I5149576
tp55
a(I4627811
I5178931
tp56
a(I4627811
I5932299
tp57
a(I4652487
I4781966
tp58
a(I4652487
I4857067
tp59
a(I4652487
I4965122
tp60
a(I4652487
I4981747
tp61
a(I4652487
I5114781
tp62
a(I4652487
I5116662
tp63
a(I4652487
I5143679
tp64
a(I4652487
I5156793
tp65
a(I4652487
I5167897
tp66
a(I4652487
I5226992
tp67
a(I4652487
I5336545
tp68
a(I4652487
I5385775
tp69
a(I4652487
I5472775
tp70
a(I4652487
I5536555
tp71
a(I4652487
I5695868
tp72
a(I4652487
I6015764
tp73
a(I4655760
I4847134
tp74
a(I4655760
I4891258
tp75
a(I4655760
I4938753
tp76
a(I4655760
I4938757
tp77
a(I4655760
I4940464
tp78
a(I4655760
I4990147
tp79
a(I4655760
I5037416
tp80
a(I4655760
I5151092
tp81
a(I4655760
I5171239
tp82
a(I4655760
I5269775
tp83
a(I4655760
I5472775
tp84
a(I4655760
I5527302
tp85
a(I4655760
I5611790
tp86
a(I4655760
I6645190
tp87
a(I4657802
I4741944
tp88
a(I4657802
I4781966
tp89
a(I4657802
I4857067
tp90
a(I4657802
I4965122
tp91
a(I4657802
I4981747
tp92
a(I4657802
I5114781
tp93
a(I4657802
I5116662
tp94
a(I4657802
I5143679
tp95
a(I4657802
I5156793
tp96
a(I4657802
I5167897
tp97
a(I4657802
I5226992
tp98
a(I4657802
I5336545
tp99
a(I4657802
I5385775
tp100
a(I4657802
I5405342
tp101
a(I4657802
I5472775
tp102
a(I4657802
I5536555
tp103
a(I4657802
I5540976
tp104
a(I4657802
I5611790
tp105
a(I4657802
I5695868
tp106
a(I4657802
I5883028
tp107
a(I4657802
I6645190
tp108
a(I4668566
I4981747
tp109
a(I4668566
I5114781
tp110
a(I4668566
I5116662
tp111
a(I4668566
I5145727
tp112
a(I4668566
I5149576
tp113
a(I4668566
I5178931
tp114
a(I4668566
I5200248
tp115
a(I4668566
I5226992
tp116
a(I4668566
I5277976
tp117
a(I4668566
I5336545
tp118
a(I4668566
I5536555
tp119
a(I4668566
I6015764
tp120
a(I4720415
I4781966
tp121
a(I4720415
I4847134
tp122
a(I4720415
I4861652
tp123
a(I4720415
I4863779
tp124
a(I4720415
I4891258
tp125
a(I4720415
I4939016
tp126
a(I4720415
I4965122
tp127
a(I4720415
I4981747
tp128
a(I4720415
I5114781
tp129
a(I4720415
I5116662
tp130
a(I4720415
I5143679
tp131
a(I4720415
I5156793
tp132
a(I4720415
I5167897
tp133
a(I4720415
I5226992
tp134
a(I4720415
I5336545
tp135
a(I4720415
I5385775
tp136
a(I4720415
I5472775
tp137
a(I4720415
I5536555
tp138
a(I4720415
I5540976
tp139
a(I4720415
I5695868
tp140
a(I4720415
I5804021
tp141
a(I4720415
I5883028
tp142
a(I4720415
I6015764
tp143
a(I4720415
I6096668
tp144
a(I4720415
I6225243
tp145
a(I4720415
I6645190
tp146
a(I4789699
I5032120
tp147
a(I4789699
I5037416
tp148
a(I4789699
I5114781
tp149
a(I4789699
I5116662
tp150
a(I4789699
I5226992
tp151
a(I4789699
I5336545
tp152
a(I4789699
I5336552
tp153
a(I4789699
I5382400
tp154
a(I4789699
I5938648
tp155
a(I4789699
I6096668
tp156
a(I4789699
I6645190
tp157
a(I4863779
I5334446
tp158
a(I4863779
I5385775
tp159
a(I4863779
I5393599
tp160
a(I4863779
I5472775
tp161
a(I4863779
I6015764
tp162
a(I5145727
I5562646
tp163
a(I5145727
I5599335
tp164
a(I5145727
I5669894
tp165
a(I5149576
I5178931
tp166
a(I5169712
I5695868
tp167
a(I5169712
I5843056
tp168
a(I5169712
I6015764
tp169
a(I5188885
I5540976
tp170
a(I5188885
I5804021
tp171
a(I5188885
I6015764
tp172
a(I5188885
I6096668
tp173
a(I5208098
I5536555
tp174
a(I5208098
I5695868
tp175
a(I5208098
I5843056
tp176
a(I5208098
I6015764
tp177
a(I5336552
I5540976
tp178
a(I5336552
I5698322
tp179
a(I5336552
I5820973
tp180
a(I5336552
I6135987
tp181
a(I5336552
I6225243
tp182
a(I5374262
I6036805
tp183
a(I5374262
I6432098
tp184
a(I5382400
I5540976
tp185
a(I5382400
I5698322
tp186
a(I5382400
I5759926
tp187
a(I5382400
I5820973
tp188
a(I5382400
I6015764
tp189
a(I5382400
I6096668
tp190
a(I5382400
I6225243
tp191
a(I5486166
I5820973
tp192
a(I5490846
I5820973
tp193
a(I5536555
I5804021
tp194
a(I5536555
I5990377
tp195
a(I5536555
I6015764
tp196
a(I5540976
I6015764
tp197
a(I5540976
I6096668
tp198
a(I5695868
I5997981
tp199
a(I5759926
I5935883
tp200
a(I5932299
I6379383
tp201
a(I5932299
I6537310
tp202
a(I5932299
I6544249
tp203
a(I5932299
I6695865
tp204
a(I5932299
I6733513
tp205
a(I5932299
I6746773
tp206
a(I5932299
I6849085
tp207
a(I5932299
I6955656
tp208
a(I5932299
I7108701
tp209
a(I5932299
I7195641
tp210
a(I5932299
I7792562
tp211
a(I5997981
I6645190
tp212
a(I4741944
I5143679
tp213
a(I4741944
I5156793
tp214
a(I4741944
I5167897
tp215
a(I4741944
I5871763
tp216
a(I4798603
I5147343
tp217
a(I4798603
I5147345
tp218
a(I4798603
I5149335
tp219
a(I4798603
I5217445
tp220
a(I4798603
I5304161
tp221
a(I4798603
I5342338
tp222
a(I4798603
I5360420
tp223
a(I4798603
I5364382
tp224
a(I4798603
I5374262
tp225
a(I4798603
I5387207
tp226
a(I4798603
I5387209
tp227
a(I4798603
I5405342
tp228
a(I4798603
I5429629
tp229
a(I4798603
I5439458
tp230
a(I4798603
I5486166
tp231
a(I4798603
I5490846
tp232
a(I4798603
I5496298
tp233
a(I4798603
I5509913
tp234
a(I4798603
I5509915
tp235
a(I4798603
I5531728
tp236
a(I4798603
I5562650
tp237
a(I4798603
I5601542
tp238
a(I4798603
I5698322
tp239
a(I4798603
I5820973
tp240
a(I4798603
I5843056
tp241
a(I4798603
I5911222
tp242
a(I4798603
I6036805
tp243
a(I4798603
I6096668
tp244
a(I4798603
I6107537
tp245
a(I4798603
I6135987
tp246
a(I4863785
I5208098
tp247
a(I4863785
I5294482
tp248
a(I4863785
I6645190
tp249
a(I5192606
I5300054
tp250
a(I5192606
I5304161
tp251
a(I5192606
I5342338
tp252
a(I5192606
I5399219
tp253
a(I5192606
I5439458
tp254
a(I5192606
I5486166
tp255
a(I5192606
I5490846
tp256
a(I5192606
I5509913
tp257
a(I5192606
I5540796
tp258
a(I5192606
I5562650
tp259
a(I5192606
I5595618
tp260
a(I5192606
I5601542
tp261
a(I5192606
I5820973
tp262
a(I5192606
I5843056
tp263
a(I5192606
I6036805
tp264
a(I5364382
I5531728
tp265
a(I5364382
I5601542
tp266
a(I5364382
I5820973
tp267
a(I5429629
I5531728
tp268
a(I5429629
I5820973
tp269
a(I5429629
I5846232
tp270
a(I5429629
I6096668
tp271
a(I5509915
I5820973
tp272
a(I5509915
I5843056
tp273
a(I5509915
I6036805
tp274
a(I5672399
I6179890
tp275
a(I5672399
I6673136
tp276
a(I5672399
I6743273
tp277
a(I4781966
I4965122
tp278
a(I4781966
I5374262
tp279
a(I4781966
I5385775
tp280
a(I4781966
I5472775
tp281
a(I4781966
I5536555
tp282
a(I4781966
I5540976
tp283
a(I4857067
I5143679
tp284
a(I4857067
I5151092
tp285
a(I4857067
I5156793
tp286
a(I4857067
I5167897
tp287
a(I4857067
I5236430
tp288
a(I4857067
I5242436
tp289
a(I4857067
I5246433
tp290
a(I4857067
I5399219
tp291
a(I4857067
I5527302
tp292
a(I4857067
I5591152
tp293
a(I4857067
I5595618
tp294
a(I4857067
I5611790
tp295
a(I4857067
I5669897
tp296
a(I4857067
I5846232
tp297
a(I4857067
I5938648
tp298
a(I4857067
I6004306
tp299
a(I4857067
I6036805
tp300
a(I4965122
I5472775
tp301
a(I4965122
I5540976
tp302
a(I4965122
I5611790
tp303
a(I4965122
I5883028
tp304
a(I4965122
I6096668
tp305
a(I4981747
I5114781
tp306
a(I4981747
I5116662
tp307
a(I4981747
I5143679
tp308
a(I4981747
I5156793
tp309
a(I4981747
I5167897
tp310
a(I4981747
I5226992
tp311
a(I4981747
I5336545
tp312
a(I4981747
I5385775
tp313
a(I4981747
I5472775
tp314
a(I4981747
I5536555
tp315
a(I4981747
I5540976
tp316
a(I4981747
I5695868
tp317
a(I4981747
I5804021
tp318
a(I4981747
I5883028
tp319
a(I4981747
I6015764
tp320
a(I5114781
I5536555
tp321
a(I5114781
I5611790
tp322
a(I5114781
I5645542
tp323
a(I5114781
I5804021
tp324
a(I5114781
I5883028
tp325
a(I5114781
I6096668
tp326
a(I5114781
I6645190
tp327
a(I5116662
I5472775
tp328
a(I5116662
I5540976
tp329
a(I5116662
I5611790
tp330
a(I5116662
I5695868
tp331
a(I5116662
I5883028
tp332
a(I5116662
I6645190
tp333
a(I5143679
I5536555
tp334
a(I5143679
I5611790
tp335
a(I5143679
I5669897
tp336
a(I5143679
I5695868
tp337
a(I5143679
I5846232
tp338
a(I5143679
I6004306
tp339
a(I5143679
I6015764
tp340
a(I5156793
I5580411
tp341
a(I5156793
I5611790
tp342
a(I5156793
I5846232
tp343
a(I5167897
I5580411
tp344
a(I5167897
I5669897
tp345
a(I5167897
I5846232
tp346
a(I5167897
I6004306
tp347
a(I5226992
I5399219
tp348
a(I5226992
I5496298
tp349
a(I5226992
I5540796
tp350
a(I5226992
I5595618
tp351
a(I5226992
I5804021
tp352
a(I5226992
I5846232
tp353
a(I5226992
I5883028
tp354
a(I5226992
I6036805
tp355
a(I5226992
I6645190
tp356
a(I5336545
I5883028
tp357
a(I5336545
I6015764
tp358
a(I5385775
I6096668
tp359
a(I5385775
I6645190
tp360
a(I5472775
I6015764
tp361
a(I5472775
I6096668
tp362
a(I5472775
I6120487
tp363
a(I4847134
I5151092
tp364
a(I4847134
I5242436
tp365
a(I4847134
I5334446
tp366
a(I4847134
I5374262
tp367
a(I4847134
I5393599
tp368
a(I4847134
I5536555
tp369
a(I4847134
I5554145
tp370
a(I4847134
I5591152
tp371
a(I4847134
I5611790
tp372
a(I4847134
I5957908
tp373
a(I4847134
I6015764
tp374
a(I4847134
I6096668
tp375
a(I4847134
I6645190
tp376
a(I4891258
I5536555
tp377
a(I4891258
I5611790
tp378
a(I4891258
I6096668
tp379
a(I4938753
I5151092
tp380
a(I4938753
I5236430
tp381
a(I4938753
I5242436
tp382
a(I4938753
I5246433
tp383
a(I4938753
I5387209
tp384
a(I4938753
I5399219
tp385
a(I4938753
I5472775
tp386
a(I4938753
I5527302
tp387
a(I4938753
I5531732
tp388
a(I4938753
I5580411
tp389
a(I4938753
I5595618
tp390
a(I4938753
I5669897
tp391
a(I4938753
I5897545
tp392
a(I4938753
I5938648
tp393
a(I4938753
I6004306
tp394
a(I4938753
I6036805
tp395
a(I4938753
I6120489
tp396
a(I4938757
I5032120
tp397
a(I4938757
I5151092
tp398
a(I4938757
I5236430
tp399
a(I4938757
I5242436
tp400
a(I4938757
I5246433
tp401
a(I4938757
I5472775
tp402
a(I4938757
I5509913
tp403
a(I4938757
I5527302
tp404
a(I4938757
I5531732
tp405
a(I4938757
I5669897
tp406
a(I4938757
I5897545
tp407
a(I4938757
I6004306
tp408
a(I4938757
I6120487
tp409
a(I4938757
I6120489
tp410
a(I4938757
I6645190
tp411
a(I4940464
I5037416
tp412
a(I4940464
I5151092
tp413
a(I4940464
I5236430
tp414
a(I4940464
I5242436
tp415
a(I4940464
I5246433
tp416
a(I4940464
I5370634
tp417
a(I4940464
I5458590
tp418
a(I4940464
I5472775
tp419
a(I4940464
I5509913
tp420
a(I4940464
I5527302
tp421
a(I4940464
I5531732
tp422
a(I4940464
I5569234
tp423
a(I4940464
I5580411
tp424
a(I4940464
I5591152
tp425
a(I4940464
I5669897
tp426
a(I4940464
I5766389
tp427
a(I4940464
I5897545
tp428
a(I4940464
I6004306
tp429
a(I4940464
I6645190
tp430
a(I4990147
I5171236
tp431
a(I4990147
I5269775
tp432
a(I4990147
I5304161
tp433
a(I4990147
I5306266
tp434
a(I4990147
I5342338
tp435
a(I4990147
I5397318
tp436
a(I4990147
I5439458
tp437
a(I4990147
I5514121
tp438
a(I4990147
I5527302
tp439
a(I5037416
I5171236
tp440
a(I5037416
I5269775
tp441
a(I5037416
I5306266
tp442
a(I5037416
I5342338
tp443
a(I5037416
I5397318
tp444
a(I5037416
I5472775
tp445
a(I5037416
I5514121
tp446
a(I5037416
I5527302
tp447
a(I5037416
I5611790
tp448
a(I5037416
I5846232
tp449
a(I5151092
I5358500
tp450
a(I5151092
I5397318
tp451
a(I5151092
I5554145
tp452
a(I5151092
I5591152
tp453
a(I5151092
I5624427
tp454
a(I5151092
I5669897
tp455
a(I5151092
I5846232
tp456
a(I5151092
I5938648
tp457
a(I5151092
I6004306
tp458
a(I5151092
I6645190
tp459
a(I5171239
I5611790
tp460
a(I5171239
I5843056
tp461
a(I5171239
I6039302
tp462
a(I5269775
I5514121
tp463
a(I5269775
I5611790
tp464
a(I5527302
I5865823
tp465
a(I5527302
I5897545
tp466
a(I5527302
I5957908
tp467
a(I5527302
I6036805
tp468
a(I5527302
I6645190
tp469
a(I5611790
I5846232
tp470
a(I5200248
I5277976
tp471
a(I5200248
I5820973
tp472
a(I5200248
I6167948
tp473
a(I5200248
I6290685
tp474
a(I5200248
I6375871
tp475
a(I5200248
I6420622
tp476
a(I5277976
I5698322
tp477
a(I5277976
I5820973
tp478
a(I4861652
I5108827
tp479
a(I4861652
I5151092
tp480
a(I4861652
I5242436
tp481
a(I4861652
I5405342
tp482
a(I4861652
I5472775
tp483
a(I4861652
I5527302
tp484
a(I4861652
I5540796
tp485
a(I4861652
I6004306
tp486
a(I4861652
I6120487
tp487
a(I4939016
I5284703
tp488
a(I4939016
I5385775
tp489
a(I4939016
I5389202
tp490
a(I4939016
I5393599
tp491
a(I4939016
I5540976
tp492
a(I4939016
I5804021
tp493
a(I4939016
I6156842
tp494
a(I4939016
I6200669
tp495
a(I5032120
I5611790
tp496
a(I5334446
I5591152
tp497
a(I5334446
I6015764
tp498
a(I5393599
I5804021
tp499
a(I5393599
I5883028
tp500
a(I5393599
I6015764
tp501
a(I5562646
I5820973
tp502
a(I5599335
I5820973
tp503
a(I5599335
I6759431
tp504
a(I6379383
I7186265
tp505
a(I6537310
I6865810
tp506
a(I6544249
I6666841
tp507
a(I6544249
I6736791
tp508
a(I6544249
I6955656
tp509
a(I7108701
I7506791
tp510
a(I7108701
I7588175
tp511
a(I7108701
I7588176
tp512
a(I7108701
I7604151
tp513
a(I7108701
I7607557
tp514
a(I7108701
I7669746
tp515
a(I7108701
I7669747
tp516
a(I7108701
I7673781
tp517
a(I7108701
I7673782
tp518
a(I7108701
I7731072
tp519
a(I7108701
I7735703
tp520
a(I7108701
I7794475
tp521
a(I7108701
I7934630
tp522
a(I5147343
I5304161
tp523
a(I5147343
I5342338
tp524
a(I5147343
I5439458
tp525
a(I5147343
I5460622
tp526
a(I5147343
I5540796
tp527
a(I5147343
I5562650
tp528
a(I5147343
I5599335
tp529
a(I5147343
I5601542
tp530
a(I5147343
I5669894
tp531
a(I5147343
I5770086
tp532
a(I5147343
I6261679
tp533
a(I5147343
I6271278
tp534
a(I5147345
I5268224
tp535
a(I5147345
I5300054
tp536
a(I5147345
I5304161
tp537
a(I5147345
I5387207
tp538
a(I5147345
I5397316
tp539
a(I5147345
I5429629
tp540
a(I5147345
I5439458
tp541
a(I5147345
I5460622
tp542
a(I5147345
I5562650
tp543
a(I5147345
I5820973
tp544
a(I5147345
I5938648
tp545
a(I5147345
I6261679
tp546
a(I5149335
I5300054
tp547
a(I5149335
I5304161
tp548
a(I5149335
I5439458
tp549
a(I5149335
I5460622
tp550
a(I5149335
I5496298
tp551
a(I5149335
I5562646
tp552
a(I5149335
I5599335
tp553
a(I5149335
I5601542
tp554
a(I5149335
I5645542
tp555
a(I5149335
I5669894
tp556
a(I5149335
I5840403
tp557
a(I5149335
I6271278
tp558
a(I5217445
I5429629
tp559
a(I5217445
I5439458
tp560
a(I5217445
I5460622
tp561
a(I5217445
I5531728
tp562
a(I5217445
I5820973
tp563
a(I5304161
I5439458
tp564
a(I5304161
I5531728
tp565
a(I5304161
I5820973
tp566
a(I5304161
I5865823
tp567
a(I5304161
I6096668
tp568
a(I5360420
I5531728
tp569
a(I5360420
I5820973
tp570
a(I5439458
I5820973
tp571
a(I5496298
I5897545
tp572
a(I5496298
I5957908
tp573
a(I5496298
I6645190
tp574
a(I5531728
I5820973
tp575
a(I5562650
I5820973
tp576
a(I5562650
I6036805
tp577
a(I5601542
I6096668
tp578
a(I5911222
I6685681
tp579
a(I5911222
I6752794
tp580
a(I5911222
I6800074
tp581
a(I5911222
I6855135
tp582
a(I5911222
I6936037
tp583
a(I5911222
I6951553
tp584
a(I5911222
I6979324
tp585
a(I5911222
I7022113
tp586
a(I5911222
I7195624
tp587
a(I5911222
I7276051
tp588
a(I5294482
I5540976
tp589
a(I5300054
I5439458
tp590
a(I5300054
I5460622
tp591
a(I5300054
I5531728
tp592
a(I5300054
I5820973
tp593
a(I5399219
I5540796
tp594
a(I5399219
I5580411
tp595
a(I5399219
I5595618
tp596
a(I5399219
I6036805
tp597
a(I5399219
I6645190
tp598
a(I5540796
I6036805
tp599
a(I5236430
I5370634
tp600
a(I5236430
I5569234
tp601
a(I5236430
I5624420
tp602
a(I5236430
I6120489
tp603
a(I5242436
I5531732
tp604
a(I5242436
I5554145
tp605
a(I5242436
I5624427
tp606
a(I5242436
I5669897
tp607
a(I5242436
I6004306
tp608
a(I5242436
I6036805
tp609
a(I5242436
I6645190
tp610
a(I5246433
I5370634
tp611
a(I5246433
I5531732
tp612
a(I5246433
I5569234
tp613
a(I5246433
I5669897
tp614
a(I5246433
I5897545
tp615
a(I5246433
I6004306
tp616
a(I5246433
I6120487
tp617
a(I5246433
I6120489
tp618
a(I5591152
I5766389
tp619
a(I5591152
I6036805
tp620
a(I5669897
I6004306
tp621
a(I5669897
I6036805
tp622
a(I5669897
I6645190
tp623
a(I5580411
I6015764
tp624
a(I5554145
I6004306
tp625
a(I5957908
I6645190
tp626
a(I5531732
I6036805
tp627
a(I5531732
I6645190
tp628
a(I5897545
I6036805
tp629
a(I5897545
I6645190
tp630
a(I5370634
I5531732
tp631
a(I5370634
I5554145
tp632
a(I5370634
I5591152
tp633
a(I5370634
I5595618
tp634
a(I5370634
I5669897
tp635
a(I5370634
I5897545
tp636
a(I5370634
I6004306
tp637
a(I5370634
I6036805
tp638
a(I5370634
I6645190
tp639
a(I5569234
I6036805
tp640
a(I5569234
I6120489
tp641
a(I5766389
I6645190
tp642
a(I5171236
I5342338
tp643
a(I5171236
I5514121
tp644
a(I5171236
I5846232
tp645
a(I5306266
I5514121
tp646
a(I5358500
I5540796
tp647
a(I5358500
I5554145
tp648
a(I5358500
I5569234
tp649
a(I5358500
I5595618
tp650
a(I5358500
I5669897
tp651
a(I5358500
I5938648
tp652
a(I5358500
I6004306
tp653
a(I5358500
I6036805
tp654
a(I5624427
I6645190
tp655
a(I5865823
I5938648
tp656
a(I6290685
I6685681
tp657
a(I6290685
I6701922
tp658
a(I6290685
I6752794
tp659
a(I6290685
I6800074
tp660
a(I6290685
I6855135
tp661
a(I6290685
I6979324
tp662
a(I6290685
I7022113
tp663
a(I6290685
I7195624
tp664
a(I6290685
I7276051
tp665
a(I6375871
I6939451
tp666
a(I6420622
I6979324
tp667
a(I5108827
I5336552
tp668
a(I5108827
I5382400
tp669
a(I5108827
I5540976
tp670
a(I5108827
I5759926
tp671
a(I5108827
I5820973
tp672
a(I5284703
I5804021
tp673
a(I5284703
I6200669
tp674
a(I5389202
I5990377
tp675
a(I5389202
I6315864
tp676
a(I6156842
I6664335
tp677
a(I6156842
I6758863
tp678
a(I7506791
I7597229
tp679
a(I7506791
I7604150
tp680
a(I7506791
I7658311
tp681
a(I7506791
I7673780
tp682
a(I7506791
I7721931
tp683
a(I7506791
I7721934
tp684
a(I7506791
I7721936
tp685
a(I7506791
I7731072
tp686
a(I7506791
I7738971
tp687
a(I7506791
I7753245
tp688
a(I7506791
I7753904
tp689
a(I7506791
I7794475
tp690
a(I7506791
I7799039
tp691
a(I7506791
I7810693
tp692
a(I7506791
I7819299
tp693
a(I7506791
I7832408
tp694
a(I7506791
I7845537
tp695
a(I7506791
I7900805
tp696
a(I7506791
I7905380
tp697
a(I7506791
I7918377
tp698
a(I7588175
I7819296
tp699
a(I7588175
I7819297
tp700
a(I7588175
I7819298
tp701
a(I7588175
I7832612
tp702
a(I7588175
I7837080
tp703
a(I7588175
I7857186
tp704
a(I7588175
I7861906
tp705
a(I7588175
I7866527
tp706
a(I7588175
I7905380
tp707
a(I7588175
I7905381
tp708
a(I7588175
I7922061
tp709
a(I7588175
I7934630
tp710
a(I7588175
I7954686
tp711
a(I7588176
I7819296
tp712
a(I7588176
I7819297
tp713
a(I7588176
I7819298
tp714
a(I7588176
I7832612
tp715
a(I7588176
I7837080
tp716
a(I7588176
I7857186
tp717
a(I7588176
I7861906
tp718
a(I7588176
I7866527
tp719
a(I7588176
I7905380
tp720
a(I7588176
I7905381
tp721
a(I7588176
I7922061
tp722
a(I7588176
I7934630
tp723
a(I7588176
I7954686
tp724
a(I7604151
I7819296
tp725
a(I7604151
I7819297
tp726
a(I7604151
I7819298
tp727
a(I7604151
I7832612
tp728
a(I7604151
I7837080
tp729
a(I7604151
I7857186
tp730
a(I7604151
I7861906
tp731
a(I7604151
I7866527
tp732
a(I7604151
I7905380
tp733
a(I7604151
I7905381
tp734
a(I7604151
I7922061
tp735
a(I7604151
I7934630
tp736
a(I7604151
I7954686
tp737
a(I7604151
I8011555
tp738
a(I7669747
I7819296
tp739
a(I7669747
I7819297
tp740
a(I7669747
I7819298
tp741
a(I7669747
I7832612
tp742
a(I7669747
I7837080
tp743
a(I7669747
I7857186
tp744
a(I7669747
I7861906
tp745
a(I7669747
I7866527
tp746
a(I7669747
I7905380
tp747
a(I7669747
I7905381
tp748
a(I7669747
I7954686
tp749
a(I7673782
I7819296
tp750
a(I7673782
I7819297
tp751
a(I7673782
I7819298
tp752
a(I7673782
I7832612
tp753
a(I7673782
I7837080
tp754
a(I7673782
I7857186
tp755
a(I7673782
I7861906
tp756
a(I7673782
I7866527
tp757
a(I7673782
I7905380
tp758
a(I7673782
I7905381
tp759
a(I7673782
I7954686
tp760
a(I7731072
I7832612
tp761
a(I7731072
I7857186
tp762
a(I7731072
I7861906
tp763
a(I7731072
I7866527
tp764
a(I7731072
I7905380
tp765
a(I7731072
I7905381
tp766
a(I7731072
I7954686
tp767
a(I7735703
I7832612
tp768
a(I7735703
I7857186
tp769
a(I7735703
I7861906
tp770
a(I7735703
I7866527
tp771
a(I7735703
I7905380
tp772
a(I7735703
I7905381
tp773
a(I7735703
I7954686
tp774
a(I7794475
I7905380
tp775
a(dp776
I4938753
(lp777
Vstretchabl
p778
aVseam
p779
aVliner
p780
aVabsorb
p781
aVportion
p782
aVconstruct
p783
aVcomposit
p784
aVlayer
p785
aVmember
p786
aVcover
p787
asI7735703
(lp788
Vstapl
p789
aVanvil
p790
aVcartridg
p791
aVsurgic
p792
aVshaft
p793
aVembodi
p794
aVactuat
p795
aVloadabl
p796
aVstapler
p797
aVelong
p798
asI4938757
(lp799
Vstretchabl
p800
aVabsorb
p801
aVgarment
p802
aVpant
p803
aVsnug
p804
aVwearer
p805
aVpanel
p806
aVagainst
p807
aVleg
p808
aVpervious
p809
asI5669894
(lp810
Vhydrogel
p811
aVabsorb
p812
aVgel
p813
aVzone
p814
aVfluid
p815
aVabout
p816
aVpolym
p817
aVpup
p818
aVsfc
p819
aVwet
p820
asI5472775
(lp821
sI5669897
(lp822
Vwearer
p823
aVabsorb
p824
aVarticl
p825
aVfit
p826
aVsustain
p827
aVelast
p828
aVdynam
p829
aVdiaper
p830
aVdesign
p831
aVfeatur
p832
asI7900805
(lp833
Vinstrument
p834
aVsurgic
p835
aVpackag
p836
aVsourc
p837
aVpower
p838
aVauxiliari
p839
aVcompon
p840
aVlaparoscop
p841
aVassembl
p842
aVwithin
p843
asI7832408
(lp844
Vratchet
p845
aVpawl
p846
aVsurgic
p847
aVtrigger
p848
aVeffector
p849
aVinstrument
p850
aVstapl
p851
aVassembl
p852
aVcut
p853
aVconfigur
p854
asI5840403
(lp855
Vpaper
p856
aVchemic
p857
aVelev
p858
aVtissu
p859
aVcellulos
p860
aVcomposit
p861
aVsubstrat
p862
aVtopographi
p863
aVstructur
p864
aVfacial
p865
asI5399219
(lp866
Vweb
p867
aVsubstrat
p868
aV140
p869
aVstiffen
p870
aVlongitudin
p871
aV144
p872
aVfasten
p873
aV142
p874
aVmajor
p875
aVregion
p876
asI8011555
(lp877
Vknife
p878
aVanvil
p879
aVblade
p880
aVassembl
p881
aVcartridg
p882
aVtissu
p883
aVsurgic
p884
aVstapl
p885
aVslot
p886
aVelong
p887
asI6752794
(lp888
Vwound
p889
aVvacuum
p890
aVmember
p891
aVbandag
p892
aVcontact
p893
aVport
p894
aVsurfac
p895
aVhole
p896
aVcleans
p897
aVdress
p898
asI6261679
(lp899
Vfibrous
p900
aVabsorb
p901
aVfoam
p902
aVcell
p903
aVvoid
p904
aVwet
p905
aVstructur
p906
aVstabl
p907
aVdensiti
p908
aVvolum
p909
asI7753245
(lp910
Veffector
p911
aVfire
p912
aVpawl
p913
aVinstrument
p914
aVreel
p915
aVtrigger
p916
aVshaft
p917
aVmember
p918
aVsurgic
p919
aVend
p920
asI4847134
(lp921
Vstretchabl
p922
aVlayer
p923
aVbodysid
p924
aVundergar
p925
aVabsorb
p926
aVabout
p927
aVrear
p928
aVbond
p929
aVrugos
p930
aVend
p931
asI7819296
(lp932
Vretract
p933
aVstapl
p934
aVfulli
p935
aVsurgic
p936
aVhandl
p937
aVfire
p938
aVshaft
p939
aVactuat
p940
aVhous
p941
aVposit
p942
asI7022113
(lp943
Vwound
p944
aVbandag
p945
aVvacuum
p946
aVnegat
p947
aVchang
p948
aVpressur
p949
aVcontrol
p950
aVrate
p951
aVcaregiv
p952
aVpatient
p953
asI5208098
(lp954
Vnonwoven
p955
aVporous
p956
aVweb
p957
aVself
p958
aVbond
p959
aVfilm
p960
aVimperm
p961
aVfibrous
p962
aVfilament
p963
aVcomposit
p964
asI7738971
(lp965
Vsurgic
p966
aVinstrument
p967
aVsteril
p968
aVprogram
p969
aVcontain
p970
aVwhile
p971
aVprogramm
p972
aVunit
p973
aVpost
p974
aVpackag
p975
asI5171236
(lp976
Vtopsheet
p977
aVforeshorten
p978
aVbacksheet
p979
aVabsorb
p980
aVarticl
p981
aVvoid
p982
aVfecal
p983
aVdispos
p984
aVdiaper
p985
aVspace
p986
asI5601542
(lp987
Vsuperabsorb
p988
aVabsorb
p989
aVabout
p990
aVindex
p991
aV100
p992
aVgarment
p993
aVmateri
p994
aVcomposit
p995
aVcontain
p996
aVpercent
p997
asI5171239
(lp998
Vtopsheet
p999
aVbacksheet
p1000
aVunderp
p1001
aVelast
p1002
aVdiaper
p1003
aVgarment
p1004
aVpermeabl
p1005
aVzone
p1006
aVcrotch
p1007
aVbrief
p1008
asI6120489
(lp1009
Vdistal
p1010
aVseam
p1011
aVportion
p1012
aVproxim
p1013
aVfirst
p1014
aVmelt
p1015
aVflangeless
p1016
aVpoint
p1017
aVprefer
p1018
aVarticl
p1019
asI6156842
(lp1020
Varticl
p1021
aVreshap
p1022
aVfabric
p1023
aVpertain
p1024
aVbehavior
p1025
aVshape
p1026
aVstructur
p1027
aVtheir
p1028
aVmemori
p1029
aVprepar
p1030
asI6759431
(lp1031
Vagent
p1032
aVanti
p1033
aVpassageway
p1034
aVtherapeut
p1035
aVdiseas
p1036
aVangiogen
p1037
aVbodi
p1038
aVprolif
p1039
aVtreat
p1040
aVantibiot
p1041
asI5820973
(lp1042
Vpermeabl
p1043
aVdarci
p1044
aVsurg
p1045
aVlayer
p1046
aVinsult
p1047
aVshould
p1048
aVcapillari
p1049
aV1000
p1050
aVcare
p1051
aVproduct
p1052
asI5385775
(lp1053
Vfibrous
p1054
aVelast
p1055
aVanisotrop
p1056
aVweb
p1057
aVelastomer
p1058
aVmeltblown
p1059
aVgather
p1060
aVabout
p1061
aVfilament
p1062
aVleast
p1063
asI5169712
(lp1064
Vethylen
p1065
aVporous
p1066
aVfabric
p1067
aVnonwoven
p1068
aVpolypropylen
p1069
aVpropylen
p1070
aVspherulit
p1071
aVfilm
p1072
aVcopolym
p1073
aVmeltblown
p1074
asI6179890
(lp1075
Vmedia
p1076
aVpack
p1077
aVconstruct
p1078
aVcleaner
p1079
aVhous
p1080
aVfilter
p1081
aVair
p1082
aVseal
p1083
aVarrang
p1084
aVflow
p1085
asI5178931
(lp1086
Vnonwoven
p1087
aVweb
p1088
aVlaminifer
p1089
aVmicrofib
p1090
aVtopic
p1091
aVfilament
p1092
aVmicromet
p1093
aVlayer
p1094
aVadjac
p1095
aVthird
p1096
asI5284703
(lp1097
Vpulp
p1098
aVnonwoven
p1099
aVfabric
p1100
aVcontent
p1101
aVcomposit
p1102
aVhigh
p1103
aVabsorb
p1104
aVentangl
p1105
aVwiper
p1106
aVmateri
p1107
asI6849085
(lp1108
Vlamin
p1109
aVstent
p1110
aVendolumin
p1111
aVstructur
p1112
aVmetal
p1113
aVgraft
p1114
aVmateri
p1115
aVfilm
p1116
aVdeposit
p1117
aVmade
p1118
asI7673781
(lp1119
Vstapl
p1120
aVdriver
p1121
aVanvil
p1122
aVsupport
p1123
aVsurgic
p1124
aVactuat
p1125
aVcartridg
p1126
aVdiamet
p1127
aVwire
p1128
aVupper
p1129
asI5935883
(lp1130
Vmicrofib
p1131
aVsuperfin
p1132
aVweb
p1133
aVgroup
p1134
aVfiber
p1135
aVpolym
p1136
aVsplit
p1137
aVmeltblown
p1138
aVcompon
p1139
aVcontain
p1140
asI5242436
(lp1141
Velastic
p1142
aVwaistband
p1143
aVwaist
p1144
aVdiaper
p1145
aVabsorb
p1146
aVarticl
p1147
aVfasten
p1148
aVclosur
p1149
aVtension
p1150
aVdynam
p1151
asI7673782
(lp1152
Vbuttress
p1153
aVstapl
p1154
aVanvil
p1155
aVcartridg
p1156
aVsurgic
p1157
aVmateri
p1158
aVremov
p1159
aVstapler
p1160
aVretain
p1161
aVlip
p1162
asI6701922
(lp1163
Vaerosol
p1164
aVmouthpiec
p1165
aVambient
p1166
aVair
p1167
aVairflow
p1168
aVentrain
p1169
aVdroplet
p1170
aVfunnel
p1171
aVdesir
p1172
aVpassageway
p1173
asI5531728
(lp1174
Vabout
p1175
aVacquisit
p1176
aVaverag
p1177
aVstiffen
p1178
aVdistribut
p1179
aVlayer
p1180
aVfluid
p1181
aVnacl
p1182
aVdri
p1183
aVdensiti
p1184
asI6004306
(lp1185
Vwaist
p1186
aVpanel
p1187
aVthigh
p1188
aVwearer
p1189
aVdiaper
p1190
aVextens
p1191
aVabsorb
p1192
aVtopsheet
p1193
aVbacksheet
p1194
aVarticl
p1195
asI5531732
(lp1196
Vfibrous
p1197
aVfasten
p1198
aVpant
p1199
aVtab
p1200
aVweb
p1201
aVmechan
p1202
aVtrain
p1203
aVdispos
p1204
aVincontin
p1205
aVfit
p1206
asI5486166
(lp1207
Vnonwoven
p1208
aVabout
p1209
aVcentimet
p1210
aVweb
p1211
aVper
p1212
aVgram
p1213
aVfibrous
p1214
aVlofti
p1215
aVpercent
p1216
aVsquar
p1217
asI6695865
(lp1218
Vgraft
p1219
aVmember
p1220
aVembol
p1221
aVguidewir
p1222
aVdiametr
p1223
aVlumen
p1224
aVcathet
p1225
aVfrustrocon
p1226
aVdeploy
p1227
aVundeploy
p1228
asI6666841
(lp1229
Vtrabecular
p1230
aVbifurcat
p1231
aVshunt
p1232
aVschlemm
p1233
aVglaucoma
p1234
aVcanal
p1235
aVmeshwork
p1236
aVsection
p1237
aVoutlet
p1238
aVanterior
p1239
asI5108827
(lp1240
Vnoncontinu
p1241
aVphase
p1242
aVnonwoven
p1243
aVfiber
p1244
aVfabric
p1245
aVmulticonstitu
p1246
aVpolym
p1247
aVpmt
p1248
aVmulticonstitut
p1249
aVcsr
p1250
asI7108701
(lp1251
Vmedic
p1252
aVdrug
p1253
aVorgan
p1254
aVbiocompat
p1255
aVdevic
p1256
aVintroduct
p1257
aVcoat
p1258
aVagent
p1259
aVbiolog
p1260
aVmay
p1261
asI6537310
(lp1262
Vendolumin
p1263
aVstent
p1264
aVgraft
p1265
aVheterogen
p1266
aVmateri
p1267
aVblood
p1268
aVregion
p1269
aVimplant
p1270
aVweb
p1271
aVsubtend
p1272
asI5554145
(lp1273
Vextens
p1274
aVwaist
p1275
aVpanel
p1276
aVabsorb
p1277
aVfeatur
p1278
aVelast
p1279
aVdiaper
p1280
aVarticl
p1281
aVfit
p1282
aVweb
p1283
asI5624420
(lp1284
Vpant
p1285
aVtear
p1286
aVelast
p1287
aVwearer
p1288
aVwaistband
p1289
aVperfor
p1290
aVnonelastic
p1291
aVline
p1292
aVsite
p1293
aVleg
p1294
asI7905381
(lp1295
Vjaw
p1296
aVmember
p1297
aVstapl
p1298
aVcut
p1299
aVsurgic
p1300
aVinstrument
p1301
aVpartial
p1302
aVhous
p1303
aVyet
p1304
aVcan
p1305
asI5599335
(lp1306
Vhydrogel
p1307
aVabsorb
p1308
aVgel
p1309
aVzone
p1310
aVfluid
p1311
aVabout
p1312
aVpolym
p1313
aVpup
p1314
aVsfc
p1315
aVwet
p1316
asI5624427
(lp1317
Vweb
p1318
aVrefasten
p1319
aVelong
p1320
aVundergo
p1321
aVfemal
p1322
aVsubstanti
p1323
aVregion
p1324
aVnonwoven
p1325
aVdeform
p1326
aVelast
p1327
asI5843056
(lp1328
Vbacksheet
p1329
aVtopsheet
p1330
aVcomposit
p1331
aVabsorb
p1332
aVclothlik
p1333
aVpermeabl
p1334
aVarticl
p1335
aVbreathabl
p1336
aVnonwoven
p1337
aVface
p1338
asI7276051
(lp1339
Vwound
p1340
aVconduit
p1341
aVbandag
p1342
aVdrainag
p1343
aVfluid
p1344
aVtreatment
p1345
aVsuppli
p1346
aVnebul
p1347
aVcaviti
p1348
aVmedicin
p1349
asI5957908
(lp1350
Vdiaper
p1351
aVwearer
p1352
aVabsorb
p1353
aVear
p1354
aVarticl
p1355
aVpull
p1356
aVpant
p1357
aVfasten
p1358
aVenough
p1359
aVpanel
p1360
asI4891258
(lp1361
Vstretchabl
p1362
aVlayer
p1363
aVpervious
p1364
aVimpervi
p1365
aVabsorb
p1366
aVliquid
p1367
aVrugos
p1368
aVstretch
p1369
aVcomposit
p1370
aVrelax
p1371
asI5580411
(lp1372
Vpanel
p1373
aVinward
p1374
aVscrap
p1375
aVdistal
p1376
aVmachin
p1377
aVweb
p1378
aVabsorb
p1379
aVarticl
p1380
aVelement
p1381
aVfirst
p1382
asI5143679
(lp1383
Vstretch
p1384
aVweb
p1385
aVlamin
p1386
aVpli
p1387
aVstrain
p1388
aVzero
p1389
aVsequenti
p1390
aVelastomer
p1391
aViniti
p1392
aVmesh
p1393
asI6951553
(lp1394
Vftc
p1395
aVunderdrap
p1396
aVpatient
p1397
aVsuction
p1398
aVclosur
p1399
aVmanual
p1400
aVtissu
p1401
aVplace
p1402
aVfluid
p1403
aVinterfac
p1404
asI5342338
(lp1405
Vfecal
p1406
aVtopsheet
p1407
aVabsorb
p1408
aVarticl
p1409
aVmateri
p1410
aVviscos
p1411
aVdispos
p1412
aVsecondari
p1413
aVcompon
p1414
aVdewat
p1415
asI7810693
(lp1416
Veffector
p1417
aVarticulat
p1418
aVinstrument
p1419
aVsurgic
p1420
aVend
p1421
aVproxim
p1422
aVstapl
p1423
aVframe
p1424
aVarticul
p1425
aVpassiv
p1426
asI6955656
(lp1427
Vtrabecular
p1428
aVmeshwork
p1429
aVseton
p1430
aVglaucoma
p1431
aVimplant
p1432
aVbypass
p1433
aVsurgic
p1434
aVoutflow
p1435
aVdiseas
p1436
aVvein
p1437
asI4657802
(lp1438
sI4798603
(lp1439
Vabsorb
p1440
aVtopsheet
p1441
aVpore
p1442
aVcompos
p1443
aVlayer
p1444
aVhydrophob
p1445
aVhydrophil
p1446
aVbodi
p1447
aVpermeabl
p1448
aVsize
p1449
asI6420622
(lp1450
Vdress
p1451
aVtympanostomi
p1452
aVfluid
p1453
aVarticl
p1454
aVfilm
p1455
aVwound
p1456
aVmedic
p1457
aVsweat
p1458
aVmicrochannel
p1459
aVintraven
p1460
asI6664335
(lp1461
Vpolyurethan
p1462
aVarticl
p1463
aVmedic
p1464
aVshape
p1465
aVbiomed
p1466
aVlinker
p1467
aVmemori
p1468
aVelastom
p1469
aVreactiv
p1470
aVirradi
p1471
asI4655760
(lp1472
sI7861906
(lp1473
Varticul
p1474
aVsegment
p1475
aVbodi
p1476
aVintermedi
p1477
aVdistal
p1478
aVjoint
p1479
aVstapl
p1480
aVsurgic
p1481
aVassembl
p1482
aVaxi
p1483
asI5871763
(lp1484
Vcalori
p1485
aVgram
p1486
aVabout
p1487
aVlotion
p1488
aVdegre
p1489
aVabov
p1490
aVdelta
p1491
aVmelt
p1492
aVemolli
p1493
aVprefer
p1494
asI5883028
(lp1495
Vbreathabl
p1496
aVlamin
p1497
aVnonwoven
p1498
aVweb
p1499
aVelast
p1500
aVneckabl
p1501
aVneck
p1502
aVfilm
p1503
aVvapor
p1504
aVstretchabl
p1505
asI6746773
(lp1506
Vmoieti
p1507
aVcoat
p1508
aVfilm
p1509
aVmedic
p1510
aVimplant
p1511
aVvinylidenefluorid
p1512
aVmammal
p1513
aVpolyfluoro
p1514
aVmed
p1515
aVresidu
p1516
asI4668566
(lp1517
Vnonwoven
p1518
aVweb
p1519
aVthermoplast
p1520
aVpolyethylen
p1521
aVmultilay
p1522
aVfabric
p1523
aVmonofila
p1524
aVlayer
p1525
aVmateri
p1526
aVpolypropylen
p1527
asI5509913
(lp1528
Vflushabl
p1529
aVsewag
p1530
aVtoilet
p1531
aVmunicip
p1532
aVpresenc
p1533
aVhospit
p1534
aVdisintegr
p1535
aVhygien
p1536
aVhousehold
p1537
aVclog
p1538
asI7845537
(lp1539
Veffector
p1540
aVsurgic
p1541
aVinstrument
p1542
aVsensor
p1543
aVtrigger
p1544
aVmemori
p1545
aVfirst
p1546
aVoutput
p1547
aVrecord
p1548
aVend
p1549
asI5405342
(lp1550
Vbodysid
p1551
aVliner
p1552
aVabsorb
p1553
aVpocket
p1554
aVpad
p1555
aVinsert
p1556
aVarticl
p1557
aVcotermin
p1558
aVflushabl
p1559
aVexud
p1560
asI7866527
(lp1561
Vhandl
p1562
aVfire
p1563
aVmovabl
p1564
aVlockout
p1565
aVactuat
p1566
aVstapl
p1567
aVsurgic
p1568
aVshaft
p1569
aVassembl
p1570
aVmanipul
p1571
asI5540976
(lp1572
Vnonwoven
p1573
aVlamin
p1574
aVlayer
p1575
aVstretch
p1576
aVhydroentangl
p1577
aVcrimpabl
p1578
aVspunbond
p1579
aVthem
p1580
aVfiber
p1581
aVcross
p1582
asI5217445
(lp1583
Vabout
p1584
aVsuperabsorb
p1585
aVaverag
p1586
aVaquisit
p1587
aVwetlaid
p1588
aVacquisit
p1589
aVdistribut
p1590
aVlayer
p1591
aVfluid
p1592
aVnacl
p1593
asI7934630
(lp1594
Vstapl
p1595
aVcartridg
p1596
aVactuat
p1597
aVanvil
p1598
aVvarious
p1599
aVdriver
p1600
aVheight
p1601
aVclamp
p1602
aVembodi
p1603
aVthereon
p1604
asI5387207
(lp1605
Vfoam
p1606
aVpolymer
p1607
aVthin
p1608
aVemuls
p1609
aVhipe
p1610
aVcollaps
p1611
aVfluid
p1612
aVunexpand
p1613
aVaqueous
p1614
aVabsorb
p1615
asI7597229
(lp1616
Vanvil
p1617
aVsurgic
p1618
aVclosur
p1619
aVinstrument
p1620
aVclose
p1621
aVposit
p1622
aVeffector
p1623
aVlock
p1624
aVpartial
p1625
aVconfigur
p1626
asI4940464
(lp1627
Vabsorb
p1628
aVgarment
p1629
aVpant
p1630
aVstretchabl
p1631
aVsnug
p1632
aVgather
p1633
aVwearer
p1634
aVassembl
p1635
aVagainst
p1636
aVgeneral
p1637
asI6135987
(lp1638
Vmulticarboxyl
p1639
aVcompon
p1640
aVthermoplast
p1641
aVfiber
p1642
aVspecifi
p1643
aVacid
p1644
aVangstrom
p1645
aVsynthet
p1646
aVunreact
p1647
aVcrystal
p1648
asI5911222
(lp1649
Vmembran
p1650
aVvacuum
p1651
aVentranc
p1652
aVinterfac
p1653
aVwet
p1654
aVporous
p1655
aVliquid
p1656
aVzone
p1657
aVsourc
p1658
aVremov
p1659
asI5032120
(lp1660
Vcuff
p1661
aVleg
p1662
aVdiaper
p1663
aVwearer
p1664
aVultim
p1665
aVarticl
p1666
aVmargin
p1667
aVelong
p1668
aVrelat
p1669
aVforc
p1670
asI5213881
(lp1671
Vmicron
p1672
aVpore
p1673
aVweb
p1674
aVdistribut
p1675
aVnonwoven
p1676
aVrang
p1677
aVpih
p1678
aVperoxid
p1679
aVgms
p1680
aVsize
p1681
asI5393599
(lp1682
Vfabric
p1683
aVfibrous
p1684
aVelast
p1685
aVmachin
p1686
aVdirect
p1687
aVlayer
p1688
aVcross
p1689
aVnonwoven
p1690
aVfilament
p1691
aVsubstanti
p1692
asI7905380
(lp1693
Vrate
p1694
aVcut
p1695
aVretract
p1696
aVadvanc
p1697
aVdriver
p1698
aVmember
p1699
aVsurgic
p1700
aVowe
p1701
aVinstrument
p1702
aVstapl
p1703
asI4990147
(lp1704
Vliner
p1705
aVwast
p1706
aVbacksheet
p1707
aVpassageway
p1708
aVelast
p1709
aVabsorb
p1710
aVskin
p1711
aVanal
p1712
aVarticl
p1713
aVisol
p1714
asI7819297
(lp1715
Vhandl
p1716
aVstapl
p1717
aVsegment
p1718
aVsteril
p1719
aVsurgic
p1720
aVreprocess
p1721
aVvarious
p1722
aVreusabl
p1723
aVhous
p1724
aVremov
p1725
asI6733513
(lp1726
Vballoon
p1727
aVcathet
p1728
aVmetal
p1729
aVtubular
p1730
aVannulus
p1731
aVmain
p1732
aVbodi
p1733
aVinflat
p1734
aVguidewir
p1735
aVcentral
p1736
asI6800074
(lp1737
Vbandag
p1738
aVcanist
p1739
aVvacuum
p1740
aVwound
p1741
aVfluid
p1742
aVcoupl
p1743
aVpump
p1744
aVsourc
p1745
aVappli
p1746
aVwast
p1747
asI7819298
(lp1748
Vstapl
p1749
aVrotat
p1750
aVshroud
p1751
aVsurgic
p1752
aVlockabl
p1753
aVapparatus
p1754
aVdistal
p1755
aVhand
p1756
aVfeatur
p1757
aVhandl
p1758
asI5236430
(lp1759
Vseam
p1760
aVarea
p1761
aVchassi
p1762
aVgarment
p1763
aVfusion
p1764
aVwill
p1765
aVslit
p1766
aVflangeless
p1767
aVportion
p1768
aVprefer
p1769
asI5147343
(lp1770
Vsuperabsorb
p1771
aVabsorb
p1772
aVpore
p1773
aVinterfib
p1774
aVabil
p1775
aVmillilit
p1776
aVdyne
p1777
aVmateri
p1778
aVmatrix
p1779
aVabout
p1780
asI5147345
(lp1781
Vacquisit
p1782
aVabsorb
p1783
aVfluid
p1784
aVredistribut
p1785
aVfoam
p1786
aVcompon
p1787
aVincontin
p1788
aVdistribut
p1789
aVcapac
p1790
aVurin
p1791
asI5569234
(lp1792
Vregion
p1793
aVchassi
p1794
aVbelt
p1795
aVgarment
p1796
aVcrotch
p1797
aVlayer
p1798
aVpull
p1799
aVwaist
p1800
aVfront
p1801
aVback
p1802
asI7819299
(lp1803
Vtrigger
p1804
aVstapl
p1805
aVsurgic
p1806
aVactuat
p1807
aVinstrument
p1808
aVjaw
p1809
aVsurgeon
p1810
aVincis
p1811
aVclose
p1812
aVmember
p1813
asI4861652
(lp1814
Vwaistband
p1815
aVbacksheet
p1816
aVtopsheet
p1817
aVlayer
p1818
aVarticl
p1819
aVshirr
p1820
aVelastic
p1821
aVabsorb
p1822
aVdiaper
p1823
aVwaist
p1824
asI5846232
(lp1825
Vbodysid
p1826
aVlayer
p1827
aVextens
p1828
aVzone
p1829
aVliner
p1830
aVelast
p1831
aVcover
p1832
aVouter
p1833
aVabsorb
p1834
aVarticl
p1835
asI7832612
(lp1836
Vlatch
p1837
aVjaw
p1838
aVmember
p1839
aVcut
p1840
aVlock
p1841
aVsurgic
p1842
aVfulli
p1843
aVadvanc
p1844
aVlockout
p1845
aVstapler
p1846
asI6758863
(lp1847
Vspacer
p1848
aVintervertebr
p1849
aVdeform
p1850
aVconform
p1851
aVvertebra
p1852
aVconfigur
p1853
aVdisc
p1854
aVorigin
p1855
aVrevert
p1856
aVspace
p1857
asI5458590
(lp1858
Vink
p1859
aVnonwoven
p1860
aVweb
p1861
aVcrockfast
p1862
aVfibrous
p1863
aVprint
p1864
aVbasi
p1865
aVweight
p1866
aVcare
p1867
aVlow
p1868
asI5645542
(lp1869
Velastomer
p1870
aVabsorb
p1871
aVstructur
p1872
aVfiber
p1873
aVthermoplast
p1874
aVwettabl
p1875
aVstapl
p1876
aVotherwis
p1877
aVident
p1878
aVexhibit
p1879
asI6743273
(lp1880
Vnanofib
p1881
aVmicrofib
p1882
aVpolym
p1883
aVmateri
p1884
aVapplic
p1885
aVimprov
p1886
aVstructur
p1887
aVfine
p1888
aVvarieti
p1889
aVdisclos
p1890
asI4857067
(lp1891
Vdiaper
p1892
aVshir
p1893
aVelasticiz
p1894
aVear
p1895
aVheat
p1896
aVblank
p1897
aVbuttock
p1898
aVfingertip
p1899
aVinelast
p1900
aVflat
p1901
asI6673136
(lp1902
Vmedia
p1903
aVflute
p1904
aVpack
p1905
aVracetrack
p1906
aV240
p1907
aVarrang
p1908
aVsystem
p1909
aVcross
p1910
aVfilter
p1911
aV140
p1912
asI5766389
(lp1913
Vregist
p1914
aVmark
p1915
aVrefer
p1916
aVcontinu
p1917
aVlayer
p1918
aVgraphic
p1919
aVcompon
p1920
aVmove
p1921
aVarticl
p1922
aVdistanc
p1923
asI5116662
(lp1924
Velast
p1925
aVstretch
p1926
aVmateri
p1927
aVneck
p1928
aVleast
p1929
aVcomposit
p1930
aVsheet
p1931
aVnonlinear
p1932
aVtwo
p1933
aVdirect
p1934
asI7918377
(lp1935
Vanvil
p1936
aVfeedback
p1937
aVstapl
p1938
aVinstrument
p1939
aVsurgic
p1940
aVillumin
p1941
aVvarious
p1942
aVbeen
p1943
aVindic
p1944
aVdevic
p1945
asI5145727
(lp1946
Vnonwoven
p1947
aVmultilay
p1948
aVextrud
p1949
aVcomposit
p1950
aVstructur
p1951
aVmelt
p1952
aVlayer
p1953
aVtwo
p1954
aVleast
p1955
aVhas
p1956
asI6979324
(lp1957
Vpouch
p1958
aVwound
p1959
aVdrainag
p1960
aVportabl
p1961
aVtube
p1962
aVexud
p1963
aVlyogel
p1964
aVsuction
p1965
aVseal
p1966
aVskin
p1967
asI6290685
(lp1968
Vchannel
p1969
aVfluid
p1970
aVflow
p1971
aVdiscret
p1972
aVpotenti
p1973
aVmicrochannel
p1974
aVtransport
p1975
aVmicromet
p1976
aVabout
p1977
aV300
p1978
asI7954686
(lp1979
Vstapl
p1980
aVanvil
p1981
aVjaw
p1982
aVsled
p1983
aVcartridg
p1984
aVadjust
p1985
aVsurgic
p1986
aVdeploy
p1987
aVcan
p1988
aVdeform
p1989
asI7799039
(lp1990
Vsurgic
p1991
aVinstrument
p1992
aVeffector
p1993
aVhydraul
p1994
aVshaft
p1995
aVaxi
p1996
aVtransvers
p1997
aVmay
p1998
aVimplement
p1999
aVhandl
p2000
asI5382400
(lp2001
Vmulticompon
p2002
aVfilament
p2003
aVcrimp
p2004
aVnonwoven
p2005
aVfabric
p2006
aVlatent
p2007
aVweb
p2008
aVloft
p2009
aVhelic
p2010
aVcontinu
p2011
asI4965122
(lp2012
Vneck
p2013
aVmateri
p2014
aVrevers
p2015
aVstretch
p2016
aVpercent
p2017
aVabout
p2018
aVheat
p2019
aVonset
p2020
aVfusion
p2021
aVpossess
p2022
asI7794475
(lp2023
Vstapl
p2024
aVcrown
p2025
aVcrushabl
p2026
aVdeform
p2027
aVtissu
p2028
aVcompress
p2029
aVmember
p2030
aVspring
p2031
aVsurgic
p2032
aVwide
p2033
asI7607557
(lp2034
Vmedic
p2035
aVagent
p2036
aVstapl
p2037
aVdispens
p2038
aVsurgic
p2039
aVinstrument
p2040
aVpump
p2041
aVstructur
p2042
aVreservoir
p2043
aVdeliveri
p2044
asI5527302
(lp2045
Vtopsheet
p2046
aVwast
p2047
aVbacksheet
p2048
aVbodi
p2049
aVflap
p2050
aVconform
p2051
aVabsorb
p2052
aVcontain
p2053
aVarticl
p2054
aVmanag
p2055
asI4939016
(lp2056
Ventangl
p2057
aVmeltblown
p2058
aVnonwoven
p2059
aVelastomer
p2060
aVweb
p2061
aVfiber
p2062
aVhydraul
p2063
aVmateri
p2064
aVelast
p2065
aVlayer
p2066
asI5370634
(lp2067
Vwaist
p2068
aVportion
p2069
aVdiaper
p2070
aVleg
p2071
aVunderp
p2072
aVopen
p2073
aVpair
p2074
aVabsorb
p2075
aVdispos
p2076
aVrear
p2077
asI5932299
(lp2078
Vmodifi
p2079
aVbiofunct
p2080
aVobject
p2081
aVradiat
p2082
aVsurfac
p2083
aVhydrophob
p2084
aVhydrophil
p2085
aVmicrowav
p2086
aVinfrar
p2087
aVimpart
p2088
asI5611790
(lp2089
Vnapkin
p2090
aVstretchabl
p2091
aVsanitari
p2092
aVabsorb
p2093
aVarticl
p2094
aVwomen
p2095
aVworn
p2096
aVespeci
p2097
aVpresent
p2098
aVthin
p2099
asI5269775
(lp2100
Vtrisect
p2101
aVtopsheet
p2102
aVabsorb
p2103
aVarticl
p2104
aVdispos
p2105
aVextens
p2106
aVelast
p2107
aVfecal
p2108
aVlongitudin
p2109
aVvoid
p2110
asI5698322
(lp2111
sI6015764
(lp2112
sI5188885
(lp2113
Vlamin
p2114
aVfabric
p2115
aVolefin
p2116
aVroom
p2117
aVnonwoven
p2118
aVemiss
p2119
aVsteriliz
p2120
aVterpolym
p2121
aVdrape
p2122
aVgreater
p2123
asI5562646
(lp2124
Vhydrogel
p2125
aVabsorb
p2126
aVgel
p2127
aVabout
p2128
aVzone
p2129
aVfluid
p2130
aVpolym
p2131
aVpup
p2132
aVsfc
p2133
aVwet
p2134
asI5277976
(lp2135
Vfiber
p2136
aVdrawdown
p2137
aVshape
p2138
aVspun
p2139
aVreplic
p2140
aVclose
p2141
aVtemperatur
p2142
aVorific
p2143
aVdie
p2144
aVminimum
p2145
asI5167897
(lp2146
Vstretch
p2147
aVlamin
p2148
aVincrement
p2149
aVstrain
p2150
aVweb
p2151
aVpli
p2152
aVzero
p2153
aViniti
p2154
aVdirect
p2155
aVelastomer
p2156
asI5562650
(lp2157
Vsurg
p2158
aVtopsheet
p2159
aVbacksheet
p2160
aVretent
p2161
aVmanag
p2162
aVportion
p2163
aVlayer
p2164
aVedg
p2165
aVmedial
p2166
aVmargin
p2167
asI5509915
(lp2168
Vtopsheet
p2169
aVbacksheet
p2170
aVabsorb
p2171
aVlayer
p2172
aVfiber
p2173
aVarticl
p2174
aVabout
p2175
aVhydrophil
p2176
aVbicompon
p2177
aVdenier
p2178
asI6096668
(lp2179
Vlamin
p2180
aVnonwoven
p2181
aVsup
p2182
aVbarrier
p2183
aVspunbond
p2184
aVextens
p2185
aVweb
p2186
aVelast
p2187
aVloft
p2188
aVdensiti
p2189
asI5268224
(lp2190
Vabsorb
p2191
aVfoam
p2192
aVmateri
p2193
aVhipe
p2194
aVabout
p2195
aVkpa
p2196
aVaqueous
p2197
aVarticl
p2198
aVcompress
p2199
aVdiaper
p2200
asI4720415
(lp2201
Vweb
p2202
aVelast
p2203
aVgather
p2204
aVbond
p2205
aVcontract
p2206
aVrelax
p2207
aVcomposit
p2208
aVmateri
p2209
aVstretch
p2210
aVelong
p2211
asI4863779
(lp2212
Vweb
p2213
aVnonwoven
p2214
aVmonocarboxyl
p2215
aVmonom
p2216
aVblown
p2217
aVelast
p2218
aVfiber
p2219
aVvinyl
p2220
aVcomposit
p2221
aVouterwear
p2222
asI5360420
(lp2223
Vabout
p2224
aVacquisit
p2225
aVsuperabsorb
p2226
aVaverag
p2227
aVstiffen
p2228
aVdistribut
p2229
aVlayer
p2230
aVfluid
p2231
aVnacl
p2232
aVdri
p2233
asI4863785
(lp2234
Vnonwoven
p2235
aVprebond
p2236
aVmeltblown
p2237
aVspunbond
p2238
aVthermoplast
p2239
aVtrilamin
p2240
aVbond
p2241
aVpolym
p2242
aVmateri
p2243
aVcomposit
p2244
asI5536555
(lp2245
Vquilt
p2246
aVfilm
p2247
aVundul
p2248
aVlamin
p2249
aVslit
p2250
aVcomposit
p2251
aVpucker
p2252
aVlayer
p2253
aVdue
p2254
aVplane
p2255
asI4436780
(lp2256
Vwiper
p2257
aVmeltblown
p2258
aVmicrofib
p2259
aVfilament
p2260
aVlamin
p2261
aVnonwoven
p2262
aVwipe
p2263
aVpolypropylen
p2264
aVlayer
p2265
aVthermoplast
p2266
asI6271278
(lp2267
Vsuperpor
p2268
aVhydrogel
p2269
aVcrosslink
p2270
aVdisintegr
p2271
aVblow
p2272
aVagent
p2273
aVcomposit
p2274
aVmultiolefin
p2275
aVsodium
p2276
aVnahco
p2277
asI5374262
(lp2278
Vgarment
p2279
aVreleas
p2280
aVpad
p2281
aVattach
p2282
aVstrap
p2283
aVengag
p2284
aVwaist
p2285
aVsome
p2286
aVturn
p2287
aVfront
p2288
asI4741944
(lp2289
Vweb
p2290
aVwipe
p2291
aVelast
p2292
aVwet
p2293
aVnonwoven
p2294
aVnon
p2295
aVsheet
p2296
aVmeltblown
p2297
aVspunbond
p2298
aVdispens
p2299
asI6939451
(lp2300
Vmicrofluid
p2301
aVcompon
p2302
aVfilm
p2303
aVconduct
p2304
aVelectrokinet
p2305
aVintegr
p2306
aVnorbornen
p2307
aVdevic
p2308
aVelectrod
p2309
aVbubbl
p2310
asI7857186
(lp2311
Vjaw
p2312
aVmember
p2313
aVsecond
p2314
aVfirst
p2315
aVsurgic
p2316
aVlatch
p2317
aVanoth
p2318
aVstapler
p2319
aVposit
p2320
aVcircumst
p2321
asI6865810
(lp2322
Vtubular
p2323
aVmember
p2324
aVlayer
p2325
aVstent
p2326
aVmake
p2327
aVremov
p2328
aVfirst
p2329
aVmedic
p2330
aVportion
p2331
aVcomposit
p2332
asI5397316
(lp2333
Vslit
p2334
aVabsorb
p2335
aVfluid
p2336
aVmember
p2337
aVregion
p2338
aVmateri
p2339
aVrunni
p2340
aVacquisit
p2341
aVcup
p2342
aVmens
p2343
asI6036805
(lp2344
sI5397318
(lp2345
Vcuff
p2346
aVpocket
p2347
aVedg
p2348
aVbarrier
p2349
aVdistal
p2350
aVtab
p2351
aVtape
p2352
aVinflect
p2353
aVopen
p2354
aVdiaper
p2355
asI5246433
(lp2356
Vchassi
p2357
aVgarment
p2358
aVelastic
p2359
aVear
p2360
aVunitari
p2361
aVflap
p2362
aVdispos
p2363
aVstretch
p2364
aVpant
p2365
aVseam
p2366
asI5897545
(lp2367
Vdiaper
p2368
aVwearer
p2369
aVabsorb
p2370
aVarticl
p2371
aVpull
p2372
aVpant
p2373
aVear
p2374
aVfasten
p2375
aVenough
p2376
aVpanel
p2377
asI5595618
(lp2378
Vweb
p2379
aVlamin
p2380
aVregion
p2381
aVsection
p2382
aVmedial
p2383
aVmechan
p2384
aVfirst
p2385
aVsecond
p2386
aVsecur
p2387
aVcomposit
p2388
asI7588175
(lp2389
Vcabl
p2390
aVassembl
p2391
aVelong
p2392
aVinstrument
p2393
aVdistal
p2394
aVtransit
p2395
aVstapl
p2396
aVchannel
p2397
aVknife
p2398
aVsurgic
p2399
asI7588176
(lp2400
Vclosur
p2401
aVsurgic
p2402
aVanvil
p2403
aVinstrument
p2404
aVassembl
p2405
aVmotion
p2406
aVvarious
p2407
aVlockabl
p2408
aVknife
p2409
aVarticul
p2410
asI4340563
(lp2411
Vfilament
p2412
aVquench
p2413
aVweb
p2414
aVdraw
p2415
aVnonwoven
p2416
aVspin
p2417
aVeduct
p2418
aVfluid
p2419
aVentangl
p2420
aVmotiv
p2421
asI5460622
(lp2422
Vabsorb
p2423
aVtopsheet
p2424
aVliquid
p2425
aVstabl
p2426
aVbacksheet
p2427
aVcore
p2428
aVfiber
p2429
aVacquisit
p2430
aVlayer
p2431
aVblend
p2432
asI5300054
(lp2433
Vabsorb
p2434
aVlayer
p2435
aVwrap
p2436
aVmultipl
p2437
aVarticl
p2438
aVsubjac
p2439
aVtopsheet
p2440
aVbacksheet
p2441
aVcore
p2442
aVacquir
p2443
asI6315864
(lp2444
Vweb
p2445
aVhydroneedl
p2446
aVcrepe
p2447
aVcloth
p2448
aVbase
p2449
aVlike
p2450
aVabsorb
p2451
aVstretchabl
p2452
aVstapl
p2453
aVpulp
p2454
asI7186265
(lp2455
Vprosthet
p2456
aVimplant
p2457
aVvalv
p2458
aVsite
p2459
aVtarget
p2460
aVcardiac
p2461
aVanchor
p2462
aVsystem
p2463
aVdeliveri
p2464
aVthem
p2465
asI6225243
(lp2466
Vcompon
p2467
aVpolymer
p2468
aVstrand
p2469
aVnonwoven
p2470
aVweb
p2471
aVelast
p2472
aVzone
p2473
aVsticki
p2474
aVsecond
p2475
aVovercom
p2476
asI6200669
(lp2477
Vmulticompon
p2478
aVentangl
p2479
aVnonwoven
p2480
aVfiber
p2481
aVweb
p2482
aVmicrofib
p2483
aVbond
p2484
aVunitari
p2485
aVhydroentangl
p2486
aVabout
p2487
asI5364382
(lp2488
Vsurg
p2489
aVmanag
p2490
aVabsorb
p2491
aVretent
p2492
aVportion
p2493
aVliquid
p2494
aVarticl
p2495
aVuptak
p2496
aVdesorb
p2497
aVstore
p2498
asI5865823
(lp2499
Vbacksheet
p2500
aVbreathabl
p2501
aVimpervi
p2502
aVtopsheet
p2503
aVfluid
p2504
aVabsorb
p2505
aVarticl
p2506
aVexhibit
p2507
aVsup
p2508
aVjoul
p2509
asI5304161
(lp2510
Vabsorb
p2511
aVlayer
p2512
aVacquisit
p2513
aVarticl
p2514
aVcore
p2515
aVtopsheet
p2516
aVbacksheet
p2517
aVmultipl
p2518
aVcentimet
p2519
aVacquir
p2520
asI6432098
(lp2521
Vslot
p2522
aVtab
p2523
aVinboard
p2524
aVoutboard
p2525
aVmember
p2526
aVportion
p2527
aVfasten
p2528
aVlip
p2529
aVabsorb
p2530
aVarticl
p2531
asI4627811
(lp2532
Vsuperatmospher
p2533
aVspunbond
p2534
aVfilament
p2535
aVconic
p2536
aVspun
p2537
aVmelt
p2538
aVcurtain
p2539
aVchamber
p2540
aVpressur
p2541
aVspin
p2542
asI5770086
(lp2543
Vhydrogel
p2544
aVconcentr
p2545
aVpolym
p2546
aVsolut
p2547
aVmembran
p2548
aVform
p2549
aVcan
p2550
aVdecant
p2551
aVcollect
p2552
aVad
p2553
asI7506791
(lp2554
Vanvil
p2555
aVcartridg
p2556
aVassembl
p2557
aVsupport
p2558
aVcompress
p2559
aVclosur
p2560
aVinstrument
p2561
aVstapl
p2562
aVsurgic
p2563
aVfire
p2564
asI5037416
(lp2565
Vtopsheet
p2566
aVdiaper
p2567
aVlamina
p2568
aVwearer
p2569
aVelong
p2570
aVrelat
p2571
aVlamin
p2572
aVextens
p2573
aVlow
p2574
aVelast
p2575
asI7753904
(lp2576
Veffector
p2577
aVtrocar
p2578
aVendoscop
p2579
aVshaft
p2580
aVhandl
p2581
aVelong
p2582
aVportion
p2583
aVdistal
p2584
aVproxim
p2585
aVarticul
p2586
asI5389202
(lp2587
Vpulp
p2588
aVnonwoven
p2589
aVfabric
p2590
aVcontent
p2591
aVcomposit
p2592
aVhigh
p2593
aVabsorb
p2594
aVentangl
p2595
aVwiper
p2596
aVmateri
p2597
asI7195624
(lp2598
Vbandag
p2599
aVwound
p2600
aVvacuum
p2601
aVvent
p2602
aVpassageway
p2603
aVcommunic
p2604
aVcreat
p2605
aVirrig
p2606
aVheal
p2607
aVventil
p2608
asI5151092
(lp2609
Velastic
p2610
aVwaistband
p2611
aVzone
p2612
aVpanel
p2613
aVwaist
p2614
aVflexur
p2615
aVwaistlin
p2616
aVhing
p2617
aVpredispos
p2618
aVdynam
p2619
asI6379383
(lp2620
Vendolumin
p2621
aVstent
p2622
aVheterogen
p2623
aVblood
p2624
aVmateri
p2625
aVendotheli
p2626
aVfabric
p2627
aVimplant
p2628
aVconstitut
p2629
aVvacuum
p2630
asI5200248
(lp2631
Vcapillari
p2632
aVsaid
p2633
aVchannel
p2634
aVabout
p2635
aVstructur
p2636
aVspecif
p2637
aVintrastructur
p2638
aVsup
p2639
aVleast
p2640
aVwall
p2641
asI6544249
(lp2642
Vmicrofistula
p2643
aVtube
p2644
aVinnermost
p2645
aVbasement
p2646
aVinner
p2647
aVbiolog
p2648
aVcanal
p2649
aVimplant
p2650
aVdrainag
p2651
aVrod
p2652
asI5695868
(lp2653
Vbreathabl
p2654
aVnonwoven
p2655
aVfilm
p2656
aVbond
p2657
aVcloth
p2658
aVweb
p2659
aVcomposit
p2660
aVincompat
p2661
aVthermal
p2662
aVexampl
p2663
asI5429629
(lp2664
Vsurg
p2665
aVmanag
p2666
aVabsorb
p2667
aVretent
p2668
aVportion
p2669
aVliquid
p2670
aVarticl
p2671
aVuptak
p2672
aVdesorb
p2673
aVstore
p2674
asI7731072
(lp2675
Vanvil
p2676
aVassembl
p2677
aVknife
p2678
aVtrunnion
p2679
aVelong
p2680
aVchannel
p2681
aVdetach
p2682
aVstapl
p2683
aVslot
p2684
aVconfigur
p2685
asI5149576
(lp2686
Vlaminifer
p2687
aVnonwoven
p2688
aVmultilay
p2689
aVextrud
p2690
aVstructur
p2691
aVmelt
p2692
aVlayer
p2693
aVtwo
p2694
aVleast
p2695
aVhas
p2696
asI5514121
(lp2697
Vdiaper
p2698
aVspacer
p2699
aVfecal
p2700
aVtopsheet
p2701
aVexpuls
p2702
aVbacksheet
p2703
aVsanit
p2704
aVtoilet
p2705
aVexpel
p2706
aVdiscard
p2707
asI5149335
(lp2708
Vsuperabsorb
p2709
aVaul
p2710
aVabsorb
p2711
aVmateri
p2712
aVabout
p2713
aVstructur
p2714
aVswell
p2715
aVweight
p2716
aVgarment
p2717
aVcontain
p2718
asI6167948
(lp2719
Vplanar
p2720
aVcapillari
p2721
aVregion
p2722
aVvoid
p2723
aVbodi
p2724
aVhot
p2725
aVheat
p2726
aVpath
p2727
aVcapillar
p2728
aVfluid
p2729
asI7922061
(lp2730
Varticul
p2731
aVeffector
p2732
aVinstrument
p2733
aVsurgic
p2734
aVarticulat
p2735
aVjoint
p2736
aVunit
p2737
aVend
p2738
aVshaft
p2739
aVsensor
p2740
asI4781966
(lp2741
Vnonelast
p2742
aVspunlac
p2743
aVpolyetherest
p2744
aVnonwoven
p2745
aVweb
p2746
aVelast
p2747
aVpolyest
p2748
aVmeltblown
p2749
aVlamin
p2750
aVrayon
p2751
asI6107537
(lp2752
sI5294482
(lp2753
Vnoncontinu
p2754
aVmulticonstitu
p2755
aVphase
p2756
aVnonwoven
p2757
aVfiber
p2758
aVfabric
p2759
aVpolym
p2760
aVpmt
p2761
aVcsr
p2762
aVdomain
p2763
asI6736791
(lp2764
Vhumor
p2765
aVglaucoma
p2766
aVsection
p2767
aVaqueous
p2768
aVlumen
p2769
aVmiddl
p2770
aVmeshwork
p2771
aVtrabecular
p2772
aVoutlet
p2773
aVtreatment
p2774
asI7837080
(lp2775
Vstapl
p2776
aVinstrument
p2777
aVtissu
p2778
aVcut
p2779
aVsurgic
p2780
aVfeedback
p2781
aVsurgeon
p2782
aVanvil
p2783
aVknife
p2784
aVcartridg
p2785
asI7604150
(lp2786
Vfire
p2787
aVbrake
p2788
aVband
p2789
aVstapl
p2790
aVreel
p2791
aVmember
p2792
aVsurgic
p2793
aVinstrument
p2794
aVcut
p2795
aVcan
p2796
asI5306266
(lp2797
Vspacer
p2798
aVdiscret
p2799
aVabsorb
p2800
aVarticl
p2801
aVcover
p2802
aVouter
p2803
aVfecal
p2804
aVelement
p2805
aVload
p2806
aVflexur
p2807
asI5997981
(lp2808
Vprebond
p2809
aVfasten
p2810
aVcompon
p2811
aVloop
p2812
aVhydrohead
p2813
aVmvtr
p2814
aVmbar
p2815
aVlamin
p2816
aVcomposit
p2817
aVbreathabl
p2818
asI5192606
(lp2819
Vbodysid
p2820
aVwaistband
p2821
aVbacksheet
p2822
aVliner
p2823
aVabsorb
p2824
aVlayer
p2825
aVtransfer
p2826
aVsection
p2827
aVabout
p2828
aVdpf
p2829
asI5358500
(lp2830
Vwearer
p2831
aVabsorb
p2832
aVarticl
p2833
aVfit
p2834
aVsustain
p2835
aVelast
p2836
aVdynam
p2837
aVdiaper
p2838
aVdesign
p2839
aVfeatur
p2840
asI5591152
(lp2841
Velastic
p2842
aVwaistband
p2843
aVzone
p2844
aVpanel
p2845
aVwaist
p2846
aVflexur
p2847
aVwaistlin
p2848
aVhing
p2849
aVpredispos
p2850
aVdynam
p2851
asI7658311
(lp2852
Vfire
p2853
aVgear
p2854
aVmember
p2855
aVeffector
p2856
aVdrive
p2857
aVpawl
p2858
aVrevers
p2859
aVengag
p2860
aVcut
p2861
aVsurgic
p2862
asI7669746
(lp2863
Vstapl
p2864
aVcartridg
p2865
aVactuat
p2866
aVanvil
p2867
aVdriver
p2868
aVheight
p2869
aVvarious
p2870
aVmovabl
p2871
aVform
p2872
aVembodi
p2873
asI5334446
(lp2874
Vhydroentangl
p2875
aVnet
p2876
aVelastomer
p2877
aVnonwoven
p2878
aVweb
p2879
aVelast
p2880
aVfibrous
p2881
aVfabric
p2882
aVbinder
p2883
aVhydro
p2884
asI5114781
(lp2885
Velast
p2886
aVneck
p2887
aVmateri
p2888
aVrevers
p2889
aVstretch
p2890
aVcomposit
p2891
aVleast
p2892
aVsheet
p2893
aVnonlinear
p2894
aVgather
p2895
asI7792562
(lp2896
Vanalyt
p2897
aVmicroarchitectur
p2898
aVdevic
p2899
aVimplant
p2900
aVmonitor
p2901
aVglucos
p2902
aVlevel
p2903
aVallow
p2904
aVdetermin
p2905
aVblood
p2906
asI7669747
(lp2907
Vstapl
p2908
aVwasher
p2909
aVsurgic
p2910
aVstapler
p2911
aVanvil
p2912
aVcircular
p2913
aVbioabsorb
p2914
aVbreakaway
p2915
aVguid
p2916
aVpunctur
p2917
asI7673780
(lp2918
Varticul
p2919
aVsurgic
p2920
aVinstrument
p2921
aVtrocar
p2922
aVeffector
p2923
aVjoint
p2924
aVendocutt
p2925
aVmoment
p2926
aVarm
p2927
aVmust
p2928
asI5490846
(lp2929
Vnonwoven
p2930
aVabout
p2931
aVcentimet
p2932
aVweb
p2933
aVper
p2934
aVgram
p2935
aVfibrous
p2936
aVpercent
p2937
aVsquar
p2938
aVsurg
p2939
asI5759926
(lp2940
Vfiber
p2941
aVsplittabl
p2942
aVsplit
p2943
aVsegment
p2944
aVconjug
p2945
aVfabric
p2946
aVdenier
p2947
aVincompat
p2948
aVfibril
p2949
aVdissoci
p2950
asI7604151
(lp2951
Vstapl
p2952
aVsurgic
p2953
aVtissu
p2954
aVdeform
p2955
aVproject
p2956
aVpunctur
p2957
aVcompress
p2958
aVdeploy
p2959
aVsoft
p2960
aVmember
p2961
asI5156793
(lp2962
Vstretch
p2963
aVlamin
p2964
aVweb
p2965
aVstrain
p2966
aVpli
p2967
aVzero
p2968
aVelastic
p2969
aVelast
p2970
aVuniform
p2971
aVsaid
p2972
asI5540796
(lp2973
Vweb
p2974
aVpanel
p2975
aVside
p2976
aVbridg
p2977
aVelastic
p2978
aVmateri
p2979
aVsecond
p2980
aVappoint
p2981
aVfirst
p2982
aVlater
p2983
asI6375871
(lp2984
Vmold
p2985
aVmicrofluid
p2986
aVarticl
p2987
aVmoldabl
p2988
aVarchitectur
p2989
aVimprint
p2990
aVprocess
p2991
aVbring
p2992
aVmateri
p2993
aVpolymer
p2994
asI4789699
(lp2995
Vnonwoven
p2996
aVelastomer
p2997
aVsheet
p2998
aVweb
p2999
aVmateri
p3000
aVlamin
p3001
aVgather
p3002
aVbond
p3003
aVmeltblown
p3004
aVtension
p3005
asI6645190
(lp3006
Vrefasten
p3007
aVabsorb
p3008
aVwaist
p3009
aVarticl
p3010
aVattach
p3011
aVfasten
p3012
aVpant
p3013
aVpanel
p3014
aVirrit
p3015
aVhip
p3016
asI4652487
(lp3017
sI5387209
(lp3018
Vtopsheet
p3019
aVabsorb
p3020
aVfibr
p3021
aVmeshi
p3022
aVsaid
p3023
aVarticl
p3024
aVcore
p3025
aVpassag
p3026
aVfig
p3027
aVfluid
p3028
asI7721931
(lp3029
Vtranspond
p3030
aVsurgic
p3031
aVinstrument
p3032
aVwireless
p3033
aVcartridg
p3034
aVstapl
p3035
aVstate
p3036
aVsignal
p3037
aVelectron
p3038
aVreus
p3039
asI7721934
(lp3040
Vinstrument
p3041
aVeffector
p3042
aVtrigger
p3043
aVcut
p3044
aVclosur
p3045
aVdrive
p3046
aVsurgic
p3047
aVshaft
p3048
aVactuat
p3049
aVend
p3050
asI5672399
(lp3051
Vfilter
p3052
aVmedia
p3053
aVfiber
p3054
aVcoars
p3055
aVfine
p3056
aVconstruct
p3057
aVprefer
p3058
aVdisclosur
p3059
aVsupport
p3060
aVadvantag
p3061
asI7721936
(lp3062
Vinstrument
p3063
aVeffector
p3064
aVcut
p3065
aVmotor
p3066
aVinterlock
p3067
aVsurgic
p3068
aVmost
p3069
aVactuat
p3070
aVend
p3071
aVcurrent
p3072
asI5938648
(lp3073
Velastom
p3074
aVfilm
p3075
aVabsorb
p3076
aVhydrophil
p3077
aVbacksheet
p3078
aVsubstanti
p3079
aVarticl
p3080
aVlayer
p3081
aVsheet
p3082
aVfibrous
p3083
asI6855135
(lp3084
Vwound
p3085
aVdress
p3086
aVvacuum
p3087
aVface
p3088
aVsurfac
p3089
aVmember
p3090
aVbandag
p3091
aVhole
p3092
aVcleans
p3093
aVsourc
p3094
asI5336545
(lp3095
Vneck
p3096
aVelast
p3097
aVmateri
p3098
aVbond
p3099
aVneckabl
p3100
aVcomposit
p3101
aVjoin
p3102
aVsheet
p3103
aVstretchabl
p3104
aVconstrict
p3105
asI5439458
(lp3106
Vabsorb
p3107
aVlayer
p3108
aVacquisit
p3109
aVarticl
p3110
aVcore
p3111
aVtopsheet
p3112
aVbacksheet
p3113
aVmultipl
p3114
aVcentimet
p3115
aVacquir
p3116
asI6936037
(lp3117
Vftc
p3118
aVunderdrap
p3119
aVpatient
p3120
aVsuction
p3121
aVclosur
p3122
aVmanual
p3123
aVtissu
p3124
aVplace
p3125
aVfluid
p3126
aVinterfac
p3127
asI5336552
(lp3128
Vmulticompon
p3129
aVstrand
p3130
aVnonwoven
p3131
aVpolymer
p3132
aVfabric
p3133
aVmeltblown
p3134
aVtough
p3135
aVpolyolefin
p3136
aVmade
p3137
aVsheath
p3138
asI5990377
(lp3139
Vbasesheet
p3140
aVhydrophob
p3141
aVabsorb
p3142
aVregion
p3143
aVliner
p3144
aVweb
p3145
aVfeel
p3146
aVelev
p3147
aVhydrophil
p3148
aVdepress
p3149
asI5496298
(lp3150
Velastomer
p3151
aVedg
p3152
aVear
p3153
aVdistal
p3154
aVabsorb
p3155
aVproxim
p3156
aVarticl
p3157
aVconnect
p3158
aVdispos
p3159
aVlonger
p3160
asI5226992
(lp3161
Vneck
p3162
aVelast
p3163
aVmateri
p3164
aVbond
p3165
aVneckabl
p3166
aVcomposit
p3167
aVjoin
p3168
aVsheet
p3169
aVstretchabl
p3170
aVconstrict
p3171
asI6685681
(lp3172
Vwound
p3173
aVdress
p3174
aVsuction
p3175
aVbandag
p3176
aVmember
p3177
aVvacuum
p3178
aVport
p3179
aVhole
p3180
aVcleans
p3181
aVsurfac
p3182
asI6039302
(lp3183
sI4981747
(lp3184
Vneck
p3185
aVmateri
p3186
aVelast
p3187
aVrevers
p3188
aVneckabl
p3189
aVdimens
p3190
aVjoin
p3191
aVcomposit
p3192
aVsheet
p3193
aVleast
p3194
asI5804021
(lp3195
Vnonwoven
p3196
aVlamin
p3197
aVfibrous
p3198
aVelast
p3199
aVgarment
p3200
aVslit
p3201
aVweb
p3202
aVbandag
p3203
aVnapkin
p3204
aVpant
p3205
asI6120487
(lp3206
Vpanel
p3207
aVwaistband
p3208
aVrash
p3209
aVskin
p3210
aVproblem
p3211
aVleg
p3212
aVvapor
p3213
aVpull
p3214
aVreduc
p3215
aVpant
p3216
asI7195641
(lp3217
Vpseudometal
p3218
aVvenous
p3219
aVprosthet
p3220
aVcardiac
p3221
aVvalv
p3222
aVsepta
p3223
aVvalvular
p3224
aVmetal
p3225
aVprosthes
p3226
aVpercutan
p3227
astp3228
.