((lp0
I4683202
aI4800159
aI4851331
aI4889818
aI4965188
aI5043272
aI5118801
aI5124246
aI5130238
aI5188963
aI5192659
aI5202231
aI5210015
aI5223409
aI5399491
aI5409818
aI5436149
aI5455166
aI5475610
aI5487972
aI5492806
aI5525464
aI5554516
aI5571698
aI5656493
aI5674743
aI5695940
aI5720923
aI5807522
aI5834252
aI5837500
aI5846717
aI5866336
aI5928905
aI5965410
aI5994056
aI6117679
aI6130098
aI6132970
aI6174670
aI6174675
aI6329139
aI5981176
aI6210891
aI5494810
aI5547839
aI6235471
aI6444461
aI5639603
aI5661016
aI5800992
aI5854033
aI6143495
aI5502177
aI5605793
aI5811238
aI5830721
aI5837458
aI5925517
aI6150097
aI6287765
aI5346672
aI5498392
aI5585069
aI5587128
aI5593838
aI5681484
aI5726026
aI5755942
aI5779868
aI5846396
aI5856174
aI5858804
aI5863708
aI5869004
aI5880071
aI5922591
aI5928880
aI5942443
aI5958203
aI5972187
aI6042709
aI6043080
aI6046056
aI6132685
aI6168948
aI6197595
aI6368871
aI6440725
aI5445934
aI5503980
aI5552270
aI5599668
aI5605662
aI5632957
aI5653939
aI5700637
aI5744305
aI5795714
aI5837832
aI5846708
aI5849486
aI5871697
aI6017696
aI6027889
aI6040138
aI6040193
aI6051380
aI6054270
aI6103199
aI6156501
aI6214560
aI6632655
aI5538848
aI5723591
aI5427908
aI5498530
aI5580717
aI5658727
aI5698426
aI5733743
aI5821047
aI5969108
aI6379929
aI6143496
aI6274320
aI6355431
aI5932100
aI6210896
aI6355420
aI6454945
aI5922617
aI7080786
aI7115884
aI5961923
aI6767706
aI6327410
aI6340588
aI6429027
aI5939250
aI5965408
aI6368275
aI6571651
aI5639423
aI5674742
aI5699157
aI5747349
aI5842787
aI5852495
aI5855801
aI5863801
aI5872010
aI5876675
aI5882465
aI5885470
aI5948227
aI5955028
aI5957579
aI5958694
aI5965001
aI5989402
aI6007690
aI6068752
aI6100541
aI6103479
aI6126899
aI6167910
aI6251343
aI6321791
aI6540895
aI5800690
aI5858195
aI5976336
aI6001229
aI6012902
aI6096656
aI6294063
aI6416642
aI5716825
aI5726751
aI5863502
aI6329209
aI6540675
aI6923764
aI6074827
aI6541266
aI5900130
aI6334960
aI6696220
aI6045996
aI6043031
aI6133436
aI7160678
aI6180415
aI6344272
aI6361944
aI6264825
aI6377894
aI6773671
aI7344499
aI5965452
aI6066448
aI6207369
aI6582908
aI6281006
aI5922537
aI6409832
aI7494465
aI7637868
aI7640048
aI7654956
aI7715893
aI7291497
aI6486588
aI6645202
aI7083620
aI7041068
aI7198606
aI6139800
aI6256533
aI6312612
aI6375627
aI6379324
aI6471903
aI6591124
aI6743211
aI6835184
aI6090251
aI5972710
aI6485461
aI6656158
aI6656159
aI6669669
aI6692457
aI6699218
aI6723072
aI6749587
aI6768425
aI6830558
aI6960192
aI7018360
aI7029455
aI7137964
aI7144384
aI6738654
aI6710366
aI7074307
aI7366556
aI7424318
aI7460898
aI7467003
aI7471972
aI7613491
aI7651596
aI7657297
aI6645142
aI6743635
aI6946299
aI6953693
aI6959247
aI7160251
aI7711402
aI7041468
a(lp1
(lp2
I4683202
aa(lp3
I4800159
aI4851331
aI4889818
aI4965188
aI5043272
aI5118801
aI5124246
aI5130238
aI5188963
aI5192659
aI5202231
aI5210015
aI5223409
aI5399491
aI5409818
aI5436149
aI5455166
aI5475610
aI5487972
aI5492806
aI5525464
aI5554516
aI5571698
aI5656493
aI5674743
aI5695940
aI5720923
aI5807522
aI5834252
aI5837500
aI5846717
aI5866336
aI5928905
aI5965410
aI5994056
aI6117679
aI6130098
aI6132970
aI6174670
aI6174675
aI6329139
aa(lp4
I5981176
aI6210891
aI5494810
aI5547839
aI6235471
aI6444461
aI5639603
aI5661016
aI5800992
aI5854033
aI6143495
aI5502177
aI5605793
aI5811238
aI5830721
aI5837458
aI5925517
aI6150097
aI6287765
aI5346672
aI5498392
aI5585069
aI5587128
aI5593838
aI5681484
aI5726026
aI5755942
aI5779868
aI5846396
aI5856174
aI5858804
aI5863708
aI5869004
aI5880071
aI5922591
aI5928880
aI5942443
aI5958203
aI5972187
aI6042709
aI6043080
aI6046056
aI6132685
aI6168948
aI6197595
aI6368871
aI6440725
aI5445934
aI5503980
aI5552270
aI5599668
aI5605662
aI5632957
aI5653939
aI5700637
aI5744305
aI5795714
aI5837832
aI5846708
aI5849486
aI5871697
aI6017696
aI6027889
aI6040138
aI6040193
aI6051380
aI6054270
aI6103199
aI6156501
aI6214560
aI6632655
aI5538848
aI5723591
aI5427908
aI5498530
aI5580717
aI5658727
aI5698426
aI5733743
aI5821047
aI5969108
aI6379929
aI6143496
aI6274320
aI6355431
aI5932100
aI6210896
aI6355420
aI6454945
aI5922617
aI7080786
aa(lp5
I7115884
aI5961923
aI6767706
aI6327410
aI6340588
aI6429027
aI5939250
aI5965408
aI6368275
aI6571651
aI5639423
aI5674742
aI5699157
aI5747349
aI5842787
aI5852495
aI5855801
aI5863801
aI5872010
aI5876675
aI5882465
aI5885470
aI5948227
aI5955028
aI5957579
aI5958694
aI5965001
aI5989402
aI6007690
aI6068752
aI6100541
aI6103479
aI6126899
aI6167910
aI6251343
aI6321791
aI6540895
aI5800690
aI5858195
aI5976336
aI6001229
aI6012902
aI6096656
aI6294063
aI6416642
aI5716825
aI5726751
aI5863502
aI6329209
aI6540675
aI6923764
aI6074827
aI6541266
aI5900130
aI6334960
aI6696220
aI6045996
aI6043031
aI6133436
aI7160678
aI6180415
aI6344272
aI6361944
aI6264825
aI6377894
aI6773671
aI7344499
aI5965452
aI6066448
aI6207369
aI6582908
aI6281006
aI5922537
aI6409832
aa(lp6
I7494465
aI7637868
aI7640048
aI7654956
aI7715893
aI7291497
aI6486588
aI6645202
aI7083620
aI7041068
aI7198606
aI6139800
aI6256533
aI6312612
aI6375627
aI6379324
aI6471903
aI6591124
aI6743211
aI6835184
aI6090251
aI5972710
aI6485461
aI6656158
aI6656159
aI6669669
aI6692457
aI6699218
aI6723072
aI6749587
aI6768425
aI6830558
aI6960192
aI7018360
aI7029455
aI7137964
aI7144384
aI6738654
aI6710366
aI7074307
aI7366556
aI7424318
aI7460898
aI7467003
aI7471972
aI7613491
aI7651596
aI7657297
aI6645142
aI6743635
aI6946299
aI6953693
aI6959247
aI7160251
aI7711402
aI7041468
aa(lp7
(I4683202
I4800159
tp8
a(I4683202
I4851331
tp9
a(I4683202
I4889818
tp10
a(I4683202
I4965188
tp11
a(I4683202
I5043272
tp12
a(I4683202
I5118801
tp13
a(I4683202
I5124246
tp14
a(I4683202
I5130238
tp15
a(I4683202
I5188963
tp16
a(I4683202
I5192659
tp17
a(I4683202
I5202231
tp18
a(I4683202
I5210015
tp19
a(I4683202
I5223409
tp20
a(I4683202
I5399491
tp21
a(I4683202
I5409818
tp22
a(I4683202
I5436149
tp23
a(I4683202
I5455166
tp24
a(I4683202
I5475610
tp25
a(I4683202
I5487972
tp26
a(I4683202
I5492806
tp27
a(I4683202
I5525464
tp28
a(I4683202
I5554516
tp29
a(I4683202
I5571698
tp30
a(I4683202
I5656493
tp31
a(I4683202
I5674743
tp32
a(I4683202
I5695940
tp33
a(I4683202
I5720923
tp34
a(I4683202
I5807522
tp35
a(I4683202
I5834252
tp36
a(I4683202
I5837500
tp37
a(I4683202
I5846717
tp38
a(I4683202
I5866336
tp39
a(I4683202
I5928905
tp40
a(I4683202
I5965410
tp41
a(I4683202
I5994056
tp42
a(I4683202
I6117679
tp43
a(I4683202
I6130098
tp44
a(I4683202
I6132970
tp45
a(I4683202
I6174670
tp46
a(I4683202
I6174675
tp47
a(I4683202
I6329139
tp48
a(I4800159
I4965188
tp49
a(I4800159
I5124246
tp50
a(I4800159
I5409818
tp51
a(I4800159
I5475610
tp52
a(I4800159
I5656493
tp53
a(I4800159
I5834252
tp54
a(I4800159
I5928905
tp55
a(I4800159
I5965410
tp56
a(I4800159
I6117679
tp57
a(I4800159
I6132970
tp58
a(I4800159
I6174675
tp59
a(I4851331
I5981176
tp60
a(I4851331
I6210891
tp61
a(I4889818
I4965188
tp62
a(I4889818
I5210015
tp63
a(I4889818
I5475610
tp64
a(I4889818
I5487972
tp65
a(I4889818
I5494810
tp66
a(I4889818
I5547839
tp67
a(I4889818
I5656493
tp68
a(I4889818
I5674743
tp69
a(I4889818
I5866336
tp70
a(I4889818
I5994056
tp71
a(I4889818
I6174670
tp72
a(I4889818
I6235471
tp73
a(I4889818
I6444461
tp74
a(I4965188
I5475610
tp75
a(I4965188
I5547839
tp76
a(I4965188
I5639603
tp77
a(I4965188
I5656493
tp78
a(I4965188
I5661016
tp79
a(I4965188
I5800992
tp80
a(I4965188
I5834252
tp81
a(I4965188
I5854033
tp82
a(I4965188
I5928905
tp83
a(I4965188
I5965410
tp84
a(I4965188
I6117679
tp85
a(I4965188
I6132970
tp86
a(I4965188
I6143495
tp87
a(I4965188
I6174670
tp88
a(I4965188
I6235471
tp89
a(I4965188
I6444461
tp90
a(I5043272
I5502177
tp91
a(I5043272
I5605793
tp92
a(I5043272
I5811238
tp93
a(I5043272
I5830721
tp94
a(I5043272
I5837458
tp95
a(I5043272
I6117679
tp96
a(I5043272
I6132970
tp97
a(I5043272
I6235471
tp98
a(I5043272
I6444461
tp99
a(I5118801
I5866336
tp100
a(I5118801
I5925517
tp101
a(I5118801
I6150097
tp102
a(I5118801
I6287765
tp103
a(I5130238
I5399491
tp104
a(I5130238
I5502177
tp105
a(I5130238
I6143495
tp106
a(I5188963
I5346672
tp107
a(I5188963
I5498392
tp108
a(I5188963
I5585069
tp109
a(I5188963
I5587128
tp110
a(I5188963
I5593838
tp111
a(I5188963
I5681484
tp112
a(I5188963
I5726026
tp113
a(I5188963
I5755942
tp114
a(I5188963
I5779868
tp115
a(I5188963
I5807522
tp116
a(I5188963
I5846396
tp117
a(I5188963
I5856174
tp118
a(I5188963
I5858804
tp119
a(I5188963
I5863708
tp120
a(I5188963
I5869004
tp121
a(I5188963
I5880071
tp122
a(I5188963
I5922591
tp123
a(I5188963
I5928880
tp124
a(I5188963
I5942443
tp125
a(I5188963
I5958203
tp126
a(I5188963
I5972187
tp127
a(I5188963
I6042709
tp128
a(I5188963
I6043080
tp129
a(I5188963
I6046056
tp130
a(I5188963
I6132685
tp131
a(I5188963
I6168948
tp132
a(I5188963
I6197595
tp133
a(I5188963
I6368871
tp134
a(I5188963
I6440725
tp135
a(I5202231
I5445934
tp136
a(I5202231
I5503980
tp137
a(I5202231
I5525464
tp138
a(I5202231
I5552270
tp139
a(I5202231
I5599668
tp140
a(I5202231
I5605662
tp141
a(I5202231
I5632957
tp142
a(I5202231
I5653939
tp143
a(I5202231
I5695940
tp144
a(I5202231
I5700637
tp145
a(I5202231
I5744305
tp146
a(I5202231
I5795714
tp147
a(I5202231
I5800992
tp148
a(I5202231
I5807522
tp149
a(I5202231
I5837832
tp150
a(I5202231
I5846708
tp151
a(I5202231
I5849486
tp152
a(I5202231
I5871697
tp153
a(I5202231
I6017696
tp154
a(I5202231
I6027889
tp155
a(I5202231
I6040138
tp156
a(I5202231
I6040193
tp157
a(I5202231
I6051380
tp158
a(I5202231
I6054270
tp159
a(I5202231
I6103199
tp160
a(I5202231
I6156501
tp161
a(I5202231
I6214560
tp162
a(I5202231
I6632655
tp163
a(I5210015
I5538848
tp164
a(I5210015
I5723591
tp165
a(I5210015
I5846717
tp166
a(I5210015
I5925517
tp167
a(I5210015
I6150097
tp168
a(I5210015
I6174670
tp169
a(I5223409
I5427908
tp170
a(I5223409
I5498530
tp171
a(I5223409
I5580717
tp172
a(I5223409
I5658727
tp173
a(I5223409
I5698426
tp174
a(I5223409
I5733743
tp175
a(I5223409
I5821047
tp176
a(I5223409
I5969108
tp177
a(I5223409
I6329139
tp178
a(I5409818
I5854033
tp179
a(I5409818
I5866336
tp180
a(I5409818
I6143495
tp181
a(I5455166
I5854033
tp182
a(I5455166
I6143495
tp183
a(I5455166
I6379929
tp184
a(I5487972
I5846717
tp185
a(I5487972
I5866336
tp186
a(I5487972
I5925517
tp187
a(I5487972
I6150097
tp188
a(I5492806
I5695940
tp189
a(I5492806
I5800992
tp190
a(I5492806
I6040193
tp191
a(I5492806
I6329139
tp192
a(I5525464
I5695940
tp193
a(I5525464
I5800992
tp194
a(I5525464
I6040193
tp195
a(I5525464
I6143496
tp196
a(I5525464
I6274320
tp197
a(I5525464
I6329139
tp198
a(I5554516
I6355431
tp199
a(I5674743
I5932100
tp200
a(I5674743
I6210896
tp201
a(I5674743
I6235471
tp202
a(I5674743
I6287765
tp203
a(I5674743
I6355420
tp204
a(I5674743
I6444461
tp205
a(I5674743
I6454945
tp206
a(I5695940
I6040193
tp207
a(I5807522
I5922617
tp208
a(I5807522
I6040193
tp209
a(I5807522
I6054270
tp210
a(I5834252
I6117679
tp211
a(I5834252
I6274320
tp212
a(I5928905
I6132970
tp213
a(I5928905
I6274320
tp214
a(I5965410
I6632655
tp215
a(I6329139
I7080786
tp216
a(I5494810
I6027889
tp217
a(I5494810
I6355431
tp218
a(I5494810
I7115884
tp219
a(I5547839
I5674743
tp220
a(I5547839
I5961923
tp221
a(I5547839
I6329139
tp222
a(I6235471
I6444461
tp223
a(I6235471
I6632655
tp224
a(I6235471
I6767706
tp225
a(I5639603
I5961923
tp226
a(I5639603
I6327410
tp227
a(I5639603
I6329139
tp228
a(I5639603
I6340588
tp229
a(I5639603
I6355431
tp230
a(I5639603
I6429027
tp231
a(I5639603
I7115884
tp232
a(I5800992
I6156501
tp233
a(I5800992
I6274320
tp234
a(I5854033
I6274320
tp235
a(I5854033
I6355431
tp236
a(I5605793
I5830721
tp237
a(I5605793
I5939250
tp238
a(I5605793
I5965408
tp239
a(I5605793
I6117679
tp240
a(I5605793
I6132970
tp241
a(I5811238
I5939250
tp242
a(I5811238
I5965408
tp243
a(I5811238
I6117679
tp244
a(I5811238
I6287765
tp245
a(I5830721
I5939250
tp246
a(I5830721
I5965408
tp247
a(I5830721
I6117679
tp248
a(I5837458
I5939250
tp249
a(I5837458
I5965408
tp250
a(I5837458
I6117679
tp251
a(I6287765
I6368275
tp252
a(I5346672
I5498392
tp253
a(I5346672
I5587128
tp254
a(I5346672
I5726026
tp255
a(I5346672
I5856174
tp256
a(I5346672
I5922591
tp257
a(I5346672
I5928880
tp258
a(I5346672
I5965410
tp259
a(I5346672
I6043080
tp260
a(I5346672
I6143496
tp261
a(I5346672
I6168948
tp262
a(I5346672
I6174670
tp263
a(I5346672
I6174675
tp264
a(I5346672
I6197595
tp265
a(I5346672
I6571651
tp266
a(I5498392
I5639423
tp267
a(I5498392
I5674742
tp268
a(I5498392
I5699157
tp269
a(I5498392
I5720923
tp270
a(I5498392
I5726026
tp271
a(I5498392
I5747349
tp272
a(I5498392
I5779868
tp273
a(I5498392
I5842787
tp274
a(I5498392
I5852495
tp275
a(I5498392
I5855801
tp276
a(I5498392
I5856174
tp277
a(I5498392
I5863801
tp278
a(I5498392
I5872010
tp279
a(I5498392
I5876675
tp280
a(I5498392
I5880071
tp281
a(I5498392
I5882465
tp282
a(I5498392
I5885470
tp283
a(I5498392
I5922591
tp284
a(I5498392
I5932100
tp285
a(I5498392
I5942443
tp286
a(I5498392
I5948227
tp287
a(I5498392
I5955028
tp288
a(I5498392
I5957579
tp289
a(I5498392
I5958203
tp290
a(I5498392
I5958694
tp291
a(I5498392
I5965001
tp292
a(I5498392
I5965410
tp293
a(I5498392
I5972187
tp294
a(I5498392
I5989402
tp295
a(I5498392
I6007690
tp296
a(I5498392
I6042709
tp297
a(I5498392
I6043080
tp298
a(I5498392
I6046056
tp299
a(I5498392
I6068752
tp300
a(I5498392
I6100541
tp301
a(I5498392
I6103479
tp302
a(I5498392
I6126899
tp303
a(I5498392
I6130098
tp304
a(I5498392
I6132685
tp305
a(I5498392
I6143496
tp306
a(I5498392
I6167910
tp307
a(I5498392
I6168948
tp308
a(I5498392
I6174675
tp309
a(I5498392
I6197595
tp310
a(I5498392
I6235471
tp311
a(I5498392
I6251343
tp312
a(I5498392
I6321791
tp313
a(I5498392
I6379929
tp314
a(I5498392
I6444461
tp315
a(I5498392
I6454945
tp316
a(I5498392
I6540895
tp317
a(I5498392
I6632655
tp318
a(I5585069
I5800690
tp319
a(I5585069
I5842787
tp320
a(I5585069
I5858195
tp321
a(I5585069
I5869004
tp322
a(I5585069
I5876675
tp323
a(I5585069
I5922617
tp324
a(I5585069
I5932100
tp325
a(I5585069
I5942443
tp326
a(I5585069
I5948227
tp327
a(I5585069
I5957579
tp328
a(I5585069
I5958694
tp329
a(I5585069
I5965001
tp330
a(I5585069
I5965410
tp331
a(I5585069
I5976336
tp332
a(I5585069
I5989402
tp333
a(I5585069
I6001229
tp334
a(I5585069
I6007690
tp335
a(I5585069
I6012902
tp336
a(I5585069
I6043080
tp337
a(I5585069
I6046056
tp338
a(I5585069
I6068752
tp339
a(I5585069
I6096656
tp340
a(I5585069
I6100541
tp341
a(I5585069
I6130098
tp342
a(I5585069
I6132685
tp343
a(I5585069
I6143496
tp344
a(I5585069
I6167910
tp345
a(I5585069
I6174675
tp346
a(I5585069
I6235471
tp347
a(I5585069
I6251343
tp348
a(I5585069
I6294063
tp349
a(I5585069
I6321791
tp350
a(I5585069
I6416642
tp351
a(I5585069
I6440725
tp352
a(I5585069
I6444461
tp353
a(I5585069
I6454945
tp354
a(I5585069
I6632655
tp355
a(I5587128
I5716825
tp356
a(I5587128
I5726751
tp357
a(I5587128
I5747349
tp358
a(I5587128
I5856174
tp359
a(I5587128
I5863502
tp360
a(I5587128
I5922591
tp361
a(I5587128
I5932100
tp362
a(I5587128
I5965410
tp363
a(I5587128
I6007690
tp364
a(I5587128
I6043080
tp365
a(I5587128
I6103479
tp366
a(I5587128
I6130098
tp367
a(I5587128
I6168948
tp368
a(I5587128
I6174675
tp369
a(I5587128
I6197595
tp370
a(I5587128
I6235471
tp371
a(I5587128
I6368871
tp372
a(I5587128
I6379929
tp373
a(I5587128
I6440725
tp374
a(I5587128
I6444461
tp375
a(I5587128
I6454945
tp376
a(I5587128
I6632655
tp377
a(I5593838
I5726751
tp378
a(I5593838
I5747349
tp379
a(I5593838
I5779868
tp380
a(I5593838
I5800690
tp381
a(I5593838
I5842787
tp382
a(I5593838
I5869004
tp383
a(I5593838
I5876675
tp384
a(I5593838
I5880071
tp385
a(I5593838
I5942443
tp386
a(I5593838
I5948227
tp387
a(I5593838
I5957579
tp388
a(I5593838
I5958203
tp389
a(I5593838
I5958694
tp390
a(I5593838
I5965001
tp391
a(I5593838
I5972187
tp392
a(I5593838
I5976336
tp393
a(I5593838
I5989402
tp394
a(I5593838
I6007690
tp395
a(I5593838
I6042709
tp396
a(I5593838
I6046056
tp397
a(I5593838
I6051380
tp398
a(I5593838
I6068752
tp399
a(I5593838
I6100541
tp400
a(I5593838
I6132685
tp401
a(I5593838
I6167910
tp402
a(I5593838
I6174675
tp403
a(I5593838
I6235471
tp404
a(I5593838
I6251343
tp405
a(I5593838
I6321791
tp406
a(I5593838
I6329209
tp407
a(I5593838
I6444461
tp408
a(I5593838
I6632655
tp409
a(I5681484
I5885470
tp410
a(I5681484
I5932100
tp411
a(I5681484
I6007690
tp412
a(I5681484
I6096656
tp413
a(I5681484
I6167910
tp414
a(I5681484
I6235471
tp415
a(I5681484
I6294063
tp416
a(I5681484
I6321791
tp417
a(I5681484
I6329209
tp418
a(I5681484
I6444461
tp419
a(I5681484
I6454945
tp420
a(I5681484
I6540675
tp421
a(I5681484
I6540895
tp422
a(I5681484
I6923764
tp423
a(I5726026
I5876675
tp424
a(I5726026
I6007690
tp425
a(I5726026
I6074827
tp426
a(I5726026
I6168948
tp427
a(I5726026
I6197595
tp428
a(I5726026
I6251343
tp429
a(I5726026
I6329209
tp430
a(I5755942
I6007690
tp431
a(I5755942
I6541266
tp432
a(I5755942
I6632655
tp433
a(I5779868
I5900130
tp434
a(I5779868
I5965410
tp435
a(I5779868
I5972187
tp436
a(I5779868
I5976336
tp437
a(I5779868
I6068752
tp438
a(I5779868
I6167910
tp439
a(I5779868
I6174675
tp440
a(I5779868
I6251343
tp441
a(I5779868
I6321791
tp442
a(I5779868
I6416642
tp443
a(I5779868
I6444461
tp444
a(I5779868
I6632655
tp445
a(I5846396
I6012902
tp446
a(I5856174
I6440725
tp447
a(I5856174
I6540895
tp448
a(I5856174
I6632655
tp449
a(I5858804
I6126899
tp450
a(I5863708
I6096656
tp451
a(I5863708
I6327410
tp452
a(I5863708
I6355431
tp453
a(I5863708
I6429027
tp454
a(I5863708
I7115884
tp455
a(I5869004
I6068752
tp456
a(I5869004
I6167910
tp457
a(I5869004
I6251343
tp458
a(I5869004
I6321791
tp459
a(I5869004
I6368871
tp460
a(I5869004
I6416642
tp461
a(I5869004
I6440725
tp462
a(I5869004
I6454945
tp463
a(I5869004
I6540895
tp464
a(I5869004
I6632655
tp465
a(I5880071
I6068752
tp466
a(I5880071
I6167910
tp467
a(I5880071
I6251343
tp468
a(I5880071
I6321791
tp469
a(I5880071
I6368871
tp470
a(I5880071
I6416642
tp471
a(I5880071
I6440725
tp472
a(I5880071
I6444461
tp473
a(I5880071
I6540895
tp474
a(I5880071
I6632655
tp475
a(I5922591
I6440725
tp476
a(I5922591
I6540895
tp477
a(I5928880
I6329209
tp478
a(I5928880
I6440725
tp479
a(I5942443
I6068752
tp480
a(I5942443
I6235471
tp481
a(I5942443
I6444461
tp482
a(I5942443
I6632655
tp483
a(I5958203
I6068752
tp484
a(I5958203
I6444461
tp485
a(I5958203
I6632655
tp486
a(I5972187
I6444461
tp487
a(I5972187
I6632655
tp488
a(I6042709
I6368871
tp489
a(I6042709
I6440725
tp490
a(I6042709
I6444461
tp491
a(I6042709
I6767706
tp492
a(I6043080
I6440725
tp493
a(I6043080
I6767706
tp494
a(I6046056
I6334960
tp495
a(I6046056
I6444461
tp496
a(I6046056
I6632655
tp497
a(I6046056
I6696220
tp498
a(I6168948
I6368871
tp499
a(I6168948
I6440725
tp500
a(I6197595
I6440725
tp501
a(I5445934
I5744305
tp502
a(I5445934
I5800992
tp503
a(I5445934
I5807522
tp504
a(I5445934
I6040193
tp505
a(I5445934
I6045996
tp506
a(I5445934
I6054270
tp507
a(I5445934
I6274320
tp508
a(I5445934
I6329209
tp509
a(I5445934
I6767706
tp510
a(I5503980
I6043031
tp511
a(I5503980
I6133436
tp512
a(I5552270
I6329139
tp513
a(I5552270
I7160678
tp514
a(I5599668
I6180415
tp515
a(I5599668
I6214560
tp516
a(I5599668
I6344272
tp517
a(I5599668
I6361944
tp518
a(I5605662
I5779868
tp519
a(I5605662
I5800690
tp520
a(I5605662
I5807522
tp521
a(I5605662
I5849486
tp522
a(I5605662
I5858195
tp523
a(I5605662
I5863502
tp524
a(I5605662
I5869004
tp525
a(I5605662
I5880071
tp526
a(I5605662
I5932100
tp527
a(I5605662
I5942443
tp528
a(I5605662
I5958203
tp529
a(I5605662
I5965001
tp530
a(I5605662
I5972187
tp531
a(I5605662
I6001229
tp532
a(I5605662
I6042709
tp533
a(I5605662
I6046056
tp534
a(I5605662
I6051380
tp535
a(I5605662
I6132685
tp536
a(I5605662
I6264825
tp537
a(I5605662
I6294063
tp538
a(I5605662
I6329209
tp539
a(I5605662
I6340588
tp540
a(I5605662
I6377894
tp541
a(I5605662
I6440725
tp542
a(I5605662
I6454945
tp543
a(I5605662
I6773671
tp544
a(I5605662
I7344499
tp545
a(I5632957
I5849486
tp546
a(I5632957
I5932100
tp547
a(I5632957
I5965452
tp548
a(I5632957
I6045996
tp549
a(I5632957
I6051380
tp550
a(I5632957
I6066448
tp551
a(I5632957
I6207369
tp552
a(I5632957
I6264825
tp553
a(I5632957
I6294063
tp554
a(I5632957
I6454945
tp555
a(I5632957
I7160678
tp556
a(I5632957
I7344499
tp557
a(I5653939
I5849486
tp558
a(I5653939
I5922591
tp559
a(I5653939
I6017696
tp560
a(I5653939
I6040193
tp561
a(I5653939
I6051380
tp562
a(I5653939
I6168948
tp563
a(I5653939
I6197595
tp564
a(I5653939
I6632655
tp565
a(I5700637
I5922591
tp566
a(I5700637
I6040138
tp567
a(I5700637
I6040193
tp568
a(I5700637
I6054270
tp569
a(I5700637
I6130098
tp570
a(I5700637
I6197595
tp571
a(I5700637
I6582908
tp572
a(I5744305
I6054270
tp573
a(I5744305
I6329209
tp574
a(I5795714
I5922617
tp575
a(I5795714
I6043031
tp576
a(I5795714
I6133436
tp577
a(I5837832
I6329209
tp578
a(I5837832
I6767706
tp579
a(I5846708
I5922617
tp580
a(I5846708
I6767706
tp581
a(I5849486
I6051380
tp582
a(I5849486
I6294063
tp583
a(I5849486
I7160678
tp584
a(I5871697
I6274320
tp585
a(I6017696
I6281006
tp586
a(I6017696
I6294063
tp587
a(I6027889
I6355431
tp588
a(I6027889
I7115884
tp589
a(I6051380
I6281006
tp590
a(I6051380
I6294063
tp591
a(I6051380
I6327410
tp592
a(I6051380
I6355431
tp593
a(I6051380
I7115884
tp594
a(I6054270
I6444461
tp595
a(I6103199
I6767706
tp596
a(I6214560
I6361944
tp597
a(I5538848
I5925517
tp598
a(I5538848
I6150097
tp599
a(I5538848
I6210896
tp600
a(I5538848
I6355420
tp601
a(I5427908
I5580717
tp602
a(I5427908
I5658727
tp603
a(I5427908
I5698426
tp604
a(I5427908
I5922537
tp605
a(I5427908
I5969108
tp606
a(I5498530
I6329139
tp607
a(I5698426
I6132970
tp608
a(I5932100
I6368871
tp609
a(I5932100
I6409832
tp610
a(I5932100
I6454945
tp611
a(I5932100
I6540895
tp612
a(I7115884
I7494465
tp613
a(I7115884
I7637868
tp614
a(I7115884
I7640048
tp615
a(I7115884
I7654956
tp616
a(I7115884
I7715893
tp617
a(I5961923
I6340588
tp618
a(I5961923
I7291497
tp619
a(I6340588
I7291497
tp620
a(I5939250
I6117679
tp621
a(I5939250
I6132970
tp622
a(I5965408
I6117679
tp623
a(I5965408
I6132970
tp624
a(I6368275
I6486588
tp625
a(I6368275
I6645202
tp626
a(I6368275
I7083620
tp627
a(I6368275
I7291497
tp628
a(I6571651
I7041068
tp629
a(I6571651
I7198606
tp630
a(I5639423
I5885470
tp631
a(I5639423
I5932100
tp632
a(I5639423
I5965410
tp633
a(I5639423
I6174675
tp634
a(I5639423
I6235471
tp635
a(I5639423
I6379929
tp636
a(I5639423
I6440725
tp637
a(I5639423
I6444461
tp638
a(I5639423
I6454945
tp639
a(I5639423
I6540895
tp640
a(I5674742
I5965410
tp641
a(I5674742
I6174675
tp642
a(I5699157
I5852495
tp643
a(I5699157
I5965410
tp644
a(I5699157
I6007690
tp645
a(I5699157
I6068752
tp646
a(I5699157
I6167910
tp647
a(I5699157
I6174675
tp648
a(I5699157
I6251343
tp649
a(I5699157
I6321791
tp650
a(I5699157
I6416642
tp651
a(I5699157
I6444461
tp652
a(I5699157
I6632655
tp653
a(I5747349
I5932100
tp654
a(I5747349
I6139800
tp655
a(I5747349
I6454945
tp656
a(I5747349
I6632655
tp657
a(I5842787
I6068752
tp658
a(I5842787
I6167910
tp659
a(I5842787
I6235471
tp660
a(I5842787
I6251343
tp661
a(I5842787
I6321791
tp662
a(I5842787
I6368871
tp663
a(I5842787
I6416642
tp664
a(I5842787
I6440725
tp665
a(I5842787
I6444461
tp666
a(I5842787
I6454945
tp667
a(I5842787
I6632655
tp668
a(I5852495
I6068752
tp669
a(I5852495
I6167910
tp670
a(I5852495
I6251343
tp671
a(I5852495
I6321791
tp672
a(I5852495
I6444461
tp673
a(I5852495
I6540895
tp674
a(I5852495
I6632655
tp675
a(I5852495
I7344499
tp676
a(I5855801
I6256533
tp677
a(I5855801
I6312612
tp678
a(I5855801
I6375627
tp679
a(I5855801
I6379324
tp680
a(I5855801
I6471903
tp681
a(I5855801
I6540675
tp682
a(I5855801
I6591124
tp683
a(I5855801
I6743211
tp684
a(I5855801
I6835184
tp685
a(I5855801
I6923764
tp686
a(I5855801
I7041068
tp687
a(I5855801
I7198606
tp688
a(I5863801
I6168948
tp689
a(I5863801
I6197595
tp690
a(I5863801
I6440725
tp691
a(I5872010
I6103199
tp692
a(I5872010
I6379929
tp693
a(I5876675
I6068752
tp694
a(I5876675
I6096656
tp695
a(I5876675
I6100541
tp696
a(I5876675
I6167910
tp697
a(I5876675
I6251343
tp698
a(I5876675
I6321791
tp699
a(I5876675
I6416642
tp700
a(I5876675
I6632655
tp701
a(I5876675
I7344499
tp702
a(I5882465
I6068752
tp703
a(I5882465
I6251343
tp704
a(I5882465
I6416642
tp705
a(I5882465
I6632655
tp706
a(I5885470
I6068752
tp707
a(I5885470
I6090251
tp708
a(I5885470
I6251343
tp709
a(I5885470
I6444461
tp710
a(I5885470
I6540895
tp711
a(I5885470
I6632655
tp712
a(I5948227
I6068752
tp713
a(I5948227
I6632655
tp714
a(I5948227
I6767706
tp715
a(I5955028
I6068752
tp716
a(I5955028
I6132685
tp717
a(I5955028
I6444461
tp718
a(I5955028
I6632655
tp719
a(I5957579
I6068752
tp720
a(I5957579
I6632655
tp721
a(I5958694
I6068752
tp722
a(I5958694
I6235471
tp723
a(I5958694
I6444461
tp724
a(I5958694
I6632655
tp725
a(I5965001
I6444461
tp726
a(I5965001
I6632655
tp727
a(I5965001
I6767706
tp728
a(I5989402
I6632655
tp729
a(I6007690
I6632655
tp730
a(I6007690
I6767706
tp731
a(I6068752
I6368871
tp732
a(I6068752
I6440725
tp733
a(I6126899
I6540675
tp734
a(I6126899
I6923764
tp735
a(I5800690
I5900130
tp736
a(I5800690
I5965410
tp737
a(I5800690
I5976336
tp738
a(I5800690
I6068752
tp739
a(I5800690
I6167910
tp740
a(I5800690
I6174675
tp741
a(I5800690
I6251343
tp742
a(I5800690
I6321791
tp743
a(I5800690
I6416642
tp744
a(I5800690
I6444461
tp745
a(I5800690
I6540895
tp746
a(I5800690
I6632655
tp747
a(I5800690
I6767706
tp748
a(I5858195
I6168948
tp749
a(I5858195
I6197595
tp750
a(I5858195
I6294063
tp751
a(I5858195
I6632655
tp752
a(I5976336
I6168948
tp753
a(I5976336
I6197595
tp754
a(I5976336
I6632655
tp755
a(I6001229
I6168948
tp756
a(I6001229
I6197595
tp757
a(I6001229
I6444461
tp758
a(I6012902
I6632655
tp759
a(I5716825
I5955028
tp760
a(I5716825
I5976336
tp761
a(I5716825
I6068752
tp762
a(I5716825
I6235471
tp763
a(I5716825
I6444461
tp764
a(I5726751
I5932100
tp765
a(I5726751
I5972710
tp766
a(I5726751
I6454945
tp767
a(I5726751
I6485461
tp768
a(I5726751
I6540895
tp769
a(I5726751
I6656158
tp770
a(I5726751
I6656159
tp771
a(I5726751
I6669669
tp772
a(I5726751
I6692457
tp773
a(I5726751
I6699218
tp774
a(I5726751
I6723072
tp775
a(I5726751
I6749587
tp776
a(I5726751
I6768425
tp777
a(I5726751
I6830558
tp778
a(I5726751
I6960192
tp779
a(I5726751
I7018360
tp780
a(I5726751
I7029455
tp781
a(I5726751
I7137964
tp782
a(I5726751
I7144384
tp783
a(I5863502
I6440725
tp784
a(I5863502
I6444461
tp785
a(I5863502
I6632655
tp786
a(I6540675
I6738654
tp787
a(I6540675
I6923764
tp788
a(I6540675
I7041068
tp789
a(I6540675
I7198606
tp790
a(I6074827
I6334960
tp791
a(I6074827
I6696220
tp792
a(I5900130
I7041068
tp793
a(I5900130
I7198606
tp794
a(I6334960
I6696220
tp795
a(I6180415
I6344272
tp796
a(I6344272
I6710366
tp797
a(I6264825
I7074307
tp798
a(I6264825
I7366556
tp799
a(I6264825
I7424318
tp800
a(I6264825
I7460898
tp801
a(I6264825
I7467003
tp802
a(I6264825
I7471972
tp803
a(I6264825
I7613491
tp804
a(I6264825
I7637868
tp805
a(I6264825
I7651596
tp806
a(I6264825
I7657297
tp807
a(I6264825
I7715893
tp808
a(I6377894
I6645142
tp809
a(I6377894
I6743635
tp810
a(I6377894
I6946299
tp811
a(I6377894
I6953693
tp812
a(I6377894
I6959247
tp813
a(I6377894
I7160251
tp814
a(I6773671
I6946299
tp815
a(I6773671
I6953693
tp816
a(I6773671
I6959247
tp817
a(I6773671
I7041068
tp818
a(I6773671
I7160251
tp819
a(I6773671
I7198606
tp820
a(I6066448
I7074307
tp821
a(I6066448
I7471972
tp822
a(I6066448
I7613491
tp823
a(I6066448
I7637868
tp824
a(I6066448
I7657297
tp825
a(I6066448
I7711402
tp826
a(I6066448
I7715893
tp827
a(I6207369
I7160678
tp828
a(I6281006
I7041068
tp829
a(I6281006
I7041468
tp830
a(I6281006
I7198606
tp831
a(dp832
I6723072
(lp833
Vplunger
p834
aVreservoir
p835
aVassembl
p836
aVcharg
p837
aVexit
p838
aVport
p839
aVlength
p840
aVmemori
p841
aVuncharg
p842
aVpatient
p843
asI5958694
(lp844
Vnucleic
p845
aVnucleotid
p846
aVtarget
p847
aVsequenc
p848
aVmicrofluid
p849
aVacid
p850
aVfragment
p851
aVgiven
p852
aVnest
p853
aVoccupi
p854
asI6143495
(lp855
Vamplif
p856
aVmolecul
p857
aVcircl
p858
aVtarget
p859
aVreplic
p860
aVsampl
p861
aVprobe
p862
aVquantit
p863
aVroll
p864
aVdetect
p865
asI5837832
(lp866
Vprobe
p867
aVexact
p868
aVsequenc
p869
aVarray
p870
aVcomplementari
p871
aVnucleic
p872
aVchip
p873
aVrefer
p874
aVoligonucleotid
p875
aVacid
p876
asI6090251
(lp877
Vfluid
p878
aVport
p879
aVintroduct
p880
aVchannel
p881
aVmicrofluid
p882
aVcapillari
p883
aVaspect
p884
aVmicrofabr
p885
aVsubstrat
p886
aVfacilit
p887
asI5834252
(lp888
Vpolynucleotid
p889
aVconcatem
p890
aVnucleic
p891
aVpcr
p892
aVpolymeras
p893
aVacid
p894
aVamplif
p895
aVfragment
p896
aVcomplementari
p897
aVoverlap
p898
asI5656493
(lp899
Vthermost
p900
aVreaction
p901
aVcool
p902
aVamplif
p903
aVheat
p904
aVenzym
p905
aVnucleic
p906
aVmachin
p907
aVchain
p908
aVtriphosph
p909
asI6068752
(lp910
Vmicrofluid
p911
aVgeometri
p912
aVincorpor
p913
aVborn
p914
aVmateri
p915
aVchannel
p916
aVthese
p917
aVthroughput
p918
aVdevic
p919
aVimprov
p920
asI6361944
(lp921
Vnanoparticl
p922
aVnucleic
p923
aVoligonucleotid
p924
aVacid
p925
aVnanofabr
p926
aVnanomateri
p927
aVattach
p928
aVthereto
p929
aVsequenc
p930
aVnanostructur
p931
asI6368275
(lp932
Vmicro
p933
aVinstrument
p934
aVlid
p935
aVwall
p936
aVproperti
p937
aVdeform
p938
aVoption
p939
aVcircumscrib
p940
aVmillimet
p941
aVgather
p942
asI7291497
(lp943
Vmicroarray
p944
aVanalyt
p945
aVagent
p946
aVbioactiv
p947
aVcapabl
p948
aVtherapeut
p949
aVmicrochannel
p950
aVmedic
p951
aVbodili
p952
aVdevic
p953
asI5498392
(lp954
Vpolynucleotid
p955
aVmesoscal
p956
aVreaction
p957
aVpcr
p958
aVpolymeras
p959
aVpolymer
p960
aVchamber
p961
aVprimer
p962
aVdehybrid
p963
aVinlet
p964
asI5409818
(lp965
Vprimer
p966
aVstrand
p967
aVnucleic
p968
aVsequenc
p969
aVtemplat
p970
aVdna
p971
aVacid
p972
aVspecif
p973
aVrna
p974
aVsingl
p975
asI5700637
(lp976
Vsequenc
p977
aVpolynucleotid
p978
aVoligonucleotid
p979
aVchosen
p980
aVarray
p981
aVhybrid
p982
aVmrnas
p983
aVknown
p984
aVanalyz
p985
aVmrna
p986
asI5885470
(lp987
Vmicrofabr
p988
aVbiochemistri
p989
aVbiotechnolog
p990
aVpolymer
p991
aVbiochem
p992
aVmicrofluid
p993
aVchemistri
p994
aVanalys
p995
aVfield
p996
aVfluidic
p997
asI5726751
(lp998
Vcytomet
p999
aVphotodetector
p1000
aVangl
p1001
aVflow
p1002
aVgroov
p1003
aVreflect
p1004
aVcollect
p1005
aVlarg
p1006
aVscatter
p1007
aVsmall
p1008
asI5800992
(lp1009
Vbiolog
p1010
aVmacromolecul
p1011
aVsequenc
p1012
aVfingerprint
p1013
aVclassif
p1014
aVreagent
p1015
aVrecognit
p1016
aVnucleic
p1017
aVtypic
p1018
aVmap
p1019
asI7460898
(lp1020
Vanalyt
p1021
aVsensor
p1022
aVcontinu
p1023
aVmeasur
p1024
aVdata
p1025
aVsuch
p1026
aVglucos
p1027
aVelectrod
p1028
aVbackground
p1029
aVsuspend
p1030
asI6197595
(lp1031
Vsampl
p1032
aVnucleic
p1033
aVdiagnost
p1034
aVintegr
p1035
aVacquisit
p1036
aVnovo
p1037
aVacid
p1038
aVapplic
p1039
aVanalysi
p1040
aVdevic
p1041
asI5811238
(lp1042
Vmutagenesi
p1043
aVvitro
p1044
aVpolynucleotid
p1045
aVvivo
p1046
aVfragment
p1047
aVnucleic
p1048
aVprotein
p1049
aVshuffl
p1050
aVreassembl
p1051
aVevolut
p1052
asI7654956
(lp1053
Vtranscutan
p1054
aVanalyt
p1055
aVhost
p1056
aVglucos
p1057
aVmeasur
p1058
aVpresent
p1059
aVrelat
p1060
aVinvent
p1061
aVsensor
p1062
aVgeneral
p1063
asI6294063
(lp1064
Vprogramm
p1065
aVpacket
p1066
aVmanipul
p1067
aVforc
p1068
aVcompartment
p1069
aVposit
p1070
aVmicrofluid
p1071
aVarbitrarili
p1072
aVfluidic
p1073
aVchosen
p1074
asI6143496
(lp1075
Vnucleic
p1076
aVamplif
p1077
aVsampl
p1078
aVnanolit
p1079
aVmolecul
p1080
aVacid
p1081
aVquantifi
p1082
aVminiatur
p1083
aVreaction
p1084
aVsequenc
p1085
asI5939250
(lp1086
Venzym
p1087
aVdna
p1088
aVspecifi
p1089
aVmutagenesi
p1090
aVclone
p1091
aVactiv
p1092
aVpopul
p1093
aVlibrari
p1094
aVheterogen
p1095
aVscreen
p1096
asI5653939
(lp1097
Vsite
p1098
aVtest
p1099
aVmolecular
p1100
aVstructur
p1101
aVprobe
p1102
aVsubstanc
p1103
aVtarget
p1104
aVsampl
p1105
aVbond
p1106
aVmonolith
p1107
asI6051380
(lp1108
Vmicroloc
p1109
aVreaction
p1110
aVanalyt
p1111
aVspecif
p1112
aVbiolog
p1113
aVmolecular
p1114
aVreactant
p1115
aVentiti
p1116
aVstringenc
p1117
aVnucleic
p1118
asI7715893
(lp1119
Vanalyt
p1120
aVcalibr
p1121
aVbaselin
p1122
aVsensor
p1123
aVmeasur
p1124
aVcontinu
p1125
aVsensit
p1126
aVsuch
p1127
aVglucos
p1128
aVsuspend
p1129
asI5855801
(lp1130
Vetchabl
p1131
aVmembran
p1132
aVetch
p1133
aVunetch
p1134
aVmicroneedl
p1135
aVlayer
p1136
aVstructur
p1137
aVelong
p1138
aVetchant
p1139
aVinterfac
p1140
asI5958203
(lp1141
Vmicrofluid
p1142
aVelectropipettor
p1143
aVtransport
p1144
aVmateri
p1145
aVionic
p1146
aVelectrophoret
p1147
aVchannel
p1148
aVconcentr
p1149
aVelectrophores
p1150
aVspacer
p1151
asI6486588
(lp1152
Vbiosensor
p1153
aVphysiolog
p1154
aVacoust
p1155
aVinterrog
p1156
aVelement
p1157
aVtransduc
p1158
aVcondit
p1159
aVsite
p1160
aVimplant
p1161
aVsignal
p1162
asI6100541
(lp1163
Vmicrofluid
p1164
aVoptic
p1165
aVdevic
p1166
aVintegr
p1167
aVdetect
p1168
aValter
p1169
aVmanipul
p1170
aVsystem
p1171
aVincorpor
p1172
aVemploy
p1173
asI7657297
(lp1174
Vsensor
p1175
aVanalyt
p1176
aVimplant
p1177
aVbodi
p1178
aVhost
p1179
aVsens
p1180
aVcapsul
p1181
aVforeign
p1182
aVimmobil
p1183
aVminiatur
p1184
asI6180415
(lp1185
Vpres
p1186
aVspectral
p1187
aVplasmon
p1188
aVfield
p1189
aVtarget
p1190
aVscatter
p1191
aVparticl
p1192
aVreson
p1193
aVcharacterist
p1194
aVinterrog
p1195
asI6960192
(lp1196
Vfluid
p1197
aVperson
p1198
aVtransport
p1199
aVreservoir
p1200
aVhous
p1201
aVskin
p1202
aVdistal
p1203
aVdevic
p1204
aVpenetr
p1205
aVexit
p1206
asI5830721
(lp1207
Vfragment
p1208
aVlibrari
p1209
aVcorresspond
p1210
aVpool
p1211
aVrecombin
p1212
aVpeptid
p1213
aVpns
p1214
aVcopi
p1215
aVmutagenesi
p1216
aVshuffl
p1217
asI5932100
(lp1218
Vmicrofabr
p1219
aVextract
p1220
aVstream
p1221
aVdifferenti
p1222
aVsampl
p1223
aVparticl
p1224
aVpicolit
p1225
aVdesir
p1226
aVdiffus
p1227
aVtransport
p1228
asI5492806
(lp1229
Vsubfrag
p1230
aVphage
p1231
aVnucleic
p1232
aVsequenc
p1233
aVhybrid
p1234
aVclone
p1235
aVgenom
p1236
aVm13
p1237
aVfragment
p1238
aV000
p1239
asI5994056
(lp1240
Vamplif
p1241
aVdna
p1242
aVbind
p1243
aVdetect
p1244
aVreaction
p1245
aVnucleic
p1246
aVagent
p1247
aVpcr
p1248
aVpolymeras
p1249
aVenhanc
p1250
asI6749587
(lp1251
Vassembl
p1252
aVreusabl
p1253
aVdispens
p1254
aVexit
p1255
aVlocal
p1256
aVport
p1257
aVflow
p1258
aVdispos
p1259
aVmeter
p1260
aVfluid
p1261
asI6040138
(lp1262
sI6001229
(lp1263
Vmicrochip
p1264
aVchannel
p1265
aVinject
p1266
aVmanipul
p1267
aVosmot
p1268
aVsampl
p1269
aVmicrofluid
p1270
aVphotolithograph
p1271
aVelectrophoresi
p1272
aVfluidic
p1273
asI5863502
(lp1274
Vreaction
p1275
aVfluid
p1276
aVchannel
p1277
aVexchang
p1278
aVflow
p1279
aVparallel
p1280
aVway
p1281
aVsuch
p1282
aVchamber
p1283
aVcassett
p1284
asI6344272
(lp1285
Vnonconduct
p1286
aVconduct
p1287
aVcluster
p1288
aVnanoshel
p1289
aVscatter
p1290
aVparticl
p1291
aVshell
p1292
aVmolecul
p1293
aVabsorb
p1294
aVthick
p1295
asI5871697
(lp1296
Vsequenc
p1297
aVdna
p1298
aVcare
p1299
aVsampl
p1300
aVclone
p1301
aVsubsequ
p1302
aVtarget
p1303
aVchosen
p1304
aVexperiment
p1305
aVclassifi
p1306
asI6429027
(lp1307
Vmicrospher
p1308
aVarray
p1309
aVcomposit
p1310
aVdecod
p1311
aVsensor
p1312
aVutil
p1313
aVrelat
p1314
aVinvent
p1315
aVmethod
p1316
aVfor
p1317
asI6042709
(lp1318
sI7471972
(lp1319
Velectrod
p1320
aVimplant
p1321
aVcounter
p1322
aVbodi
p1323
aVwork
p1324
aVelectrochem
p1325
aVhead
p1326
aVreactiv
p1327
aVsensor
p1328
aVnonconduct
p1329
asI6767706
(lp1330
Vmolecul
p1331
aVhybrid
p1332
aVpolynucleotid
p1333
aVprotein
p1334
aVmicrofabr
p1335
aVdna
p1336
aVdetect
p1337
aVantibodi
p1338
aVantigen
p1339
aVreport
p1340
asI7029455
(lp1341
Vfluid
p1342
aVexit
p1343
aVflow
p1344
aVdevic
p1345
aVinstruct
p1346
aVdeliveri
p1347
aVinfus
p1348
aVlocal
p1349
aVport
p1350
aVprocessor
p1351
asI6540895
(lp1352
Vmicrofabr
p1353
aVbranch
p1354
aVchannel
p1355
aVcell
p1356
aVsort
p1357
aVdetect
p1358
aVregion
p1359
aVanalysi
p1360
aVreport
p1361
aVpoint
p1362
asI5965408
(lp1363
Vpolynucleotid
p1364
aVmutant
p1365
aVsynthesi
p1366
aVrandom
p1367
aVreanneal
p1368
aVamplif
p1369
aVpolypeptid
p1370
aVinterrupt
p1371
aVexpress
p1372
aVsexual
p1373
asI5882465
(lp1374
Vmicrofluid
p1375
aVmicrofabr
p1376
aVbond
p1377
aVmanufactur
p1378
aVsubstrat
p1379
aVimprov
p1380
aVdevic
p1381
aVvacuum
p1382
aVmethod
p1383
aVinvent
p1384
asI5965410
(lp1385
Vport
p1386
aVchannel
p1387
aVfluid
p1388
aVmonitor
p1389
aVlcr
p1390
aV421
p1391
aV413
p1392
aV407
p1393
aVtherebetween
p1394
aVsubstrat
p1395
asI7160251
(lp1396
Vmeter
p1397
aVsampl
p1398
aVstrip
p1399
aVglucos
p1400
aVelectrod
p1401
aVblood
p1402
aVtest
p1403
aVcounter
p1404
aVauto
p1405
aVwork
p1406
asI7083620
(lp1407
Vhemostat
p1408
aVjaw
p1409
aVablat
p1410
aVtreatment
p1411
aVprocedur
p1412
aVmalleabl
p1413
aVelectrosurg
p1414
aVatrial
p1415
aVfibril
p1416
aVlesion
p1417
asI7160678
(lp1418
Vmonolay
p1419
aVanalyt
p1420
aVoligom
p1421
aVdetect
p1422
aVself
p1423
aVtarget
p1424
aVmixtur
p1425
aVinsul
p1426
aVelectron
p1427
aVutil
p1428
asI6368871
(lp1429
Vmicrostructur
p1430
aVintern
p1431
aVchannel
p1432
aVmultipl
p1433
aVreactiv
p1434
aVstructur
p1435
aVmanipul
p1436
aVbranch
p1437
aVchip
p1438
aVmacromolecul
p1439
asI6409832
(lp1440
Vmicrofluid
p1441
aVprotein
p1442
aVcrystal
p1443
aVpcg
p1444
aVmicrograv
p1445
aVlaminar
p1446
aVchannel
p1447
aVharvest
p1448
aVsuit
p1449
aVpromot
p1450
asI6133436
(lp1451
Vbead
p1452
aVnucleic
p1453
aVsolid
p1454
aVchemistri
p1455
aVacid
p1456
aVimmobil
p1457
aVconjug
p1458
aVsupport
p1459
aVpractition
p1460
aVnovel
p1461
asI5658727
(lp1462
Vphage
p1463
aVpolypeptid
p1464
aVreceptor
p1465
aVantogen
p1466
aVcpviii
p1467
aVfilament
p1468
aVphagemid
p1469
aVheterodimer
p1470
aVprotein
p1471
aVmatrix
p1472
asI7115884
(lp1473
Vsensor
p1474
aVmicrospher
p1475
aVfiber
p1476
aVarray
p1477
aVbundl
p1478
aVanalyt
p1479
aVencod
p1480
aVoptic
p1481
aVself
p1482
aVinterrogat
p1483
asI6066448
(lp1484
Velectrochemiluminesc
p1485
aVmulti
p1486
aVtest
p1487
aVspecif
p1488
aVarray
p1489
aVreagent
p1490
aVmultipli
p1491
aVexcit
p1492
aVdomain
p1493
aVprocedur
p1494
asI6027889
(lp1495
sI5571698
(lp1496
Vbind
p1497
aVdomain
p1498
aVprotein
p1499
aVm13
p1500
aVfamili
p1501
aVgenet
p1502
aVphage
p1503
aVpotenti
p1504
aVpackag
p1505
aVmolecul
p1506
asI6743635
(lp1507
Vmeter
p1508
aVsampl
p1509
aVstrip
p1510
aVglucos
p1511
aVelectrod
p1512
aVblood
p1513
aVtest
p1514
aVcounter
p1515
aVauto
p1516
aVwork
p1517
asI6710366
(lp1518
Vnanocomposit
p1519
aVsup
p1520
aVmateri
p1521
aVmatrix
p1522
aVlambda
p1523
aVquantum
p1524
aVnonlinear
p1525
aVgamma
p1526
aVdot
p1527
aVrefract
p1528
asI5821047
(lp1529
Vphagemid
p1530
aVprotein
p1531
aVphage
p1532
aVgene
p1533
aVhormon
p1534
aVvariant
p1535
aVfusion
p1536
aVm13
p1537
aVgrowth
p1538
aVexpress
p1539
asI6582908
(lp1540
Voligonucleotid
p1541
aVchemistri
p1542
aVanalys
p1543
aVmedicin
p1544
aVdivers
p1545
aVdiagnost
p1546
aVgene
p1547
aVbiolog
p1548
aVimpact
p1549
aVprobe
p1550
asI6321791
(lp1551
Vmicrofluid
p1552
aVlayer
p1553
aVmicrofabr
p1554
aVsubstrat
p1555
aVmicroscal
p1556
aVaspect
p1557
aVmulti
p1558
aVvarious
p1559
aVchannel
p1560
aVlike
p1561
asI6040193
(lp1562
sI4851331
(lp1563
Vtriphosph
p1564
aVnucleosid
p1565
aVnucleotid
p1566
aVpolynucleotid
p1567
aVprimer
p1568
aVsampl
p1569
aVstrand
p1570
aVhybrid
p1571
aVexonucleas
p1572
aVprobe
p1573
asI6835184
(lp1574
Vabrad
p1575
aVskin
p1576
aVmicroneedl
p1577
aVdeliveri
p1578
aVmicron
p1579
aVcorneum
p1580
aVsite
p1581
aVstratum
p1582
aVtransderm
p1583
aVirrit
p1584
asI5965452
(lp1585
Vsampl
p1586
aVhold
p1587
aVelectrod
p1588
aVcircuit
p1589
aVtimeshar
p1590
aVarray
p1591
aVbiolog
p1592
aVmultiplex
p1593
aVmatrix
p1594
aVcapacitor
p1595
asI5925517
(lp1596
Vprobe
p1597
aVunimolecular
p1598
aVtarget
p1599
aVlabel
p1600
aVconform
p1601
aVsequenc
p1602
aVinteract
p1603
aVassay
p1604
aVcomplement
p1605
aVbimolecular
p1606
asI5552270
(lp1607
Vdna
p1608
aVoligonucleotid
p1609
aVdissoci
p1610
aVhybrid
p1611
aVduplex
p1612
aVgel
p1613
aVsequenc
p1614
aVarray
p1615
aVwash
p1616
aVtemperatur
p1617
asI6959247
(lp1618
Vmeter
p1619
aVsampl
p1620
aVstrip
p1621
aVglucos
p1622
aVelectrod
p1623
aVblood
p1624
aVtest
p1625
aVcounter
p1626
aVauto
p1627
aVwork
p1628
asI6340588
(lp1629
Vmatrix
p1630
aVmemori
p1631
aVmatric
p1632
aVcombin
p1633
aVassay
p1634
aVmacromolecul
p1635
aVbiolog
p1636
aVimmunoassay
p1637
aVmolecul
p1638
aVmateri
p1639
asI5837458
(lp1640
Vmetabol
p1641
aVrecombin
p1642
aVrecurs
p1643
aVmultigen
p1644
aVwhole
p1645
aVbioprocess
p1646
aVsequenc
p1647
aVevolut
p1648
aVevolv
p1649
aVplasmid
p1650
asI5876675
(lp1651
Vmicrofluid
p1652
aVfoul
p1653
aVmanual
p1654
aVhandl
p1655
aVdevic
p1656
aVeasier
p1657
aVresult
p1658
aVcontact
p1659
aVcontamin
p1660
aVotherwis
p1661
asI6591124
(lp1662
Vmicroneedl
p1663
aVinterstiti
p1664
aVsensor
p1665
aVfluid
p1666
aVarray
p1667
aVdiaphragm
p1668
aVfinger
p1669
aVportabl
p1670
aVpump
p1671
aVcould
p1672
asI5747349
(lp1673
Vbead
p1674
aVreport
p1675
aVanalyt
p1676
aVfluoresc
p1677
aVbulk
p1678
aVfluid
p1679
aVmeasur
p1680
aVmolecul
p1681
aVmicroscal
p1682
aVcytomet
p1683
asI5124246
(lp1684
Voligonucleotid
p1685
aVmultim
p1686
aVstrand
p1687
aVnucleic
p1688
aVsingl
p1689
aVamplifi
p1690
aVassay
p1691
aVcomplementari
p1692
aVhybrid
p1693
aVacid
p1694
asI5494810
(lp1695
Vligas
p1696
aVdna
p1697
aVnucleic
p1698
aVsequenc
p1699
aVhb8
p1700
aVaquaticus
p1701
aVthermus
p1702
aVlcr
p1703
aVacid
p1704
aVthermophil
p1705
asI6656158
(lp1706
Vreservoir
p1707
aVscrew
p1708
aVplunger
p1709
aVlead
p1710
aVlength
p1711
aVelement
p1712
aVexit
p1713
aVuncharg
p1714
aVwall
p1715
aVperipheri
p1716
asI4800159
(lp1717
Vnucleic
p1718
aVprimer
p1719
aVacid
p1720
aVsequenc
p1721
aVamplifi
p1722
aVcomplementari
p1723
aVdetect
p1724
aVstepwis
p1725
aVclone
p1726
aVoligonucleotid
p1727
asI6017696
(lp1728
sI6454945
(lp1729
Vstream
p1730
aVmicrofabr
p1731
aVextract
p1732
aVsampl
p1733
aVparticl
p1734
aVdiffus
p1735
aVpicolit
p1736
aVdesir
p1737
aVquantiti
p1738
aVdifferenti
p1739
asI5498530
(lp1740
Vprotein
p1741
aVpeptid
p1742
aVdna
p1743
aVbind
p1744
aVrandom
p1745
aVscreen
p1746
aVlibrari
p1747
aVfusion
p1748
aVligand
p1749
aVrecombin
p1750
asI6312612
(lp1751
Vmicroneedl
p1752
aVmicrofabr
p1753
aVskin
p1754
aVarray
p1755
aVsilicon
p1756
aVintracutan
p1757
aVreptil
p1758
aVcorneum
p1759
aVcreatur
p1760
aVhollow
p1761
asI6281006
(lp1762
Vaffin
p1763
aVligand
p1764
aVelectrochem
p1765
aVassay
p1766
aVreceptor
p1767
aVbind
p1768
aVdetect
p1769
aVsystem
p1770
aVfor
p1771
asI6696220
(lp1772
Vreconvers
p1773
aVcolor
p1774
aVviewabl
p1775
aVimprint
p1776
aVnano
p1777
aVtemplat
p1778
aVmicro
p1779
aVsuit
p1780
aVroom
p1781
aVphotograph
p1782
asI7711402
(lp1783
Vanalyt
p1784
aVmicroarchitectur
p1785
aVdevic
p1786
aVimplant
p1787
aVmonitor
p1788
aVglucos
p1789
aVlevel
p1790
aVallow
p1791
aVdetermin
p1792
aVblood
p1793
asI5942443
(lp1794
Vscreen
p1795
aVthroughput
p1796
aVassay
p1797
aVmicroscal
p1798
aVbiochem
p1799
aVmicrofluid
p1800
aVfluidic
p1801
aVhigh
p1802
aVvarieti
p1803
aVdevic
p1804
asI7137964
(lp1805
Vfluid
p1806
aVexit
p1807
aVflow
p1808
aVdevic
p1809
aVinstruct
p1810
aVdeliveri
p1811
aVinfus
p1812
aVlocal
p1813
aVport
p1814
aVprocessor
p1815
asI5585069
(lp1816
Varray
p1817
aVsampl
p1818
aVmicrolaboratori
p1819
aVtest
p1820
aVfluidic
p1821
aVmicroelectron
p1822
aVclinic
p1823
aVchannel
p1824
aVlight
p1825
aVsynthes
p1826
asI5744305
(lp1827
Vtechniqu
p1828
aVphotoremov
p1829
aVphotolabil
p1830
aVchemic
p1831
aVlinker
p1832
aVchemistri
p1833
aVphotolithographi
p1834
aVprotect
p1835
aVstrategi
p1836
aVdivers
p1837
asI5846708
(lp1838
Vsite
p1839
aVtest
p1840
aVmolecular
p1841
aVstructur
p1842
aVprobe
p1843
aVsubstanc
p1844
aVtarget
p1845
aVsampl
p1846
aVbond
p1847
aVmonolith
p1848
asI5587128
(lp1849
Vpolynucleotid
p1850
aVamplif
p1851
aVreaction
p1852
aVchamber
p1853
aVpreselect
p1854
aVmesoscal
p1855
aVdevic
p1856
aVregul
p1857
aVmicrofabr
p1858
aVamplifi
p1859
asI5837500
(lp1860
Vbind
p1861
aVdomain
p1862
aVprotein
p1863
aVm13
p1864
aVfamili
p1865
aVgenet
p1866
aVphage
p1867
aVpotenti
p1868
aVpackag
p1869
aVmolecul
p1870
asI5846717
(lp1871
Vnucleic
p1872
aVcleavag
p1873
aVacid
p1874
aVsequenc
p1875
aVcleav
p1876
aVspecif
p1877
aVinvad
p1878
aVvariat
p1879
aVnucleas
p1880
aVtarget
p1881
asI5538848
(lp1882
Voligonucleotid
p1883
aVquencher
p1884
aVreport
p1885
aVnucleic
p1886
aVmolecul
p1887
aVprobe
p1888
aVquench
p1889
aVwhenev
p1890
aVunquench
p1891
aVamplif
p1892
asI5961923
(lp1893
Vmatrix
p1894
aVmemori
p1895
aVmatric
p1896
aVassay
p1897
aVmacromolecul
p1898
aVbiolog
p1899
aVcombin
p1900
aVimmunoassay
p1901
aVmolecul
p1902
aVmateri
p1903
asI5427908
(lp1904
Vprotein
p1905
aVencod
p1906
aVsequenc
p1907
aVlibrari
p1908
aVbacteriophag
p1909
aVphage
p1910
aVnucleotid
p1911
aVdna
p1912
aVinterest
p1913
aVhybridoma
p1914
asI7640048
(lp1915
Vanalyt
p1916
aVhost
p1917
aVtranscutan
p1918
aVglucos
p1919
aVmeasur
p1920
aVpresent
p1921
aVrelat
p1922
aVinvent
p1923
aVsensor
p1924
aVgeneral
p1925
asI5965001
(lp1926
Vmicrofluid
p1927
aVmultiplex
p1928
aVelectroosmot
p1929
aVelectrod
p1930
aVvoltag
p1931
aVelectrokinet
p1932
aVfluid
p1933
aVvari
p1934
aVelectrophoret
p1935
aVforc
p1936
asI6375627
(lp1937
Vphysiolog
p1938
aVfluid
p1939
aVpunctur
p1940
aVanalysi
p1941
aVsampl
p1942
aVbodi
p1943
aVskin
p1944
aVlanc
p1945
aVsensor
p1946
aVchannel
p1947
asI6632655
(lp1948
Vmicrofluid
p1949
aVflowabl
p1950
aVassay
p1951
aVarray
p1952
aVmicroparticl
p1953
aVparticl
p1954
aVhydrodynam
p1955
aVfix
p1956
aVsystem
p1957
aVset
p1958
asI6699218
(lp1959
Vfluid
p1960
aVtransport
p1961
aVtube
p1962
aVdistal
p1963
aVmember
p1964
aVpenetr
p1965
aVpassageway
p1966
aVexpans
p1967
aVdispens
p1968
aVtranscutan
p1969
asI5969108
(lp1970
Vsbp
p1971
aVcapsid
p1972
aVdna
p1973
aVmember
p1974
aVrgdp
p1975
aVexpress
p1976
aVphagemid
p1977
aVfusion
p1978
aVgenet
p1979
aVpolypeptid
p1980
asI6156501
(lp1981
Voligonucleotid
p1982
aVanalogu
p1983
aVnucleic
p1984
aVarray
p1985
aVacid
p1986
aVunmodifi
p1987
aVnucleotid
p1988
aVbound
p1989
aVhybrid
p1990
aVprobe
p1991
asI6329209
(lp1992
Vprotein
p1993
aVarray
p1994
aVcaptur
p1995
aVagent
p1996
aVproteom
p1997
aVcell
p1998
aVexpress
p1999
aVpopul
p2000
aVassess
p2001
aVparticular
p2002
asI4889818
(lp2003
Venzym
p2004
aVthermost
p2005
aVaquaticus
p2006
aV000
p2007
aVthermus
p2008
aVpurifi
p2009
aVtriphosph
p2010
aVdalton
p2011
aVlend
p2012
aVsequenc
p2013
asI5972187
(lp2014
Vmicrofluid
p2015
aVelectropipettor
p2016
aVtransport
p2017
aVmateri
p2018
aVionic
p2019
aVelectrophoret
p2020
aVchannel
p2021
aVconcentr
p2022
aVelectrophores
p2023
aVspacer
p2024
asI6953693
(lp2025
Vmeter
p2026
aVsampl
p2027
aVstrip
p2028
aVglucos
p2029
aVelectrod
p2030
aVblood
p2031
aVtest
p2032
aVcounter
p2033
aVauto
p2034
aVwork
p2035
asI6738654
(lp2036
Vanalyt
p2037
aVconcentr
p2038
aVmeasur
p2039
aVmonitor
p2040
aVsingl
p2041
aVtime
p2042
aVhost
p2043
aVmake
p2044
aVgiven
p2045
aVuse
p2046
asI6471903
(lp2047
Vmicroneedl
p2048
aVmold
p2049
aVplastic
p2050
aVarray
p2051
aVmicroinject
p2052
aVmicropillar
p2053
aVintracutan
p2054
aVmicrohol
p2055
aVmicroform
p2056
aVmicro
p2057
asI5502177
(lp2058
Vpartner
p2059
aVpyrimidin
p2060
aVoligonucleotid
p2061
aVlabel
p2062
aVbind
p2063
aVsup
p2064
aVstr1
p2065
aVderiv
p2066
aVcompound
p2067
aVstructur
p2068
asI5755942
(lp2069
Varray
p2070
aVsampl
p2071
aVmicrolaboratori
p2072
aVtest
p2073
aVmicroelectron
p2074
aVchannel
p2075
aVlight
p2076
aVsynthes
p2077
aVsynthesi
p2078
aVpartit
p2079
asI5972710
(lp2080
Vlaminar
p2081
aVstream
p2082
aVanalyt
p2083
aVchannel
p2084
aVparticl
p2085
aVflow
p2086
aVindic
p2087
aVsampl
p2088
aVpresenc
p2089
aVdiffus
p2090
asI5922537
(lp2091
Vparticl
p2092
aVphage
p2093
aVentiti
p2094
aVassay
p2095
aVlabel
p2096
aVbiosensor
p2097
aVcompetit
p2098
aVreport
p2099
aVvarieti
p2100
aVparamagnet
p2101
asI6132970
(lp2102
Vpolynucleotid
p2103
aVshuffl
p2104
aVstrand
p2105
aVanneal
p2106
aVvariant
p2107
aVpartial
p2108
aVregion
p2109
aVextens
p2110
aVsimilar
p2111
aVentail
p2112
asI6645202
(lp2113
Vablat
p2114
aVtissu
p2115
aVfocus
p2116
aVaspect
p2117
aVdeliv
p2118
aVnearer
p2119
aVelement
p2120
aVcharacterist
p2121
aVultrasound
p2122
aVfocal
p2123
asI5593838
(lp2124
Varray
p2125
aVsampl
p2126
aVmicrolaboratori
p2127
aVsynthes
p2128
aVmani
p2129
aVchannel
p2130
aVtest
p2131
aVprocess
p2132
aVmicroelectron
p2133
aVwell
p2134
asI5800690
(lp2135
Vmicrofluid
p2136
aVmultiplex
p2137
aVelectroosmot
p2138
aVelectrod
p2139
aVvoltag
p2140
aVelectrokinet
p2141
aVfluid
p2142
aVvari
p2143
aVelectrophoret
p2144
aVforc
p2145
asI6174675
(lp2146
Vport
p2147
aVchannel
p2148
aVfluid
p2149
aVmonitor
p2150
aVlcr
p2151
aV421
p2152
aV413
p2153
aV407
p2154
aVtherebetween
p2155
aVsubstrat
p2156
asI5436149
(lp2157
Vpolymeras
p2158
aVdna
p2159
aVthermus
p2160
aVthermost
p2161
aVaquaticus
p2162
aVflavus
p2163
aVexonucleas
p2164
aVsequenc
p2165
aVamino
p2166
aVacid
p2167
asI5674742
(lp2168
sI5674743
(lp2169
sI6251343
(lp2170
Vmicrofluid
p2171
aVcover
p2172
aVport
p2173
aVbodi
p2174
aVlayer
p2175
aVstructur
p2176
aVchannel
p2177
aVmicroscal
p2178
aVapertur
p2179
aVdispos
p2180
asI5639423
(lp2181
Vinstrument
p2182
aVmicrofabr
p2183
aVreaction
p2184
aVagit
p2185
aVpicolit
p2186
aVlamb
p2187
aVmicrolit
p2188
aVcycl
p2189
aVpump
p2190
aVbiochem
p2191
asI6416642
(lp2192
Vwick
p2193
aVflow
p2194
aVrate
p2195
aVchannel
p2196
aVelectrokinet
p2197
aVmicroscal
p2198
aVmicrofluid
p2199
aVprefabr
p2200
aVincub
p2201
aVmateri
p2202
asI5880071
(lp2203
Vmicrofluid
p2204
aVelectropipettor
p2205
aVmateri
p2206
aVtransport
p2207
aVionic
p2208
aVelectrophoret
p2209
aVchannel
p2210
aVconcentr
p2211
aVelectrophores
p2212
aVspacer
p2213
asI7041068
(lp2214
Vsampl
p2215
aVmodul
p2216
aVlancet
p2217
aVmay
p2218
aVcartridg
p2219
aVpenetr
p2220
aVtissu
p2221
aVanalyz
p2222
aVoption
p2223
aVdevic
p2224
asI7651596
(lp2225
Vcellulos
p2226
aVanalyt
p2227
aVdomain
p2228
aVinterfer
p2229
aVhost
p2230
aVglucos
p2231
aVmeasur
p2232
aVpresent
p2233
aVbase
p2234
aVincorpor
p2235
asI6274320
(lp2236
Vnucleic
p2237
aVacid
p2238
aVsequenc
p2239
aVmolecul
p2240
aVpopul
p2241
aVanneal
p2242
aVcircular
p2243
aVamplifi
p2244
aVbyproduct
p2245
aVprimer
p2246
asI6656159
(lp2247
Vreservoir
p2248
aVscrew
p2249
aVplunger
p2250
aVlead
p2251
aVlength
p2252
aVelement
p2253
aVexit
p2254
aVuncharg
p2255
aVwall
p2256
aVperipheri
p2257
asI6571651
(lp2258
Vwick
p2259
aVcapillari
p2260
aVfill
p2261
aVinterstiti
p2262
aVdevic
p2263
aVelectrochem
p2264
aVfulli
p2265
aVblood
p2266
aVensur
p2267
aVanalyz
p2268
asI6440725
(lp2269
Velut
p2270
aVsampl
p2271
aVcartridg
p2272
aV122
p2273
aVanalyt
p2274
aVflow
p2275
aVfluid
p2276
aVpath
p2277
aVcompon
p2278
aVthrough
p2279
asI5475610
(lp2280
sI5863708
(lp2281
Vchannel
p2282
aVpassag
p2283
aVfirst
p2284
aVsurfac
p2285
aVsecond
p2286
aVfourth
p2287
aVintersect
p2288
aVsubstrat
p2289
aVwherein
p2290
aVcapillari
p2291
asI5605662
(lp2292
Vreaction
p2293
aVanalyt
p2294
aVspecif
p2295
aVbiolog
p2296
aVmolecular
p2297
aVreactant
p2298
aVmicroloc
p2299
aVentiti
p2300
aVstringenc
p2301
aVdevic
p2302
asI5922591
(lp2303
Vsampl
p2304
aVnucleic
p2305
aVdiagnost
p2306
aVintegr
p2307
aVacquisit
p2308
aVnovo
p2309
aVacid
p2310
aVapplic
p2311
aVanalysi
p2312
aVdevic
p2313
asI7074307
(lp2314
Vanalyt
p2315
aVelectrochem
p2316
aVelectrod
p2317
aVauxiliari
p2318
aVinterfer
p2319
aVoxygen
p2320
aVmeasur
p2321
aVenzym
p2322
aVadvantag
p2323
aVinaccuraci
p2324
asI6768425
(lp2325
Vremot
p2326
aVprocessor
p2327
aVmedic
p2328
aVlocal
p2329
aVtreatment
p2330
aVcommunic
p2331
aVconnect
p2332
aVelement
p2333
aVcontrol
p2334
aVapparatus
p2335
asI6045996
(lp2336
sI5445934
(lp2337
Vphotoremov
p2338
aVsubstrat
p2339
aVmonom
p2340
aVsequenc
p2341
aVselect
p2342
aVoligonucleotid
p2343
aVgroup
p2344
aVarea
p2345
aVamino
p2346
aVbind
p2347
asI6117679
(lp2348
sI6329139
(lp2349
Vautom
p2350
aVmemori
p2351
aVmicrovessel
p2352
aVmatric
p2353
aVencodabi
p2354
aVprotocol
p2355
aVmanual
p2356
aVdiscoveri
p2357
aVsort
p2358
aVcleaver
p2359
asI6743211
(lp2360
Vmicroneedl
p2361
aVelast
p2362
aVbiolog
p2363
aVskin
p2364
aVpenetr
p2365
aVbarrier
p2366
aVmolecul
p2367
aVdevic
p2368
aVdeform
p2369
aVenhanc
p2370
asI5202231
(lp2371
Vsubclon
p2372
aVkbp
p2373
aVgenom
p2374
aVdna
p2375
aVhybrid
p2376
aVsequenc
p2377
aVphage
p2378
aV000
p2379
aVmillion
p2380
aVclone
p2381
asI5922617
(lp2382
Vheader
p2383
aVpreprepar
p2384
aVtrack
p2385
aVassay
p2386
aVrapid
p2387
aVsite
p2388
aVinteract
p2389
aVdisk
p2390
aVemit
p2391
aVinterpret
p2392
asI6379324
(lp2393
Vmicroneedl
p2394
aVdrug
p2395
aVarray
p2396
aVskin
p2397
aVelectrod
p2398
aVhollow
p2399
aVbioelectrochem
p2400
aVelectr
p2401
aVfluid
p2402
aVintracutan
p2403
asI6007690
(lp2404
Velectrophoret
p2405
aVflowpath
p2406
aVmicrofluid
p2407
aVbioresearch
p2408
aVenrich
p2409
aVmain
p2410
aVdiagnost
p2411
aVintegr
p2412
aVsubject
p2413
aVgenom
p2414
asI5455166
(lp2415
Vstrand
p2416
aVpolymeras
p2417
aVamplif
p2418
aVnick
p2419
aVendonucleas
p2420
aVpolymer
p2421
aVdisplac
p2422
aVwill
p2423
aVdigest
p2424
aVnewli
p2425
asI5547839
(lp2426
Vpolym
p2427
aVmicroflouresc
p2428
aVimmobil
p2429
aVlabel
p2430
aVmonom
p2431
aVmacromolecul
p2432
aVsequenc
p2433
aVsolid
p2434
aVchemistri
p2435
aVtermin
p2436
asI7494465
(lp2437
Vtranscutan
p2438
aVanalyt
p2439
aVhost
p2440
aVglucos
p2441
aVmeasur
p2442
aVpresent
p2443
aVrelat
p2444
aVinvent
p2445
aVsensor
p2446
aVgeneral
p2447
asI5948227
(lp2448
Velectrophoret
p2449
aVcapillari
p2450
aVcharg
p2451
aVmacromolecular
p2452
aVsurfac
p2453
aVchannel
p2454
aVadsorb
p2455
aVnet
p2456
aVspeci
p2457
aVsepar
p2458
asI4965188
(lp2459
Vnucleic
p2460
aVprimer
p2461
aVacid
p2462
aVsequenc
p2463
aVamplifi
p2464
aVenzym
p2465
aVcomplementari
p2466
aVhybrid
p2467
aVthermost
p2468
aVdenatur
p2469
asI6692457
(lp2470
Vdiaphragm
p2471
aVflow
p2472
aVsensor
p2473
aVpatient
p2474
aVassembl
p2475
aVpath
p2476
aVchamber
p2477
aVexit
p2478
aVsurfac
p2479
aVcondit
p2480
asI5726026
(lp2481
Vmesoscal
p2482
aVsampl
p2483
aVmicrovolum
p2484
aVfraction
p2485
aVanalys
p2486
aVenrich
p2487
aVcell
p2488
aVprepar
p2489
aVpolynucleotid
p2490
aVamplif
p2491
asI6210891
(lp2492
Vpyrophosph
p2493
aVdideoxynucleotid
p2494
aVdna
p2495
aVdeoxynucleotid
p2496
aVprimer
p2497
aVtarget
p2498
aVsampl
p2499
aVextens
p2500
aVpolymer
p2501
aVsequenc
p2502
asI5681484
(lp2503
Varray
p2504
aVsampl
p2505
aVchannel
p2506
aVmicrolaboratori
p2507
aVsynthes
p2508
aVmani
p2509
aVintersect
p2510
aVetch
p2511
aVtest
p2512
aVprocess
p2513
asI5989402
(lp2514
Vmicrofluid
p2515
aVmonitor
p2516
aVcontrol
p2517
aVancillari
p2518
aVsystem
p2519
aVinterfac
p2520
aVenvironment
p2521
aVperform
p2522
aVconjunct
p2523
aVtypic
p2524
asI6235471
(lp2525
Vbiochem
p2526
aVfluid
p2527
aVmicroscal
p2528
aVscreen
p2529
aVperform
p2530
aVmicrofluid
p2531
aVgenom
p2532
aViter
p2533
aVsystem
p2534
aVpurif
p2535
asI6210896
(lp2536
Vmolecular
p2537
aVpolym
p2538
aVmotor
p2539
aVstation
p2540
aVaris
p2541
aVanalysi
p2542
aVinteract
p2543
aVlinear
p2544
aVagent
p2545
aVspecif
p2546
asI5118801
(lp2547
Vprobe
p2548
aVnucleotid
p2549
aVswitch
p2550
aVsequenc
p2551
aVnucleic
p2552
aVmolecular
p2553
aVtarget
p2554
aVacid
p2555
aVassay
p2556
aVkit
p2557
asI7080786
(lp2558
Vbar
p2559
aVcode
p2560
aVread
p2561
aVsymbol
p2562
aVreprogram
p2563
aVdevic
p2564
aVembodi
p2565
aVway
p2566
aVprogram
p2567
aVdisplay
p2568
asI5554516
(lp2569
Vsequenc
p2570
aVnucleic
p2571
aVprimer
p2572
aVamplif
p2573
aVtarget
p2574
aVpromot
p2575
aVacid
p2576
aVkit
p2577
aVforens
p2578
aVtranscriptas
p2579
asI7198606
(lp2580
Vpenetr
p2581
aVcartridg
p2582
aVtissu
p2583
aVmember
p2584
aVanalyt
p2585
aVdriver
p2586
aVcouplabl
p2587
aVsingl
p2588
aVfluid
p2589
aVbodi
p2590
asI5661016
(lp2591
Vimmunoglobulin
p2592
aVtransgen
p2593
aVheterolog
p2594
aVhuman
p2595
aVanim
p2596
aVendogen
p2597
aVantibodi
p2598
aVgene
p2599
aVimmort
p2600
aVnon
p2601
asI5716825
(lp2602
Vmaldi
p2603
aVtof
p2604
aVionize
p2605
aVanalysi
p2606
aVsampl
p2607
aVminiatur
p2608
aVintegr
p2609
aVanalyt
p2610
aVnucleic
p2611
aVmass
p2612
asI5720923
(lp2613
Vcapillari
p2614
aVreaction
p2615
aVsampl
p2616
aVtube
p2617
aVamplif
p2618
aVembodi
p2619
aVexchang
p2620
aVnucleic
p2621
aVtranslat
p2622
aVstationari
p2623
asI6074827
(lp2624
Velectrophoret
p2625
aVflowpath
p2626
aVmicrofluid
p2627
aVbioresearch
p2628
aVenrich
p2629
aVmain
p2630
aVnucleic
p2631
aVdiagnost
p2632
aVsubject
p2633
aVgenom
p2634
asI5866336
(lp2635
Vamplif
p2636
aVoligonucleotid
p2637
aVacceptor
p2638
aVmoieti
p2639
aVprimer
p2640
aVdonor
p2641
aVfluorophor
p2642
aVlabel
p2643
aVnucleic
p2644
aVunincorpor
p2645
asI7613491
(lp2646
Vpoli
p2647
aVpolym
p2648
aVmembran
p2649
aVsilicon
p2650
aVanalyt
p2651
aVoxid
p2652
aVblend
p2653
aVethylen
p2654
aVsolubl
p2655
aVtriblock
p2656
asI5900130
(lp2657
Vmicrochannel
p2658
aVintersect
p2659
aVthird
p2660
aVfourth
p2661
aVliquid
p2662
aVmove
p2663
aVstage
p2664
aVsampl
p2665
aVcarrier
p2666
aVconcurr
p2667
asI5188963
(lp2668
Vmatrix
p2669
aVspecimen
p2670
aVanalysi
p2671
aVcarrier
p2672
aVelectrophoresi
p2673
aVtreat
p2674
aVsurveil
p2675
aVrna
p2676
aVgenet
p2677
aVamplif
p2678
asI5487972
(lp2679
Voligonucleotid
p2680
aVlabel
p2681
aVnucleic
p2682
aV3'exonucleas
p2683
aVpolymeras
p2684
aVacid
p2685
aVnucleas
p2686
aVdetect
p2687
aVpcr
p2688
aVcleav
p2689
asI6669669
(lp2690
Vexit
p2691
aVlamin
p2692
aVpatient
p2693
aVport
p2694
aVpassageway
p2695
aVfluid
p2696
aVtranscutan
p2697
aVlend
p2698
aVassembl
p2699
aVdevic
p2700
asI6167910
(lp2701
Vmicrofluid
p2702
aVlayer
p2703
aVmicrofabr
p2704
aVsubstrat
p2705
aVmicroscal
p2706
aVaspect
p2707
aVmulti
p2708
aVvarious
p2709
aVchannel
p2710
aVlike
p2711
asI6046056
(lp2712
Vscreen
p2713
aVthroughput
p2714
aVassay
p2715
aVmicroscal
p2716
aVbiochem
p2717
aVmicrofluid
p2718
aVfluidic
p2719
aVhigh
p2720
aVvarieti
p2721
aVdevic
p2722
asI6355431
(lp2723
Vamplif
p2724
aVnucleic
p2725
aVtarget
p2726
aVquantifi
p2727
aVacid
p2728
aVbead
p2729
aVdetect
p2730
aVvarieti
p2731
aVtechniqu
p2732
aVreaction
p2733
asI7637868
(lp2734
Vimplant
p2735
aVbead
p2736
aVbeliev
p2737
aVcomposit
p2738
aVmateri
p2739
aVdevic
p2740
aVmatrix
p2741
aVhollow
p2742
aVmix
p2743
aVincorpor
p2744
asI5976336
(lp2745
Vmicrofluid
p2746
aVgeometri
p2747
aVincorpor
p2748
aVborn
p2749
aVmateri
p2750
aVchannel
p2751
aVthese
p2752
aVthroughput
p2753
aVdevic
p2754
aVimprov
p2755
asI5733743
(lp2756
Vsbp
p2757
aVrecombin
p2758
aVrgdps
p2759
aVmember
p2760
aVbind
p2761
aVloxp
p2762
aVpolypeptid
p2763
aVspecif
p2764
aVvector
p2765
aVdisplay
p2766
asI5346672
(lp2767
Vspecimen
p2768
aVreagent
p2769
aVvapor
p2770
aVchamber
p2771
aVcover
p2772
aVslide
p2773
aVevapor
p2774
aVloss
p2775
aVpipett
p2776
aVseal
p2777
asI7344499
(lp2778
Vmicroneedl
p2779
aVbiolog
p2780
aVfluid
p2781
aVcollect
p2782
aVantigen
p2783
aVprefer
p2784
aVwithdraw
p2785
aVsens
p2786
aVcarcinoembryon
p2787
aVpainless
p2788
asI6168948
(lp2789
Vnucleic
p2790
aVminiatur
p2791
aVacid
p2792
aVgenet
p2793
aVdiagnost
p2794
aVbind
p2795
aVsite
p2796
aVanalysi
p2797
aVzone
p2798
aVextract
p2799
asI7424318
(lp2800
Vanalyt
p2801
aVsensor
p2802
aVcontinu
p2803
aVmeasur
p2804
aVdata
p2805
aVsuch
p2806
aVglucos
p2807
aVelectrod
p2808
aVbackground
p2809
aVsuspend
p2810
asI7018360
(lp2811
Vflow
p2812
aVexit
p2813
aVpath
p2814
aVrestrict
p2815
aVpatient
p2816
aVair
p2817
aVfluid
p2818
aVport
p2819
aVdevic
p2820
aVtranscutan
p2821
asI5863801
(lp2822
Vnucleic
p2823
aVprepar
p2824
aVacid
p2825
aVcassett
p2826
aVbiolog
p2827
aVautom
p2828
aVstrip
p2829
aVsampl
p2830
aVtransfer
p2831
aVstorag
p2832
asI5698426
(lp2833
Vand
p2834
aVexhibit
p2835
aVcomposit
p2836
aVprocaryot
p2837
aVencod
p2838
aVpolypeptid
p2839
aVsecond
p2840
aVreceptor
p2841
aVlibrari
p2842
aVsurfac
p2843
asI5846396
(lp2844
Vfeeder
p2845
aVreservoir
p2846
aVchannel
p2847
aVdistribut
p2848
aVbeta
p2849
aValpha
p2850
aVfourth
p2851
aVthird
p2852
aVsecond
p2853
aVsituat
p2854
asI6054270
(lp2855
sI6256533
(lp2856
Vmicroneedl
p2857
aVdrug
p2858
aVfluid
p2859
aVsampl
p2860
aVbodi
p2861
aViontophoret
p2862
aVarray
p2863
aVdispens
p2864
aVelectrod
p2865
aVbioelectrochem
p2866
asI5795714
(lp2867
Vprobe
p2868
aVreplic
p2869
aVarray
p2870
aVpcr
p2871
aVoverhang
p2872
aVtechnolog
p2873
aVnucleic
p2874
aVdiagnost
p2875
aVbiolog
p2876
aVaid
p2877
asI6540675
(lp2878
Vanalysi
p2879
aVneedl
p2880
aVsite
p2881
aVadapt
p2882
aVanalyt
p2883
aVlight
p2884
aVretract
p2885
aVhous
p2886
aVtip
p2887
aVposit
p2888
asI5842787
(lp2889
Vmicrofluid
p2890
aVchannel
p2891
aVvari
p2892
aVdepth
p2893
aVdescrib
p2894
aVprevious
p2895
aVincorpor
p2896
aVunexpect
p2897
aVbenefici
p2898
aVbenefit
p2899
asI5580717
(lp2900
Vprotein
p2901
aVencod
p2902
aVsequenc
p2903
aVlibrari
p2904
aVbacteriophag
p2905
aVphage
p2906
aVnucleotid
p2907
aVdna
p2908
aVinterest
p2909
aVhybridoma
p2910
asI5872010
(lp2911
Vfluid
p2912
aVmicroscal
p2913
aVchip
p2914
aVmicrochip
p2915
aVsampl
p2916
aVhandl
p2917
aVport
p2918
aVpicolit
p2919
aVnanolit
p2920
aVoff
p2921
asI5849486
(lp2922
Vdna
p2923
aVfluidic
p2924
aVbiochip
p2925
aVfluoresc
p2926
aVdiagnost
p2927
aVhybrid
p2928
aVperturb
p2929
aVaflow
p2930
aVselfaddress
p2931
aVanalysi
p2932
asI5858195
(lp2933
Vmicrochip
p2934
aVanalyt
p2935
aVelectrochromatographi
p2936
aVintersect
p2937
aVmanipul
p2938
aVchannel
p2939
aVelectrokinet
p2940
aVchemic
p2941
aVmicrofluid
p2942
aVphotolithograph
p2943
asI6287765
(lp2944
Vmultimolecular
p2945
aVheteropolymer
p2946
aVnucleotid
p2947
aVmultival
p2948
aVnonoligonucleotid
p2949
aVnonaptamer
p2950
aVnonnucleotid
p2951
aVspecif
p2952
aVaptamer
p2953
aVpopul
p2954
asI6645142
(lp2955
Vinstrument
p2956
aVglucos
p2957
aVpractition
p2958
aVcomplianc
p2959
aVguidanc
p2960
aVmonitor
p2961
aVcalibr
p2962
aVnetwork
p2963
aVpatient
p2964
aVsupervisori
p2965
asI6043031
(lp2966
sI6139800
(lp2967
Vreceptor
p2968
aVlight
p2969
aVsampl
p2970
aVbiolog
p2971
aVwavelength
p2972
aVview
p2973
aVemit
p2974
aVfluoresc
p2975
aVfilter
p2976
aVchamber
p2977
asI6379929
(lp2978
Visotherm
p2979
aVmicrofabr
p2980
aVamplif
p2981
aVnucleic
p2982
aVgene
p2983
aVenvis
p2984
aVsubstrat
p2985
aVacid
p2986
aVcomposit
p2987
aVdiagnost
p2988
asI5779868
(lp2989
Vmicrofluid
p2990
aVelectropipettor
p2991
aVtransport
p2992
aVmateri
p2993
aVionic
p2994
aVelectrophoret
p2995
aVchannel
p2996
aVconcentr
p2997
aVelectrophores
p2998
aVelectrokinet
p2999
asI5210015
(lp3000
Voligonucleotid
p3001
aVnucleas
p3002
aVlabel
p3003
aVnucleic
p3004
aVassay
p3005
aVacid
p3006
aVpcr
p3007
aVpolymeras
p3008
aVcleav
p3009
aVduplex
p3010
asI6214560
(lp3011
Vanalyt
p3012
aVscatter
p3013
aVparticl
p3014
aVlight
p3015
aVdetect
p3016
aVani
p3017
aVsampl
p3018
aVmore
p3019
aVspecif
p3020
aVmagnif
p3021
asI5605793
(lp3022
Vvitro
p3023
aVmutagenesi
p3024
aVfragment
p3025
aVrecombin
p3026
aVnucleic
p3027
aVprotein
p3028
aVshuffl
p3029
aVreassembl
p3030
aVevolut
p3031
aVmutant
p3032
asI5807522
(lp3033
Vmicroarray
p3034
aVbiolog
p3035
aVdispens
p3036
aVvolum
p3037
aVsampl
p3038
aVsupport
p3039
aVcapillari
p3040
aVtap
p3041
aVreagent
p3042
aVfashion
p3043
asI6377894
(lp3044
Vinstrument
p3045
aVstrip
p3046
aVtest
p3047
aVcalibr
p3048
aVinvalid
p3049
aVstorag
p3050
aVdate
p3051
aVparamet
p3052
aVanalyt
p3053
aVdata
p3054
asI6773671
(lp3055
Vmultichemistri
p3056
aVtest
p3057
aVstrip
p3058
aVmeasur
p3059
aVfunction
p3060
aVtype
p3061
aVmultipl
p3062
aVcombin
p3063
aVport
p3064
aVindic
p3065
asI7366556
(lp3066
Vanalyt
p3067
aVsensor
p3068
aVcontinu
p3069
aVmeasur
p3070
aVdata
p3071
aVsuch
p3072
aVglucos
p3073
aVelectrod
p3074
aVbackground
p3075
aVsuspend
p3076
asI6444461
(lp3077
Vmicrofluid
p3078
aVfluid
p3079
aVmicroscal
p3080
aVscreen
p3081
aVperform
p3082
aVbiochem
p3083
aVgenom
p3084
aViter
p3085
aVdevic
p3086
aVsystem
p3087
asI5856174
(lp3088
Vsampl
p3089
aVnucleic
p3090
aVdiagnost
p3091
aVintegr
p3092
aVacquisit
p3093
aVnovo
p3094
aVacid
p3095
aVapplic
p3096
aVanalysi
p3097
aVdevic
p3098
asI5928880
(lp3099
Vmesoscal
p3100
aVsampl
p3101
aVmicrovolum
p3102
aVfraction
p3103
aVanalys
p3104
aVenrich
p3105
aVcell
p3106
aVprepar
p3107
aVpolynucleotid
p3108
aVamplif
p3109
asI5043272
(lp3110
Vnucleic
p3111
aVtemplat
p3112
aVoligonucleotid
p3113
aVacid
p3114
aVprimer
p3115
aVamplif
p3116
aVsaid
p3117
aVrandom
p3118
aVapposit
p3119
aVsequenc
p3120
asI6130098
(lp3121
Vmicrodroplet
p3122
aVmicroscal
p3123
aVmicrochannel
p3124
aVelectrophoresi
p3125
aVchannel
p3126
aVdroplet
p3127
aVpropel
p3128
aVdiscret
p3129
aVsame
p3130
aVetch
p3131
asI5639603
(lp3132
Vsynthes
p3133
aVcompound
p3134
aVstochast
p3135
aVscreen
p3136
aVdivers
p3137
aVtag
p3138
aVmolecular
p3139
aVisol
p3140
aVcollect
p3141
aVlarg
p3142
asI5599668
(lp3143
Vscatter
p3144
aVwaveguid
p3145
aVbind
p3146
aVlight
p3147
aVlabel
p3148
aVhybrid
p3149
aVreal
p3150
aVgrabber
p3151
aVevanesc
p3152
aVselenium
p3153
asI6103479
(lp3154
sI6923764
(lp3155
Vanalysi
p3156
aVneedl
p3157
aVsite
p3158
aVadapt
p3159
aVanalyt
p3160
aVlight
p3161
aVretract
p3162
aVhous
p3163
aVtip
p3164
aVposit
p3165
asI6103199
(lp3166
Vmicrofluid
p3167
aVsampl
p3168
aVarray
p3169
aVelectroflow
p3170
aVplanar
p3171
aVprocess
p3172
aVnetwork
p3173
aVconduct
p3174
aVcaviti
p3175
aVchannel
p3176
asI7041468
(lp3177
Vglucos
p3178
aVtest
p3179
aVstrip
p3180
aVhous
p3181
aVreceptacl
p3182
aVhand
p3183
aVheld
p3184
aVconnector
p3185
aVmodul
p3186
aVamount
p3187
asI5632957
(lp3188
Vmicroloc
p3189
aVdna
p3190
aVreaction
p3191
aVdiagnost
p3192
aVbiolog
p3193
aVinterfac
p3194
aVcleav
p3195
aVmolecular
p3196
aVprefer
p3197
aVhybrid
p3198
asI7144384
(lp3199
Vscrew
p3200
aVlead
p3201
aVreservoir
p3202
aVtube
p3203
aVexit
p3204
aVpatient
p3205
aVoutlet
p3206
aVport
p3207
aVslot
p3208
aVlongitudin
p3209
asI4683202
(lp3210
Vnucleic
p3211
aVprimer
p3212
aVacid
p3213
aVsequenc
p3214
aVcomplementari
p3215
aVdesir
p3216
aVamplifi
p3217
aVstepwis
p3218
aVoligonucleotid
p3219
aVoften
p3220
asI5399491
(lp3221
Vnucleic
p3222
aVautocatalyt
p3223
aVcopi
p3224
aVsequenc
p3225
aVacid
p3226
aVtarget
p3227
aVforens
p3228
aVgenerat
p3229
aVclone
p3230
aVrna
p3231
asI5695940
(lp3232
Vhybrid
p3233
aVnucleic
p3234
aVoligonucleotid
p3235
aVacid
p3236
aVtarget
p3237
aVsequenc
p3238
aVprobe
p3239
aVgenom
p3240
aVmammalian
p3241
aVcondit
p3242
asI6327410
(lp3243
Vmicrospher
p3244
aVbioactiv
p3245
aVanalyt
p3246
aVarray
p3247
aVinterrogat
p3248
aVsubstrat
p3249
aVdiscret
p3250
aVagent
p3251
aVeither
p3252
aVrandom
p3253
asI5723591
(lp3254
Vmolecul
p3255
aVprobe
p3256
aVquencher
p3257
aVreport
p3258
aVunhybrid
p3259
aVfluoresc
p3260
aVquench
p3261
aVhybrid
p3262
aVoligonucleotid
p3263
aVconform
p3264
asI6043080
(lp3265
sI5928905
(lp3266
Vpolynucleotid
p3267
aVconcatem
p3268
aVnucleic
p3269
aVpcr
p3270
aVpolymeras
p3271
aVacid
p3272
aVamplif
p3273
aVfragment
p3274
aVcomplementari
p3275
aVoverlap
p3276
asI5957579
(lp3277
Vmicrofluid
p3278
aVchannel
p3279
aVvari
p3280
aVdepth
p3281
aVdescrib
p3282
aVprevious
p3283
aVincorpor
p3284
aVunexpect
p3285
aVbenefici
p3286
aVbenefit
p3287
asI5869004
(lp3288
Vmicrofluid
p3289
aVdilut
p3290
aVperfom
p3291
aVconcentr
p3292
aVsitu
p3293
aVgeneral
p3294
aVcontext
p3295
aVsystem
p3296
aVjust
p3297
aVapparatus
p3298
asI6132685
(lp3299
Vmicrofluid
p3300
aVmultiwel
p3301
aVconveyor
p3302
aVplate
p3303
aVstation
p3304
aVtest
p3305
aVsampl
p3306
aVsystem
p3307
aVmicrotit
p3308
aVclamshel
p3309
asI6174670
(lp3310
Vcy5
p3311
aVdna
p3312
aVreanneal
p3313
aVhybrid
p3314
aVfluorescein
p3315
aVpcr
p3316
aVpolymeras
p3317
aVmonitor
p3318
aVquantit
p3319
aVpuriti
p3320
asI6207369
(lp3321
Velectrochemiluminesc
p3322
aVmulti
p3323
aVspecif
p3324
aVecl
p3325
aVtest
p3326
aVarray
p3327
aVanalyt
p3328
aVassay
p3329
aVreagent
p3330
aVmultipli
p3331
asI6150097
(lp3332
Vprobe
p3333
aVfret
p3334
aVconform
p3335
aVassay
p3336
aVfluoresc
p3337
aVlabel
p3338
aVnucleic
p3339
aVinteract
p3340
aVchromophor
p3341
aVtarget
p3342
asI6541266
(lp3343
Vanalyt
p3344
aVtest
p3345
aVcalcul
p3346
aVglucos
p3347
aVascertain
p3348
aVpoint
p3349
aVlevel
p3350
aVmeasur
p3351
aVphotomet
p3352
aVsup
p3353
asI5192659
(lp3354
Vallel
p3355
aVdna
p3356
aVsequenc
p3357
aVintron
p3358
aVamplifi
p3359
aVgenet
p3360
aVdetect
p3361
aVgenom
p3362
aVprimer
p3363
aVnucleotid
p3364
asI5955028
(lp3365
Vanalyt
p3366
aVpreparatori
p3367
aVadapt
p3368
aVattach
p3369
aVsubstrat
p3370
aVunit
p3371
aVanalys
p3372
aVregion
p3373
aVbase
p3374
aVbiolog
p3375
asI6485461
(lp3376
Vinfus
p3377
aVbladder
p3378
aVcannula
p3379
aVdeliveri
p3380
aVliquid
p3381
aVneedl
p3382
aVhous
p3383
aVdeliv
p3384
aVinject
p3385
aVdispos
p3386
asI5525464
(lp3387
Vhybrid
p3388
aVnucleic
p3389
aVoligonucleotid
p3390
aVacid
p3391
aVtarget
p3392
aVsequenc
p3393
aVprobe
p3394
aVgenom
p3395
aVmammalian
p3396
aVcondit
p3397
asI5852495
(lp3398
Vspeci
p3399
aVelectrophoret
p3400
aVmicrofluid
p3401
aVfourier
p3402
aVphotodetector
p3403
aVbiochemistri
p3404
aVchannel
p3405
aVbiotechnolog
p3406
aVanalysi
p3407
aVband
p3408
asI6355420
(lp3409
Vpolym
p3410
aVanalyz
p3411
aVproduct
p3412
aVmethod
p3413
aVproperti
p3414
aVvarious
p3415
aVstructur
p3416
aVdetermin
p3417
aVother
p3418
aVprovid
p3419
asI6830558
(lp3420
Vdiaphragm
p3421
aVsensor
p3422
aVflow
p3423
aVelectrod
p3424
aVassembl
p3425
aVpatient
p3426
aVpath
p3427
aVchamber
p3428
aVexit
p3429
aVcondit
p3430
asI6946299
(lp3431
Vmeter
p3432
aVsampl
p3433
aVstrip
p3434
aVglucos
p3435
aVelectrod
p3436
aVblood
p3437
aVtest
p3438
aVcounter
p3439
aVauto
p3440
aVwork
p3441
asI6012902
(lp3442
Velectroosmot
p3443
aVmicropump
p3444
aVchannel
p3445
aVpump
p3446
aVflow
p3447
aVapplic
p3448
aVwhere
p3449
aVprohibit
p3450
aVdesir
p3451
aVfluid
p3452
asI5854033
(lp3453
Vamplif
p3454
aVprobe
p3455
aVreplic
p3456
aVsequenc
p3457
aVcircl
p3458
aVligat
p3459
aVdetect
p3460
aVdna
p3461
aVnucleic
p3462
aVcircular
p3463
asI6126899
(lp3464
Vanalyt
p3465
aVsampl
p3466
aVdetect
p3467
aVchamber
p3468
aVinlet
p3469
aVdevic
p3470
aVdead
p3471
aVquantit
p3472
aVreagent
p3473
aVabsenc
p3474
asI5503980
(lp3475
Vnucleic
p3476
aVsequenc
p3477
aVhybrid
p3478
aVacid
p3479
aVsampl
p3480
aVagricultur
p3481
aVnucleotid
p3482
aVcreation
p3483
aVdiagnost
p3484
aVbiolog
p3485
asI6334960
(lp3486
Vpolymeriz
p3487
aVrelief
p3488
aVpolymer
p3489
aVsolidifi
p3490
aVtransfer
p3491
aVfluid
p3492
aVmold
p3493
aVlayer
p3494
aVcomposit
p3495
aVmateri
p3496
asI5223409
(lp3497
Vbind
p3498
aVdomain
p3499
aVprotein
p3500
aVm13
p3501
aVfamili
p3502
aVgenet
p3503
aVphage
p3504
aVpotenti
p3505
aVpackag
p3506
aVmolecul
p3507
asI6096656
(lp3508
Vmicrochannel
p3509
aVoxynitrid
p3510
aVplasma
p3511
aVsilicon
p3512
aVdeposit
p3513
aVsubstrat
p3514
aVelectrokinet
p3515
aVtemperatur
p3516
aVcyclotron
p3517
aVformat
p3518
asI5858804
(lp3519
Vmoieti
p3520
aVbind
p3521
aVsampl
p3522
aVwell
p3523
aVfirst
p3524
aVchannel
p3525
aVprospect
p3526
aVsecond
p3527
aVcrossov
p3528
aVimmunolog
p3529
asI5981176
(lp3530
Vsequenc
p3531
aVprimer
p3532
aVnucleic
p3533
aVpreselect
p3534
aVacid
p3535
aVlabel
p3536
aVextens
p3537
aVtarget
p3538
aVdeoxynucleosid
p3539
aVportion
p3540
asI6264825
(lp3541
Vetm
p3542
aVanalyt
p3543
aVacceler
p3544
aVbind
p3545
aVdetect
p3546
aVtarget
p3547
aVelectron
p3548
aVproceed
p3549
aVindirect
p3550
aVligand
p3551
asI7467003
(lp3552
Vanalyt
p3553
aVsensor
p3554
aVcontinu
p3555
aVmeasur
p3556
aVdata
p3557
aVsuch
p3558
aVglucos
p3559
aVelectrod
p3560
aVbackground
p3561
aVsuspend
p3562
asI5130238
(lp3563
Vprimer
p3564
aVstrand
p3565
aVnucleic
p3566
aVsequenc
p3567
aVtemplat
p3568
aVamplif
p3569
aVdna
p3570
aVspecif
p3571
aVacid
p3572
aVrna
p3573
asI5699157
(lp3574
Vspeci
p3575
aVelectrophoret
p3576
aVmicrofluid
p3577
aVfourier
p3578
aVphotodetector
p3579
aVbiochemistri
p3580
aVchannel
p3581
aVbiotechnolog
p3582
aVanalysi
p3583
aVband
p3584
astp3585
.