((lp0
I4405829
aI4658093
aI5453601
aI5455407
aI5613004
aI5687236
aI5889868
aI5905800
aI6226618
aI6345256
aI6389538
aI4827508
aI4977594
aI4999806
aI5023907
aI5050213
aI5103476
aI5319705
aI5410598
aI5568552
aI5629980
aI5634012
aI5638443
aI5715403
aI5768382
aI5892900
aI5910987
aI5915019
aI5917912
aI5919247
aI5920861
aI5933498
aI5943422
aI5982891
aI6112181
aI6138119
aI6157721
aI6185683
aI6233684
aI6253193
aI6314409
aI6363488
aI6658568
aI5815657
aI5933816
aI5963923
aI6029150
aI6233566
aI5790677
aI6609113
aI5809139
aI5825892
aI5832119
aI5841978
aI5862260
aI5915027
aI5949876
aI6122403
aI6311214
aI6614914
aI6400996
aI6640145
aI6487538
aI4924378
aI5532920
aI5572643
aI5715314
aI5724424
aI5765152
aI6327652
aI6330670
aI5796952
aI5940504
aI5509070
aI5557518
aI6119101
aI5138712
aI5204897
aI5260999
aI5623601
aI6473794
aI6519571
aI5222134
aI5673316
aI5878141
aI6697944
aI6108703
aI5991750
aI6016476
aI6385596
aI6697824
aI6947571
aI6212512
aI6236365
aI6249252
aI6718535
aI7100195
aI6098053
aI6332163
aI6571282
aI6578068
aI6601234
aI6615253
aI6640244
aI6141653
aI6772132
aI6282522
aI6076734
aI6199048
aI6505160
aI6850252
aI6154771
aI5655081
aI5708709
aI5636292
aI5699528
aI5748783
aI5768426
aI6070150
aI5745681
aI5778367
aI5802518
aI5850433
aI5875296
aI5884262
aI5918014
aI5929849
aI5941947
aI5945988
aI5951694
aI6025837
aI6047327
aI6058379
aI6141010
aI6185598
aI6240555
aI5960411
aI6029141
aI6227447
aI5948061
aI6269361
aI6327574
aI6018619
aI5757917
aI5794207
aI5826241
aI5862223
aI5903721
aI5970475
aI6044362
aI7124101
aI5455953
aI5819092
aI5793763
aI5884033
aI5958016
aI5987611
aI6335927
aI6601233
a(lp1
(lp2
I4405829
aa(lp3
I4658093
aI5453601
aI5455407
aI5613004
aI5687236
aI5889868
aI5905800
aI6226618
aI6345256
aI6389538
aa(lp4
I4827508
aI4977594
aI4999806
aI5023907
aI5050213
aI5103476
aI5319705
aI5410598
aI5568552
aI5629980
aI5634012
aI5638443
aI5715403
aI5768382
aI5892900
aI5910987
aI5915019
aI5917912
aI5919247
aI5920861
aI5933498
aI5943422
aI5982891
aI6112181
aI6138119
aI6157721
aI6185683
aI6233684
aI6253193
aI6314409
aI6363488
aI6658568
aI5815657
aI5933816
aI5963923
aI6029150
aI6233566
aI5790677
aI6609113
aI5809139
aI5825892
aI5832119
aI5841978
aI5862260
aI5915027
aI5949876
aI6122403
aI6311214
aI6614914
aI6400996
aI6640145
aI6487538
aa(lp5
I4924378
aI5532920
aI5572643
aI5715314
aI5724424
aI5765152
aI6327652
aI6330670
aI5796952
aI5940504
aI5509070
aI5557518
aI6119101
aI5138712
aI5204897
aI5260999
aI5623601
aI6473794
aI6519571
aI5222134
aI5673316
aI5878141
aI6697944
aI6108703
aI5991750
aI6016476
aI6385596
aI6697824
aI6947571
aI6212512
aI6236365
aI6249252
aI6718535
aI7100195
aI6098053
aI6332163
aI6571282
aI6578068
aI6601234
aI6615253
aI6640244
aI6141653
aI6772132
aI6282522
aI6076734
aI6199048
aI6505160
aI6850252
aI6154771
aa(lp6
I5655081
aI5708709
aI5636292
aI5699528
aI5748783
aI5768426
aI6070150
aI5745681
aI5778367
aI5802518
aI5850433
aI5875296
aI5884262
aI5918014
aI5929849
aI5941947
aI5945988
aI5951694
aI6025837
aI6047327
aI6058379
aI6141010
aI6185598
aI6240555
aI5960411
aI6029141
aI6227447
aI5948061
aI6269361
aI6327574
aI6018619
aI5757917
aI5794207
aI5826241
aI5862223
aI5903721
aI5970475
aI6044362
aI7124101
aI5455953
aI5819092
aI5793763
aI5884033
aI5958016
aI5987611
aI6335927
aI6601233
aa(lp7
(I4405829
I4658093
tp8
a(I4405829
I5453601
tp9
a(I4405829
I5455407
tp10
a(I4405829
I5613004
tp11
a(I4405829
I5687236
tp12
a(I4405829
I5889868
tp13
a(I4405829
I5905800
tp14
a(I4405829
I6226618
tp15
a(I4405829
I6345256
tp16
a(I4405829
I6389538
tp17
a(I4658093
I4827508
tp18
a(I4658093
I4977594
tp19
a(I4658093
I4999806
tp20
a(I4658093
I5023907
tp21
a(I4658093
I5050213
tp22
a(I4658093
I5103476
tp23
a(I4658093
I5319705
tp24
a(I4658093
I5410598
tp25
a(I4658093
I5568552
tp26
a(I4658093
I5629980
tp27
a(I4658093
I5634012
tp28
a(I4658093
I5638443
tp29
a(I4658093
I5715403
tp30
a(I4658093
I5768382
tp31
a(I4658093
I5892900
tp32
a(I4658093
I5910987
tp33
a(I4658093
I5915019
tp34
a(I4658093
I5917912
tp35
a(I4658093
I5919247
tp36
a(I4658093
I5920861
tp37
a(I4658093
I5933498
tp38
a(I4658093
I5943422
tp39
a(I4658093
I5982891
tp40
a(I4658093
I6112181
tp41
a(I4658093
I6138119
tp42
a(I4658093
I6157721
tp43
a(I4658093
I6185683
tp44
a(I4658093
I6233684
tp45
a(I4658093
I6253193
tp46
a(I4658093
I6314409
tp47
a(I4658093
I6363488
tp48
a(I4658093
I6658568
tp49
a(I5453601
I5815657
tp50
a(I5453601
I5892900
tp51
a(I5453601
I5910987
tp52
a(I5453601
I5915019
tp53
a(I5453601
I5917912
tp54
a(I5453601
I5920861
tp55
a(I5453601
I5933816
tp56
a(I5453601
I5943422
tp57
a(I5453601
I5963923
tp58
a(I5453601
I5982891
tp59
a(I5453601
I6029150
tp60
a(I5453601
I6112181
tp61
a(I5453601
I6138119
tp62
a(I5453601
I6157721
tp63
a(I5453601
I6185683
tp64
a(I5453601
I6233566
tp65
a(I5453601
I6253193
tp66
a(I5453601
I6363488
tp67
a(I5453601
I6658568
tp68
a(I5455407
I5790677
tp69
a(I5455407
I5815657
tp70
a(I5455407
I5892900
tp71
a(I5455407
I5910987
tp72
a(I5455407
I5915019
tp73
a(I5455407
I5917912
tp74
a(I5455407
I5920861
tp75
a(I5455407
I5943422
tp76
a(I5455407
I5963923
tp77
a(I5455407
I5982891
tp78
a(I5455407
I6029150
tp79
a(I5455407
I6112181
tp80
a(I5455407
I6138119
tp81
a(I5455407
I6157721
tp82
a(I5455407
I6185683
tp83
a(I5455407
I6253193
tp84
a(I5455407
I6363488
tp85
a(I5455407
I6609113
tp86
a(I5455407
I6658568
tp87
a(I5613004
I5687236
tp88
a(I5613004
I5809139
tp89
a(I5613004
I5825892
tp90
a(I5613004
I5832119
tp91
a(I5613004
I5841978
tp92
a(I5613004
I5862260
tp93
a(I5613004
I5892900
tp94
a(I5613004
I5905800
tp95
a(I5613004
I5910987
tp96
a(I5613004
I5915019
tp97
a(I5613004
I5915027
tp98
a(I5613004
I5917912
tp99
a(I5613004
I5920861
tp100
a(I5613004
I5943422
tp101
a(I5613004
I5949876
tp102
a(I5613004
I5982891
tp103
a(I5613004
I6112181
tp104
a(I5613004
I6122403
tp105
a(I5613004
I6138119
tp106
a(I5613004
I6157721
tp107
a(I5613004
I6185683
tp108
a(I5613004
I6253193
tp109
a(I5613004
I6311214
tp110
a(I5613004
I6363488
tp111
a(I5613004
I6614914
tp112
a(I5613004
I6658568
tp113
a(I5687236
I5809139
tp114
a(I5687236
I5892900
tp115
a(I5687236
I5905800
tp116
a(I5687236
I5910987
tp117
a(I5687236
I5915019
tp118
a(I5687236
I5915027
tp119
a(I5687236
I5917912
tp120
a(I5687236
I5920861
tp121
a(I5687236
I5943422
tp122
a(I5687236
I5949876
tp123
a(I5687236
I5982891
tp124
a(I5687236
I6112181
tp125
a(I5687236
I6138119
tp126
a(I5687236
I6157721
tp127
a(I5687236
I6185683
tp128
a(I5687236
I6253193
tp129
a(I5687236
I6363488
tp130
a(I5687236
I6658568
tp131
a(I5889868
I6122403
tp132
a(I5889868
I6400996
tp133
a(I5889868
I6614914
tp134
a(I5889868
I6640145
tp135
a(I5905800
I6400996
tp136
a(I5905800
I6487538
tp137
a(I5905800
I6640145
tp138
a(I4827508
I4924378
tp139
a(I4827508
I4977594
tp140
a(I4827508
I5050213
tp141
a(I4827508
I5410598
tp142
a(I4827508
I5532920
tp143
a(I4827508
I5572643
tp144
a(I4827508
I5715314
tp145
a(I4827508
I5724424
tp146
a(I4827508
I5765152
tp147
a(I4827508
I5892900
tp148
a(I4827508
I5910987
tp149
a(I4827508
I5915019
tp150
a(I4827508
I5917912
tp151
a(I4827508
I5920861
tp152
a(I4827508
I5933498
tp153
a(I4827508
I5943422
tp154
a(I4827508
I5982891
tp155
a(I4827508
I6112181
tp156
a(I4827508
I6122403
tp157
a(I4827508
I6138119
tp158
a(I4827508
I6157721
tp159
a(I4827508
I6185683
tp160
a(I4827508
I6253193
tp161
a(I4827508
I6314409
tp162
a(I4827508
I6327652
tp163
a(I4827508
I6330670
tp164
a(I4827508
I6363488
tp165
a(I4827508
I6658568
tp166
a(I4977594
I5410598
tp167
a(I4977594
I5629980
tp168
a(I4977594
I5634012
tp169
a(I4977594
I5638443
tp170
a(I4977594
I5715403
tp171
a(I4977594
I5765152
tp172
a(I4977594
I5796952
tp173
a(I4977594
I5862260
tp174
a(I4977594
I5892900
tp175
a(I4977594
I5910987
tp176
a(I4977594
I5915019
tp177
a(I4977594
I5917912
tp178
a(I4977594
I5920861
tp179
a(I4977594
I5933498
tp180
a(I4977594
I5940504
tp181
a(I4977594
I5943422
tp182
a(I4977594
I5982891
tp183
a(I4977594
I6112181
tp184
a(I4977594
I6122403
tp185
a(I4977594
I6138119
tp186
a(I4977594
I6157721
tp187
a(I4977594
I6185683
tp188
a(I4977594
I6233684
tp189
a(I4977594
I6253193
tp190
a(I4977594
I6314409
tp191
a(I4977594
I6327652
tp192
a(I4977594
I6330670
tp193
a(I4977594
I6363488
tp194
a(I4977594
I6614914
tp195
a(I4977594
I6658568
tp196
a(I4999806
I5103476
tp197
a(I4999806
I5319705
tp198
a(I4999806
I5509070
tp199
a(I4999806
I5557518
tp200
a(I4999806
I5765152
tp201
a(I4999806
I5892900
tp202
a(I4999806
I5910987
tp203
a(I4999806
I5915019
tp204
a(I4999806
I5917912
tp205
a(I4999806
I5920861
tp206
a(I4999806
I5943422
tp207
a(I4999806
I5949876
tp208
a(I4999806
I5982891
tp209
a(I4999806
I6112181
tp210
a(I4999806
I6119101
tp211
a(I4999806
I6138119
tp212
a(I4999806
I6157721
tp213
a(I4999806
I6185683
tp214
a(I4999806
I6253193
tp215
a(I4999806
I6363488
tp216
a(I4999806
I6658568
tp217
a(I5023907
I5138712
tp218
a(I5023907
I5204897
tp219
a(I5023907
I5260999
tp220
a(I5023907
I5509070
tp221
a(I5023907
I5623601
tp222
a(I5023907
I5629980
tp223
a(I5023907
I5634012
tp224
a(I5023907
I5638443
tp225
a(I5023907
I5715403
tp226
a(I5023907
I5765152
tp227
a(I5023907
I5892900
tp228
a(I5023907
I5910987
tp229
a(I5023907
I5915019
tp230
a(I5023907
I5917912
tp231
a(I5023907
I5920861
tp232
a(I5023907
I5933498
tp233
a(I5023907
I5940504
tp234
a(I5023907
I5943422
tp235
a(I5023907
I5982891
tp236
a(I5023907
I6112181
tp237
a(I5023907
I6138119
tp238
a(I5023907
I6157721
tp239
a(I5023907
I6185683
tp240
a(I5023907
I6233684
tp241
a(I5023907
I6253193
tp242
a(I5023907
I6314409
tp243
a(I5023907
I6363488
tp244
a(I5023907
I6473794
tp245
a(I5023907
I6519571
tp246
a(I5023907
I6658568
tp247
a(I5050213
I5629980
tp248
a(I5050213
I5634012
tp249
a(I5050213
I5638443
tp250
a(I5050213
I5715403
tp251
a(I5050213
I5765152
tp252
a(I5050213
I5892900
tp253
a(I5050213
I5910987
tp254
a(I5050213
I5915019
tp255
a(I5050213
I5917912
tp256
a(I5050213
I5920861
tp257
a(I5050213
I5933498
tp258
a(I5050213
I5943422
tp259
a(I5050213
I5982891
tp260
a(I5050213
I6112181
tp261
a(I5050213
I6122403
tp262
a(I5050213
I6138119
tp263
a(I5050213
I6157721
tp264
a(I5050213
I6185683
tp265
a(I5050213
I6233684
tp266
a(I5050213
I6253193
tp267
a(I5050213
I6314409
tp268
a(I5050213
I6327652
tp269
a(I5050213
I6330670
tp270
a(I5050213
I6363488
tp271
a(I5050213
I6658568
tp272
a(I5103476
I5222134
tp273
a(I5103476
I5509070
tp274
a(I5103476
I5629980
tp275
a(I5103476
I5634012
tp276
a(I5103476
I5638443
tp277
a(I5103476
I5715403
tp278
a(I5103476
I5892900
tp279
a(I5103476
I5910987
tp280
a(I5103476
I5915019
tp281
a(I5103476
I5917912
tp282
a(I5103476
I5920861
tp283
a(I5103476
I5933498
tp284
a(I5103476
I5949876
tp285
a(I5103476
I5982891
tp286
a(I5103476
I6112181
tp287
a(I5103476
I6138119
tp288
a(I5103476
I6157721
tp289
a(I5103476
I6185683
tp290
a(I5103476
I6233684
tp291
a(I5103476
I6253193
tp292
a(I5103476
I6314409
tp293
a(I5103476
I6363488
tp294
a(I5103476
I6658568
tp295
a(I5319705
I5509070
tp296
a(I5319705
I5557518
tp297
a(I5319705
I5673316
tp298
a(I5319705
I5878141
tp299
a(I5319705
I5892900
tp300
a(I5319705
I5910987
tp301
a(I5319705
I5915019
tp302
a(I5319705
I5917912
tp303
a(I5319705
I5920861
tp304
a(I5319705
I5933498
tp305
a(I5319705
I5949876
tp306
a(I5319705
I5982891
tp307
a(I5319705
I6112181
tp308
a(I5319705
I6138119
tp309
a(I5319705
I6157721
tp310
a(I5319705
I6185683
tp311
a(I5319705
I6226618
tp312
a(I5319705
I6253193
tp313
a(I5319705
I6314409
tp314
a(I5319705
I6345256
tp315
a(I5319705
I6363488
tp316
a(I5319705
I6389538
tp317
a(I5319705
I6658568
tp318
a(I5410598
I5765152
tp319
a(I5410598
I5892900
tp320
a(I5410598
I5910987
tp321
a(I5410598
I5915019
tp322
a(I5410598
I5917912
tp323
a(I5410598
I5920861
tp324
a(I5410598
I5933498
tp325
a(I5410598
I5943422
tp326
a(I5410598
I5982891
tp327
a(I5410598
I6112181
tp328
a(I5410598
I6122403
tp329
a(I5410598
I6138119
tp330
a(I5410598
I6157721
tp331
a(I5410598
I6185683
tp332
a(I5410598
I6253193
tp333
a(I5410598
I6314409
tp334
a(I5410598
I6327652
tp335
a(I5410598
I6330670
tp336
a(I5410598
I6363488
tp337
a(I5410598
I6614914
tp338
a(I5410598
I6658568
tp339
a(I5568552
I5892900
tp340
a(I5568552
I5910987
tp341
a(I5568552
I5915019
tp342
a(I5568552
I5917912
tp343
a(I5568552
I5920861
tp344
a(I5568552
I5943422
tp345
a(I5568552
I5949876
tp346
a(I5568552
I5982891
tp347
a(I5568552
I6112181
tp348
a(I5568552
I6138119
tp349
a(I5568552
I6157721
tp350
a(I5568552
I6185683
tp351
a(I5568552
I6253193
tp352
a(I5568552
I6363488
tp353
a(I5568552
I6658568
tp354
a(I5629980
I5832119
tp355
a(I5629980
I5862260
tp356
a(I5629980
I5892900
tp357
a(I5629980
I5910987
tp358
a(I5629980
I5915019
tp359
a(I5629980
I5917912
tp360
a(I5629980
I5920861
tp361
a(I5629980
I5933498
tp362
a(I5629980
I5943422
tp363
a(I5629980
I5949876
tp364
a(I5629980
I5982891
tp365
a(I5629980
I6112181
tp366
a(I5629980
I6122403
tp367
a(I5629980
I6138119
tp368
a(I5629980
I6157721
tp369
a(I5629980
I6185683
tp370
a(I5629980
I6233684
tp371
a(I5629980
I6253193
tp372
a(I5629980
I6314409
tp373
a(I5629980
I6363488
tp374
a(I5629980
I6614914
tp375
a(I5629980
I6658568
tp376
a(I5629980
I6697944
tp377
a(I5634012
I5832119
tp378
a(I5634012
I5892900
tp379
a(I5634012
I5910987
tp380
a(I5634012
I5915019
tp381
a(I5634012
I5917912
tp382
a(I5634012
I5920861
tp383
a(I5634012
I5943422
tp384
a(I5634012
I5949876
tp385
a(I5634012
I5982891
tp386
a(I5634012
I6112181
tp387
a(I5634012
I6138119
tp388
a(I5634012
I6157721
tp389
a(I5634012
I6185683
tp390
a(I5634012
I6253193
tp391
a(I5634012
I6363488
tp392
a(I5634012
I6658568
tp393
a(I5634012
I6697944
tp394
a(I5638443
I5796952
tp395
a(I5638443
I5832119
tp396
a(I5638443
I5862260
tp397
a(I5638443
I5892900
tp398
a(I5638443
I5910987
tp399
a(I5638443
I5915019
tp400
a(I5638443
I5917912
tp401
a(I5638443
I5920861
tp402
a(I5638443
I5933498
tp403
a(I5638443
I5943422
tp404
a(I5638443
I5949876
tp405
a(I5638443
I5982891
tp406
a(I5638443
I6108703
tp407
a(I5638443
I6112181
tp408
a(I5638443
I6122403
tp409
a(I5638443
I6138119
tp410
a(I5638443
I6157721
tp411
a(I5638443
I6185683
tp412
a(I5638443
I6253193
tp413
a(I5638443
I6314409
tp414
a(I5638443
I6363488
tp415
a(I5638443
I6614914
tp416
a(I5638443
I6658568
tp417
a(I5638443
I6697944
tp418
a(I5715403
I5991750
tp419
a(I5715403
I6112181
tp420
a(I5715403
I6157721
tp421
a(I5715403
I6658568
tp422
a(I5715403
I6697944
tp423
a(I5892900
I6016476
tp424
a(I5892900
I6122403
tp425
a(I5892900
I6226618
tp426
a(I5892900
I6311214
tp427
a(I5892900
I6314409
tp428
a(I5892900
I6327652
tp429
a(I5892900
I6330670
tp430
a(I5892900
I6345256
tp431
a(I5892900
I6385596
tp432
a(I5892900
I6389538
tp433
a(I5892900
I6658568
tp434
a(I5892900
I6697824
tp435
a(I5892900
I6947571
tp436
a(I5910987
I6314409
tp437
a(I5910987
I6327652
tp438
a(I5910987
I6330670
tp439
a(I5910987
I6385596
tp440
a(I5910987
I6400996
tp441
a(I5910987
I6640145
tp442
a(I5910987
I6658568
tp443
a(I5915019
I6212512
tp444
a(I5915019
I6327652
tp445
a(I5915019
I6330670
tp446
a(I5915019
I6385596
tp447
a(I5917912
I6327652
tp448
a(I5917912
I6330670
tp449
a(I5917912
I6385596
tp450
a(I5917912
I6400996
tp451
a(I5917912
I6640145
tp452
a(I5919247
I6108703
tp453
a(I5920861
I6138119
tp454
a(I5920861
I6327652
tp455
a(I5920861
I6330670
tp456
a(I5920861
I6385596
tp457
a(I5920861
I6400996
tp458
a(I5920861
I6640145
tp459
a(I5920861
I6658568
tp460
a(I5933498
I6327652
tp461
a(I5933498
I6330670
tp462
a(I5943422
I6138119
tp463
a(I5943422
I6233684
tp464
a(I5943422
I6327652
tp465
a(I5943422
I6330670
tp466
a(I5943422
I6385596
tp467
a(I5943422
I6658568
tp468
a(I5982891
I6236365
tp469
a(I5982891
I6249252
tp470
a(I5982891
I6327652
tp471
a(I5982891
I6330670
tp472
a(I5982891
I6385596
tp473
a(I5982891
I6400996
tp474
a(I5982891
I6658568
tp475
a(I6112181
I6327652
tp476
a(I6112181
I6330670
tp477
a(I6112181
I6385596
tp478
a(I6112181
I6658568
tp479
a(I6138119
I6327652
tp480
a(I6138119
I6330670
tp481
a(I6138119
I6385596
tp482
a(I6138119
I6658568
tp483
a(I6157721
I6327652
tp484
a(I6157721
I6330670
tp485
a(I6157721
I6385596
tp486
a(I6157721
I6658568
tp487
a(I6185683
I6327652
tp488
a(I6185683
I6330670
tp489
a(I6185683
I6385596
tp490
a(I6185683
I6658568
tp491
a(I6253193
I6385596
tp492
a(I5815657
I6609113
tp493
a(I5815657
I6718535
tp494
a(I5815657
I7100195
tp495
a(I5933816
I6098053
tp496
a(I5933816
I6332163
tp497
a(I5933816
I6571282
tp498
a(I5933816
I6578068
tp499
a(I5933816
I6601234
tp500
a(I5933816
I6615253
tp501
a(I5933816
I6640244
tp502
a(I5963923
I6141653
tp503
a(I5963923
I6772132
tp504
a(I5790677
I5991750
tp505
a(I5790677
I6141653
tp506
a(I5790677
I6282522
tp507
a(I5790677
I6385596
tp508
a(I5809139
I6122403
tp509
a(I5825892
I6233684
tp510
a(I5841978
I6076734
tp511
a(I5841978
I6199048
tp512
a(I5841978
I6505160
tp513
a(I5841978
I6850252
tp514
a(I5862260
I6154771
tp515
a(I5862260
I6400996
tp516
a(I5862260
I6614914
tp517
a(I5862260
I6640145
tp518
a(I5915027
I6311214
tp519
a(I5915027
I6947571
tp520
a(I5949876
I6327652
tp521
a(I5949876
I6330670
tp522
a(I5949876
I6385596
tp523
a(I5949876
I6658568
tp524
a(I6122403
I6400996
tp525
a(I6122403
I6640145
tp526
a(I4924378
I5103476
tp527
a(I4924378
I5138712
tp528
a(I4924378
I5204897
tp529
a(I4924378
I5222134
tp530
a(I4924378
I5260999
tp531
a(I4924378
I5629980
tp532
a(I4924378
I5634012
tp533
a(I4924378
I5638443
tp534
a(I4924378
I5655081
tp535
a(I4924378
I5708709
tp536
a(I4924378
I5715403
tp537
a(I4924378
I5892900
tp538
a(I4924378
I5910987
tp539
a(I4924378
I5915019
tp540
a(I4924378
I5917912
tp541
a(I4924378
I5920861
tp542
a(I4924378
I5933498
tp543
a(I4924378
I5943422
tp544
a(I4924378
I5982891
tp545
a(I4924378
I6112181
tp546
a(I4924378
I6138119
tp547
a(I4924378
I6157721
tp548
a(I4924378
I6185683
tp549
a(I4924378
I6233684
tp550
a(I4924378
I6253193
tp551
a(I4924378
I6314409
tp552
a(I4924378
I6363488
tp553
a(I4924378
I6658568
tp554
a(I5532920
I5634012
tp555
a(I5532920
I5636292
tp556
a(I5532920
I5699528
tp557
a(I5532920
I5748783
tp558
a(I5532920
I5768426
tp559
a(I5532920
I5832119
tp560
a(I5532920
I5862260
tp561
a(I5532920
I6070150
tp562
a(I5532920
I6122403
tp563
a(I5532920
I6614914
tp564
a(I5572643
I5745681
tp565
a(I5572643
I5778367
tp566
a(I5572643
I5802518
tp567
a(I5572643
I5850433
tp568
a(I5572643
I5875296
tp569
a(I5572643
I5884262
tp570
a(I5572643
I5918014
tp571
a(I5572643
I5929849
tp572
a(I5572643
I5941947
tp573
a(I5572643
I5945988
tp574
a(I5572643
I5951694
tp575
a(I5572643
I6025837
tp576
a(I5572643
I6047327
tp577
a(I5572643
I6058379
tp578
a(I5572643
I6076734
tp579
a(I5572643
I6141010
tp580
a(I5572643
I6185598
tp581
a(I5572643
I6240555
tp582
a(I5715314
I5960411
tp583
a(I5715314
I6029141
tp584
a(I5715314
I6141653
tp585
a(I5715314
I6227447
tp586
a(I5715314
I6385596
tp587
a(I5724424
I5918014
tp588
a(I5724424
I5948061
tp589
a(I5724424
I6029141
tp590
a(I5724424
I6227447
tp591
a(I5724424
I6240555
tp592
a(I5724424
I6269361
tp593
a(I5724424
I6327574
tp594
a(I5724424
I6385596
tp595
a(I5724424
I6400996
tp596
a(I5724424
I6640145
tp597
a(I5765152
I5892900
tp598
a(I5765152
I5910987
tp599
a(I5765152
I5915019
tp600
a(I5765152
I5917912
tp601
a(I5765152
I5920861
tp602
a(I5765152
I5943422
tp603
a(I5765152
I5949876
tp604
a(I5765152
I5982891
tp605
a(I5765152
I6122403
tp606
a(I5765152
I6138119
tp607
a(I5765152
I6157721
tp608
a(I5765152
I6185683
tp609
a(I5765152
I6226618
tp610
a(I5765152
I6253193
tp611
a(I5765152
I6363488
tp612
a(I5765152
I6658568
tp613
a(I6327652
I6697944
tp614
a(I5796952
I5875296
tp615
a(I5796952
I6018619
tp616
a(I5796952
I6185598
tp617
a(I5940504
I6327652
tp618
a(I5940504
I6330670
tp619
a(I5940504
I6658568
tp620
a(I5509070
I5673316
tp621
a(I5509070
I5892900
tp622
a(I5509070
I5910987
tp623
a(I5509070
I5915019
tp624
a(I5509070
I5917912
tp625
a(I5509070
I5920861
tp626
a(I5509070
I5943422
tp627
a(I5509070
I5949876
tp628
a(I5509070
I5982891
tp629
a(I5509070
I6112181
tp630
a(I5509070
I6138119
tp631
a(I5509070
I6157721
tp632
a(I5509070
I6185683
tp633
a(I5509070
I6253193
tp634
a(I5509070
I6363488
tp635
a(I5509070
I6658568
tp636
a(I5557518
I5699528
tp637
a(I5557518
I5724424
tp638
a(I5557518
I5757917
tp639
a(I5557518
I5790677
tp640
a(I5557518
I5794207
tp641
a(I5557518
I5826241
tp642
a(I5557518
I5862223
tp643
a(I5557518
I5892900
tp644
a(I5557518
I5903721
tp645
a(I5557518
I5910987
tp646
a(I5557518
I5915019
tp647
a(I5557518
I5917912
tp648
a(I5557518
I5920861
tp649
a(I5557518
I5943422
tp650
a(I5557518
I5970475
tp651
a(I5557518
I5982891
tp652
a(I5557518
I6029150
tp653
a(I5557518
I6044362
tp654
a(I5557518
I6058379
tp655
a(I5557518
I6070150
tp656
a(I5557518
I6112181
tp657
a(I5557518
I6119101
tp658
a(I5557518
I6138119
tp659
a(I5557518
I6141653
tp660
a(I5557518
I6157721
tp661
a(I5557518
I6185683
tp662
a(I5557518
I6253193
tp663
a(I5557518
I6363488
tp664
a(I5557518
I6658568
tp665
a(I6119101
I7124101
tp666
a(I5138712
I5204897
tp667
a(I5138712
I5455953
tp668
a(I5138712
I5715403
tp669
a(I5138712
I5765152
tp670
a(I5204897
I5455953
tp671
a(I5204897
I5532920
tp672
a(I5204897
I5629980
tp673
a(I5204897
I5634012
tp674
a(I5204897
I5638443
tp675
a(I5204897
I5715403
tp676
a(I5204897
I5819092
tp677
a(I5204897
I5933498
tp678
a(I5204897
I5940504
tp679
a(I5204897
I5960411
tp680
a(I5204897
I6233684
tp681
a(I5204897
I6314409
tp682
a(I5260999
I5455953
tp683
a(I5260999
I5629980
tp684
a(I5260999
I5715403
tp685
a(I5260999
I5892900
tp686
a(I5260999
I5910987
tp687
a(I5260999
I5915019
tp688
a(I5260999
I5917912
tp689
a(I5260999
I5920861
tp690
a(I5260999
I5933498
tp691
a(I5260999
I5943422
tp692
a(I5260999
I5949876
tp693
a(I5260999
I5960411
tp694
a(I5260999
I5982891
tp695
a(I5260999
I6112181
tp696
a(I5260999
I6138119
tp697
a(I5260999
I6157721
tp698
a(I5260999
I6185683
tp699
a(I5260999
I6233684
tp700
a(I5260999
I6253193
tp701
a(I5260999
I6314409
tp702
a(I5260999
I6363488
tp703
a(I5260999
I6658568
tp704
a(I5623601
I5778367
tp705
a(I5623601
I5793763
tp706
a(I5623601
I5884033
tp707
a(I5623601
I5958016
tp708
a(I5623601
I5987611
tp709
a(I5623601
I6335927
tp710
a(I5623601
I6601233
tp711
a(I5623601
I6718535
tp712
a(I5623601
I7100195
tp713
a(I6473794
I6601233
tp714
a(I6473794
I6718535
tp715
a(I6473794
I7100195
tp716
a(I5222134
I5892900
tp717
a(I5222134
I5910987
tp718
a(I5222134
I5915019
tp719
a(I5222134
I5917912
tp720
a(I5222134
I5920861
tp721
a(I5222134
I5933498
tp722
a(I5222134
I5943422
tp723
a(I5222134
I5949876
tp724
a(I5222134
I5982891
tp725
a(I5222134
I6112181
tp726
a(I5222134
I6138119
tp727
a(I5222134
I6157721
tp728
a(I5222134
I6185683
tp729
a(I5222134
I6253193
tp730
a(I5222134
I6314409
tp731
a(I5222134
I6363488
tp732
a(I5222134
I6658568
tp733
a(I5673316
I5933498
tp734
a(I5673316
I6226618
tp735
a(I5673316
I6311214
tp736
a(I5673316
I6314409
tp737
a(I5673316
I6345256
tp738
a(I5673316
I6385596
tp739
a(I5673316
I6389538
tp740
a(I5673316
I6947571
tp741
a(I6108703
I6571282
tp742
a(I6108703
I6578068
tp743
a(I6108703
I6601234
tp744
a(I6108703
I6615253
tp745
a(I6108703
I6640244
tp746
a(dp747
I6658568
(lp748
Vtransact
p749
aVrule
p750
aVclearinghous
p751
aVelectron
p752
aVintranet
p753
aVcommerc
p754
aVtrust
p755
aVinfrastructur
p756
aVspecif
p757
aVsecur
p758
asI6240555
(lp759
Vsupplement
p760
aVviewer
p761
aVcontent
p762
aVprogram
p763
aVinteract
p764
aVbroadcast
p765
aVresourc
p766
aVtarget
p767
aVepg
p768
aVlayout
p769
asI5919247
(lp770
Vupdat
p771
aVdownload
p772
aVclient
p773
aVchannel
p774
aVsoftwar
p775
aVtuner
p776
aVcall
p777
aVnetwork
p778
aVsubscrib
p779
aVbroadcast
p780
asI6640145
(lp781
Vinterfac
p782
aVaudio
p783
aVvideo
p784
aVdata
p785
aVpacket
p786
aVintellig
p787
aVmedia
p788
aVcommunic
p789
aVcryptoprocess
p790
aVdigit
p791
asI6601234
(lp792
Vattribut
p793
aVdictionari
p794
aVfacad
p795
aVhelper
p796
aVbusi
p797
aVvalu
p798
aVname
p799
aVupdat
p800
aVget
p801
aVobject
p802
asI6154771
(lp803
Vhypervideo
p804
aVthumbnail
p805
aVhyperlink
p806
aVscene
p807
aVsuv
p808
aVisp
p809
aVnetwork
p810
aVdecompress
p811
aVvideo
p812
aVstream
p813
asI5802518
(lp814
Vresearch
p815
aVdocument
p816
aVserver
p817
aVweb
p818
aVrepositori
p819
aVqueri
p820
aVinvestor
p821
aVauthor
p822
aVdatabas
p823
aVsearch
p824
asI5987611
(lp825
Vinternet
p826
aVaccess
p827
aVclient
p828
aVapplic
p829
aVlist
p830
aVuser
p831
aVsupervisor
p832
aVversion
p833
aVwan
p834
aVcannot
p835
asI5319705
(lp836
Vfile
p837
aVencrypt
p838
aVprocessor
p839
aVkey
p840
aVsoftwar
p841
aVrom
p842
aVcustom
p843
aVuser
p844
aVdistribut
p845
aVrequest
p846
asI5629980
(lp847
Vwork
p848
aVdigit
p849
aVrepositori
p850
aVright
p851
aVusag
p852
aVplayback
p853
aVbuyer
p854
aVowner
p855
aVdistribut
p856
aVaccess
p857
asI6108703
(lp858
sI5765152
(lp859
Vmedia
p860
aVlicens
p861
aVcopyright
p862
aVserver
p863
aVpackag
p864
aVauthor
p865
aVelectron
p866
aVpermiss
p867
aVunpackag
p868
aVtypic
p869
asI5572643
(lp870
Vbrowser
p871
aVhypertext
p872
aVweb
p873
aVlink
p874
aVuser
p875
aVgraphic
p876
aVclient
p877
aVdocument
p878
aVmessag
p879
aVdownload
p880
asI6345256
(lp881
Vcontent
p882
aVretriev
p883
aVreadabl
p884
aVelectron
p885
aVdatabas
p886
aVdata
p887
aVassoci
p888
aVmedium
p889
aVidentifi
p890
aVstore
p891
asI6327652
(lp892
Vtrust
p893
aVident
p894
aVload
p895
aVcompon
p896
aVuntrust
p897
aVdigit
p898
aVright
p899
aVsignatur
p900
aVoper
p901
aVmanag
p902
asI5970475
(lp903
Vsupplier
p904
aVpurchas
p905
aVserver
p906
aVach
p907
aVsoftwar
p908
aVcorpor
p909
aVtransact
p910
aVbuyer
p911
aVservic
p912
aVonlin
p913
asI5455407
(lp914
Vmoney
p915
aVbank
p916
aVmonetari
p917
aVelectron
p918
aVissu
p919
aVtransact
p920
aVsubscrib
p921
aVcorrespond
p922
aVreconcili
p923
aVsystem
p924
asI6199048
(lp925
Vupc
p926
aVcode
p927
aVprodoct
p928
aVurl
p929
aVaccess
p930
aVinternet
p931
aVsymbol
p932
aVnetwork
p933
aVresourc
p934
aVdatabas
p935
asI5841978
(lp936
Vobject
p937
aVlink
p938
aVnetwork
p939
aVembed
p940
aVsteganograph
p941
aVhot
p942
aVweb
p943
aVurl
p944
aVworld
p945
aVbrowser
p946
asI6018619
(lp947
Vusag
p948
aVserver
p949
aVclient
p950
aVlog
p951
aVcomput
p952
aVproxi
p953
aVuser
p954
aVtrack
p955
aVweb
p956
aVsignifi
p957
asI6697824
(lp958
Vuser
p959
aVcontent
p960
aVattribut
p961
aVprofil
p962
aVdeliv
p963
aVmatch
p964
aVcollect
p965
aVmanag
p966
aVcommerc
p967
aVwebsit
p968
asI6473794
(lp969
Vframework
p970
aVexist
p971
aVcompon
p972
aVnetwork
p973
aVtest
p974
aVplan
p975
aVindicia
p976
aVorder
p977
aVconvey
p978
aVpictori
p979
asI4405829
(lp980
Vciphertext
p981
aVintend
p982
aVresidu
p983
aVmessag
p984
aVencod
p985
aVexponenti
p986
aVnumber
p987
aVcryptograph
p988
aVpredetermin
p989
aVprime
p990
asI6718535
(lp991
Vactiv
p992
aVsub
p993
aVexecut
p994
aVframework
p995
aVgoal
p996
aVdepict
p997
aVselect
p998
aVupon
p999
aVuser
p1000
aVindicia
p1001
asI6335927
(lp1002
Vhybrid
p1003
aVmedia
p1004
aVnetwork
p1005
aVservic
p1006
aVrequest
p1007
aVinform
p1008
aVrout
p1009
aVuser
p1010
aVprofil
p1011
aVqualiti
p1012
asI5455953
(lp1013
Vauthor
p1014
aVticket
p1015
aVserver
p1016
aVclient
p1017
aVinform
p1018
aVtag
p1019
aVrequest
p1020
aVidentifi
p1021
aVname
p1022
aVpassword
p1023
asI6141010
(lp1024
Vadvertis
p1025
aVbanner
p1026
aVsoftwar
p1027
aVdemograph
p1028
aVuser
p1029
aVapplic
p1030
aVprogram
p1031
aVtarget
p1032
aVupgrad
p1033
aVserver
p1034
asI6233684
(lp1035
Vwork
p1036
aVrender
p1037
aVdigit
p1038
aVwatermark
p1039
aVdistribut
p1040
aVtrust
p1041
aVrepositori
p1042
aVcopi
p1043
aVtypic
p1044
aVright
p1045
asI5796952
(lp1046
Vclient
p1047
aVserver
p1048
aVdownload
p1049
aVfile
p1050
aVexecut
p1051
aVprogram
p1052
aVmonitor
p1053
aVinteract
p1054
aVfirst
p1055
aVaddress
p1056
asI5825892
(lp1057
Vwatermark
p1058
aVbright
p1059
aVplane
p1060
aVimpart
p1061
aVrobust
p1062
aVrandom
p1063
aVmark
p1064
aVimag
p1065
aVvalu
p1066
aVdigit
p1067
asI5920861
(lp1068
Vright
p1069
aVabstract
p1070
aVmanag
p1071
aVdata
p1072
aVrepresent
p1073
aVstructur
p1074
aVdescript
p1075
aVinteroper
p1076
aVcompromis
p1077
aVexampl
p1078
asI6047327
(lp1079
Vinfobit
p1080
aVfilter
p1081
aVclient
p1082
aVset
p1083
aVserver
p1084
aVfirst
p1085
aVdistribut
p1086
aVinform
p1087
aVcommunic
p1088
aVsend
p1089
asI5875296
(lp1090
Vweb
p1091
aVclient
p1092
aVcredenti
p1093
aVfile
p1094
aVdistribut
p1095
aVauthent
p1096
aVcooki
p1097
aVserver
p1098
aVpassword
p1099
aVuser
p1100
asI5745681
(lp1101
Vshop
p1102
aVcart
p1103
aVpage
p1104
aVbrowser
p1105
aVserver
p1106
aVadd
p1107
aVfile
p1108
aVrequest
p1109
aVlist
p1110
aVitem
p1111
asI6025837
(lp1112
sI6640244
(lp1113
Vmessag
p1114
aVlogic
p1115
aVtransact
p1116
aVrequest
p1117
aVbatcher
p1118
aVnetwork
p1119
aVsent
p1120
aVgroup
p1121
aVsend
p1122
aVwork
p1123
asI5903721
(lp1124
Vtransact
p1125
aVcomput
p1126
aVuser
p1127
aVvendor
p1128
aVrequest
p1129
aVverif
p1130
aVtrust
p1131
aVidentif
p1132
aVdata
p1133
aVonlin
p1134
asI5943422
(lp1135
Vsteganograph
p1136
aVinform
p1137
aVtechniqu
p1138
aVright
p1139
aVelectron
p1140
aVmanag
p1141
aVsignal
p1142
aVdigit
p1143
aVindel
p1144
aVinsecur
p1145
asI5884033
(lp1146
Vfilter
p1147
aVdatabas
p1148
aVoutgo
p1149
aVmessag
p1150
aVincom
p1151
aVinternet
p1152
aVclient
p1153
aVupdat
p1154
aVserver
p1155
aVinform
p1156
asI5945988
(lp1157
Ventertain
p1158
aVuser
p1159
aVautomat
p1160
aVdynam
p1161
aVprocessor
p1162
aVsystem
p1163
aVmedium
p1164
aVagent
p1165
aVstorag
p1166
aVsubset
p1167
asI6098053
(lp1168
Vtransact
p1169
aVpos
p1170
aVatm
p1171
aVfinanci
p1172
aVaccount
p1173
aVpublic
p1174
aVsave
p1175
aVfund
p1176
aVline
p1177
aVcheck
p1178
asI6253193
(lp1179
Velectron
p1180
aVdistribut
p1181
aVtransact
p1182
aVenviron
p1183
aVsecur
p1184
aVapplianc
p1185
aVvde
p1186
aVinform
p1187
aVexampl
p1188
aVvirtual
p1189
asI5138712
(lp1190
Vlicens
p1191
aVtoken
p1192
aVsoftwar
p1193
aVapplic
p1194
aVserver
p1195
aVnetwork
p1196
aVlibrari
p1197
aVencrypt
p1198
aVverifi
p1199
aVupdat
p1200
asI5963923
(lp1201
Vtrade
p1202
aVbid
p1203
aVcurrenc
p1204
aVmarket
p1205
aVoffer
p1206
aVmaker
p1207
aVbrokerag
p1208
aVprincip
p1209
aVunmatch
p1210
aVcomput
p1211
asI5948061
(lp1212
Vadvertis
p1213
aVnetwork
p1214
aVtarget
p1215
aVsite
p1216
aVuser
p1217
aVdeliveri
p1218
aVaffili
p1219
aVindividu
p1220
aVpeopl
p1221
aVcompil
p1222
asI5023907
(lp1223
Vlicens
p1224
aVnetwork
p1225
aVdaemon
p1226
aVsoftwar
p1227
aVserver
p1228
aVprogram
p1229
aVcomput
p1230
aVanywher
p1231
aVvendor
p1232
aVunauthor
p1233
asI5982891
(lp1234
Velectron
p1235
aVdistribut
p1236
aVtransact
p1237
aVenviron
p1238
aVsecur
p1239
aVapplianc
p1240
aVvde
p1241
aVinform
p1242
aVexampl
p1243
aVvirtual
p1244
asI4827508
(lp1245
Vdatabas
p1246
aVbill
p1247
aVusag
p1248
aVdecrypt
p1249
aVantidot
p1250
aVuser
p1251
aVliterari
p1252
aVhardwar
p1253
aVroyalti
p1254
aVsystem
p1255
asI6226618
(lp1256
Vkey
p1257
aVdecrypt
p1258
aVencrypt
p1259
aVprivat
p1260
aVpublic
p1261
aVdata
p1262
aVuser
p1263
aVpossess
p1264
aVsystem
p1265
aVsecond
p1266
asI5941947
(lp1267
Vaccess
p1268
aVright
p1269
aVentiti
p1270
aVcategori
p1271
aVuser
p1272
aVserver
p1273
aVprivileg
p1274
aVapplic
p1275
aVlist
p1276
aVdata
p1277
asI6119101
(lp1278
Vconsum
p1279
aVagent
p1280
aVperson
p1281
aVdemand
p1282
aVcommerc
p1283
aVquantifi
p1284
aVsale
p1285
aVdecis
p1286
aVident
p1287
aVunsolicit
p1288
asI5768382
(lp1289
Voutcom
p1290
aVencod
p1291
aVmessag
p1292
aVcomput
p1293
aVgame
p1294
aVdecod
p1295
aVdevic
p1296
aVcode
p1297
aVreveal
p1298
aVtamper
p1299
asI5826241
(lp1300
Vpayment
p1301
aVuser
p1302
aVinternet
p1303
aVcardhold
p1304
aVfirst
p1305
aVinform
p1306
aVaccount
p1307
aVrepli
p1308
aVsecond
p1309
aVcharg
p1310
asI5715403
(lp1311
Vusag
p1312
aVright
p1313
aVwork
p1314
aVexercis
p1315
aVgrammar
p1316
aVtransact
p1317
aVdigit
p1318
aVbehavior
p1319
aVdistribut
p1320
aVstep
p1321
asI5636292
(lp1322
Vcarrier
p1323
aVidentif
p1324
aVsteganographi
p1325
aVsignal
p1326
aVdiscern
p1327
aVidentifi
p1328
aVdespit
p1329
aVpermeat
p1330
aVimpress
p1331
aVrobust
p1332
asI5260999
(lp1333
Vlicens
p1334
aVmanag
p1335
aVcall
p1336
aVserver
p1337
aVdocument
p1338
aVnode
p1339
aVdeleg
p1340
aVusag
p1341
aVproduct
p1342
aVauthor
p1343
asI6505160
(lp1344
Vobject
p1345
aVmedia
p1346
aVserver
p1347
aVidentifi
p1348
aVcontext
p1349
aVrequest
p1350
aVmetadata
p1351
aVexperi
p1352
aVplayback
p1353
aVinform
p1354
asI6044362
(lp1355
sI6850252
(lp1356
Vmetadata
p1357
aVmedia
p1358
aVcontent
p1359
aVuser
p1360
aVintellig
p1361
aVinterfac
p1362
aVapplianc
p1363
aVexampl
p1364
aVelectron
p1365
aVprocess
p1366
asI6236365
(lp1367
Vlocat
p1368
aVstation
p1369
aVmobil
p1370
aVurban
p1371
aVcommerci
p1372
aVcmrrs
p1373
aVnamp
p1374
aVrequest
p1375
aVsuburban
p1376
aVsystem
p1377
asI5951694
(lp1378
Vservic
p1379
aVserver
p1380
aVmicrocomput
p1381
aVgateway
p1382
aVapplic
p1383
aVsession
p1384
aVclient
p1385
aVredirect
p1386
aVreplic
p1387
aVload
p1388
asI6185683
(lp1389
Vtrusted
p1390
aVdocument
p1391
aVtrust
p1392
aVtransact
p1393
aVelectron
p1394
aVcourier
p1395
aVsteganographi
p1396
aVedi
p1397
aVitem
p1398
aVwit
p1399
asI5819092
(lp1400
Vfee
p1401
aVsubservic
p1402
aVonlin
p1403
aVlevi
p1404
aVservic
p1405
aVuser
p1406
aVparti
p1407
aVpaid
p1408
aVcontent
p1409
aVedit
p1410
asI6615253
(lp1411
Vdata
p1412
aVclient
p1413
aVserver
p1414
aVexecut
p1415
aVbundl
p1416
aVcach
p1417
aVstructur
p1418
aVretriev
p1419
aVcall
p1420
aVtotal
p1421
asI5917912
(lp1422
Velectron
p1423
aVdistribut
p1424
aVtransact
p1425
aVenviron
p1426
aVsecur
p1427
aVapplianc
p1428
aVvde
p1429
aVinform
p1430
aVexampl
p1431
aVvirtual
p1432
asI6609113
(lp1433
Vaccount
p1434
aVvpl
p1435
aVipa
p1436
aVeft
p1437
aVppp
p1438
aVpayment
p1439
aVwallet
p1440
aVportal
p1441
aVpay
p1442
aVanyon
p1443
asI5960411
(lp1444
Vpurchas
p1445
aVclient
p1446
aVserver
p1447
aVorder
p1448
aVidentifi
p1449
aVsystem
p1450
aVitem
p1451
aVassign
p1452
aVinform
p1453
aVbutton
p1454
asI5768426
(lp1455
Vcarrier
p1456
aVidentif
p1457
aVsignal
p1458
aVcode
p1459
aVemb
p1460
aVdiscern
p1461
aVholograph
p1462
aVidentifi
p1463
aVdespit
p1464
aVpermeat
p1465
asI5568552
(lp1466
Vlicens
p1467
aVcompon
p1468
aVintegr
p1469
aVcryptograph
p1470
aVenforc
p1471
aVkey
p1472
aVcircuit
p1473
aValgorithm
p1474
aVvolatil
p1475
aVuniqu
p1476
asI6947571
(lp1477
Vphone
p1478
aVwatermark
p1479
aVsteganograph
p1480
aVdecod
p1481
aVoptic
p1482
aVvarieti
p1483
aVgestur
p1484
aVsens
p1485
aVdigit
p1486
aVinfer
p1487
asI4999806
(lp1488
Vpurchas
p1489
aVprogram
p1490
aVstation
p1491
aVtransact
p1492
aVcentral
p1493
aVcredit
p1494
aVaccept
p1495
aVcopi
p1496
aVtransfer
p1497
aVcard
p1498
asI5222134
(lp1499
Vregistr
p1500
aVcomput
p1501
aVlicense
p1502
aVtamperproof
p1503
aVperson
p1504
aVprogram
p1505
aVoverlay
p1506
aVlicens
p1507
aVmain
p1508
aVvarious
p1509
asI5655081
(lp1510
Vconsol
p1511
aVcomput
p1512
aVmanag
p1513
aVagent
p1514
aVresourc
p1515
aVsoftwar
p1516
aVsystem
p1517
aVnetwork
p1518
aVmonitor
p1519
aVregist
p1520
asI5532920
(lp1521
Vroyalti
p1522
aVbook
p1523
aVpayment
p1524
aVcopi
p1525
aVsoftcopi
p1526
aVpublish
p1527
aVprogram
p1528
aVaccompani
p1529
aVuser
p1530
aVtext
p1531
asI6141653
(lp1532
Vnegoti
p1533
aVbuyer
p1534
aVseller
p1535
aVsponsor
p1536
aVparticip
p1537
aVcommuniti
p1538
aVmultivari
p1539
aVcounteroff
p1540
aVterm
p1541
aViter
p1542
asI6332163
(lp1543
Vservic
p1544
aVinterfac
p1545
aVcommunic
p1546
aVaddress
p1547
aVglobal
p1548
aVname
p1549
aVclient
p1550
aVvia
p1551
aVdeliv
p1552
aVstream
p1553
asI6138119
(lp1554
Vright
p1555
aVabstract
p1556
aVmanag
p1557
aVdata
p1558
aVrepresent
p1559
aVstructur
p1560
aVdescript
p1561
aVinteroper
p1562
aVcompromis
p1563
aVexampl
p1564
asI5724424
(lp1565
Vpayment
p1566
aVbuyer
p1567
aVadvertis
p1568
aVpurchas
p1569
aVnetwork
p1570
aVcomput
p1571
aVdigit
p1572
aVmerchant
p1573
aVorder
p1574
aVauthor
p1575
asI5557518
(lp1576
Vmoney
p1577
aVtrust
p1578
aVagent
p1579
aVmodul
p1580
aVelectron
p1581
aVcommerc
p1582
aVcustom
p1583
aVmerchant
p1584
aVmerchandis
p1585
aVcryptograph
p1586
asI6571282
(lp1587
Vclient
p1588
aVdatabas
p1589
aVserver
p1590
aVqueri
p1591
aVblock
p1592
aVsubset
p1593
aVdata
p1594
aVsolut
p1595
aVbuilt
p1596
aVset
p1597
asI6519571
(lp1598
Vpurchas
p1599
aVcustom
p1600
aVproduct
p1601
aVprofess
p1602
aVprofil
p1603
aVreturn
p1604
aVeduc
p1605
aVreason
p1606
aVstate
p1607
aVlevel
p1608
asI6330670
(lp1609
Vright
p1610
aVmanag
p1611
aVuntrust
p1612
aVtrust
p1613
aVpage
p1614
aVdigit
p1615
aVfile
p1616
aVdata
p1617
aVmemori
p1618
aVoper
p1619
asI6327574
(lp1620
Vconsum
p1621
aVprofil
p1622
aVattribut
p1623
aVabstract
p1624
aVdocument
p1625
aVtransact
p1626
aVcontent
p1627
aVhierarch
p1628
aVselect
p1629
aVdeliv
p1630
asI6249252
(lp1631
Vlocat
p1632
aVinfrastructur
p1633
aVurban
p1634
aVcommerci
p1635
aVpoor
p1636
aVwireless
p1637
aVnamp
p1638
aVstation
p1639
aVrequest
p1640
aVsuburban
p1641
asI5940504
(lp1642
Vdatagram
p1643
aVlicens
p1644
aVdenial
p1645
aVlicense
p1646
aVmonitor
p1647
aVmessag
p1648
aVrequest
p1649
aVproduct
p1650
aVunansw
p1651
aVit
p1652
asI6282522
(lp1653
Vcard
p1654
aVsmart
p1655
aVpayment
p1656
aVmerchant
p1657
aVserver
p1658
aVinternet
p1659
aVclient
p1660
aVtermin
p1661
aVpurchas
p1662
aVgood
p1663
asI5748783
(lp1664
Vsignal
p1665
aVembed
p1666
aVdigit
p1667
aVsymmetri
p1668
aVencod
p1669
aVimpercept
p1670
aVnotwithstand
p1671
aVsourc
p1672
aVundergon
p1673
aVfacilit
p1674
asI7124101
(lp1675
Vasset
p1676
aVnetwork
p1677
aVevent
p1678
aVreguard
p1679
aVsubmit
p1680
aVuser
p1681
aVreciev
p1682
aVchain
p1683
aVinform
p1684
aVmanag
p1685
asI5453601
(lp1686
Vmoney
p1687
aVbank
p1688
aVmonetari
p1689
aVelectron
p1690
aVissu
p1691
aVtransact
p1692
aVsubscrib
p1693
aVcorrespond
p1694
aVreconcili
p1695
aVsystem
p1696
asI6389538
(lp1697
Vcontent
p1698
aVlicens
p1699
aVplay
p1700
aVplayer
p1701
aVusag
p1702
aVdata
p1703
aVtrack
p1704
aVuser
p1705
aVlog
p1706
aVdigit
p1707
asI7100195
(lp1708
Vuser
p1709
aVsite
p1710
aVserver
p1711
aVdatabas
p1712
aVinform
p1713
aVrole
p1714
aVdetail
p1715
aVauthent
p1716
aVident
p1717
aVstore
p1718
asI5892900
(lp1719
Velectron
p1720
aVsecur
p1721
aVdistribut
p1722
aVenviron
p1723
aVtransact
p1724
aVcommerc
p1725
aVapplianc
p1726
aVvde
p1727
aVinform
p1728
aVprotect
p1729
asI5410598
(lp1730
Vdatabas
p1731
aVbill
p1732
aVusag
p1733
aVdecrypt
p1734
aVantidot
p1735
aVuser
p1736
aVliterari
p1737
aVhardwar
p1738
aVroyalti
p1739
aVsystem
p1740
asI6016476
(lp1741
sI5638443
(lp1742
Vwork
p1743
aVdigit
p1744
aVrepositori
p1745
aVacycl
p1746
aVcomposit
p1747
aVdescript
p1748
aVrequest
p1749
aVmode
p1750
aVpart
p1751
aVindividu
p1752
asI6311214
(lp1753
Vobject
p1754
aVsteganograph
p1755
aVpostal
p1756
aVbit
p1757
aVlink
p1758
aVprint
p1759
aVdata
p1760
aVbook
p1761
aVadvertis
p1762
aVoptic
p1763
asI5757917
(lp1764
Vseller
p1765
aVuser
p1766
aVnetwork
p1767
aVmessag
p1768
aVbuyer
p1769
aVpayment
p1770
aVtransact
p1771
aVsent
p1772
aVagent
p1773
aVover
p1774
asI5623601
(lp1775
Vgateway
p1776
aVnetwork
p1777
aVsession
p1778
aVcommunic
p1779
aVpacket
p1780
aVfirewal
p1781
aVsecur
p1782
aVstation
p1783
aVaddress
p1784
aVmodifi
p1785
asI5862260
(lp1786
Vwatermark
p1787
aVproprietor
p1788
aVaudio
p1789
aVvideo
p1790
aVdissemin
p1791
aVproprietari
p1792
aVempir
p1793
aVsurvey
p1794
aVdata
p1795
aVcomput
p1796
asI6076734
(lp1797
Vencod
p1798
aVcomput
p1799
aVsensor
p1800
aVinform
p1801
aVuser
p1802
aVinterfac
p1803
aVphysic
p1804
aVcertain
p1805
aVmedium
p1806
aVsuitabl
p1807
asI5850433
(lp1808
Vdirectori
p1809
aVcustom
p1810
aVservic
p1811
aVtelephon
p1812
aVsearch
p1813
aVdatabas
p1814
aVserver
p1815
aVlist
p1816
aVprofil
p1817
aVrequest
p1818
asI6058379
(lp1819
sI5991750
(lp1820
Vtransact
p1821
aVaccount
p1822
aVauthor
p1823
aVapprov
p1824
aVcategori
p1825
aVmerchant
p1826
aVspecif
p1827
aVspecifi
p1828
aVparamet
p1829
aVmanag
p1830
asI5889868
(lp1831
Vwatermark
p1832
aVdigit
p1833
aVsampl
p1834
aVgiven
p1835
aVcontent
p1836
aVoptim
p1837
aVbreadth
p1838
aVqualiti
p1839
aVsignal
p1840
aVindividu
p1841
asI5862223
(lp1842
Vexpert
p1843
aVanswer
p1844
aVqualif
p1845
aVrequest
p1846
aVcryptographi
p1847
aVqualifi
p1848
aVcryptograph
p1849
aVpassword
p1850
aVtelephoni
p1851
aVseek
p1852
asI6029141
(lp1853
Vmerchant
p1854
aVsite
p1855
aVreferr
p1856
aVcustom
p1857
aVhypertextu
p1858
aVproduct
p1859
aVassoci
p1860
aVcommiss
p1861
aVweb
p1862
aVcatalog
p1863
asI6029150
(lp1864
sI6363488
(lp1865
Velectron
p1866
aVdistribut
p1867
aVtransact
p1868
aVright
p1869
aVenviron
p1870
aVsecur
p1871
aVapplianc
p1872
aVvde
p1873
aVinform
p1874
aVexampl
p1875
asI5673316
(lp1876
Vencrypt
p1877
aVkey
p1878
aVenvelop
p1879
aVpart
p1880
aVhash
p1881
aVlist
p1882
aVsecret
p1883
aVpublic
p1884
aVcryptograph
p1885
aVinform
p1886
asI5050213
(lp1887
Vdatabas
p1888
aVbill
p1889
aVusag
p1890
aVdecrypt
p1891
aVantidot
p1892
aVuser
p1893
aVliterari
p1894
aVroyal
p1895
aVhardwar
p1896
aVsystem
p1897
asI5884262
(lp1898
Vdocument
p1899
aVaudio
p1900
aVaccess
p1901
aVformat
p1902
aVtelephon
p1903
aVfile
p1904
aVinterfac
p1905
aVsystem
p1906
aVvia
p1907
aVvisual
p1908
asI5815657
(lp1909
Vpayment
p1910
aVtransact
p1911
aVelectron
p1912
aVpurs
p1913
aVwallet
p1914
aVmonetari
p1915
aVapprov
p1916
aVinstrument
p1917
aVcustomarili
p1918
aVuser
p1919
asI4977594
(lp1920
Vdatabas
p1921
aVbill
p1922
aVusag
p1923
aVdecrypt
p1924
aVantidot
p1925
aVuser
p1926
aVliterari
p1927
aVhardwar
p1928
aVroyalti
p1929
aVsystem
p1930
asI5715314
(lp1931
Vpayment
p1932
aVcomput
p1933
aVmessag
p1934
aVmerchant
p1935
aVbuyer
p1936
aVaccess
p1937
aVproduct
p1938
aVauthent
p1939
aVbuy
p1940
aVsent
p1941
asI5103476
(lp1942
Vcomput
p1943
aVregistr
p1944
aVlicense
p1945
aVprogram
p1946
aVtamperproof
p1947
aVperson
p1948
aVoverlay
p1949
aVmain
p1950
aVlicens
p1951
aVvarious
p1952
asI5918014
(lp1953
Vcommuniti
p1954
aVsubject
p1955
aVsimilar
p1956
aVweb
p1957
aVpeopl
p1958
aVwho
p1959
aVshow
p1960
aVconsum
p1961
aVindividu
p1962
aVclick
p1963
asI5929849
(lp1964
Vurl
p1965
aVdisplay
p1966
aVframe
p1967
aVentiti
p1968
aVassoci
p1969
aVdata
p1970
aVinternet
p1971
aVpage
p1972
aVweb
p1973
aVsuccess
p1974
asI5878141
(lp1975
Vpurchas
p1976
aVmerchant
p1977
aVpayment
p1978
aVdatabas
p1979
aVprocessor
p1980
aVset
p1981
aVaccept
p1982
aVgood
p1983
aVcomputer
p1984
aVsale
p1985
asI5958016
(lp1986
Vnetwork
p1987
aVweb
p1988
aVservic
p1989
aVfirewal
p1990
aVsubscrib
p1991
aVinternet
p1992
aVaccess
p1993
aVplatform
p1994
aVcommunic
p1995
aVprivat
p1996
asI6614914
(lp1997
Vwatermark
p1998
aVembedd
p1999
aVsignal
p2000
aVreader
p2001
aVcombin
p2002
aVdetector
p2003
aVorient
p2004
aVcorrupt
p2005
aVlook
p2006
aVtextur
p2007
asI6070150
(lp2008
Vbiller
p2009
aVbill
p2010
aVpayment
p2011
aVremitt
p2012
aVconsum
p2013
aVdisput
p2014
aVinform
p2015
aVinternet
p2016
aVelectron
p2017
aVformat
p2018
asI5905800
(lp2019
Vwatermark
p2020
aVkey
p2021
aVcontent
p2022
aVbinari
p2023
aVdigit
p2024
aVsequenc
p2025
aVsignal
p2026
aVencod
p2027
aVidentifi
p2028
aVdescrib
p2029
asI5915019
(lp2030
Velectron
p2031
aVdistribut
p2032
aVtransact
p2033
aVenviron
p2034
aVsecur
p2035
aVapplianc
p2036
aVvde
p2037
aVinform
p2038
aVexampl
p2039
aVvirtual
p2040
asI5915027
(lp2041
Vwatermark
p2042
aVsubregion
p2043
aVsubimag
p2044
aVdata
p2045
aVrepeat
p2046
aVdigit
p2047
aVaudio
p2048
aVsimilar
p2049
aVvideo
p2050
aVextract
p2051
asI6578068
(lp2052
Vrequest
p2053
aVserver
p2054
aVsubset
p2055
aVcompon
p2056
aVbalanc
p2057
aVavail
p2058
aVincom
p2059
aVlist
p2060
aVload
p2061
aVclient
p2062
asI6157721
(lp2063
Vsignatur
p2064
aVtamper
p2065
aVfactor
p2066
aVdigit
p2067
aVenviron
p2068
aVverifi
p2069
aVwork
p2070
aValgorithm
p2071
aVcompromis
p2072
aVload
p2073
asI5794207
(lp2074
Vbuyer
p2075
aVseller
p2076
aVpurchas
p2077
aVoffer
p2078
aVbind
p2079
aVpotenti
p2080
aVprospect
p2081
aVglobal
p2082
aVcontract
p2083
aVpresent
p2084
asI6212512
(lp2085
Vfile
p2086
aVdatabas
p2087
aVexplor
p2088
aVwindow
p2089
aVprotect
p2090
aVvault
p2091
aVsecondari
p2092
aVdata
p2093
aVmedium
p2094
aVappear
p2095
asI5204897
(lp2096
Vlicens
p2097
aVmanag
p2098
aVcall
p2099
aVserver
p2100
aVdocument
p2101
aVnode
p2102
aVdeleg
p2103
aVusag
p2104
aVproduct
p2105
aVauthor
p2106
asI6122403
(lp2107
Vsteganograph
p2108
aVdecod
p2109
aVhotlink
p2110
aVregistr
p2111
aVimprov
p2112
aVgraticul
p2113
aVsublimin
p2114
aVunencod
p2115
aVembed
p2116
aVcovert
p2117
asI6772132
(lp2118
Vtrade
p2119
aVtrader
p2120
aVmarket
p2121
aVprice
p2122
aVfluctuat
p2123
aVdepth
p2124
aVdisplay
p2125
aVintuit
p2126
aVplane
p2127
aVclick
p2128
asI5708709
(lp2129
Vprogram
p2130
aVserver
p2131
aVclient
p2132
aVtrial
p2133
aVlicens
p2134
aVapplic
p2135
aVexpir
p2136
aVuser
p2137
aVverif
p2138
aVexecut
p2139
asI6314409
(lp2140
Vrule
p2141
aVprotect
p2142
aVaccess
p2143
aVdata
p2144
aVportion
p2145
aVuseabl
p2146
aVconcern
p2147
aVenforc
p2148
aVright
p2149
aVonli
p2150
asI4658093
(lp2151
sI6269361
(lp2152
Vsearch
p2153
aVlist
p2154
aVbid
p2155
aVnetwork
p2156
aVinform
p2157
aVterm
p2158
aVaccount
p2159
aVinfluenc
p2160
aVrank
p2161
aVamount
p2162
asI5949876
(lp2163
Velectron
p2164
aVdistribut
p2165
aVtransact
p2166
aVenviron
p2167
aVsecur
p2168
aVapplianc
p2169
aVvde
p2170
aVinform
p2171
aVexampl
p2172
aVvirtual
p2173
asI6112181
(lp2174
Vnarrowcast
p2175
aVclassif
p2176
aVclass
p2177
aVmatch
p2178
aVthing
p2179
aVcategori
p2180
aVclassifi
p2181
aVscheme
p2182
aVutil
p2183
aVright
p2184
asI5832119
(lp2185
Vsteganograph
p2186
aVembed
p2187
aVplayback
p2188
aVcopi
p2189
aVkiosk
p2190
aVbit
p2191
aVempir
p2192
aVmulti
p2193
aVcontrol
p2194
aVrecord
p2195
asI5933498
(lp2196
Vrule
p2197
aVprotect
p2198
aVaccess
p2199
aVdata
p2200
aVportion
p2201
aVuseabl
p2202
aVconcern
p2203
aVenforc
p2204
aVright
p2205
aVonli
p2206
asI6385596
(lp2207
Vmedia
p2208
aVpurchas
p2209
aVplayer
p2210
aVonlin
p2211
aVmusic
p2212
aVencrypt
p2213
aVserver
p2214
aVdata
p2215
aVpassport
p2216
aVaudio
p2217
asI5778367
(lp2218
Ventri
p2219
aVuser
p2220
aVdatabas
p2221
aVdescript
p2222
aVlanguag
p2223
aVpage
p2224
aVmade
p2225
aVpublish
p2226
aVpassword
p2227
aVretriev
p2228
asI5687236
(lp2229
Vsampl
p2230
aVdisincent
p2231
aVstream
p2232
aVinform
p2233
aVprepend
p2234
aVpiraci
p2235
aVsteganograph
p2236
aVdecod
p2237
aVkey
p2238
aVcopyright
p2239
asI5699528
(lp2240
Vbill
p2241
aVpayment
p2242
aVmail
p2243
aVweb
p2244
aVserver
p2245
aVelectron
p2246
aVcomput
p2247
aVuser
p2248
aVsite
p2249
aVdeliveri
p2250
asI5910987
(lp2251
Velectron
p2252
aVdistribut
p2253
aVtransact
p2254
aVenviron
p2255
aVsecur
p2256
aVapplianc
p2257
aVvde
p2258
aVinform
p2259
aVexampl
p2260
aVvirtual
p2261
asI5613004
(lp2262
Vsampl
p2263
aVdisincent
p2264
aVstream
p2265
aVinform
p2266
aVprepend
p2267
aVpiraci
p2268
aVsteganograph
p2269
aVdecod
p2270
aVkey
p2271
aVcopyright
p2272
asI5509070
(lp2273
Vpassword
p2274
aVprogramm
p2275
aVuser
p2276
aVencourag
p2277
aVsoftwar
p2278
aVprogram
p2279
aVpurchas
p2280
aVcopyabl
p2281
aVtarget
p2282
aVvalid
p2283
asI5933816
(lp2284
Vfinanci
p2285
aVservic
p2286
aVcompon
p2287
aVinstitut
p2288
aVlegaci
p2289
aVsystem
p2290
aVdeliveri
p2291
aVlanguag
p2292
aVrather
p2293
aVtransact
p2294
asI6601233
(lp2295
Vbusi
p2296
aVcode
p2297
aVcompon
p2298
aVlogic
p2299
aVmodul
p2300
aVinterrelationship
p2301
aVfunction
p2302
aVcapabl
p2303
aVnext
p2304
aVcommerc
p2305
asI5790677
(lp2306
Vcommerc
p2307
aVcredenti
p2308
aVrecipi
p2309
aVtransact
p2310
aVcomput
p2311
aVdocument
p2312
aVinstrument
p2313
aVunit
p2314
aVdecrypt
p2315
aVregistr
p2316
asI6697944
(lp2317
Vcontent
p2318
aVdigit
p2319
aVfile
p2320
aVusb
p2321
aVportabl
p2322
aVtrust
p2323
aVdownload
p2324
aVdrm
p2325
aVauthent
p2326
aVinterfac
p2327
asI4924378
(lp2328
Vlicens
p2329
aVkey
p2330
aVpurhcas
p2331
aVmangag
p2332
aVstorag
p2333
aVrun
p2334
aVcomput
p2335
aVfound
p2336
aVlocal
p2337
aVprogram
p2338
asI5634012
(lp2339
Vfee
p2340
aVusag
p2341
aVwork
p2342
aVright
p2343
aVdigit
p2344
aVrepositori
p2345
aVreport
p2346
aVcredit
p2347
aVdistribut
p2348
aVclearinghous
p2349
asI6185598
(lp2350
Vrepeat
p2351
aVresourc
p2352
aVbest
p2353
aVclient
p2354
aVserver
p2355
aVreflector
p2356
aVselect
p2357
aVorigin
p2358
aVrewritten
p2359
aVrequest
p2360
asI6233566
(lp2361
Vloan
p2362
aVfinanci
p2363
aVseller
p2364
aVbuyer
p2365
aVdatabas
p2366
aVproduct
p2367
aVonlin
p2368
aVserver
p2369
aVpre
p2370
aVsubscrib
p2371
asI5793763
(lp2372
Vpacket
p2373
aVaddress
p2374
aVlocal
p2375
aVenterpris
p2376
aVftp
p2377
aVnetwork
p2378
aVinternet
p2379
aVdestin
p2380
aVtranslat
p2381
aVnonthreaten
p2382
asI6400996
(lp2383
Vrecognit
p2384
aVpredict
p2385
aVuser
p2386
aVpattern
p2387
aVmultimedia
p2388
aVstream
p2389
aVsystem
p2390
aVinexact
p2391
aVfeedback
p2392
aVdata
p2393
asI6487538
(lp2394
Vadvertis
p2395
aVisp
p2396
aVproxi
p2397
aVweb
p2398
aVsite
p2399
aVdemograph
p2400
aVinform
p2401
aVmay
p2402
aVprofil
p2403
aVuser
p2404
asI5809139
(lp2405
Vwatermark
p2406
aVunwatermark
p2407
aVcoeffici
p2408
aVvideo
p2409
aVbit
p2410
aVsignal
p2411
aVtransform
p2412
aVcode
p2413
aVsequenc
p2414
aVcompress
p2415
asI6227447
(lp2416
Vcredit
p2417
aVcardmemb
p2418
aVtelephon
p2419
aVcard
p2420
aVcardhold
p2421
aVnumber
p2422
aVher
p2423
aVpin
p2424
aVcardless
p2425
aVhis
p2426
astp2427
.