((lp0
I4064521
aI4217374
aI4226898
aI4363828
aI4499557
aI4599705
aI4678679
aI6638772
aI4668968
aI4670763
aI4673957
aI5529937
aI6239470
aI4637895
aI5849601
aI5859445
aI6011277
aI6023075
aI6198133
aI6252249
aI6821825
aI4748490
aI4823181
aI4876220
aI4881114
aI4899205
aI5241496
aI5831276
aI5920788
aI5970336
aI5985698
aI5998244
aI6034882
aI6077729
aI6104038
aI6111264
aI6114713
aI6117720
aI6153890
aI6185122
aI6189582
aI6316784
aI6351406
aI6391688
aI6420215
aI6440837
aI6483736
aI6525953
aI6545903
aI6563156
aI6607974
aI6627530
aI6800504
aI6864500
aI6881994
aI6888750
aI6894304
aI7132675
aI5177567
aI5543737
aI6800563
aI6933516
aI6992925
aI7033856
aI7220983
aI7374544
aI4843443
aI5616506
aI5696003
aI5705829
aI5821138
aI5869363
aI5879977
aI5888858
aI5893730
aI5897347
aI5956579
aI5985740
aI6077731
aI6087679
aI6285042
aI6303963
aI6335541
aI6365933
aI6689492
aI6830494
aI4891330
aI6469317
aI6501098
aI6512504
aI6576926
aI6909114
aI5070384
aI5084905
aI5166556
aI6034427
aI5744980
aI5751012
aI5789277
aI5814527
aI5837564
aI5841150
aI5869843
aI5879955
aI5952671
aI6025220
aI6031287
aI6420725
aI5110754
aI5851882
aI5835396
aI6236059
aI6864503
aI6072716
aI6339544
aI6404665
aI6429064
aI6462984
aI6501111
aI6507061
aI6511862
aI6511867
aI6514805
aI6534781
aI6555860
aI6563164
aI6567293
aI6569705
aI6570784
aI6579760
aI6590807
aI6593176
aI6597009
aI6605527
aI6621095
aI6625054
aI6642102
aI6649928
aI6667900
aI6673700
aI6674115
aI6696355
aI6707712
aI6744088
aI6972430
aI6613604
aI7023009
aI6407953
aI6690026
aI6946719
aI6952030
aI6850432
aI7067865
aI6462353
aI6512241
aI6545287
aI6909107
aI6605821
aI6797979
aI6936840
aI6903362
aI5406509
aI5687112
aI5761115
aI5789758
aI5896312
aI5914893
aI5998066
aI6418049
aI6487106
aI6566700
aI5694054
aI7446352
aI6534380
aI5932893
aI6118502
aI6372608
aI6376333
aI7199024
aI6393042
aI6165824
aI6278131
aI5933205
aI6013928
aI7791072
a(lp1
(lp2
I4064521
aa(lp3
I4217374
aI4226898
aI4363828
aa(lp4
I4499557
aI4599705
aI4678679
aI6638772
aI4668968
aI4670763
aI4673957
aI5529937
aI6239470
aI4637895
aI5849601
aI5859445
aI6011277
aI6023075
aI6198133
aI6252249
aI6821825
aa(lp5
I4748490
aI4823181
aI4876220
aI4881114
aI4899205
aI5241496
aI5831276
aI5920788
aI5970336
aI5985698
aI5998244
aI6034882
aI6077729
aI6104038
aI6111264
aI6114713
aI6117720
aI6153890
aI6185122
aI6189582
aI6316784
aI6351406
aI6391688
aI6420215
aI6440837
aI6483736
aI6525953
aI6545903
aI6563156
aI6607974
aI6627530
aI6800504
aI6864500
aI6881994
aI6888750
aI6894304
aI7132675
aI5177567
aI5543737
aI6800563
aI6933516
aI6992925
aI7033856
aI7220983
aI7374544
aI4843443
aI5616506
aI5696003
aI5705829
aI5821138
aI5869363
aI5879977
aI5888858
aI5893730
aI5897347
aI5956579
aI5985740
aI6077731
aI6087679
aI6285042
aI6303963
aI6335541
aI6365933
aI6689492
aI6830494
aI4891330
aI6469317
aI6501098
aI6512504
aI6576926
aI6909114
aa(lp6
I5070384
aI5084905
aI5166556
aI6034427
aI5744980
aI5751012
aI5789277
aI5814527
aI5837564
aI5841150
aI5869843
aI5879955
aI5952671
aI6025220
aI6031287
aI6420725
aI5110754
aI5851882
aI5835396
aI6236059
aI6864503
aI6072716
aI6339544
aI6404665
aI6429064
aI6462984
aI6501111
aI6507061
aI6511862
aI6511867
aI6514805
aI6534781
aI6555860
aI6563164
aI6567293
aI6569705
aI6570784
aI6579760
aI6590807
aI6593176
aI6597009
aI6605527
aI6621095
aI6625054
aI6642102
aI6649928
aI6667900
aI6673700
aI6674115
aI6696355
aI6707712
aI6744088
aI6972430
aI6613604
aI7023009
aI6407953
aI6690026
aI6946719
aI6952030
aI6850432
aI7067865
aI6462353
aI6512241
aI6545287
aI6909107
aI6605821
aI6797979
aI6936840
aI6903362
aI5406509
aI5687112
aI5761115
aI5789758
aI5896312
aI5914893
aI5998066
aI6418049
aI6487106
aI6566700
aI5694054
aI7446352
aI6534380
aI5932893
aI6118502
aI6372608
aI6376333
aI7199024
aI6393042
aI6165824
aI6278131
aI5933205
aI6013928
aI7791072
aa(lp7
(I4064521
I4217374
tp8
a(I4064521
I4226898
tp9
a(I4064521
I4363828
tp10
a(I4217374
I4499557
tp11
a(I4217374
I4599705
tp12
a(I4217374
I4678679
tp13
a(I4217374
I6638772
tp14
a(I4226898
I4668968
tp15
a(I4226898
I4670763
tp16
a(I4226898
I4673957
tp17
a(I4226898
I5529937
tp18
a(I4226898
I6239470
tp19
a(I4226898
I6638772
tp20
a(I4363828
I4637895
tp21
a(I4363828
I5849601
tp22
a(I4363828
I5859445
tp23
a(I4363828
I6011277
tp24
a(I4363828
I6023075
tp25
a(I4363828
I6198133
tp26
a(I4363828
I6252249
tp27
a(I4363828
I6821825
tp28
a(I4499557
I4748490
tp29
a(I4499557
I4823181
tp30
a(I4499557
I4876220
tp31
a(I4499557
I4881114
tp32
a(I4499557
I4899205
tp33
a(I4499557
I5241496
tp34
a(I4499557
I5831276
tp35
a(I4499557
I5920788
tp36
a(I4499557
I5970336
tp37
a(I4499557
I5985698
tp38
a(I4499557
I5998244
tp39
a(I4499557
I6034882
tp40
a(I4499557
I6077729
tp41
a(I4499557
I6104038
tp42
a(I4499557
I6111264
tp43
a(I4499557
I6114713
tp44
a(I4499557
I6117720
tp45
a(I4499557
I6153890
tp46
a(I4499557
I6185122
tp47
a(I4499557
I6189582
tp48
a(I4499557
I6316784
tp49
a(I4499557
I6351406
tp50
a(I4499557
I6391688
tp51
a(I4499557
I6420215
tp52
a(I4499557
I6440837
tp53
a(I4499557
I6483736
tp54
a(I4499557
I6525953
tp55
a(I4499557
I6545903
tp56
a(I4499557
I6563156
tp57
a(I4499557
I6607974
tp58
a(I4499557
I6627530
tp59
a(I4499557
I6800504
tp60
a(I4499557
I6864500
tp61
a(I4499557
I6881994
tp62
a(I4499557
I6888750
tp63
a(I4499557
I6894304
tp64
a(I4499557
I7132675
tp65
a(I4599705
I5177567
tp66
a(I4599705
I5543737
tp67
a(I4599705
I6545903
tp68
a(I4599705
I6800563
tp69
a(I4599705
I6933516
tp70
a(I4599705
I6992925
tp71
a(I4599705
I7033856
tp72
a(I4599705
I7220983
tp73
a(I4678679
I6864500
tp74
a(I4678679
I6894304
tp75
a(I6638772
I7374544
tp76
a(I4668968
I4843443
tp77
a(I4668968
I6864500
tp78
a(I4668968
I6894304
tp79
a(I4670763
I6864500
tp80
a(I4670763
I6894304
tp81
a(I4673957
I6864500
tp82
a(I4673957
I6894304
tp83
a(I5529937
I5616506
tp84
a(I5529937
I5696003
tp85
a(I5529937
I5705829
tp86
a(I5529937
I5821138
tp87
a(I5529937
I5869363
tp88
a(I5529937
I5879977
tp89
a(I5529937
I5888858
tp90
a(I5529937
I5893730
tp91
a(I5529937
I5897347
tp92
a(I5529937
I5956579
tp93
a(I5529937
I5985740
tp94
a(I5529937
I6077731
tp95
a(I5529937
I6087679
tp96
a(I5529937
I6285042
tp97
a(I5529937
I6303963
tp98
a(I5529937
I6335541
tp99
a(I5529937
I6365933
tp100
a(I6239470
I6689492
tp101
a(I6239470
I6830494
tp102
a(I4637895
I4891330
tp103
a(I4637895
I6864500
tp104
a(I4637895
I6894304
tp105
a(I5849601
I6198133
tp106
a(I5849601
I6252249
tp107
a(I6011277
I6239470
tp108
a(I6198133
I6469317
tp109
a(I6198133
I6501098
tp110
a(I6198133
I6512504
tp111
a(I6198133
I6576926
tp112
a(I6198133
I6909114
tp113
a(I4748490
I5070384
tp114
a(I4748490
I5084905
tp115
a(I4748490
I5166556
tp116
a(I4748490
I6034427
tp117
a(I4823181
I5070384
tp118
a(I4823181
I5166556
tp119
a(I4823181
I5241496
tp120
a(I4823181
I5744980
tp121
a(I4823181
I5751012
tp122
a(I4823181
I5789277
tp123
a(I4823181
I5814527
tp124
a(I4823181
I5831276
tp125
a(I4823181
I5837564
tp126
a(I4823181
I5841150
tp127
a(I4823181
I5869843
tp128
a(I4823181
I5879955
tp129
a(I4823181
I5920788
tp130
a(I4823181
I5952671
tp131
a(I4823181
I5970336
tp132
a(I4823181
I5985698
tp133
a(I4823181
I5998244
tp134
a(I4823181
I6025220
tp135
a(I4823181
I6031287
tp136
a(I4823181
I6034427
tp137
a(I4823181
I6034882
tp138
a(I4823181
I6077729
tp139
a(I4823181
I6104038
tp140
a(I4823181
I6111264
tp141
a(I4823181
I6114713
tp142
a(I4823181
I6117720
tp143
a(I4823181
I6153890
tp144
a(I4823181
I6185122
tp145
a(I4823181
I6189582
tp146
a(I4823181
I6316784
tp147
a(I4823181
I6351406
tp148
a(I4823181
I6391688
tp149
a(I4823181
I6420725
tp150
a(I4823181
I6440837
tp151
a(I4823181
I6483736
tp152
a(I4823181
I6525953
tp153
a(I4823181
I6563156
tp154
a(I4823181
I6607974
tp155
a(I4823181
I6627530
tp156
a(I4823181
I6881994
tp157
a(I4823181
I6888750
tp158
a(I4823181
I6992925
tp159
a(I4876220
I5070384
tp160
a(I4876220
I5166556
tp161
a(I4876220
I5751012
tp162
a(I4876220
I5789277
tp163
a(I4876220
I5814527
tp164
a(I4876220
I5831276
tp165
a(I4876220
I5837564
tp166
a(I4876220
I5841150
tp167
a(I4876220
I5869843
tp168
a(I4876220
I5879955
tp169
a(I4876220
I5920788
tp170
a(I4876220
I5952671
tp171
a(I4876220
I5970336
tp172
a(I4876220
I5985698
tp173
a(I4876220
I5998244
tp174
a(I4876220
I6025220
tp175
a(I4876220
I6031287
tp176
a(I4876220
I6034427
tp177
a(I4876220
I6034882
tp178
a(I4876220
I6077729
tp179
a(I4876220
I6104038
tp180
a(I4876220
I6111264
tp181
a(I4876220
I6114713
tp182
a(I4876220
I6117720
tp183
a(I4876220
I6153890
tp184
a(I4876220
I6185122
tp185
a(I4876220
I6189582
tp186
a(I4876220
I6316784
tp187
a(I4876220
I6351406
tp188
a(I4876220
I6391688
tp189
a(I4876220
I6420215
tp190
a(I4876220
I6420725
tp191
a(I4876220
I6440837
tp192
a(I4876220
I6483736
tp193
a(I4876220
I6525953
tp194
a(I4876220
I6563156
tp195
a(I4876220
I6607974
tp196
a(I4876220
I6627530
tp197
a(I4876220
I6881994
tp198
a(I4876220
I6888750
tp199
a(I4876220
I6992925
tp200
a(I4876220
I7033856
tp201
a(I4876220
I7220983
tp202
a(I4881114
I5110754
tp203
a(I4881114
I5166556
tp204
a(I4881114
I5751012
tp205
a(I4881114
I5789277
tp206
a(I4881114
I5814527
tp207
a(I4881114
I5831276
tp208
a(I4881114
I5837564
tp209
a(I4881114
I5841150
tp210
a(I4881114
I5851882
tp211
a(I4881114
I5869843
tp212
a(I4881114
I5879955
tp213
a(I4881114
I5920788
tp214
a(I4881114
I5952671
tp215
a(I4881114
I5970336
tp216
a(I4881114
I5985698
tp217
a(I4881114
I6025220
tp218
a(I4881114
I6031287
tp219
a(I4881114
I6034427
tp220
a(I4881114
I6034882
tp221
a(I4881114
I6077729
tp222
a(I4881114
I6104038
tp223
a(I4881114
I6111264
tp224
a(I4881114
I6114713
tp225
a(I4881114
I6117720
tp226
a(I4881114
I6153890
tp227
a(I4881114
I6185122
tp228
a(I4881114
I6189582
tp229
a(I4881114
I6316784
tp230
a(I4881114
I6351406
tp231
a(I4881114
I6391688
tp232
a(I4881114
I6420215
tp233
a(I4881114
I6420725
tp234
a(I4881114
I6440837
tp235
a(I4881114
I6483736
tp236
a(I4881114
I6525953
tp237
a(I4881114
I6563156
tp238
a(I4881114
I6607974
tp239
a(I4881114
I6627530
tp240
a(I4881114
I6881994
tp241
a(I4881114
I6888750
tp242
a(I4899205
I5070384
tp243
a(I4899205
I5084905
tp244
a(I4899205
I5110754
tp245
a(I4899205
I5166556
tp246
a(I4899205
I5835396
tp247
a(I4899205
I6034427
tp248
a(I4899205
I6034882
tp249
a(I4899205
I6185122
tp250
a(I4899205
I6351406
tp251
a(I4899205
I6483736
tp252
a(I4899205
I6525953
tp253
a(I4899205
I6627530
tp254
a(I4899205
I6881994
tp255
a(I4899205
I6888750
tp256
a(I4899205
I6992925
tp257
a(I5831276
I6025220
tp258
a(I5831276
I6189582
tp259
a(I5831276
I6236059
tp260
a(I5831276
I6440837
tp261
a(I5831276
I6563156
tp262
a(I5831276
I6607974
tp263
a(I5831276
I6864503
tp264
a(I5831276
I7220983
tp265
a(I5920788
I6072716
tp266
a(I5920788
I6339544
tp267
a(I5920788
I6404665
tp268
a(I5920788
I6429064
tp269
a(I5920788
I6462984
tp270
a(I5920788
I6501111
tp271
a(I5920788
I6507061
tp272
a(I5920788
I6511862
tp273
a(I5920788
I6511867
tp274
a(I5920788
I6514805
tp275
a(I5920788
I6534781
tp276
a(I5920788
I6555860
tp277
a(I5920788
I6563156
tp278
a(I5920788
I6563164
tp279
a(I5920788
I6567293
tp280
a(I5920788
I6569705
tp281
a(I5920788
I6570784
tp282
a(I5920788
I6579760
tp283
a(I5920788
I6590807
tp284
a(I5920788
I6593176
tp285
a(I5920788
I6597009
tp286
a(I5920788
I6605527
tp287
a(I5920788
I6621095
tp288
a(I5920788
I6625054
tp289
a(I5920788
I6642102
tp290
a(I5920788
I6649928
tp291
a(I5920788
I6667900
tp292
a(I5920788
I6673700
tp293
a(I5920788
I6674115
tp294
a(I5920788
I6696355
tp295
a(I5920788
I6707712
tp296
a(I5920788
I6744088
tp297
a(I5920788
I6800504
tp298
a(I5920788
I6894304
tp299
a(I5920788
I7132675
tp300
a(I5920788
I7220983
tp301
a(I5970336
I6339544
tp302
a(I5970336
I6404665
tp303
a(I5970336
I6429064
tp304
a(I5970336
I6462984
tp305
a(I5970336
I6501111
tp306
a(I5970336
I6511862
tp307
a(I5970336
I6511867
tp308
a(I5970336
I6514805
tp309
a(I5970336
I6534781
tp310
a(I5970336
I6555860
tp311
a(I5970336
I6563156
tp312
a(I5970336
I6563164
tp313
a(I5970336
I6567293
tp314
a(I5970336
I6569705
tp315
a(I5970336
I6570784
tp316
a(I5970336
I6590807
tp317
a(I5970336
I6593176
tp318
a(I5970336
I6597009
tp319
a(I5970336
I6605527
tp320
a(I5970336
I6621095
tp321
a(I5970336
I6625054
tp322
a(I5970336
I6642102
tp323
a(I5970336
I6649928
tp324
a(I5970336
I6667900
tp325
a(I5970336
I6673700
tp326
a(I5970336
I6696355
tp327
a(I5970336
I6707712
tp328
a(I5970336
I6744088
tp329
a(I5970336
I6972430
tp330
a(I5970336
I7033856
tp331
a(I5970336
I7220983
tp332
a(I5985698
I6579760
tp333
a(I5985698
I7220983
tp334
a(I5998244
I6339544
tp335
a(I5998244
I6404665
tp336
a(I5998244
I6429064
tp337
a(I5998244
I6462984
tp338
a(I5998244
I6501111
tp339
a(I5998244
I6511862
tp340
a(I5998244
I6511867
tp341
a(I5998244
I6514805
tp342
a(I5998244
I6534781
tp343
a(I5998244
I6555860
tp344
a(I5998244
I6563156
tp345
a(I5998244
I6563164
tp346
a(I5998244
I6567293
tp347
a(I5998244
I6569705
tp348
a(I5998244
I6570784
tp349
a(I5998244
I6590807
tp350
a(I5998244
I6593176
tp351
a(I5998244
I6597009
tp352
a(I5998244
I6605527
tp353
a(I5998244
I6613604
tp354
a(I5998244
I6621095
tp355
a(I5998244
I6625054
tp356
a(I5998244
I6642102
tp357
a(I5998244
I6649928
tp358
a(I5998244
I6667900
tp359
a(I5998244
I6673700
tp360
a(I5998244
I6696355
tp361
a(I5998244
I6707712
tp362
a(I5998244
I6744088
tp363
a(I5998244
I6800504
tp364
a(I5998244
I7023009
tp365
a(I5998244
I7033856
tp366
a(I5998244
I7220983
tp367
a(I6034882
I6351406
tp368
a(I6034882
I6407953
tp369
a(I6034882
I6420215
tp370
a(I6034882
I6483736
tp371
a(I6034882
I6525953
tp372
a(I6034882
I6579760
tp373
a(I6034882
I6690026
tp374
a(I6034882
I6881994
tp375
a(I6034882
I6888750
tp376
a(I6034882
I6946719
tp377
a(I6034882
I6952030
tp378
a(I6034882
I7220983
tp379
a(I6077729
I6579760
tp380
a(I6077729
I6800504
tp381
a(I6077729
I6850432
tp382
a(I6077729
I6864500
tp383
a(I6077729
I6894304
tp384
a(I6077729
I7132675
tp385
a(I6077729
I7220983
tp386
a(I6104038
I6579760
tp387
a(I6104038
I6800504
tp388
a(I6104038
I6864503
tp389
a(I6104038
I7067865
tp390
a(I6104038
I7220983
tp391
a(I6111264
I6189582
tp392
a(I6111264
I6462353
tp393
a(I6111264
I6512241
tp394
a(I6111264
I6545287
tp395
a(I6111264
I6563156
tp396
a(I6111264
I6579760
tp397
a(I6111264
I6613604
tp398
a(I6111264
I6800504
tp399
a(I6111264
I6864503
tp400
a(I6111264
I6909107
tp401
a(I6111264
I7067865
tp402
a(I6111264
I7220983
tp403
a(I6114713
I6440837
tp404
a(I6114713
I6507061
tp405
a(I6114713
I6579760
tp406
a(I6114713
I6607974
tp407
a(I6114713
I6642102
tp408
a(I6114713
I6800504
tp409
a(I6114713
I7220983
tp410
a(I6117720
I6579760
tp411
a(I6117720
I6800504
tp412
a(I6117720
I6894304
tp413
a(I6117720
I7132675
tp414
a(I6117720
I7220983
tp415
a(I6153890
I6339544
tp416
a(I6153890
I6404665
tp417
a(I6153890
I6429064
tp418
a(I6153890
I6462984
tp419
a(I6153890
I6501111
tp420
a(I6153890
I6511862
tp421
a(I6153890
I6511867
tp422
a(I6153890
I6514805
tp423
a(I6153890
I6534781
tp424
a(I6153890
I6555860
tp425
a(I6153890
I6563156
tp426
a(I6153890
I6563164
tp427
a(I6153890
I6567293
tp428
a(I6153890
I6569705
tp429
a(I6153890
I6570784
tp430
a(I6153890
I6579760
tp431
a(I6153890
I6590807
tp432
a(I6153890
I6593176
tp433
a(I6153890
I6597009
tp434
a(I6153890
I6605527
tp435
a(I6153890
I6621095
tp436
a(I6153890
I6625054
tp437
a(I6153890
I6642102
tp438
a(I6153890
I6649928
tp439
a(I6153890
I6667900
tp440
a(I6153890
I6673700
tp441
a(I6153890
I6696355
tp442
a(I6153890
I6707712
tp443
a(I6153890
I6744088
tp444
a(I6153890
I6800504
tp445
a(I6153890
I6850432
tp446
a(I6153890
I7220983
tp447
a(I6185122
I6525953
tp448
a(I6185122
I6579760
tp449
a(I6185122
I6690026
tp450
a(I6185122
I6850432
tp451
a(I6185122
I6881994
tp452
a(I6185122
I6888750
tp453
a(I6185122
I7220983
tp454
a(I6189582
I6534781
tp455
a(I6189582
I6593176
tp456
a(I6189582
I6605821
tp457
a(I6189582
I6621095
tp458
a(I6189582
I6797979
tp459
a(I6189582
I6800504
tp460
a(I6189582
I7033856
tp461
a(I6189582
I7220983
tp462
a(I6316784
I6800504
tp463
a(I6316784
I6864500
tp464
a(I6316784
I6894304
tp465
a(I6316784
I6936840
tp466
a(I6316784
I7132675
tp467
a(I6351406
I6525953
tp468
a(I6351406
I6579760
tp469
a(I6351406
I6690026
tp470
a(I6391688
I6800504
tp471
a(I6391688
I6864500
tp472
a(I6391688
I6894304
tp473
a(I6391688
I6903362
tp474
a(I6391688
I7132675
tp475
a(I6420215
I6946719
tp476
a(I6420215
I7033856
tp477
a(I6420215
I7220983
tp478
a(I6440837
I6545903
tp479
a(I6440837
I6864500
tp480
a(I6440837
I7132675
tp481
a(I6483736
I6952030
tp482
a(I6483736
I7033856
tp483
a(I6483736
I7220983
tp484
a(I6525953
I6946719
tp485
a(I6525953
I6952030
tp486
a(I6545903
I6909107
tp487
a(I6545903
I7033856
tp488
a(I6545903
I7220983
tp489
a(I6563156
I7033856
tp490
a(I6563156
I7220983
tp491
a(I6607974
I6909107
tp492
a(I6607974
I7033856
tp493
a(I6607974
I7220983
tp494
a(I6864500
I7220983
tp495
a(I5177567
I5406509
tp496
a(I5177567
I5687112
tp497
a(I5177567
I5751012
tp498
a(I5177567
I5761115
tp499
a(I5177567
I5789277
tp500
a(I5177567
I5789758
tp501
a(I5177567
I5814527
tp502
a(I5177567
I5831276
tp503
a(I5177567
I5837564
tp504
a(I5177567
I5841150
tp505
a(I5177567
I5869843
tp506
a(I5177567
I5879955
tp507
a(I5177567
I5896312
tp508
a(I5177567
I5914893
tp509
a(I5177567
I5920788
tp510
a(I5177567
I5952671
tp511
a(I5177567
I5970336
tp512
a(I5177567
I5985698
tp513
a(I5177567
I5998066
tp514
a(I5177567
I5998244
tp515
a(I5177567
I6025220
tp516
a(I5177567
I6031287
tp517
a(I5177567
I6077729
tp518
a(I5177567
I6104038
tp519
a(I5177567
I6111264
tp520
a(I5177567
I6114713
tp521
a(I5177567
I6117720
tp522
a(I5177567
I6153890
tp523
a(I5177567
I6189582
tp524
a(I5177567
I6316784
tp525
a(I5177567
I6391688
tp526
a(I5177567
I6418049
tp527
a(I5177567
I6420725
tp528
a(I5177567
I6440837
tp529
a(I5177567
I6487106
tp530
a(I5177567
I6563156
tp531
a(I5177567
I6566700
tp532
a(I5177567
I6607974
tp533
a(I5177567
I6800504
tp534
a(I5177567
I6864500
tp535
a(I5177567
I6894304
tp536
a(I5177567
I7033856
tp537
a(I5177567
I7132675
tp538
a(I5177567
I7220983
tp539
a(I5543737
I5694054
tp540
a(I5543737
I6555860
tp541
a(I5543737
I6864500
tp542
a(I5543737
I6894304
tp543
a(I6933516
I7220983
tp544
a(I6992925
I7446352
tp545
a(I4843443
I6864500
tp546
a(I4843443
I6894304
tp547
a(I5616506
I5869363
tp548
a(I5616506
I5879977
tp549
a(I5616506
I5888858
tp550
a(I5616506
I5897347
tp551
a(I5616506
I5956579
tp552
a(I5616506
I5985740
tp553
a(I5616506
I6077731
tp554
a(I5616506
I6087679
tp555
a(I5616506
I6303963
tp556
a(I5616506
I6469317
tp557
a(I5616506
I6534380
tp558
a(I5705829
I5869363
tp559
a(I5705829
I5879977
tp560
a(I5705829
I5888858
tp561
a(I5705829
I5897347
tp562
a(I5705829
I5932893
tp563
a(I5705829
I5956579
tp564
a(I5705829
I5985740
tp565
a(I5705829
I6077731
tp566
a(I5705829
I6087679
tp567
a(I5705829
I6239470
tp568
a(I5821138
I5985740
tp569
a(I5821138
I6077731
tp570
a(I5821138
I6118502
tp571
a(I5821138
I6239470
tp572
a(I5821138
I6365933
tp573
a(I5821138
I6372608
tp574
a(I5821138
I6376333
tp575
a(I5821138
I7199024
tp576
a(I5869363
I6365933
tp577
a(I5879977
I6393042
tp578
a(I5888858
I6365933
tp579
a(I5897347
I6165824
tp580
a(I5897347
I6285042
tp581
a(I5897347
I6335541
tp582
a(I5956579
I6285042
tp583
a(I5956579
I6335541
tp584
a(I6077731
I6278131
tp585
a(I4891330
I5933205
tp586
a(I4891330
I6013928
tp587
a(I4891330
I6023075
tp588
a(I4891330
I6198133
tp589
a(I4891330
I6252249
tp590
a(I4891330
I6864500
tp591
a(I4891330
I6894304
tp592
a(I6909114
I7791072
tp593
a(dp594
I7033856
(lp595
Vspacer
p596
aVchalcogenid
p597
aVmemori
p598
aVclaim
p599
aVprogramm
p600
aVdraw
p601
aValloy
p602
aVaspect
p603
aVpresent
p604
aVinvent
p605
asI5849601
(lp606
Velectro
p607
aVthose
p608
aVsubstrat
p609
aVperipher
p610
aVthin
p611
aVdevic
p612
aVfilm
p613
aVoptic
p614
aVcircuit
p615
aVtransistor
p616
asI7132675
(lp617
Vion
p618
aVmetal
p619
aVpathway
p620
aVcell
p621
aVonli
p622
aVanod
p623
aVelectrolyt
p624
aVprogramm
p625
aVmemori
p626
aVconduct
p627
asI6025220
(lp628
sI6525953
(lp629
Vpillar
p630
aVfuse
p631
aVdiod
p632
aVanti
p633
aVconductor
p634
aVmemori
p635
aVlayer
p636
aVprogramm
p637
aVcross
p638
aVfield
p639
asI6462984
(lp640
Vwordlin
p641
aVbitlin
p642
aVunselect
p643
aVfloat
p644
aVcell
p645
aVprogram
p646
aVmemori
p647
aVnumber
p648
aVscheme
p649
aVdiod
p650
asI6933516
(lp651
Vtaper
p652
aVelectrod
p653
aVdope
p654
aVetch
p655
aVlower
p656
aVwordlin
p657
aVisotrop
p658
aVcoat
p659
aVphase
p660
aVmemori
p661
asI6189582
(lp662
Vchalcogenid
p663
aVphotolithograph
p664
aVpore
p665
aVsmall
p666
aVelectrod
p667
aVmemori
p668
aVdeposit
p669
aVlimit
p670
aVcell
p671
aVarea
p672
asI6117720
(lp673
sI5696003
(lp674
Vsilicon
p675
aVamorph
p676
aVcatalyst
p677
aVfilm
p678
aVisland
p679
aVintroduc
p680
aVcrystal
p681
aVcrystallin
p682
aVpattern
p683
aVelement
p684
asI5920788
(lp685
Vchalcogenid
p686
aVpore
p687
aVelectrod
p688
aVcell
p689
aVmemori
p690
aVupper
p691
aVdielectr
p692
aVboth
p693
aVlower
p694
aVlayer
p695
asI4678679
(lp696
Vdeposit
p697
aVpercursor
p698
aVuncontamin
p699
aVtetrahedr
p700
aVdensiti
p701
aVenerget
p702
aVcontinu
p703
aVstate
p704
aVgas
p705
aVsemiconductor
p706
asI6744088
(lp707
Vphase
p708
aVchang
p709
aVmateri
p710
aVadhes
p711
aVmemori
p712
aVplanar
p713
aVelectrod
p714
aVinsul
p715
aVbriefli
p716
aVportion
p717
asI6690026
(lp718
Vplane
p719
aVsubstrat
p720
aVjunction
p721
aVchannel
p722
aVcircuitri
p723
aVmedia
p724
aVform
p725
aVover
p726
aVcoupl
p727
aVlength
p728
asI6992925
(lp729
Vwordlin
p730
aVbitlin
p731
aVcolumn
p732
aVtransistor
p733
aVrow
p734
aVmemori
p735
aVburi
p736
aVcounterdop
p737
aVcell
p738
aVdiffus
p739
asI4217374
(lp740
Vamorph
p741
aVfilm
p742
aVsemiconductor
p743
aVlike
p744
aVcrystallin
p745
aVphotoconduct
p746
aVdopant
p747
aVevacu
p748
aVfluorin
p749
aVsolar
p750
asI6111264
(lp751
Vpore
p752
aVchalcogenid
p753
aVultra
p754
aVsmall
p755
aVfabric
p756
aVspacer
p757
aV4000
p758
aVdefin
p759
aVangstrom
p760
aVcell
p761
asI4668968
(lp762
Vtransistor
p763
aVgermanium
p764
aVcompat
p765
aVmateri
p766
aVthin
p767
aVrate
p768
aVfield
p769
aVfilm
p770
aVsemiconductor
p771
aVorder
p772
asI6351406
(lp773
Varray
p774
aVvertic
p775
aVprogramm
p776
aVmemori
p777
aVmask
p778
aVsubstrat
p779
aVphotolithograph
p780
aVfabric
p781
aVfield
p782
aVabov
p783
asI5070384
(lp784
Vantifus
p785
aVamorph
p786
aVdielectr
p787
aVinterlay
p788
aVtungsten
p789
aVtopmost
p790
aVtitanium
p791
aVsilicon
p792
aVlayer
p793
aVrefractori
p794
asI6909107
(lp795
Vchalcogenid
p796
aVlayer
p797
aVconduct
p798
aVoxid
p799
aVdeposit
p800
aVsidewal
p801
aVfirst
p802
aVtop
p803
aVopen
p804
aVetch
p805
asI4363828
(lp806
Vglow
p807
aVdisilan
p808
aVdischarg
p809
aVsub
p810
aVsilan
p811
aVsilicon
p812
aVdeposit
p813
aVtrisilan
p814
aVamorph
p815
aVfilm
p816
asI6335541
(lp817
Vamorph
p818
aVfilm
p819
aVcrystal
p820
aVsilicon
p821
aVsemiconductor
p822
aVacceler
p823
aVthereaft
p824
aVreliabl
p825
aVstabl
p826
aVcatalyst
p827
asI6404665
(lp828
Vmateri
p829
aVvolum
p830
aVresist
p831
aVmemori
p832
aVconductor
p833
aVelectrod
p834
aVvalu
p835
aVgaseous
p836
aVdispos
p837
aVambient
p838
asI5789758
(lp839
Vchalcogenid
p840
aVpore
p841
aVelectrod
p842
aVcell
p843
aVmemori
p844
aVupper
p845
aVdielectr
p846
aVboth
p847
aVlower
p848
aVlayer
p849
asI6903362
(lp850
Vswitch
p851
aVconduct
p852
aVelement
p853
aVelectromagnet
p854
aVcircuit
p855
aVsubstrat
p856
aVphase
p857
aVimped
p858
aVcompon
p859
aVradiat
p860
asI6649928
(lp861
Velectrod
p862
aVside
p863
aVdielectr
p864
aVlower
p865
aVoverli
p866
aVphase
p867
aVsecond
p868
aVfirst
p869
aVmemori
p870
aVchang
p871
asI6972430
(lp872
Vsublithograph
p873
aVconduct
p874
aVregion
p875
aVdimens
p876
aVfirst
p877
aVcontact
p878
aVthin
p879
aVshape
p880
aVelong
p881
aVsecond
p882
asI5761115
(lp883
Vdendrit
p884
aVpmc
p885
aVanod
p886
aVcathod
p887
aVion
p888
aVconductor
p889
aVfast
p890
aVchalcogenid
p891
aVprogramm
p892
aVmetal
p893
asI5789277
(lp894
Vchalcogenid
p895
aVchalogenid
p896
aVmemori
p897
aVultra
p898
aVpore
p899
aV4000
p900
aVsmall
p901
aVangstrom
p902
aV500
p903
aVspacer
p904
asI6952030
(lp905
Vmemori
p906
aVconductor
p907
aVcell
p908
aVsemiconductor
p909
aVdimension
p910
aVantifus
p911
aVdensiti
p912
aVelement
p913
aVthree
p914
aVstone
p915
asI4499557
(lp916
Vcell
p917
aVprogramm
p918
aVarray
p919
aVcentigrad
p920
aVstate
p921
aVconduct
p922
aVohm
p923
aVsettabl
p924
aVless
p925
aVdopant
p926
asI5893730
(lp927
Vfilm
p928
aVcrystal
p929
aVcrystallin
p930
aVsemiconductor
p931
aVsilicon
p932
aVthin
p933
aVmonodomain
p934
aVconvex
p935
aVconcav
p936
aVlight
p937
asI6613604
(lp938
Vpore
p939
aVprogramm
p940
aVresist
p941
aVmemori
p942
aVchalcogenid
p943
aVsmall
p944
aVmake
p945
aVfabric
p946
aVdefin
p947
aVelement
p948
asI5705829
(lp949
Vcrystal
p950
aVcrystallin
p951
aVsemiconductor
p952
aVcatalyst
p953
aVfilm
p954
aVgrowth
p955
aVdesir
p956
aVmetal
p957
aVelement
p958
aVdevic
p959
asI6607974
(lp960
Vcontact
p961
aVstructur
p962
aVfacet
p963
aVlithograph
p964
aVsuscept
p965
aVtitanium
p966
aVdeviat
p967
aVgreat
p968
aVnitrid
p969
aVembodi
p970
asI5831276
(lp971
Vdiod
p972
aVmulti
p973
aVstate
p974
aVmemori
p975
aVchalcogenid
p976
aVsilicon
p977
aVvertic
p978
aVcell
p979
aVcontain
p980
aVmay
p981
asI6512241
(lp982
Vphase
p983
aVgeometr
p984
aVelectrod
p985
aVchang
p986
aVlower
p987
aVveri
p988
aVmay
p989
aVclose
p990
aVmateri
p991
aVbisect
p992
asI6864500
(lp993
Vion
p994
aVmetal
p995
aVpathway
p996
aVcell
p997
aVonli
p998
aVanod
p999
aVelectrolyt
p1000
aVprogramm
p1001
aVmemori
p1002
aVconduct
p1003
asI5859445
(lp1004
Vspoil
p1005
aVtransistor
p1006
aVimpur
p1007
aVelectro
p1008
aVthin
p1009
aVthereupon
p1010
aVimpair
p1011
aVfilm
p1012
aVchannel
p1013
aVregion
p1014
asI6864503
(lp1015
Vspacer
p1016
aVchalcogenid
p1017
aVmemori
p1018
aVclaim
p1019
aVprogramm
p1020
aVdraw
p1021
aValloy
p1022
aVdevic
p1023
aVaspect
p1024
aVpresent
p1025
asI6800504
(lp1026
Vchalcogenid
p1027
aVdope
p1028
aVlayer
p1029
aVmetal
p1030
aVsputter
p1031
aVplasma
p1032
aVsitu
p1033
aVconcurr
p1034
aVdiffus
p1035
aVinduc
p1036
asI6667900
(lp1037
Vmemori
p1038
aVcell
p1039
aVunselect
p1040
aVbriefli
p1041
aVread
p1042
aVzero
p1043
aVbias
p1044
aVphase
p1045
aVapparatus
p1046
aVchang
p1047
asI6534781
(lp1048
Vsalicid
p1049
aVtrench
p1050
aVmemori
p1051
aVarray
p1052
aVform
p1053
aVphase
p1054
aVelectrod
p1055
aVsingl
p1056
aVshallow
p1057
aVchang
p1058
asI6393042
(lp1059
Vbeam
p1060
aVcylindr
p1061
aVlen
p1062
aVhomogen
p1063
aVlinear
p1064
aVdivid
p1065
aVirradi
p1066
aVcondens
p1067
aVgroup
p1068
aVlaser
p1069
asI6418049
(lp1070
Vdendrit
p1071
aVion
p1072
aVpsam
p1073
aVcathod
p1074
aVmetal
p1075
aVconductor
p1076
aVanod
p1077
aVvoltag
p1078
aVchalcogenid
p1079
aVsructur
p1080
asI5897347
(lp1081
Vplatinum
p1082
aVcobalt
p1083
aVamorph
p1084
aVnickel
p1085
aVfilm
p1086
aVsilicon
p1087
aViron
p1088
aVcrystal
p1089
aVsemiconductor
p1090
aVfabric
p1091
asI5835396
(lp1092
Vmemori
p1093
aVplurar
p1094
aVprogramm
p1095
aVelement
p1096
aVlevel
p1097
aVdimension
p1098
aVread
p1099
aVthree
p1100
aVonli
p1101
aVpartit
p1102
asI4823181
(lp1103
Vimped
p1104
aVlow
p1105
aVprogramm
p1106
aVsilicon
p1107
aVdioxid
p1108
aVlayer
p1109
aVelectrod
p1110
aVelement
p1111
aVprogram
p1112
aVsemiconductor
p1113
asI6501111
(lp1114
Vmemori
p1115
aVchalcogenid
p1116
aVpolysilicon
p1117
aVcell
p1118
aVdiod
p1119
aVdimension
p1120
aVisol
p1121
aVfabric
p1122
aVthree
p1123
aVdevic
p1124
asI5879955
(lp1125
Vpore
p1126
aVlayer
p1127
aVchalcogenid
p1128
aVmateri
p1129
aVfirst
p1130
aVarray
p1131
aVdefin
p1132
aVthen
p1133
aVfix
p1134
aVultra
p1135
asI5933205
(lp1136
Vtft
p1137
aVelectro
p1138
aVelectrod
p1139
aVtfts
p1140
aVcommon
p1141
aVgate
p1142
aVoptic
p1143
aVline
p1144
aVcomplementari
p1145
aVpictur
p1146
asI5241496
(lp1147
Vwordlin
p1148
aVbitlin
p1149
aVjunction
p1150
aVarray
p1151
aVcell
p1152
aVpitch
p1153
aVvoltag
p1154
aVeacch
p1155
aVpair
p1156
aVfield
p1157
asI6797979
(lp1158
Vchalcogenid
p1159
aVdamascen
p1160
aVmemori
p1161
aVstructur
p1162
aVcell
p1163
aVsimplifi
p1164
aVvolatil
p1165
aVprevious
p1166
aVfabric
p1167
aVphase
p1168
asI5952671
(lp1169
Vchalcogenid
p1170
aVphotolithograph
p1171
aVpore
p1172
aVsmall
p1173
aVelectrod
p1174
aVmemori
p1175
aVdeposit
p1176
aVlimit
p1177
aVcell
p1178
aVarea
p1179
asI6185122
(lp1180
Varray
p1181
aVvertic
p1182
aVprogramm
p1183
aVmemori
p1184
aVmask
p1185
aVsubstrat
p1186
aVphotolithograph
p1187
aVfabric
p1188
aVfield
p1189
aVabov
p1190
asI5998244
(lp1191
Vchalcogenid
p1192
aVnitrid
p1193
aVsilicon
p1194
aVlayer
p1195
aVplug
p1196
aVcell
p1197
aVmemori
p1198
aVtin
p1199
aVpolysilicon
p1200
aVpore
p1201
asI5879977
(lp1202
Vamorph
p1203
aVsilicon
p1204
aVcrystal
p1205
aVtemperatur
p1206
aVanneal
p1207
aVfilm
p1208
aVlike
p1209
aVfabric
p1210
aVdegre
p1211
aVisland
p1212
asI6800563
(lp1213
Vtaper
p1214
aVelectrod
p1215
aVdope
p1216
aVetch
p1217
aVlower
p1218
aVwordlin
p1219
aVisotrop
p1220
aVcoat
p1221
aVphase
p1222
aVmemori
p1223
asI6638772
(lp1224
Velectrod
p1225
aVtest
p1226
aVelectrochem
p1227
aVanalyt
p1228
aVamorph
p1229
aVrefer
p1230
aVwork
p1231
aVconcentr
p1232
aVsampl
p1233
aVdevic
p1234
asI6625054
(lp1235
Vmlc
p1236
aVbriefli
p1237
aVprogram
p1238
aVphase
p1239
aVchang
p1240
aVmulti
p1241
aVapparatus
p1242
aVcell
p1243
aVmemori
p1244
aVlevel
p1245
asI6909114
(lp1246
Vgate
p1247
aVimpur
p1248
aVelectrod
p1249
aVregion
p1250
aVtype
p1251
aVkind
p1252
aVsemiconductor
p1253
aVoverlap
p1254
aVldd
p1255
aVphosphorus
p1256
asI6881994
(lp1257
Vmonolith
p1258
aVplanar
p1259
aVdimension
p1260
aVcharg
p1261
aVarray
p1262
aVthree
p1263
aVstorag
p1264
aVlevel
p1265
aVdevic
p1266
aVpolish
p1267
asI6514805
(lp1268
Vtrench
p1269
aVretrograd
p1270
aVsidewal
p1271
aVprofil
p1272
aVintersect
p1273
aVmatrix
p1274
aVsubstrat
p1275
aVplural
p1276
aVsecond
p1277
aVbottom
p1278
asI4891330
(lp1279
Vmicrocrystallin
p1280
aVglow
p1281
aVcyclotron
p1282
aVdischarg
p1283
aVfabric
p1284
aVwiden
p1285
aVdiluent
p1286
aVsemiconductor
p1287
aVtype
p1288
aVprecursor
p1289
asI6674115
(lp1290
Vchang
p1291
aVphase
p1292
aVlayer
p1293
aVphrase
p1294
aVmemori
p1295
aVadequ
p1296
aVstill
p1297
aVbarrier
p1298
aVreduct
p1299
aVvolum
p1300
asI6469317
(lp1301
Vgate
p1302
aVconduct
p1303
aVlayer
p1304
aVelectrod
p1305
aVoverlap
p1306
aVregion
p1307
aVldd
p1308
aVtfts
p1309
aVfeatur
p1310
aVwire
p1311
asI4637895
(lp1312
Vmixtur
p1313
aVprecursor
p1314
aVgaseous
p1315
aVphotodegrad
p1316
aVnarrow
p1317
aVsemiconductor
p1318
aVband
p1319
aVgap
p1320
aVdeposit
p1321
aVglow
p1322
asI6627530
(lp1323
Vline
p1324
aVpattern
p1325
aVsignal
p1326
aVdimension
p1327
aVchemistri
p1328
aVcircuit
p1329
aVthree
p1330
aVetch
p1331
aVangl
p1332
aVsecond
p1333
asI7374544
(lp1334
Vtissu
p1335
aVpenetr
p1336
aVsite
p1337
aVmember
p1338
aVfluid
p1339
aVanalyt
p1340
aVforc
p1341
aVsampl
p1342
aVgenerat
p1343
aVout
p1344
asI5896312
(lp1345
Vdendrit
p1346
aVpmc
p1347
aVanod
p1348
aVcathod
p1349
aVion
p1350
aVconductor
p1351
aVfast
p1352
aVchalcogenid
p1353
aVprogramm
p1354
aVmetal
p1355
asI5821138
(lp1356
Vfilm
p1357
aVsilicon
p1358
aVinsul
p1359
aVamorph
p1360
aVcrystallin
p1361
aVseal
p1362
aVsubstrat
p1363
aVcrystal
p1364
aVfirst
p1365
aVtransistor
p1366
asI6689492
(lp1367
Vsmnr
p1368
aVafc
p1369
aVmedium
p1370
aVferromagnet
p1371
aVelectro
p1372
aVanti
p1373
aVnois
p1374
aVstabil
p1375
aVratio
p1376
aVthermal
p1377
asI6707712
(lp1378
Vcell
p1379
aVlevel
p1380
aVrais
p1381
aVprogram
p1382
aVvoltag
p1383
aVbitlin
p1384
aVcurrent
p1385
aVread
p1386
aVthreshold
p1387
aVthen
p1388
asI6579760
(lp1389
Vline
p1390
aVword
p1391
aVmemori
p1392
aVself
p1393
aVbit
p1394
aValign
p1395
aVphase
p1396
aVintersect
p1397
aVcell
p1398
aVchang
p1399
asI6252249
(lp1400
Vcluster
p1401
aVcrystallin
p1402
aVsilicon
p1403
aVsemiconductor
p1404
aVgrain
p1405
aVboundari
p1406
aVanchor
p1407
aVdevic
p1408
aVtherebetween
p1409
aVinsul
p1410
asI4881114
(lp1411
Vlayer
p1412
aVsilicon
p1413
aVdioxid
p1414
aVdiod
p1415
aVformabl
p1416
aVcover
p1417
aVsemiconductor
p1418
aVconduct
p1419
aVtype
p1420
aVnitrid
p1421
asI6303963
(lp1422
Vtft
p1423
aVfluctuat
p1424
aVsemiconductor
p1425
aVcircuit
p1426
aVcharacterist
p1427
aVcatalyt
p1428
aVfilm
p1429
aVsubthreshold
p1430
aVform
p1431
aVapt
p1432
asI6118502
(lp1433
Vcircuit
p1434
aVdisplay
p1435
aVdriver
p1436
aVsubstrat
p1437
aVheretofor
p1438
aVmatrix
p1439
aVdevic
p1440
aVcog
p1441
aVcrystal
p1442
aVelectroopt
p1443
asI5177567
(lp1444
Vchalcogenid
p1445
aVthin
p1446
aVswitch
p1447
aVinsul
p1448
aVmateri
p1449
aVfilament
p1450
aVart
p1451
aVbeen
p1452
aVlayer
p1453
aVstructur
p1454
asI6894304
(lp1455
Vpcram
p1456
aVcell
p1457
aVcommon
p1458
aVanod
p1459
aVthem
p1460
aVread
p1461
aVaccess
p1462
aVtwo
p1463
aVmemori
p1464
aVwritten
p1465
asI5751012
(lp1466
Vmemori
p1467
aVdiod
p1468
aVdigitlin
p1469
aVpillar
p1470
aVpolysilicon
p1471
aVcell
p1472
aVwordlin
p1473
aVmatrix
p1474
aVdeliv
p1475
aVdispos
p1476
asI5084905
(lp1477
Vdiffus
p1478
aVfilm
p1479
aVelectrod
p1480
aVinsul
p1481
aVmetal
p1482
aVsaid
p1483
aVtransistor
p1484
aVthin
p1485
aVpixel
p1486
aVgate
p1487
asI6501098
(lp1488
Vtft
p1489
aVgate
p1490
aVelectrod
p1491
aVsubregion
p1492
aVoverlap
p1493
aVbesid
p1494
aVchannel
p1495
aVmitig
p1496
aVregion
p1497
aVclad
p1498
asI6534380
(lp1499
Vcontamin
p1500
aVsubstrat
p1501
aVprotect
p1502
aVsemiconductor
p1503
aVbond
p1504
aVfilm
p1505
aVstep
p1506
aVimplant
p1507
aVion
p1508
aVeven
p1509
asI6365933
(lp1510
Vsemiconductor
p1511
aVcrystal
p1512
aVcrystallin
p1513
aVgetter
p1514
aVelement
p1515
aVcarri
p1516
aVmosfet
p1517
aVmanufactur
p1518
aVdevic
p1519
aVout
p1520
asI6239470
(lp1521
Vfilm
p1522
aVtransistor
p1523
aVthin
p1524
aVmask
p1525
aVmatrix
p1526
aVresin
p1527
aV114
p1528
aVmateri
p1529
aVluminesc
p1530
aVblack
p1531
asI6567293
(lp1532
Vconductor
p1533
aVphase
p1534
aVchang
p1535
aVelectrod
p1536
aVintroduc
p1537
aVmateri
p1538
aVchalcogenid
p1539
aVvolum
p1540
aVover
p1541
aVcoupl
p1542
asI6316784
(lp1543
Vchalcogenid
p1544
aVmemori
p1545
aVultra
p1546
aVpore
p1547
aV4000
p1548
aVsmall
p1549
aVangstrom
p1550
aV500
p1551
aVspacer
p1552
aVelement
p1553
asI6285042
(lp1554
Vamorph
p1555
aVmatri
p1556
aVfilm
p1557
aVsilicon
p1558
aVcrystal
p1559
aVacceler
p1560
aVthereaft
p1561
aVreliabl
p1562
aVstabl
p1563
aVcatalyst
p1564
asI6420725
(lp1565
Vplug
p1566
aVdielectr
p1567
aVmemori
p1568
aVcontact
p1569
aVspacer
p1570
aVrecess
p1571
aVvolum
p1572
aVopen
p1573
aVelement
p1574
aVform
p1575
asI6511862
(lp1576
Vcontact
p1577
aVprogramm
p1578
aVaspect
p1579
aVmodifi
p1580
aVreprogram
p1581
aVopen
p1582
aVform
p1583
aVmateri
p1584
aVspacer
p1585
aVplasma
p1586
asI7220983
(lp1587
Vchalcogenid
p1588
aVmemori
p1589
aVphase
p1590
aVchang
p1591
aVsmall
p1592
aVclaim
p1593
aVparticular
p1594
aVcontact
p1595
aVaffect
p1596
aVdraw
p1597
asI6555860
(lp1598
Vcoeffici
p1599
aVelectrod
p1600
aVresist
p1601
aVvolum
p1602
aVthermal
p1603
aVmemori
p1604
aVconductor
p1605
aVmodifi
p1606
aVmateri
p1607
aVportion
p1608
asI5694054
(lp1609
Vchalcogenid
p1610
aVlogic
p1611
aVdriver
p1612
aVgate
p1613
aVdisplay
p1614
aVrow
p1615
aVcolumn
p1616
aVthreshold
p1617
aVflat
p1618
aVpanel
p1619
asI6511867
(lp1620
Vprogramm
p1621
aVald
p1622
aVdeposit
p1623
aVaspect
p1624
aVconform
p1625
aVelectrod
p1626
aVutil
p1627
aVdielectr
p1628
aVatom
p1629
aVreprogram
p1630
asI5837564
(lp1631
Vchalcogenid
p1632
aVamorph
p1633
aVgeometri
p1634
aVfinal
p1635
aVmateri
p1636
aVanneal
p1637
aVcrystallin
p1638
aVthen
p1639
aVit
p1640
aVlayer
p1641
asI5841150
(lp1642
Vdiod
p1643
aVlarg
p1644
aVvertic
p1645
aVmemori
p1646
aVmuti
p1647
aVtrench
p1648
aVcurrent
p1649
aVdeliv
p1650
aVstack
p1651
aVtall
p1652
asI5814527
(lp1653
Vpore
p1654
aVchalcogenid
p1655
aVultra
p1656
aVsmall
p1657
aVfabric
p1658
aVspacer
p1659
aV4000
p1660
aVdefin
p1661
aVangstrom
p1662
aVcell
p1663
asI6372608
(lp1664
Vlayer
p1665
aVthin
p1666
aVtransfer
p1667
aVsepar
p1668
aVfilm
p1669
aVstep
p1670
aVsubstrat
p1671
aVexfoli
p1672
aVinterfaci
p1673
aVdevic
p1674
asI6936840
(lp1675
Vlayer
p1676
aVstencil
p1677
aVphase
p1678
aVcell
p1679
aVmemori
p1680
aVchang
p1681
aVinsul
p1682
aVelectrod
p1683
aVopen
p1684
aVfirst
p1685
asI4064521
(lp1686
Vamorph
p1687
aVsilicon
p1688
aVglow
p1689
aVsilan
p1690
aVsemiconductor
p1691
aVbodi
p1692
aVdischarg
p1693
aVfabric
p1694
aVutil
p1695
aVdevic
p1696
asI6605527
(lp1697
Vdielectr
p1698
aVcontact
p1699
aVarea
p1700
aVelectrod
p1701
aVspacer
p1702
aVprogramm
p1703
aVvolum
p1704
aVlayer
p1705
aVmateri
p1706
aVconductor
p1707
asI5914893
(lp1708
Vdendrit
p1709
aVpmc
p1710
aVanod
p1711
aVcathod
p1712
aVion
p1713
aVconductor
p1714
aVfast
p1715
aVchalcogenid
p1716
aVprogramm
p1717
aVmetal
p1718
asI6407953
(lp1719
Vline
p1720
aVword
p1721
aVbit
p1722
aVtest
p1723
aVmemori
p1724
aVfar
p1725
aVintra
p1726
aVshort
p1727
aVcell
p1728
aVdetect
p1729
asI5869843
(lp1730
Vmemori
p1731
aVarray
p1732
aVchalcogenid
p1733
aVelectrod
p1734
aVarea
p1735
aVdielectr
p1736
aVvolum
p1737
aVdeposit
p1738
aVlayer
p1739
aVcontinu
p1740
asI7067865
(lp1741
Vchalcogenid
p1742
aVmemori
p1743
aVcell
p1744
aValloy
p1745
aVcreat
p1746
aVvolatil
p1747
aVelectrod
p1748
aVwall
p1749
aVmatrix
p1750
aVaddress
p1751
asI6483736
(lp1752
Varray
p1753
aVvertic
p1754
aVprogramm
p1755
aVmemori
p1756
aVmask
p1757
aVsubstrat
p1758
aVphotolithograph
p1759
aVfabric
p1760
aVfield
p1761
aVabov
p1762
asI6576926
(lp1763
Vldd
p1764
aVtft
p1765
aV719
p1766
aV717
p1767
aV707
p1768
aV718
p1769
aV720
p1770
aVregion
p1771
aV804
p1772
aVoverlap
p1773
asI6440837
(lp1774
Vcontact
p1775
aVstructur
p1776
aVfacet
p1777
aVlithograph
p1778
aVsuscept
p1779
aVtitanium
p1780
aVdeviat
p1781
aVgreat
p1782
aVnitrid
p1783
aVembodi
p1784
asI6570784
(lp1785
Vstate
p1786
aVmateri
p1787
aVcell
p1788
aVpuls
p1789
aVchang
p1790
aVchalcogenid
p1791
aVrelat
p1792
aVphase
p1793
aVresist
p1794
aVhas
p1795
asI6077729
(lp1796
Vmemori
p1797
aVarray
p1798
aVchalcogenid
p1799
aVelectrod
p1800
aVarea
p1801
aVdielectr
p1802
aVvolum
p1803
aVdeposit
p1804
aVlayer
p1805
aVcontinu
p1806
asI6077731
(lp1807
Vsilicon
p1808
aVfilm
p1809
aVcrystal
p1810
aVoxid
p1811
aVamorph
p1812
aVelimin
p1813
aVthermal
p1814
aVmetal
p1815
aVpromot
p1816
aVelement
p1817
asI6673700
(lp1818
Vsacrifici
p1819
aVarea
p1820
aVlayer
p1821
aVspacer
p1822
aVcontact
p1823
aVprogramm
p1824
aVedg
p1825
aVover
p1826
aVvolum
p1827
aVportion
p1828
asI4670763
(lp1829
Vtransistor
p1830
aVmateri
p1831
aVsilicon
p1832
aVfield
p1833
aVfilm
p1834
aVsemiconductor
p1835
aVorder
p1836
aVrectifi
p1837
aVeffect
p1838
aVamorph
p1839
asI6566700
(lp1840
Vinterfaci
p1841
aVphase
p1842
aVchang
p1843
aVcarbon
p1844
aVlayer
p1845
aVmateri
p1846
aVmay
p1847
aVmemori
p1848
aVcontain
p1849
aVcarbid
p1850
asI5406509
(lp1851
Vfilamentari
p1852
aVmemori
p1853
aVmultibit
p1854
aVelement
p1855
aVelectr
p1856
aVsingl
p1857
aVcell
p1858
aVdynam
p1859
aVresist
p1860
aVoverwrit
p1861
asI6888750
(lp1862
Vnonvolatil
p1863
aVsubstrat
p1864
aVdriver
p1865
aVarray
p1866
aVmemori
p1867
aVsilicon
p1868
aVmonocrystallin
p1869
aVcircuit
p1870
aVsoi
p1871
aVsemiconductor
p1872
asI7199024
(lp1873
Vsilicon
p1874
aVisland
p1875
aVsoi
p1876
aVcrystal
p1877
aVeltran
p1878
aVtrap
p1879
aVdefect
p1880
aVfilm
p1881
aVsingl
p1882
aVthin
p1883
asI6429064
(lp1884
Vchalcogenid
p1885
aVsidewal
p1886
aVcontact
p1887
aVmateri
p1888
aVleg
p1889
aValong
p1890
aVtrench
p1891
aVelement
p1892
aVmemori
p1893
aVact
p1894
asI5869363
(lp1895
Vcrystallin
p1896
aVsilicon
p1897
aVfilm
p1898
aVheat
p1899
aVnickel
p1900
aVtreatment
p1901
aVconduct
p1902
aVhcl
p1903
aVgetter
p1904
aVelement
p1905
asI5543737
(lp1906
Vchalcogenid
p1907
aVlogic
p1908
aVswitch
p1909
aVemploy
p1910
aVtermin
p1911
aVclock
p1912
aVphase
p1913
aVfamili
p1914
aVtwo
p1915
aVfour
p1916
asI6507061
(lp1917
Vphase
p1918
aVchang
p1919
aVlayer
p1920
aVmemori
p1921
aVadequ
p1922
aVstill
p1923
aVbarrier
p1924
aVreduct
p1925
aVvolum
p1926
aVthermal
p1927
asI6165824
(lp1928
Vcoincid
p1929
aVnickel
p1930
aVtft
p1931
aVregion
p1932
aVmove
p1933
aVgrowth
p1934
aV303
p1935
aV301
p1936
aV302
p1937
aV109
p1938
asI7791072
(lp1939
Vtransistor
p1940
aVfield
p1941
aVdisplay
p1942
aVactiv
p1943
aVlight
p1944
aVeffect
p1945
aVamorph
p1946
aVmatrix
p1947
aVcontrol
p1948
aVdevic
p1949
asI5687112
(lp1950
Vmultibit
p1951
aVmemori
p1952
aVtaper
p1953
aVelement
p1954
aVcontact
p1955
aVchalcogenid
p1956
aVoverwrit
p1957
aVsingl
p1958
aVcell
p1959
aVhelp
p1960
asI6376333
(lp1961
Vfilm
p1962
aVsilicon
p1963
aVinsul
p1964
aVamorph
p1965
aVcrystallin
p1966
aVseal
p1967
aVsubstrat
p1968
aVcrystal
p1969
aVfirst
p1970
aVtransistor
p1971
asI7446352
(lp1972
Vlinear
p1973
aVgate
p1974
aVelectrod
p1975
aVtrack
p1976
aVregion
p1977
aVdiffus
p1978
aVsubstrat
p1979
aVsegment
p1980
aVdefin
p1981
aVsemiconductor
p1982
asI5529937
(lp1983
Vanneal
p1984
aVfilm
p1985
aVcrystal
p1986
aVsilicon
p1987
aVray
p1988
aVintens
p1989
aVradiat
p1990
aVnickel
p1991
aVoxid
p1992
aVdope
p1993
asI4226898
(lp1994
Vamorph
p1995
aVsemiconductor
p1996
aValter
p1997
aVfilm
p1998
aVelement
p1999
aVcrystallin
p2000
aVleast
p2001
aVdeposit
p2002
aVglow
p2003
aVphotoconduct
p2004
asI6563156
(lp2005
Vcontact
p2006
aVfacet
p2007
aVlithograph
p2008
aVsuscept
p2009
aVmemori
p2010
aVtitanium
p2011
aVdeviat
p2012
aVgreat
p2013
aVnitrid
p2014
aVembodi
p2015
asI6590807
(lp2016
Vcell
p2017
aVlevel
p2018
aVrais
p2019
aVprogram
p2020
aVvoltag
p2021
aVbitlin
p2022
aVcurrent
p2023
aVread
p2024
aVthreshold
p2025
aVthen
p2026
asI4748490
(lp2027
Vnonrefractori
p2028
aVnonconduct
p2029
aVlayer
p2030
aVrefractori
p2031
aVantifus
p2032
aVbipolr
p2033
aVword
p2034
aVconduct
p2035
aVmetal
p2036
aViniti
p2037
asI5888858
(lp2038
Vfilm
p2039
aVcrystal
p2040
aVsilicon
p2041
aVoxid
p2042
aVcrystalin
p2043
aVthermal
p2044
aVnickel
p2045
aVtreatment
p2046
aVelement
p2047
aVobtain
p2048
asI6563164
(lp2049
Vmateri
p2050
aVvolum
p2051
aVresist
p2052
aVmemori
p2053
aVconductor
p2054
aVelectrod
p2055
aVvalu
p2056
aVgaseous
p2057
aVdispos
p2058
aVambient
p2059
asI5932893
(lp2060
Vcrystal
p2061
aVtft
p2062
aVsilicon
p2063
aVnickel
p2064
aVdirect
p2065
aVgrowth
p2066
aVpolycrystallin
p2067
aVproceed
p2068
aVanneal
p2069
aVhelp
p2070
asI6597009
(lp2071
Vchalcogenid
p2072
aVsidewal
p2073
aVcontact
p2074
aVmateri
p2075
aVleg
p2076
aValong
p2077
aVtrench
p2078
aVelement
p2079
aVmemori
p2080
aVact
p2081
asI6198133
(lp2082
Vchip
p2083
aVcircuit
p2084
aVsubstrat
p2085
aVmatrix
p2086
aVcog
p2087
aVtfts
p2088
aVwire
p2089
aVfilm
p2090
aVlike
p2091
aVsemiconductor
p2092
asI6569705
(lp2093
Vchalcogenid
p2094
aVdamascen
p2095
aVmemori
p2096
aVstructur
p2097
aVcell
p2098
aVsimplifi
p2099
aVvolatil
p2100
aVprevious
p2101
aVfabric
p2102
aVphase
p2103
asI6512504
(lp2104
Vtft
p2105
aVldd
p2106
aVprimarili
p2107
aV15d
p2108
aV19b
p2109
aVintend
p2110
aV19a
p2111
aVoverlap
p2112
aVcurrent
p2113
aVreliabl
p2114
asI5616506
(lp2115
Vtft
p2116
aVcrystal
p2117
aVsilicon
p2118
aVrough
p2119
aVfilm
p2120
aVcurrent
p2121
aVdrain
p2122
aVmanufactur
p2123
aVdirect
p2124
aVanneal
p2125
asI5851882
(lp2126
Vzprom
p2127
aVthin
p2128
aVmanufactur
p2129
aVcompetit
p2130
aVdesign
p2131
aVdens
p2132
aVcmos
p2133
aVextrem
p2134
aVcompat
p2135
aVspacer
p2136
asI6850432
(lp2137
Vmemori
p2138
aVread
p2139
aVelectr
p2140
aVdisk
p2141
aVcircuit
p2142
aVhungri
p2143
aVsimpl
p2144
aVoptic
p2145
aVchalcogenid
p2146
aVpower
p2147
asI4899205
(lp2148
Vfuse
p2149
aVanti
p2150
aVprogram
p2151
aVarsenic
p2152
aVlow
p2153
aVelectrod
p2154
aVimped
p2155
aVlayer
p2156
aVprogramm
p2157
aVdielectr
p2158
asI6545287
(lp2159
Vdeposit
p2160
aVpore
p2161
aVselect
p2162
aVphase
p2163
aVpromot
p2164
aVelectrod
p2165
aVmemori
p2166
aVchang
p2167
aVlower
p2168
aVadhes
p2169
asI6391688
(lp2170
Vpore
p2171
aVlayer
p2172
aVchalcogenid
p2173
aVmateri
p2174
aVfirst
p2175
aVarray
p2176
aVdefin
p2177
aVthen
p2178
aVfix
p2179
aVultra
p2180
asI6072716
(lp2181
Vrevers
p2182
aVmemori
p2183
aVmatrix
p2184
aVpuls
p2185
aVstructur
p2186
aVrewrit
p2187
aVsemiconduct
p2188
aVresist
p2189
aVstate
p2190
aV110
p2191
asI6011277
(lp2192
sI6593176
(lp2193
Vsalicid
p2194
aVmemori
p2195
aVform
p2196
aVarray
p2197
aVphase
p2198
aVelectrod
p2199
aVsingl
p2200
aVchang
p2201
aVbipolar
p2202
aVlower
p2203
asI6114713
(lp2204
sI4599705
(lp2205
Vcell
p2206
aVprogramm
p2207
aVarray
p2208
aVcentigrad
p2209
aVstate
p2210
aVconduct
p2211
aVohm
p2212
aVsettabl
p2213
aVgermanium
p2214
aVless
p2215
asI6236059
(lp2216
Vchalcogenid
p2217
aVnitrid
p2218
aVsilicon
p2219
aVlayer
p2220
aVplug
p2221
aVcell
p2222
aVmemori
p2223
aVtin
p2224
aVpolysilicon
p2225
aVpore
p2226
asI6830494
(lp2227
Vpixel
p2228
aVlayer
p2229
aVelectro
p2230
aVjet
p2231
aVmanufactur
p2232
aVink
p2233
aVrow
p2234
aVcolumn
p2235
aVoblong
p2236
aVform
p2237
asI6946719
(lp2238
Vantifus
p2239
aVsilicid
p2240
aVjunction
p2241
aVdiod
p2242
aVcontact
p2243
aVcolbalt
p2244
aVsilicon
p2245
aVunit
p2246
aVoxynitrid
p2247
aVmemori
p2248
asI5970336
(lp2249
Vchalcogenid
p2250
aVnitrid
p2251
aVsilicon
p2252
aVlayer
p2253
aVplug
p2254
aVcell
p2255
aVmemori
p2256
aVtin
p2257
aVpolysilicon
p2258
aVpore
p2259
asI7023009
(lp2260
Velectr
p2261
aVmemori
p2262
aVcontact
p2263
aVprogramm
p2264
aVelement
p2265
aVsidewal
p2266
aVmateri
p2267
aVthin
p2268
aVphase
p2269
aVfilm
p2270
asI5985698
(lp2271
Vdiod
p2272
aVmemori
p2273
aVmulti
p2274
aVstate
p2275
aVchalcogenid
p2276
aVsilicon
p2277
aVvertic
p2278
aVcell
p2279
aVcontain
p2280
aVmay
p2281
asI6023075
(lp2282
sI6487106
(lp2283
Vprogramm
p2284
aVmicroelectron
p2285
aVstructur
p2286
aVprogram
p2287
aVelectrod
p2288
aValter
p2289
aVion
p2290
aVconductor
p2291
aVbias
p2292
aVmay
p2293
asI4673957
(lp2294
Vtransistor
p2295
aVcompat
p2296
aVthin
p2297
aVrate
p2298
aVgermanium
p2299
aVfield
p2300
aVfilm
p2301
aVorder
p2302
aVintegr
p2303
aVrectifi
p2304
asI6621095
(lp2305
Vdielectr
p2306
aVmateri
p2307
aVheater
p2308
aVcontact
p2309
aVelement
p2310
aVintroduc
p2311
aVthermal
p2312
aVover
p2313
aVdioxid
p2314
aVphase
p2315
asI4843443
(lp2316
Vtransistor
p2317
aVmateri
p2318
aVsilicon
p2319
aVfield
p2320
aVfilm
p2321
aVsemiconductor
p2322
aVorder
p2323
aVmake
p2324
aVrectifi
p2325
aVeffect
p2326
asI6642102
(lp2327
Vdielectr
p2328
aVmateri
p2329
aVprogramm
p2330
aVform
p2331
aVstack
p2332
aVvolum
p2333
aVline
p2334
aVcontact
p2335
aVsecond
p2336
aVconform
p2337
asI6031287
(lp2338
sI4876220
(lp2339
Vlayer
p2340
aVsilicon
p2341
aVdioxid
p2342
aVimped
p2343
aVprogramm
p2344
aVdiod
p2345
aVinterconnect
p2346
aVcover
p2347
aVsemiconductor
p2348
aVconduct
p2349
asI6821825
(lp2350
Vgate
p2351
aVlength
p2352
aVtransistor
p2353
aVeffect
p2354
aVfield
p2355
aVrun
p2356
aVcompens
p2357
aVproperti
p2358
aVpartial
p2359
aVmaintain
p2360
asI6034882
(lp2361
sI6420215
(lp2362
Vrail
p2363
aVstack
p2364
aVarray
p2365
aVmemori
p2366
aVhalf
p2367
aVdiod
p2368
aVdimension
p2369
aVconductor
p2370
aVother
p2371
aVmulti
p2372
asI5985740
(lp2373
Vfilm
p2374
aV106
p2375
aVcrystal
p2376
aVsilicon
p2377
aVoxid
p2378
aVelement
p2379
aVthermal
p2380
aVnickel
p2381
aVtreatment
p2382
aVatmospher
p2383
asI6153890
(lp2384
Vchalcogenid
p2385
aVnitrid
p2386
aVsilicon
p2387
aVlayer
p2388
aVplug
p2389
aVcell
p2390
aVmemori
p2391
aVtin
p2392
aVpolysilicon
p2393
aVpore
p2394
asI6696355
(lp2395
Vupper
p2396
aVsection
p2397
aVdielectr
p2398
aVlower
p2399
aVfilm
p2400
aVelectrod
p2401
aVresist
p2402
aVcoplanar
p2403
aVdispos
p2404
aVbeyond
p2405
asI6339544
(lp2406
Vdielectr
p2407
aVmateri
p2408
aVheater
p2409
aVcontact
p2410
aVelement
p2411
aVintroduc
p2412
aVthermal
p2413
aVover
p2414
aVdioxid
p2415
aVphase
p2416
asI5166556
(lp2417
Vantifus
p2418
aVsub
p2419
aVtisi
p2420
aVlayer
p2421
aVtitanium
p2422
aVtio
p2423
aVnanomet
p2424
aVstoichiometr
p2425
aV500
p2426
aVyield
p2427
asI6462353
(lp2428
Vchalcogenid
p2429
aVelectrod
p2430
aVfrusto
p2431
aVundercut
p2432
aVpolysilicon
p2433
aVconic
p2434
aVbeneath
p2435
aVstructur
p2436
aVetch
p2437
aVdensiti
p2438
asI5110754
(lp2439
Vdram
p2440
aVantifus
p2441
aVprogramm
p2442
aVprogram
p2443
aVredund
p2444
aVrepair
p2445
aVvoltag
p2446
aVcapacitor
p2447
aVoption
p2448
aVelement
p2449
asI5956579
(lp2450
Vplatinum
p2451
aVcobalt
p2452
aVamorph
p2453
aVnickel
p2454
aVfilm
p2455
aVsilicon
p2456
aViron
p2457
aVcrystal
p2458
aVsemiconductor
p2459
aVfabric
p2460
asI6104038
(lp2461
sI6013928
(lp2462
sI6545903
(lp2463
Vplug
p2464
aVresist
p2465
aVphase
p2466
aVmemori
p2467
aVchang
p2468
aVimplant
p2469
aVbelow
p2470
aVabov
p2471
aVmateri
p2472
aVcell
p2473
asI5998066
(lp2474
Vgray
p2475
aVselenium
p2476
aVgermanium
p2477
aVscale
p2478
aVmask
p2479
aVinorgan
p2480
aVphotoresist
p2481
aVresolut
p2482
aVcolumn
p2483
aVanalog
p2484
asI6278131
(lp2485
Vtft
p2486
aVdriver
p2487
aV115
p2488
aV118
p2489
aVgate
p2490
aV116
p2491
aVinsul
p2492
aVpixel
p2493
aVfilm
p2494
aV117
p2495
asI5744980
(lp2496
Vinterconnect
p2497
aVinput
p2498
aVconductor
p2499
aVprogramm
p2500
aVrandom
p2501
aVrout
p2502
aVhorizont
p2503
aVblock
p2504
aVlogic
p2505
aVaccess
p2506
asI6034427
(lp2507
sI6605821
(lp2508
Vinterconnect
p2509
aVconductor
p2510
aVphase
p2511
aVchang
p2512
aVstructur
p2513
aVadjac
p2514
aVfirst
p2515
aVsurfac
p2516
aVmateri
p2517
aVelement
p2518
asI6087679
(lp2519
Vcrystallin
p2520
aVsemiconductor
p2521
aVthin
p2522
aVfilm
p2523
aVconsid
p2524
aVcrystal
p2525
aVgrain
p2526
aVcatalyst
p2527
aVorient
p2528
aVelement
p2529
astp2530
.