((lp0
I4655771
aI4762128
aI4820298
aI4830003
aI4921484
aI4922905
aI4950227
aI4966604
aI4994069
aI4998539
aI5015253
aI5019090
aI5026377
aI5059211
aI5061275
aI5064435
aI5071407
aI5078736
aI5092877
aI5108416
aI5122154
aI5133732
aI5152777
aI5158548
aI5201757
aI5211658
aI5222971
aI5226911
aI5226913
aI5234456
aI5234457
aI5275622
aI5282823
aI5292331
aI5306286
aI5314472
aI5328471
aI5344426
aI5354308
aI5387235
aI5405377
aI5421955
aI5441515
aI5443496
aI5443498
aI5456667
aI5456712
aI5456713
aI5507767
aI5507769
aI5527337
aI5540712
aI5549626
aI5569295
aI5609627
aI5628788
aI5639278
aI5669924
aI5693085
aI5837313
aI6099562
aI6120536
aI6165212
aI6168614
aI6358556
aI6442413
aI4907336
aI5037427
aI5147370
aI5681282
aI5697909
aI5151105
aI5354295
aI5389106
aI5683451
aI5824041
aI4886062
aI4994071
aI4994077
aI5104404
aI5135536
aI5282824
aI5312415
aI5449373
aI5100423
aI5108419
aI5160342
aI5382259
aI5662671
aI5725552
aI6066149
aI6152144
aI6179859
aI5360443
aI5366504
aI5458615
aI5632772
aI5370685
aI5458597
aI5472441
aI5545214
aI5840081
aI5855601
aI5941869
aI5192301
aI5250071
aI5261916
aI5350397
aI5709224
aI6231561
aI5192297
aI5197971
aI5197978
aI5329942
aI5370657
aI5449372
aI5827324
aI5330500
aI5342348
aI5637113
aI5679400
aI5700286
aI5716981
aI5776184
aI5824048
aI5972027
aI5108407
aI5534007
aI5423885
aI5605696
aI5649977
aI6379381
aI5354309
aI5575818
aI5980972
aI5383892
aI5667523
aI6001118
aI6152946
aI6012457
aI6024740
aI5674242
aI5316023
aI5443500
aI5800457
aI5810874
aI5910154
aI5911734
aI6027520
aI6042598
aI5324304
aI5380299
aI5431676
aI6231600
aI6258121
aI5464650
aI5624411
aI5837008
aI6071305
aI5824049
aI5873904
aI6096070
aI6299604
aI5562728
aI5676697
aI5733925
aI5833650
aI6110188
aI5755778
aI5843172
aI5591197
aI5799661
aI6258115
aI6254632
aI5800525
aI5941896
aI5780807
aI6056993
aI6395326
aI5108420
aI5865791
aI5163958
aI5865814
aI6153252
aI5443497
aI5489295
aI5514154
aI5332402
aI5334217
aI5554185
aI5879366
aI6458153
aI6629534
aI5195984
aI5776161
aI5697971
aI5366490
aI5370675
aI5599345
aI5350398
aI6168579
aI5766151
aI5807395
aI6575969
aI5411520
aI5433727
aI5634936
aI5797960
aI5855614
aI6290674
aI6558400
aI5769816
aI5669933
aI6171327
aI5609629
aI6273913
aI6042875
aI6240616
aI5649959
aI5957949
aI6161543
aI6237605
aI6325797
aI5925063
aI5413571
aI5507744
aI5588579
aI5639008
aI5944738
aI6190353
aI5571215
aI5855597
aI6245102
aI5921982
aI5810764
aI5971983
aI5961440
aI6335029
a(lp1
(lp2
I4655771
aa(lp3
I4762128
aI4820298
aI4830003
aI4921484
aI4922905
aI4950227
aI4966604
aI4994069
aI4998539
aI5015253
aI5019090
aI5026377
aI5059211
aI5061275
aI5064435
aI5071407
aI5078736
aI5092877
aI5108416
aI5122154
aI5133732
aI5152777
aI5158548
aI5201757
aI5211658
aI5222971
aI5226911
aI5226913
aI5234456
aI5234457
aI5275622
aI5282823
aI5292331
aI5306286
aI5314472
aI5328471
aI5344426
aI5354308
aI5387235
aI5405377
aI5421955
aI5441515
aI5443496
aI5443498
aI5456667
aI5456712
aI5456713
aI5507767
aI5507769
aI5527337
aI5540712
aI5549626
aI5569295
aI5609627
aI5628788
aI5639278
aI5669924
aI5693085
aI5837313
aI6099562
aI6120536
aI6165212
aI6168614
aI6358556
aI6442413
aa(lp4
I4907336
aI5037427
aI5147370
aI5681282
aI5697909
aI5151105
aI5354295
aI5389106
aI5683451
aI5824041
aI4886062
aI4994071
aI4994077
aI5104404
aI5135536
aI5282824
aI5312415
aI5449373
aI5100423
aI5108419
aI5160342
aI5382259
aI5662671
aI5725552
aI6066149
aI6152144
aI6179859
aI5360443
aI5366504
aI5458615
aI5632772
aI5370685
aI5458597
aI5472441
aI5545214
aI5840081
aI5855601
aI5941869
aI5192301
aI5250071
aI5261916
aI5350397
aI5709224
aI6231561
aI5192297
aI5197971
aI5197978
aI5329942
aI5370657
aI5449372
aI5827324
aI5330500
aI5342348
aI5637113
aI5679400
aI5700286
aI5716981
aI5776184
aI5824048
aI5972027
aI5108407
aI5534007
aI5423885
aI5605696
aI5649977
aI6379381
aI5354309
aI5575818
aI5980972
aI5383892
aI5667523
aI6001118
aI6152946
aI6012457
aI6024740
aI5674242
aI5316023
aI5443500
aI5800457
aI5810874
aI5910154
aI5911734
aI6027520
aI6042598
aI5324304
aI5380299
aI5431676
aI6231600
aI6258121
aI5464650
aI5624411
aI5837008
aI6071305
aI5824049
aI5873904
aI6096070
aI6299604
aI5562728
aI5676697
aI5733925
aI5833650
aI6110188
aI5755778
aI5843172
aI5591197
aI5799661
aI6258115
aI6254632
aI5800525
aI5941896
aI5780807
aI6056993
aI6395326
aa(lp5
I5108420
aI5865791
aI5163958
aI5865814
aI6153252
aI5443497
aI5489295
aI5514154
aI5332402
aI5334217
aI5554185
aI5879366
aI6458153
aI6629534
aI5195984
aI5776161
aI5697971
aI5366490
aI5370675
aI5599345
aI5350398
aI6168579
aI5766151
aI5807395
aI6575969
aI5411520
aI5433727
aI5634936
aI5797960
aI5855614
aI6290674
aI6558400
aI5769816
aI5669933
aI6171327
aI5609629
aI6273913
aI6042875
aI6240616
aI5649959
aI5957949
aI6161543
aI6237605
aI6325797
aI5925063
aa(lp6
I5413571
aI5507744
aI5588579
aI5639008
aI5944738
aI6190353
aI5571215
aI5855597
aI6245102
aI5921982
aI5810764
aI5971983
aI5961440
aI6335029
aa(lp7
(I4655771
I4762128
tp8
a(I4655771
I4820298
tp9
a(I4655771
I4830003
tp10
a(I4655771
I4921484
tp11
a(I4655771
I4922905
tp12
a(I4655771
I4950227
tp13
a(I4655771
I4966604
tp14
a(I4655771
I4994069
tp15
a(I4655771
I4998539
tp16
a(I4655771
I5015253
tp17
a(I4655771
I5019090
tp18
a(I4655771
I5026377
tp19
a(I4655771
I5059211
tp20
a(I4655771
I5061275
tp21
a(I4655771
I5064435
tp22
a(I4655771
I5071407
tp23
a(I4655771
I5078736
tp24
a(I4655771
I5092877
tp25
a(I4655771
I5108416
tp26
a(I4655771
I5122154
tp27
a(I4655771
I5133732
tp28
a(I4655771
I5152777
tp29
a(I4655771
I5158548
tp30
a(I4655771
I5201757
tp31
a(I4655771
I5211658
tp32
a(I4655771
I5222971
tp33
a(I4655771
I5226911
tp34
a(I4655771
I5226913
tp35
a(I4655771
I5234456
tp36
a(I4655771
I5234457
tp37
a(I4655771
I5275622
tp38
a(I4655771
I5282823
tp39
a(I4655771
I5292331
tp40
a(I4655771
I5306286
tp41
a(I4655771
I5314472
tp42
a(I4655771
I5328471
tp43
a(I4655771
I5344426
tp44
a(I4655771
I5354308
tp45
a(I4655771
I5387235
tp46
a(I4655771
I5405377
tp47
a(I4655771
I5421955
tp48
a(I4655771
I5441515
tp49
a(I4655771
I5443496
tp50
a(I4655771
I5443498
tp51
a(I4655771
I5456667
tp52
a(I4655771
I5456712
tp53
a(I4655771
I5456713
tp54
a(I4655771
I5507767
tp55
a(I4655771
I5507769
tp56
a(I4655771
I5527337
tp57
a(I4655771
I5540712
tp58
a(I4655771
I5549626
tp59
a(I4655771
I5569295
tp60
a(I4655771
I5609627
tp61
a(I4655771
I5628788
tp62
a(I4655771
I5639278
tp63
a(I4655771
I5669924
tp64
a(I4655771
I5693085
tp65
a(I4655771
I5837313
tp66
a(I4655771
I6099562
tp67
a(I4655771
I6120536
tp68
a(I4655771
I6165212
tp69
a(I4655771
I6168614
tp70
a(I4655771
I6358556
tp71
a(I4655771
I6442413
tp72
a(I4762128
I4907336
tp73
a(I4762128
I4922905
tp74
a(I4762128
I4950227
tp75
a(I4762128
I5037427
tp76
a(I4762128
I5108416
tp77
a(I4762128
I5147370
tp78
a(I4762128
I5158548
tp79
a(I4762128
I5344426
tp80
a(I4762128
I5405377
tp81
a(I4762128
I5421955
tp82
a(I4762128
I5456667
tp83
a(I4762128
I5507769
tp84
a(I4762128
I5569295
tp85
a(I4762128
I5609627
tp86
a(I4762128
I5669924
tp87
a(I4762128
I5681282
tp88
a(I4762128
I5697909
tp89
a(I4820298
I5151105
tp90
a(I4820298
I5211658
tp91
a(I4820298
I5222971
tp92
a(I4820298
I5282823
tp93
a(I4820298
I5314472
tp94
a(I4820298
I5328471
tp95
a(I4820298
I5354295
tp96
a(I4820298
I5389106
tp97
a(I4820298
I5405377
tp98
a(I4820298
I5443498
tp99
a(I4820298
I5507767
tp100
a(I4820298
I5609627
tp101
a(I4820298
I5683451
tp102
a(I4820298
I5824041
tp103
a(I4820298
I6165212
tp104
a(I4830003
I4886062
tp105
a(I4830003
I4994071
tp106
a(I4830003
I4994077
tp107
a(I4830003
I5015253
tp108
a(I4830003
I5019090
tp109
a(I4830003
I5026377
tp110
a(I4830003
I5064435
tp111
a(I4830003
I5071407
tp112
a(I4830003
I5078736
tp113
a(I4830003
I5092877
tp114
a(I4830003
I5104404
tp115
a(I4830003
I5122154
tp116
a(I4830003
I5135536
tp117
a(I4830003
I5201757
tp118
a(I4830003
I5211658
tp119
a(I4830003
I5226911
tp120
a(I4830003
I5226913
tp121
a(I4830003
I5275622
tp122
a(I4830003
I5282824
tp123
a(I4830003
I5312415
tp124
a(I4830003
I5314472
tp125
a(I4830003
I5344426
tp126
a(I4830003
I5354308
tp127
a(I4830003
I5387235
tp128
a(I4830003
I5389106
tp129
a(I4830003
I5405377
tp130
a(I4830003
I5421955
tp131
a(I4830003
I5441515
tp132
a(I4830003
I5443498
tp133
a(I4830003
I5449373
tp134
a(I4830003
I5456667
tp135
a(I4830003
I5456712
tp136
a(I4830003
I5456713
tp137
a(I4830003
I5507767
tp138
a(I4830003
I5540712
tp139
a(I4830003
I5569295
tp140
a(I4830003
I5609627
tp141
a(I4830003
I5669924
tp142
a(I4921484
I5071407
tp143
a(I4921484
I5100423
tp144
a(I4921484
I5108419
tp145
a(I4921484
I5160342
tp146
a(I4921484
I5222971
tp147
a(I4921484
I5382259
tp148
a(I4921484
I5507769
tp149
a(I4921484
I5549626
tp150
a(I4921484
I5662671
tp151
a(I4921484
I5725552
tp152
a(I4921484
I6066149
tp153
a(I4921484
I6152144
tp154
a(I4921484
I6179859
tp155
a(I4922905
I5108416
tp156
a(I4922905
I5234457
tp157
a(I4922905
I5314472
tp158
a(I4922905
I5344426
tp159
a(I4922905
I5360443
tp160
a(I4922905
I5366504
tp161
a(I4922905
I5405377
tp162
a(I4922905
I5421955
tp163
a(I4922905
I5441515
tp164
a(I4922905
I5443498
tp165
a(I4922905
I5456667
tp166
a(I4922905
I5569295
tp167
a(I4922905
I5609627
tp168
a(I4922905
I5669924
tp169
a(I4950227
I5108416
tp170
a(I4950227
I5201757
tp171
a(I4950227
I5222971
tp172
a(I4950227
I5234457
tp173
a(I4950227
I5314472
tp174
a(I4950227
I5344426
tp175
a(I4950227
I5421955
tp176
a(I4950227
I5441515
tp177
a(I4950227
I5443498
tp178
a(I4950227
I5456667
tp179
a(I4950227
I5458615
tp180
a(I4950227
I5569295
tp181
a(I4950227
I5632772
tp182
a(I4950227
I5639278
tp183
a(I4950227
I5669924
tp184
a(I4950227
I5683451
tp185
a(I4950227
I5693085
tp186
a(I4950227
I5824041
tp187
a(I4950227
I6165212
tp188
a(I4966604
I5160342
tp189
a(I4966604
I5370685
tp190
a(I4966604
I5458597
tp191
a(I4966604
I5472441
tp192
a(I4966604
I5545214
tp193
a(I4966604
I5840081
tp194
a(I4966604
I5855601
tp195
a(I4966604
I5941869
tp196
a(I4966604
I6168614
tp197
a(I4994069
I5192301
tp198
a(I4994069
I5226911
tp199
a(I4994069
I5250071
tp200
a(I4994069
I5261916
tp201
a(I4994069
I5275622
tp202
a(I4994069
I5312415
tp203
a(I4994069
I5344426
tp204
a(I4994069
I5350397
tp205
a(I4994069
I5354295
tp206
a(I4994069
I5382259
tp207
a(I4994069
I5709224
tp208
a(I4994069
I6231561
tp209
a(I4998539
I5192297
tp210
a(I4998539
I5197971
tp211
a(I4998539
I5197978
tp212
a(I4998539
I5211658
tp213
a(I4998539
I5222971
tp214
a(I4998539
I5329942
tp215
a(I4998539
I5344426
tp216
a(I4998539
I5370657
tp217
a(I4998539
I5421955
tp218
a(I4998539
I5441515
tp219
a(I4998539
I5449372
tp220
a(I4998539
I5456667
tp221
a(I4998539
I5569295
tp222
a(I4998539
I5827324
tp223
a(I4998539
I6179859
tp224
a(I5015253
I5211658
tp225
a(I5015253
I5282823
tp226
a(I5015253
I5314472
tp227
a(I5015253
I5344426
tp228
a(I5015253
I5421955
tp229
a(I5015253
I5441515
tp230
a(I5015253
I5443496
tp231
a(I5015253
I5443498
tp232
a(I5015253
I5456667
tp233
a(I5015253
I5507767
tp234
a(I5015253
I5569295
tp235
a(I5019090
I5133732
tp236
a(I5019090
I5135536
tp237
a(I5019090
I5192297
tp238
a(I5019090
I5211658
tp239
a(I5019090
I5282823
tp240
a(I5019090
I5314472
tp241
a(I5019090
I5330500
tp242
a(I5019090
I5342348
tp243
a(I5019090
I5344426
tp244
a(I5019090
I5405377
tp245
a(I5019090
I5421955
tp246
a(I5019090
I5441515
tp247
a(I5019090
I5443496
tp248
a(I5019090
I5443498
tp249
a(I5019090
I5456667
tp250
a(I5019090
I5507767
tp251
a(I5019090
I5527337
tp252
a(I5019090
I5569295
tp253
a(I5019090
I5609627
tp254
a(I5019090
I5632772
tp255
a(I5019090
I5637113
tp256
a(I5019090
I5639278
tp257
a(I5019090
I5679400
tp258
a(I5019090
I5693085
tp259
a(I5019090
I5700286
tp260
a(I5019090
I5716981
tp261
a(I5019090
I5776184
tp262
a(I5019090
I5824048
tp263
a(I5019090
I5855601
tp264
a(I5019090
I5972027
tp265
a(I5019090
I6165212
tp266
a(I5026377
I5108407
tp267
a(I5026377
I5222971
tp268
a(I5026377
I5234457
tp269
a(I5026377
I5344426
tp270
a(I5026377
I5421955
tp271
a(I5026377
I5456667
tp272
a(I5026377
I5507767
tp273
a(I5026377
I5534007
tp274
a(I5026377
I5569295
tp275
a(I5026377
I5628788
tp276
a(I5059211
I5108407
tp277
a(I5059211
I5282823
tp278
a(I5059211
I5342348
tp279
a(I5059211
I5344426
tp280
a(I5059211
I5421955
tp281
a(I5059211
I5423885
tp282
a(I5059211
I5441515
tp283
a(I5059211
I5443496
tp284
a(I5059211
I5456667
tp285
a(I5059211
I5569295
tp286
a(I5059211
I5605696
tp287
a(I5059211
I5637113
tp288
a(I5059211
I5649977
tp289
a(I5059211
I5669924
tp290
a(I5059211
I5700286
tp291
a(I5059211
I5716981
tp292
a(I5059211
I6379381
tp293
a(I5061275
I5234457
tp294
a(I5061275
I5282823
tp295
a(I5061275
I5344426
tp296
a(I5061275
I5354309
tp297
a(I5061275
I5421955
tp298
a(I5061275
I5441515
tp299
a(I5061275
I5443496
tp300
a(I5061275
I5456667
tp301
a(I5061275
I5569295
tp302
a(I5061275
I5575818
tp303
a(I5061275
I5628788
tp304
a(I5061275
I5693085
tp305
a(I5061275
I5837313
tp306
a(I5061275
I5980972
tp307
a(I5061275
I6099562
tp308
a(I5061275
I6120536
tp309
a(I5061275
I6358556
tp310
a(I5064435
I5330500
tp311
a(I5064435
I5344426
tp312
a(I5064435
I5382259
tp313
a(I5064435
I5383892
tp314
a(I5064435
I5421955
tp315
a(I5064435
I5441515
tp316
a(I5064435
I5456667
tp317
a(I5064435
I5540712
tp318
a(I5064435
I5569295
tp319
a(I5064435
I5575818
tp320
a(I5064435
I5609627
tp321
a(I5064435
I5628788
tp322
a(I5064435
I5649977
tp323
a(I5064435
I5667523
tp324
a(I5064435
I5669924
tp325
a(I5064435
I5725552
tp326
a(I5064435
I6152144
tp327
a(I5064435
I6358556
tp328
a(I5071407
I5197978
tp329
a(I5071407
I5201757
tp330
a(I5071407
I5226911
tp331
a(I5071407
I5344426
tp332
a(I5071407
I5370657
tp333
a(I5071407
I5421955
tp334
a(I5071407
I5441515
tp335
a(I5071407
I5456667
tp336
a(I5071407
I5569295
tp337
a(I5071407
I5827324
tp338
a(I5071407
I6001118
tp339
a(I5071407
I6152946
tp340
a(I5071407
I6179859
tp341
a(I5078736
I5344426
tp342
a(I5078736
I5405377
tp343
a(I5078736
I5421955
tp344
a(I5078736
I5441515
tp345
a(I5078736
I5456667
tp346
a(I5078736
I5569295
tp347
a(I5078736
I5609627
tp348
a(I5078736
I5649977
tp349
a(I5078736
I6012457
tp350
a(I5078736
I6024740
tp351
a(I5078736
I6152144
tp352
a(I5092877
I5234457
tp353
a(I5092877
I5344426
tp354
a(I5092877
I5421955
tp355
a(I5092877
I5456667
tp356
a(I5092877
I5458615
tp357
a(I5092877
I5569295
tp358
a(I5092877
I5683451
tp359
a(I5092877
I5824041
tp360
a(I5092877
I5837313
tp361
a(I5092877
I5980972
tp362
a(I5092877
I6099562
tp363
a(I5092877
I6120536
tp364
a(I5092877
I6358556
tp365
a(I5108416
I5192297
tp366
a(I5108416
I5344426
tp367
a(I5108416
I5421955
tp368
a(I5108416
I5441515
tp369
a(I5108416
I5456667
tp370
a(I5108416
I5458615
tp371
a(I5108416
I5569295
tp372
a(I5108416
I5674242
tp373
a(I5122154
I5316023
tp374
a(I5122154
I5344426
tp375
a(I5122154
I5389106
tp376
a(I5122154
I5421955
tp377
a(I5122154
I5441515
tp378
a(I5122154
I5456667
tp379
a(I5122154
I5569295
tp380
a(I5133732
I5234457
tp381
a(I5133732
I5314472
tp382
a(I5133732
I5344426
tp383
a(I5133732
I5354309
tp384
a(I5133732
I5405377
tp385
a(I5133732
I5421955
tp386
a(I5133732
I5423885
tp387
a(I5133732
I5441515
tp388
a(I5133732
I5443498
tp389
a(I5133732
I5443500
tp390
a(I5133732
I5456667
tp391
a(I5133732
I5507767
tp392
a(I5133732
I5569295
tp393
a(I5133732
I5609627
tp394
a(I5152777
I5370657
tp395
a(I5152777
I5549626
tp396
a(I5152777
I5800457
tp397
a(I5152777
I5810874
tp398
a(I5152777
I5910154
tp399
a(I5152777
I5911734
tp400
a(I5152777
I6027520
tp401
a(I5152777
I6042598
tp402
a(I5158548
I5441515
tp403
a(I5158548
I5649977
tp404
a(I5158548
I5683451
tp405
a(I5158548
I5824041
tp406
a(I5201757
I5324304
tp407
a(I5201757
I5628788
tp408
a(I5201757
I5669924
tp409
a(I5201757
I5683451
tp410
a(I5201757
I5824041
tp411
a(I5211658
I5382259
tp412
a(I5211658
I5667523
tp413
a(I5211658
I5683451
tp414
a(I5211658
I5824041
tp415
a(I5222971
I5380299
tp416
a(I5222971
I5431676
tp417
a(I5222971
I5456667
tp418
a(I5222971
I5810874
tp419
a(I5222971
I5972027
tp420
a(I5222971
I6231600
tp421
a(I5222971
I6258121
tp422
a(I5226911
I5709224
tp423
a(I5226913
I5456667
tp424
a(I5226913
I5837313
tp425
a(I5226913
I5972027
tp426
a(I5226913
I5980972
tp427
a(I5226913
I6099562
tp428
a(I5226913
I6120536
tp429
a(I5226913
I6358556
tp430
a(I5234456
I5342348
tp431
a(I5234456
I5464650
tp432
a(I5234456
I5605696
tp433
a(I5234456
I5624411
tp434
a(I5234456
I5637113
tp435
a(I5234456
I5649977
tp436
a(I5234456
I5679400
tp437
a(I5234456
I5693085
tp438
a(I5234456
I5700286
tp439
a(I5234456
I5716981
tp440
a(I5234456
I5776184
tp441
a(I5234456
I5824048
tp442
a(I5234456
I5837008
tp443
a(I5234456
I6071305
tp444
a(I5234457
I5569295
tp445
a(I5234457
I5605696
tp446
a(I5234457
I5637113
tp447
a(I5234457
I5649977
tp448
a(I5234457
I5693085
tp449
a(I5234457
I5700286
tp450
a(I5275622
I5683451
tp451
a(I5275622
I5824041
tp452
a(I5282823
I5443496
tp453
a(I5282823
I5632772
tp454
a(I5282823
I5639278
tp455
a(I5282823
I5649977
tp456
a(I5282823
I5693085
tp457
a(I5282823
I5824049
tp458
a(I5282823
I5873904
tp459
a(I5282823
I6071305
tp460
a(I5282823
I6096070
tp461
a(I5282823
I6165212
tp462
a(I5282823
I6231600
tp463
a(I5282823
I6258121
tp464
a(I5282823
I6299604
tp465
a(I5292331
I5562728
tp466
a(I5306286
I5637113
tp467
a(I5306286
I5649977
tp468
a(I5306286
I5676697
tp469
a(I5306286
I5700286
tp470
a(I5306286
I5910154
tp471
a(I5306286
I5911734
tp472
a(I5306286
I6027520
tp473
a(I5306286
I6042598
tp474
a(I5306286
I6379381
tp475
a(I5314472
I5910154
tp476
a(I5314472
I5911734
tp477
a(I5314472
I6027520
tp478
a(I5314472
I6042598
tp479
a(I5328471
I5733925
tp480
a(I5328471
I5833650
tp481
a(I5328471
I6110188
tp482
a(I5344426
I5443500
tp483
a(I5344426
I5527337
tp484
a(I5344426
I5649977
tp485
a(I5354308
I5540712
tp486
a(I5354308
I5632772
tp487
a(I5354308
I5639278
tp488
a(I5354308
I5755778
tp489
a(I5354308
I6165212
tp490
a(I5387235
I5609627
tp491
a(I5387235
I5910154
tp492
a(I5387235
I5911734
tp493
a(I5387235
I6027520
tp494
a(I5387235
I6042598
tp495
a(I5405377
I5540712
tp496
a(I5405377
I5755778
tp497
a(I5405377
I5910154
tp498
a(I5405377
I5911734
tp499
a(I5405377
I6027520
tp500
a(I5405377
I6042598
tp501
a(I5421955
I6442413
tp502
a(I5441515
I5637113
tp503
a(I5441515
I5649977
tp504
a(I5441515
I5674242
tp505
a(I5441515
I5676697
tp506
a(I5441515
I5700286
tp507
a(I5441515
I5843172
tp508
a(I5441515
I6071305
tp509
a(I5443496
I5591197
tp510
a(I5443496
I5679400
tp511
a(I5443496
I5776184
tp512
a(I5443496
I5824048
tp513
a(I5443496
I6071305
tp514
a(I5443496
I6231600
tp515
a(I5443496
I6258121
tp516
a(I5443498
I5910154
tp517
a(I5443498
I5911734
tp518
a(I5443498
I6027520
tp519
a(I5443498
I6042598
tp520
a(I5456667
I5534007
tp521
a(I5456667
I6066149
tp522
a(I5456667
I6179859
tp523
a(I5456712
I5755778
tp524
a(I5456712
I5799661
tp525
a(I5456712
I6110188
tp526
a(I5507767
I5910154
tp527
a(I5507767
I5911734
tp528
a(I5507767
I6027520
tp529
a(I5507767
I6042598
tp530
a(I5507769
I6258115
tp531
a(I5527337
I6231600
tp532
a(I5527337
I6254632
tp533
a(I5527337
I6258121
tp534
a(I5527337
I6379381
tp535
a(I5549626
I5800457
tp536
a(I5549626
I5800525
tp537
a(I5549626
I5827324
tp538
a(I5549626
I5910154
tp539
a(I5549626
I5911734
tp540
a(I5549626
I5941896
tp541
a(I5549626
I6001118
tp542
a(I5549626
I6152946
tp543
a(I5569295
I5780807
tp544
a(I5639278
I5755778
tp545
a(I5837313
I6056993
tp546
a(I5837313
I6395326
tp547
a(I6099562
I6258121
tp548
a(I6120536
I6258121
tp549
a(I6120536
I6379381
tp550
a(I4907336
I5108416
tp551
a(I4907336
I5226913
tp552
a(I4907336
I5344426
tp553
a(I4907336
I5421955
tp554
a(I4907336
I5441515
tp555
a(I4907336
I5456667
tp556
a(I4907336
I5569295
tp557
a(I4907336
I5910154
tp558
a(I4907336
I5911734
tp559
a(I4907336
I6027520
tp560
a(I4907336
I6042598
tp561
a(I5037427
I5108407
tp562
a(I5037427
I5108420
tp563
a(I5037427
I5147370
tp564
a(I5037427
I5197978
tp565
a(I5037427
I5261916
tp566
a(I5037427
I5275622
tp567
a(I5037427
I5312415
tp568
a(I5037427
I5344426
tp569
a(I5037427
I5421955
tp570
a(I5037427
I5456667
tp571
a(I5037427
I5527337
tp572
a(I5037427
I5569295
tp573
a(I5037427
I5669924
tp574
a(I5037427
I5683451
tp575
a(I5037427
I5824041
tp576
a(I5147370
I5456667
tp577
a(I5147370
I5669924
tp578
a(I5147370
I5683451
tp579
a(I5147370
I5693085
tp580
a(I5147370
I5824041
tp581
a(I5151105
I5330500
tp582
a(I5151105
I5382259
tp583
a(I5151105
I5534007
tp584
a(I5151105
I5667523
tp585
a(I5151105
I5693085
tp586
a(I5354295
I5865791
tp587
a(I5354295
I6066149
tp588
a(I5389106
I5637113
tp589
a(I5389106
I5669924
tp590
a(I5389106
I5693085
tp591
a(I5389106
I5700286
tp592
a(I4886062
I5019090
tp593
a(I4886062
I5064435
tp594
a(I4886062
I5071407
tp595
a(I4886062
I5092877
tp596
a(I4886062
I5108416
tp597
a(I4886062
I5133732
tp598
a(I4886062
I5163958
tp599
a(I4886062
I5192297
tp600
a(I4886062
I5211658
tp601
a(I4886062
I5226913
tp602
a(I4886062
I5282823
tp603
a(I4886062
I5314472
tp604
a(I4886062
I5330500
tp605
a(I4886062
I5344426
tp606
a(I4886062
I5354308
tp607
a(I4886062
I5389106
tp608
a(I4886062
I5405377
tp609
a(I4886062
I5421955
tp610
a(I4886062
I5441515
tp611
a(I4886062
I5443498
tp612
a(I4886062
I5449373
tp613
a(I4886062
I5456667
tp614
a(I4886062
I5464650
tp615
a(I4886062
I5507767
tp616
a(I4886062
I5569295
tp617
a(I4886062
I5609627
tp618
a(I4886062
I5624411
tp619
a(I4886062
I5669924
tp620
a(I4886062
I5679400
tp621
a(I4886062
I5683451
tp622
a(I4886062
I5776184
tp623
a(I4886062
I5824041
tp624
a(I4886062
I5824048
tp625
a(I4886062
I5837008
tp626
a(I4886062
I5837313
tp627
a(I4886062
I5865814
tp628
a(I4886062
I5980972
tp629
a(I4886062
I6099562
tp630
a(I4886062
I6120536
tp631
a(I4886062
I6153252
tp632
a(I4886062
I6254632
tp633
a(I4886062
I6358556
tp634
a(I4886062
I6442413
tp635
a(I4994071
I5122154
tp636
a(I4994071
I5133732
tp637
a(I4994071
I5211658
tp638
a(I4994071
I5275622
tp639
a(I4994071
I5344426
tp640
a(I4994071
I5366504
tp641
a(I4994071
I5421955
tp642
a(I4994071
I5441515
tp643
a(I4994071
I5443497
tp644
a(I4994071
I5456667
tp645
a(I4994071
I5489295
tp646
a(I4994071
I5514154
tp647
a(I4994071
I5569295
tp648
a(I4994071
I5609627
tp649
a(I4994071
I5632772
tp650
a(I4994071
I5639278
tp651
a(I4994071
I5669924
tp652
a(I4994071
I5676697
tp653
a(I4994071
I5780807
tp654
a(I4994071
I5837313
tp655
a(I4994071
I5980972
tp656
a(I4994071
I6099562
tp657
a(I4994071
I6120536
tp658
a(I4994071
I6165212
tp659
a(I4994071
I6231600
tp660
a(I4994071
I6258121
tp661
a(I4994071
I6358556
tp662
a(I4994077
I5332402
tp663
a(I4994077
I5334217
tp664
a(I4994077
I5554185
tp665
a(I4994077
I5840081
tp666
a(I4994077
I5855601
tp667
a(I4994077
I5879366
tp668
a(I4994077
I6168614
tp669
a(I4994077
I6458153
tp670
a(I4994077
I6629534
tp671
a(I5104404
I5282824
tp672
a(I5104404
I5344426
tp673
a(I5104404
I5421955
tp674
a(I5104404
I5441515
tp675
a(I5104404
I5449373
tp676
a(I5104404
I5456667
tp677
a(I5104404
I5569295
tp678
a(I5135536
I5195984
tp679
a(I5135536
I5314472
tp680
a(I5135536
I5344426
tp681
a(I5135536
I5405377
tp682
a(I5135536
I5421955
tp683
a(I5135536
I5423885
tp684
a(I5135536
I5441515
tp685
a(I5135536
I5443498
tp686
a(I5135536
I5443500
tp687
a(I5135536
I5456667
tp688
a(I5135536
I5540712
tp689
a(I5135536
I5569295
tp690
a(I5135536
I5609627
tp691
a(I5282824
I5370657
tp692
a(I5282824
I5405377
tp693
a(I5282824
I5443496
tp694
a(I5282824
I5507767
tp695
a(I5282824
I5609627
tp696
a(I5282824
I5669924
tp697
a(I5282824
I5683451
tp698
a(I5282824
I5776161
tp699
a(I5282824
I5824041
tp700
a(I5282824
I6254632
tp701
a(I5312415
I5628788
tp702
a(I5312415
I5709224
tp703
a(I5449373
I5591197
tp704
a(I5449373
I5697971
tp705
a(I5449373
I5776161
tp706
a(I5100423
I5366490
tp707
a(I5100423
I5370675
tp708
a(I5100423
I5458597
tp709
a(I5100423
I5472441
tp710
a(I5100423
I5599345
tp711
a(I5100423
I5827324
tp712
a(I5100423
I6001118
tp713
a(I5100423
I6066149
tp714
a(I5100423
I6152946
tp715
a(I5108419
I5350398
tp716
a(I5108419
I5370657
tp717
a(I5108419
I5549626
tp718
a(I5108419
I5910154
tp719
a(I5108419
I5911734
tp720
a(I5108419
I6001118
tp721
a(I5108419
I6027520
tp722
a(I5108419
I6042598
tp723
a(I5108419
I6152946
tp724
a(I5108419
I6179859
tp725
a(I5160342
I5370657
tp726
a(I5160342
I5549626
tp727
a(I5160342
I5910154
tp728
a(I5160342
I5911734
tp729
a(I5160342
I5941869
tp730
a(I5160342
I6027520
tp731
a(I5160342
I6042598
tp732
a(I5382259
I6258115
tp733
a(I5662671
I6168579
tp734
a(I5662671
I6179859
tp735
a(I5725552
I6152144
tp736
a(I5725552
I6458153
tp737
a(I5360443
I5443497
tp738
a(I5360443
I5632772
tp739
a(I5360443
I5639278
tp740
a(I5360443
I5669924
tp741
a(I5360443
I5676697
tp742
a(I5360443
I5693085
tp743
a(I5360443
I5755778
tp744
a(I5360443
I6165212
tp745
a(I5366504
I5776184
tp746
a(I5370685
I5766151
tp747
a(I5370685
I5799661
tp748
a(I5370685
I5855601
tp749
a(I5370685
I6458153
tp750
a(I5458597
I5807395
tp751
a(I5458597
I6575969
tp752
a(I5472441
I6575969
tp753
a(I5545214
I5799661
tp754
a(I5545214
I6458153
tp755
a(I5840081
I6168614
tp756
a(I5840081
I6458153
tp757
a(I5840081
I6629534
tp758
a(I5855601
I6458153
tp759
a(I5192301
I5411520
tp760
a(I5192301
I5433727
tp761
a(I5192301
I5634936
tp762
a(I5192301
I5797960
tp763
a(I5192301
I5855614
tp764
a(I5192301
I6152144
tp765
a(I5250071
I5709224
tp766
a(I5261916
I5709224
tp767
a(I5709224
I6152144
tp768
a(I5709224
I6231561
tp769
a(I5709224
I6290674
tp770
a(I6231561
I6558400
tp771
a(I5192297
I5344426
tp772
a(I5192297
I5441515
tp773
a(I5192297
I5456667
tp774
a(I5192297
I5458615
tp775
a(I5192297
I5569295
tp776
a(I5192297
I5683451
tp777
a(I5192297
I5824041
tp778
a(I5197978
I5314472
tp779
a(I5197978
I5344426
tp780
a(I5197978
I5354309
tp781
a(I5197978
I5441515
tp782
a(I5197978
I5443498
tp783
a(I5197978
I5456667
tp784
a(I5197978
I5458615
tp785
a(I5197978
I5507769
tp786
a(I5197978
I5569295
tp787
a(I5197978
I5575818
tp788
a(I5197978
I5628788
tp789
a(I5197978
I5669924
tp790
a(I5197978
I5697971
tp791
a(I5197978
I6110188
tp792
a(I5329942
I5549626
tp793
a(I5329942
I5769816
tp794
a(I5329942
I5827324
tp795
a(I5329942
I5941896
tp796
a(I5329942
I6001118
tp797
a(I5329942
I6152946
tp798
a(I5329942
I6179859
tp799
a(I5370657
I5669933
tp800
a(I5370657
I5769816
tp801
a(I5370657
I6179859
tp802
a(I5449372
I5674242
tp803
a(I5449372
I5910154
tp804
a(I5449372
I5911734
tp805
a(I5449372
I6027520
tp806
a(I5449372
I6042598
tp807
a(I5449372
I6066149
tp808
a(I5449372
I6231600
tp809
a(I5449372
I6258121
tp810
a(I5827324
I6027520
tp811
a(I5827324
I6042598
tp812
a(I5827324
I6152946
tp813
a(I5827324
I6171327
tp814
a(I5827324
I6179859
tp815
a(I5827324
I6258115
tp816
a(I5330500
I5575818
tp817
a(I5330500
I5628788
tp818
a(I5330500
I5632772
tp819
a(I5330500
I5637113
tp820
a(I5330500
I5639278
tp821
a(I5330500
I5649977
tp822
a(I5330500
I5667523
tp823
a(I5330500
I5669924
tp824
a(I5330500
I5700286
tp825
a(I5330500
I5910154
tp826
a(I5330500
I5911734
tp827
a(I5330500
I6027520
tp828
a(I5330500
I6042598
tp829
a(I5330500
I6165212
tp830
a(I5342348
I5605696
tp831
a(I5342348
I5609629
tp832
a(I5342348
I5637113
tp833
a(I5342348
I5649977
tp834
a(I5342348
I5700286
tp835
a(I5342348
I5716981
tp836
a(I5342348
I5824049
tp837
a(I5342348
I5837313
tp838
a(I5342348
I5873904
tp839
a(I5342348
I5972027
tp840
a(I5342348
I5980972
tp841
a(I5342348
I6071305
tp842
a(I5342348
I6099562
tp843
a(I5342348
I6120536
tp844
a(I5342348
I6153252
tp845
a(I5342348
I6299604
tp846
a(I5342348
I6358556
tp847
a(I5637113
I5980972
tp848
a(I5637113
I6099562
tp849
a(I5637113
I6120536
tp850
a(I5637113
I6231600
tp851
a(I5637113
I6258121
tp852
a(I5679400
I5824048
tp853
a(I5679400
I6153252
tp854
a(I5679400
I6231600
tp855
a(I5679400
I6258121
tp856
a(I5700286
I6231600
tp857
a(I5700286
I6254632
tp858
a(I5700286
I6258121
tp859
a(I5700286
I6273913
tp860
a(I5700286
I6379381
tp861
a(I5716981
I5980972
tp862
a(I5716981
I6042875
tp863
a(I5716981
I6099562
tp864
a(I5716981
I6153252
tp865
a(I5716981
I6231600
tp866
a(I5716981
I6258121
tp867
a(I5716981
I6299604
tp868
a(I5716981
I6358556
tp869
a(I5776184
I6231600
tp870
a(I5776184
I6258121
tp871
a(I5972027
I6240616
tp872
a(I5972027
I6258121
tp873
a(I5972027
I6273913
tp874
a(I5108407
I5250071
tp875
a(I5108407
I5261916
tp876
a(I5108407
I5312415
tp877
a(I5108407
I5350397
tp878
a(I5108407
I5354295
tp879
a(I5108407
I5382259
tp880
a(I5108407
I5649959
tp881
a(I5108407
I5709224
tp882
a(I5423885
I5910154
tp883
a(I5423885
I5911734
tp884
a(I5423885
I6027520
tp885
a(I5423885
I6042598
tp886
a(I5423885
I6071305
tp887
a(I5423885
I6231600
tp888
a(I5423885
I6258121
tp889
a(I5605696
I5824048
tp890
a(I5605696
I5837313
tp891
a(I5605696
I5865814
tp892
a(I5605696
I5980972
tp893
a(I5605696
I6056993
tp894
a(I5605696
I6120536
tp895
a(I5605696
I6231600
tp896
a(I5605696
I6258121
tp897
a(I5605696
I6358556
tp898
a(I5649977
I5824048
tp899
a(I5354309
I5540712
tp900
a(I5575818
I6056993
tp901
a(I5575818
I6153252
tp902
a(I5383892
I5507769
tp903
a(I5383892
I5575818
tp904
a(I5383892
I5628788
tp905
a(I5383892
I5697971
tp906
a(I5383892
I5776161
tp907
a(I5383892
I5910154
tp908
a(I5383892
I5911734
tp909
a(I5383892
I6027520
tp910
a(I5383892
I6042598
tp911
a(I5383892
I6258115
tp912
a(I5667523
I5957949
tp913
a(I6001118
I6179859
tp914
a(I6012457
I6161543
tp915
a(I6012457
I6237605
tp916
a(I6012457
I6325797
tp917
a(I5674242
I6231600
tp918
a(I5674242
I6258121
tp919
a(I5316023
I5669924
tp920
a(I5316023
I5693085
tp921
a(I5443500
I5925063
tp922
a(I5800457
I5941896
tp923
a(I5810874
I5910154
tp924
a(I5810874
I5911734
tp925
a(I5910154
I6168579
tp926
a(I5911734
I6152946
tp927
a(I6027520
I6258115
tp928
a(I5324304
I5549626
tp929
a(I5324304
I5941896
tp930
a(I5380299
I5605696
tp931
a(I5380299
I5609629
tp932
a(I5380299
I5679400
tp933
a(I5380299
I5716981
tp934
a(I5380299
I5776184
tp935
a(I5380299
I5824048
tp936
a(I5380299
I5824049
tp937
a(I5380299
I5865814
tp938
a(I5380299
I5873904
tp939
a(I5380299
I5980972
tp940
a(I5380299
I6042875
tp941
a(I5380299
I6099562
tp942
a(I5380299
I6120536
tp943
a(I5380299
I6153252
tp944
a(I5380299
I6231600
tp945
a(I5380299
I6258121
tp946
a(I5380299
I6299604
tp947
a(I5380299
I6358556
tp948
a(I5464650
I5624411
tp949
a(I5464650
I5674242
tp950
a(I5464650
I5693085
tp951
a(I5464650
I5716981
tp952
a(I5464650
I5824048
tp953
a(I5464650
I5824049
tp954
a(I5464650
I5837313
tp955
a(I5464650
I5865814
tp956
a(I5464650
I5873904
tp957
a(I5464650
I5980972
tp958
a(I5464650
I6096070
tp959
a(I5464650
I6099562
tp960
a(I5464650
I6120536
tp961
a(I5464650
I6153252
tp962
a(I5464650
I6231600
tp963
a(I5464650
I6254632
tp964
a(I5464650
I6258121
tp965
a(I5464650
I6358556
tp966
a(I5464650
I6395326
tp967
a(I5624411
I5837313
tp968
a(I5624411
I5843172
tp969
a(I5624411
I5865814
tp970
a(I5624411
I5980972
tp971
a(I5624411
I6071305
tp972
a(I5624411
I6099562
tp973
a(I5624411
I6120536
tp974
a(I5624411
I6231600
tp975
a(I5624411
I6240616
tp976
a(I5624411
I6258121
tp977
a(I5624411
I6273913
tp978
a(I5624411
I6358556
tp979
a(I5837008
I6231600
tp980
a(I5837008
I6258121
tp981
a(I5824049
I6299604
tp982
a(I5873904
I6254632
tp983
a(I5873904
I6299604
tp984
a(I5873904
I6379381
tp985
a(I5873904
I6395326
tp986
a(I6096070
I6358556
tp987
a(I6096070
I6395326
tp988
a(I5733925
I6231600
tp989
a(I5733925
I6258121
tp990
a(I5833650
I6179859
tp991
a(I5843172
I5972027
tp992
a(I5843172
I6071305
tp993
a(I5843172
I6254632
tp994
a(I5843172
I6273913
tp995
a(I5843172
I6379381
tp996
a(I5591197
I5776161
tp997
a(I5591197
I6273913
tp998
a(I5800525
I5925063
tp999
a(I5108420
I5334217
tp1000
a(I5108420
I5411520
tp1001
a(I5108420
I5413571
tp1002
a(I5108420
I5433727
tp1003
a(I5108420
I5507744
tp1004
a(I5108420
I5588579
tp1005
a(I5108420
I5634936
tp1006
a(I5108420
I5639008
tp1007
a(I5108420
I5725552
tp1008
a(I5108420
I5797960
tp1009
a(I5108420
I5855614
tp1010
a(I5108420
I5879366
tp1011
a(I5108420
I5944738
tp1012
a(I5108420
I6152144
tp1013
a(I5108420
I6290674
tp1014
a(I5108420
I6458153
tp1015
a(I5865791
I6152144
tp1016
a(I5865791
I6231561
tp1017
a(I5865791
I6290674
tp1018
a(I5163958
I5344426
tp1019
a(I5163958
I5441515
tp1020
a(I5163958
I5456667
tp1021
a(I5163958
I5458615
tp1022
a(I5163958
I5569295
tp1023
a(I5163958
I5637113
tp1024
a(I5163958
I5700286
tp1025
a(I5163958
I5843172
tp1026
a(I5163958
I5972027
tp1027
a(I5163958
I6240616
tp1028
a(I5443497
I5755778
tp1029
a(I5443497
I6190353
tp1030
a(I5489295
I5676697
tp1031
a(I5489295
I5855601
tp1032
a(I5514154
I5776161
tp1033
a(I5514154
I6231600
tp1034
a(I5514154
I6258121
tp1035
a(I5332402
I5571215
tp1036
a(I5332402
I5840081
tp1037
a(I5332402
I5855597
tp1038
a(I5332402
I5855601
tp1039
a(I5332402
I6245102
tp1040
a(I5332402
I6458153
tp1041
a(I5332402
I6629534
tp1042
a(I5334217
I5433727
tp1043
a(I5334217
I5725552
tp1044
a(I5334217
I5797960
tp1045
a(I5334217
I5855614
tp1046
a(I5334217
I5879366
tp1047
a(I5334217
I5944738
tp1048
a(I5334217
I6152144
tp1049
a(I5334217
I6458153
tp1050
a(I5554185
I6629534
tp1051
a(I5879366
I6231561
tp1052
a(I5879366
I6290674
tp1053
a(I5195984
I5316023
tp1054
a(I5195984
I5344426
tp1055
a(I5195984
I5354309
tp1056
a(I5195984
I5441515
tp1057
a(I5195984
I5449373
tp1058
a(I5195984
I5456667
tp1059
a(I5195984
I5458615
tp1060
a(I5195984
I5514154
tp1061
a(I5195984
I5569295
tp1062
a(I5195984
I5632772
tp1063
a(I5195984
I5639278
tp1064
a(I5195984
I5649977
tp1065
a(I5195984
I5674242
tp1066
a(I5195984
I5693085
tp1067
a(I5195984
I6165212
tp1068
a(I5195984
I6442413
tp1069
a(I5776161
I5855597
tp1070
a(I5366490
I5709224
tp1071
a(I5366490
I5921982
tp1072
a(I5366490
I6190353
tp1073
a(I5370675
I5599345
tp1074
a(I5370675
I5697909
tp1075
a(I5370675
I5807395
tp1076
a(I5370675
I5810764
tp1077
a(I5370675
I5921982
tp1078
a(I5370675
I6575969
tp1079
a(I5599345
I6575969
tp1080
a(I5350398
I5910154
tp1081
a(I5350398
I5911734
tp1082
a(I5350398
I6027520
tp1083
a(I5350398
I6042598
tp1084
a(I5807395
I5971983
tp1085
a(I5807395
I6012457
tp1086
a(I5807395
I6024740
tp1087
a(I5433727
I5797960
tp1088
a(I5433727
I5855614
tp1089
a(I5433727
I5879366
tp1090
a(I5433727
I5961440
tp1091
a(I5433727
I6152144
tp1092
a(I5634936
I5944738
tp1093
a(I5634936
I6152144
tp1094
a(I5797960
I6629534
tp1095
a(I5855614
I6629534
tp1096
a(I5769816
I6152946
tp1097
a(I5769816
I6168579
tp1098
a(I5769816
I6179859
tp1099
a(I5769816
I6258115
tp1100
a(I5609629
I5824048
tp1101
a(I5609629
I5865814
tp1102
a(I5609629
I6056993
tp1103
a(I5609629
I6231600
tp1104
a(I5609629
I6258121
tp1105
a(I5609629
I6299604
tp1106
a(I5609629
I6335029
tp1107
a(I5957949
I6458153
tp1108
a(I5925063
I6458153
tp1109
a(dp1110
I5837313
(lp1111
Vcoat
p1112
aVstent
p1113
aVprosthesi
p1114
aVcure
p1115
aVuncur
p1116
aVargon
p1117
aVpretreat
p1118
aVlattic
p1119
aVgamma
p1120
aVsteril
p1121
asI6168579
(lp1122
Vflush
p1123
aVcathet
p1124
aVfilter
p1125
aVlumen
p1126
aVendovascular
p1127
aVembol
p1128
aVguidewir
p1129
aVguid
p1130
aVatherectomi
p1131
aVdistal
p1132
asI5591197
(lp1133
Vstent
p1134
aVlumen
p1135
aVbarb
p1136
aVintralumin
p1137
aVbodi
p1138
aVproject
p1139
aVimplant
p1140
aVunexpand
p1141
aVexpand
p1142
aVdiamet
p1143
asI5282823
(lp1144
Vstent
p1145
aVlumen
p1146
aVbodi
p1147
aVcylindr
p1148
aVconform
p1149
aVexpand
p1150
aVpolymer
p1151
aVangioplasti
p1152
aVintravascular
p1153
aVradial
p1154
asI5282824
(lp1155
Vstent
p1156
aVaneurysm
p1157
aVpassageway
p1158
aVsleev
p1159
aVrestenos
p1160
aVtumor
p1161
aVassembl
p1162
aVpostion
p1163
aVbiliari
p1164
aVexpand
p1165
asI5152777
(lp1166
Vand
p1167
aVemboli
p1168
aVentail
p1169
aVconform
p1170
aVwhen
p1171
aVtemporarili
p1172
aVvessel
p1173
aVdamag
p1174
aVuse
p1175
aVfrom
p1176
asI5211658
(lp1177
Vblood
p1178
aVtubular
p1179
aVpercutan
p1180
aVskeleton
p1181
aVvessel
p1182
aVstructur
p1183
aVmembran
p1184
aVaneurysm
p1185
aVthin
p1186
aVwall
p1187
asI5092877
(lp1188
Vand
p1189
aVgeneral
p1190
aVare
p1191
aVsubstanti
p1192
aVrespect
p1193
aVdispos
p1194
aVendoprosthesi
p1195
aVstent
p1196
aVsection
p1197
aVadjac
p1198
asI5971983
(lp1199
Vablat
p1200
aVostia
p1201
aVguidewir
p1202
aVanchor
p1203
aVvein
p1204
aVanatomi
p1205
aVpulmonari
p1206
aVtissu
p1207
aVstiffen
p1208
aVelement
p1209
asI4762128
(lp1210
Vprostat
p1211
aVhypertrophi
p1212
aVstent
p1213
aVgland
p1214
aVurethr
p1215
aVlumen
p1216
aVexpand
p1217
aVtubular
p1218
aVurethra
p1219
aVcathet
p1220
asI5769816
(lp1221
Vblood
p1222
aVmesh
p1223
aVvessel
p1224
aVentrap
p1225
aVfiltrat
p1226
aVfilter
p1227
aVaorta
p1228
aVembol
p1229
aVwithin
p1230
aVcannula
p1231
asI6179859
(lp1232
Vemboli
p1233
aVfiltrat
p1234
aVwire
p1235
aVfilter
p1236
aVguid
p1237
aVelement
p1238
aVdislodg
p1239
aVocclus
p1240
aVrotat
p1241
aVtranslat
p1242
asI4994069
(lp1243
Vvessel
p1244
aVwire
p1245
aVvaso
p1246
aVhelic
p1247
aVocclus
p1248
aVwind
p1249
aVrelax
p1250
aVcoil
p1251
aVcondit
p1252
aVstretch
p1253
asI5329942
(lp1254
Vblood
p1255
aVcathet
p1256
aVvessel
p1257
aVfilter
p1258
aVassembl
p1259
aVreposit
p1260
aVposit
p1261
aVthen
p1262
aVrelock
p1263
aVwithin
p1264
asI4994071
(lp1265
Vstent
p1266
aVvessel
p1267
aVbifurc
p1268
aVimplant
p1269
aVballoon
p1270
aVexpand
p1271
aVdeflat
p1272
aVinsert
p1273
aVwithdrawn
p1274
aVcathet
p1275
asI4922905
(lp1276
Vcathet
p1277
aVendoprosthesi
p1278
aVimplant
p1279
aVradial
p1280
aVexpans
p1281
aVessentailli
p1282
aVplay
p1283
aVretain
p1284
aVaxial
p1285
aVdilat
p1286
asI6358556
(lp1287
Vcoat
p1288
aVstent
p1289
aVprosthesi
p1290
aVcure
p1291
aVuncur
p1292
aVargon
p1293
aVpretreat
p1294
aVlattic
p1295
aVgamma
p1296
aVsteril
p1297
asI4994077
(lp1298
Vblood
p1299
aVheart
p1300
aVvessel
p1301
aVvalv
p1302
aVanchor
p1303
aVartifici
p1304
aVflap
p1305
aVeb
p1306
aVbent
p1307
aVsnag
p1308
asI6056993
(lp1309
Vand
p1310
aVpartial
p1311
aVsame
p1312
aVsolubl
p1313
aVtubular
p1314
aVinvolv
p1315
aVfor
p1316
aVmold
p1317
aVmake
p1318
aVleast
p1319
asI5669924
(lp1320
Vand
p1321
aVconform
p1322
aVinto
p1323
aVwithin
p1324
aVinvent
p1325
aVone
p1326
aVcathet
p1327
aVshape
p1328
aVhave
p1329
aVvessel
p1330
asI5733925
(lp1331
Vand
p1332
aVassoci
p1333
aVprotocol
p1334
aVcellular
p1335
aVactiv
p1336
aVmodul
p1337
aVmuscl
p1338
aVagent
p1339
aVdosag
p1340
aVbiolog
p1341
asI6168614
(lp1342
Vapic
p1343
aVvalv
p1344
aVstent
p1345
aVprosthesi
p1346
aVcommissur
p1347
aVimplant
p1348
aVcathet
p1349
aVbodi
p1350
aVcollaps
p1351
aVexpand
p1352
asI5649959
(lp1353
Vpunctur
p1354
aVincis
p1355
aVvessel
p1356
aVpatient
p1357
aVlumen
p1358
aVduct
p1359
aVseal
p1360
aVblood
p1361
aVbioabsorb
p1362
aVgelatin
p1363
asI6254632
(lp1364
Vprotrud
p1365
aVstent
p1366
aVstructur
p1367
aVovular
p1368
aVcan
p1369
aVcover
p1370
aVsubstanc
p1371
aVmedic
p1372
aVimplant
p1373
aVgrit
p1374
asI5824041
(lp1375
Vprosthesi
p1376
aVsheath
p1377
aVcathet
p1378
aVshaft
p1379
aVrecaptur
p1380
aVdistal
p1381
aVintralumin
p1382
aVradial
p1383
aVcompress
p1384
aVelong
p1385
asI5766151
(lp1386
Vcathet
p1387
aVarteri
p1388
aVcardiopleg
p1389
aVheart
p1390
aVballoon
p1391
aVaorta
p1392
aVcoronari
p1393
aVarrest
p1394
aVtip
p1395
aVpatient
p1396
asI5332402
(lp1397
Vpercutan
p1398
aVcardiac
p1399
aVcold
p1400
aVvalv
p1401
aVinsert
p1402
aVtemperatur
p1403
aVheart
p1404
aVsheath
p1405
aVwithdraw
p1406
aVcollaps
p1407
asI4886062
(lp1408
Vstent
p1409
aVimplant
p1410
aVtransluminar
p1411
aVcoronari
p1412
aVexpand
p1413
aVvascular
p1414
aVradial
p1415
aVpatenc
p1416
aVlarger
p1417
aVangioplasti
p1418
asI5071407
(lp1419
Vand
p1420
aVproxim
p1421
aVdeform
p1422
aVcan
p1423
aVdistal
p1424
aVinto
p1425
aVwithin
p1426
aVthus
p1427
aVit
p1428
aVagainst
p1429
asI5824048
(lp1430
Vstent
p1431
aVtherapeut
p1432
aVsubstanc
p1433
aVcoat
p1434
aVlumen
p1435
aVpolym
p1436
aVdexamethason
p1437
aVporous
p1438
aVexpans
p1439
aVdeliv
p1440
asI5824049
(lp1441
Vbioactiv
p1442
aVparylen
p1443
aVmedic
p1444
aVtract
p1445
aVlayer
p1446
aVstructur
p1447
aVporous
p1448
aVbiliari
p1449
aVimplant
p1450
aVvapor
p1451
asI6071305
(lp1452
Vand
p1453
aVcontrol
p1454
aVreservoir
p1455
aVprevent
p1456
aVwall
p1457
aVappli
p1458
aVdirect
p1459
aVagent
p1460
aVone
p1461
aVbiolog
p1462
asI6335029
(lp1463
Vbioactiv
p1464
aVlayer
p1465
aVagent
p1466
aVplasma
p1467
aVbarrier
p1468
aVmedic
p1469
aVimplant
p1470
aVpolymer
p1471
aVcomposit
p1472
aVstructur
p1473
asI6231561
(lp1474
Vtissu
p1475
aVcathet
p1476
aVdeploy
p1477
aVanchor
p1478
aVclosur
p1479
aVclose
p1480
aVbodi
p1481
aVcaviti
p1482
aVappendag
p1483
aVatrial
p1484
asI5649977
(lp1485
Vstent
p1486
aVthin
p1487
aVmetal
p1488
aVpolym
p1489
aVsheet
p1490
aVreinforc
p1491
aVplanar
p1492
aVcontract
p1493
aVdrug
p1494
aVblood
p1495
asI5549626
(lp1496
Vcathet
p1497
aVfilter
p1498
aVsyring
p1499
aVcaval
p1500
aVinner
p1501
aVblood
p1502
aVouter
p1503
aVvena
p1504
aVvessel
p1505
aVdistal
p1506
asI5222971
(lp1507
Vstent
p1508
aVvessel
p1509
aVportion
p1510
aVperfus
p1511
aVsize
p1512
aVsupport
p1513
aVtemporari
p1514
aVend
p1515
aVexpand
p1516
aVproxim
p1517
asI6240616
(lp1518
Vstent
p1519
aVvasculatur
p1520
aVprosthesi
p1521
aVmetal
p1522
aVporous
p1523
aVtherapeut
p1524
aVmedic
p1525
aVagent
p1526
aVmanufactur
p1527
aVpore
p1528
asI5330500
(lp1529
Vstent
p1530
aVstructur
p1531
aVunit
p1532
aVframe
p1533
aVexpand
p1534
aVendovascular
p1535
aVsilicon
p1536
aVzag
p1537
aVzig
p1538
aVcoat
p1539
asI5911734
(lp1540
Vcathet
p1541
aVstent
p1542
aVfilter
p1543
aVvessel
p1544
aVguidewir
p1545
aVpercutan
p1546
aVstenos
p1547
aVblood
p1548
aVaortic
p1549
aVframe
p1550
asI5879366
(lp1551
Vdefect
p1552
aVseptal
p1553
aVexpand
p1554
aVself
p1555
aVfluoropolym
p1556
aVseal
p1557
aVpresent
p1558
aVdevic
p1559
aVcathet
p1560
aVinvent
p1561
asI5797960
(lp1562
Vheart
p1563
aVseptal
p1564
aVmuscular
p1565
aVaccess
p1566
aVpenetr
p1567
aVintercost
p1568
aVdefect
p1569
aVdevic
p1570
aVlumen
p1571
aVtubular
p1572
asI5026377
(lp1573
Vstent
p1574
aVsleev
p1575
aVgrip
p1576
aVinstrument
p1577
aVexpand
p1578
aVself
p1579
aVelong
p1580
aVcanal
p1581
aVouter
p1582
aVsaid
p1583
asI5464650
(lp1584
Vstent
p1585
aVdrug
p1586
aVsolvent
p1587
aVintravascular
p1588
aVpolym
p1589
aVbiostabl
p1590
aVdexamethason
p1591
aVexpans
p1592
aVbioabsorb
p1593
aVsolut
p1594
asI5458615
(lp1595
Vstent
p1596
aVcathet
p1597
aVsheath
p1598
aVlumen
p1599
aVexpand
p1600
aVdeliveri
p1601
aVguidewir
p1602
aVdistal
p1603
aVmember
p1604
aVcone
p1605
asI5810764
(lp1606
Velectrod
p1607
aVresect
p1608
aVtissu
p1609
aVloop
p1610
aVelectrosurg
p1611
aVactiv
p1612
aVresectoscop
p1613
aVportion
p1614
aVorient
p1615
aVcut
p1616
asI5800525
(lp1617
Vfilter
p1618
aVframework
p1619
aVintralumen
p1620
aVdeploy
p1621
aVelast
p1622
aVtubular
p1623
aVbodili
p1624
aVresum
p1625
aVfilament
p1626
aVtrap
p1627
asI5423885
(lp1628
Vstent
p1629
aVprotrus
p1630
aVarteri
p1631
aVexpand
p1632
aVballoon
p1633
aVcathet
p1634
aVbodi
p1635
aVvacat
p1636
aVbioabsorb
p1637
aVapertur
p1638
asI5514154
(lp1639
Vstent
p1640
aVexpand
p1641
aVcylindr
p1642
aVinterconnect
p1643
aVradial
p1644
aVelement
p1645
aVundul
p1646
aVconsist
p1647
aVarteri
p1648
aVribbon
p1649
asI5328471
(lp1650
Vdiseas
p1651
aVlumen
p1652
aVfocal
p1653
aVintroduct
p1654
aVtherapeut
p1655
aVaccomplish
p1656
aVtissu
p1657
aVadvantag
p1658
aVtubular
p1659
aVhollow
p1660
asI6120536
(lp1661
Vthrombogen
p1662
aVcoat
p1663
aVheparin
p1664
aVbiostabl
p1665
aVfluorosilicon
p1666
aVelectroneg
p1667
aVnon
p1668
aVprosthes
p1669
aVelut
p1670
aVpeg
p1671
asI5624411
(lp1672
Vstent
p1673
aVdrug
p1674
aVintravascular
p1675
aVpolym
p1676
aVbiostabl
p1677
aVporous
p1678
aVtherapeut
p1679
aVsubstanc
p1680
aVbioabsorb
p1681
aVoverco
p1682
asI5261916
(lp1683
Vpusher
p1684
aVcoil
p1685
aVkeyway
p1686
aVvasoocclus
p1687
aVenlarg
p1688
aVsleev
p1689
aVassembl
p1690
aVinterlock
p1691
aVmember
p1692
aVdetach
p1693
asI5324304
(lp1694
Vmember
p1695
aVcathet
p1696
aVimplant
p1697
aVretain
p1698
aVanchor
p1699
aVleg
p1700
aVtubular
p1701
aVsheath
p1702
aVdisplac
p1703
aVend
p1704
asI5588579
(lp1705
Vanvil
p1706
aVinstrument
p1707
aVstapler
p1708
aVknife
p1709
aVslope
p1710
aVsurgic
p1711
aVdure
p1712
aVcircular
p1713
aVsever
p1714
aVfasten
p1715
asI5192297
(lp1716
Vand
p1717
aVcarri
p1718
aVinto
p1719
aVwithin
p1720
aVcathet
p1721
aVvessel
p1722
aVrespect
p1723
aVguid
p1724
aVsubject
p1725
aVfor
p1726
asI6099562
(lp1727
Vand
p1728
aVpolymer
p1729
aVless
p1730
aVactiv
p1731
aVdure
p1732
aVpore
p1733
aVbiolog
p1734
aVlong
p1735
aVsubstanti
p1736
aVporosigen
p1737
asI5941869
(lp1738
Vstenot
p1739
aVstent
p1740
aVremov
p1741
aVrecan
p1742
aVarteri
p1743
aVmateri
p1744
aVcathet
p1745
aVsens
p1746
aVmechan
p1747
aVrestenos
p1748
asI5639278
(lp1749
Vgraft
p1750
aVendolumin
p1751
aVexpand
p1752
aVbifurc
p1753
aVendoprosthesi
p1754
aVsupport
p1755
aVdiamet
p1756
aVliner
p1757
aVvessel
p1758
aVstenosi
p1759
asI5562728
(lp1760
Vcapsul
p1761
aVgraft
p1762
aVdistal
p1763
aVendovascular
p1764
aVtubular
p1765
aVcathet
p1766
aVproxim
p1767
aVunitari
p1768
aVextrem
p1769
aVwrap
p1770
asI5382259
(lp1771
Vvasoocclus
p1772
aVbraid
p1773
aVwoven
p1774
aVfibrous
p1775
aVtubular
p1776
aVcoil
p1777
aVattach
p1778
aVsegment
p1779
aVonto
p1780
aVfield
p1781
asI5921982
(lp1782
Vtissu
p1783
aVprobe
p1784
aVregion
p1785
aVhous
p1786
aVport
p1787
aVelement
p1788
aVwithin
p1789
aVcannula
p1790
aVablat
p1791
aVend
p1792
asI5669933
(lp1793
Vand
p1794
aVcurv
p1795
aVedg
p1796
aVprevent
p1797
aVwall
p1798
aVopposit
p1799
aVinto
p1800
aVdirect
p1801
aVthereof
p1802
aVclot
p1803
asI6171327
(lp1804
Vfilter
p1805
aVcathet
p1806
aVatraumat
p1807
aVdistal
p1808
aVintravascular
p1809
aVguidewir
p1810
aVhous
p1811
aVretriev
p1812
aVsite
p1813
aVdeliv
p1814
asI5122154
(lp1815
Vsleev
p1816
aVgraft
p1817
aVstent
p1818
aVsection
p1819
aVexpand
p1820
aVstate
p1821
aVlumen
p1822
aVduct
p1823
aVblood
p1824
aVcompact
p1825
asI5411520
(lp1826
Vpunctur
p1827
aVtract
p1828
aVanchor
p1829
aVplug
p1830
aVclosur
p1831
aVintroduc
p1832
aVdome
p1833
aVcarrier
p1834
aVvessel
p1835
aVhemostat
p1836
asI5681282
(lp1837
Vand
p1838
aVcontrol
p1839
aVvia
p1840
aVpast
p1841
aVdistal
p1842
aVover
p1843
aVwithin
p1844
aVit
p1845
aVhigh
p1846
aVveri
p1847
asI6161543
(lp1848
Vheart
p1849
aVablat
p1850
aVprobe
p1851
aVelong
p1852
aVepicardi
p1853
aVtissu
p1854
aVhemostat
p1855
aVlesion
p1856
aVshaft
p1857
aVchest
p1858
asI5941896
(lp1859
Vfilter
p1860
aVendovascular
p1861
aVemboli
p1862
aVcathet
p1863
aVguidewir
p1864
aVprocedur
p1865
aVtrap
p1866
aVcollaps
p1867
aVporous
p1868
aVbloodstream
p1869
asI5575818
(lp1870
Vbraid
p1871
aVstent
p1872
aVring
p1873
aVlock
p1874
aVportion
p1875
aVpitch
p1876
aVbarb
p1877
aVangl
p1878
aVendovascular
p1879
aVingrowth
p1880
asI5059211
(lp1881
Vstent
p1882
aVcite
p1883
aVexpand
p1884
aVcathet
p1885
aVarteri
p1886
aVobstruct
p1887
aVstenot
p1888
aVdeliveri
p1889
aVbioabsorb
p1890
aVingrowth
p1891
asI4921484
(lp1892
Vmesh
p1893
aVcathet
p1894
aVtubular
p1895
aVballoon
p1896
aVdistal
p1897
aVend
p1898
aVproxim
p1899
aVtube
p1900
aVinterlac
p1901
aVwoven
p1902
asI5192301
(lp1903
Vand
p1904
aVoper
p1905
aVrang
p1906
aVsmaller
p1907
aVdeform
p1908
aVdure
p1909
aVdefect
p1910
aVthereof
p1911
aVone
p1912
aVcathet
p1913
asI5342348
(lp1914
Vbioactiv
p1915
aVlumen
p1916
aVdilat
p1917
aVsubstanc
p1918
aVmatric
p1919
aVdeliveri
p1920
aVstent
p1921
aVfilament
p1922
aVstenosi
p1923
aVerod
p1924
asI5197971
(lp1925
Vretractor
p1926
aVtissu
p1927
aVexpand
p1928
aVarthroscop
p1929
aVsub
p1930
aVpercutan
p1931
aVsurgeon
p1932
aVportal
p1933
aVcannula
p1934
aVagainst
p1935
asI5158548
(lp1936
Vstent
p1937
aVexpand
p1938
aVcathet
p1939
aVdistal
p1940
aVguidewir
p1941
aVsheath
p1942
aVbodi
p1943
aVlumen
p1944
aVcontract
p1945
aVmember
p1946
asI5554185
(lp1947
Vand
p1948
aVoper
p1949
aVassimil
p1950
aVwithin
p1951
aVit
p1952
aVcathet
p1953
aVbiolog
p1954
aVthrough
p1955
aVpass
p1956
aVhook
p1957
asI5676697
(lp1958
Vand
p1959
aVrepair
p1960
aVinjuri
p1961
aVwall
p1962
aVinto
p1963
aVwithin
p1964
aVdefect
p1965
aVseat
p1966
aVsecond
p1967
aVthrough
p1968
asI5197978
(lp1969
Vtissu
p1970
aVexpand
p1971
aVangioplasti
p1972
aVrecover
p1973
aVstent
p1974
aVlike
p1975
aVheat
p1976
aVremov
p1977
aVrecoveri
p1978
aVsupport
p1979
asI5061275
(lp1980
Vprosthesi
p1981
aVbodi
p1982
aVelement
p1983
aVhelix
p1984
aVexpand
p1985
aVthread
p1986
aVtubular
p1987
aVself
p1988
aVdiamet
p1989
aVunload
p1990
asI5449372
(lp1991
Vstent
p1992
aVvessel
p1993
aVperfus
p1994
aVportion
p1995
aVtemporari
p1996
aVcomposit
p1997
aVvasospasm
p1998
aVvasoconstrict
p1999
aVsupport
p2000
aVpatenc
p2001
asI5693085
(lp2002
Vthe
p2003
aVfor
p2004
aVstent
p2005
aVcollagen
p2006
aVfind
p2007
aVstem
p2008
aVbiocompat
p2009
aVtreatment
p2010
aVvascular
p2011
aVincreas
p2012
asI6629534
(lp2013
Vvalv
p2014
aVatrioventricular
p2015
aVleaflet
p2016
aVrepair
p2017
aVcardiac
p2018
aVmodifi
p2019
aVheart
p2020
aVchorda
p2021
aVtemporarili
p2022
aVpapillari
p2023
asI5507744
(lp2024
Vpunctur
p2025
aVvascular
p2026
aVtissu
p2027
aVseal
p2028
aVthermal
p2029
aVenergi
p2030
aVfuse
p2031
aVocclud
p2032
aVtogeth
p2033
aVclose
p2034
asI5709224
(lp2035
Vand
p2036
aVreciproc
p2037
aVappli
p2038
aVwithin
p2039
aVone
p2040
aVoppos
p2041
aVpressur
p2042
aVare
p2043
aVhave
p2044
aVvessel
p2045
asI5458597
(lp2046
Vtissu
p2047
aVfluid
p2048
aVelectrod
p2049
aVdistribut
p2050
aVstylet
p2051
aVport
p2052
aVmalign
p2053
aVtreat
p2054
aVbodi
p2055
aVcapsul
p2056
asI5599345
(lp2057
Vand
p2058
aVdistal
p2059
aVindepend
p2060
aVcathet
p2061
aVsleev
p2062
aVare
p2063
aVresourc
p2064
aVslidabl
p2065
aVselect
p2066
aVsurfac
p2067
asI5344426
(lp2068
Vstent
p2069
aVexpand
p2070
aVcathet
p2071
aVdistal
p2072
aVguidewir
p2073
aVsheath
p2074
aVbodi
p2075
aVlumen
p2076
aVcontract
p2077
aVmember
p2078
asI5925063
(lp2079
Vflap
p2080
aVbiocompat
p2081
aVinterior
p2082
aVlumen
p2083
aVsheet
p2084
aVdeploy
p2085
aVtranslumin
p2086
aVinward
p2087
aVcoil
p2088
aVradial
p2089
asI5195984
(lp2090
Vgraft
p2091
aVexpand
p2092
aVintralumin
p2093
aVtubular
p2094
aVblood
p2095
aVmember
p2096
aVvessel
p2097
aVangioplasti
p2098
aVdilat
p2099
aVlongitudin
p2100
asI5135536
(lp2101
Vstent
p2102
aVwire
p2103
aVendovascular
p2104
aVdiamet
p2105
aVballoon
p2106
aVmandrel
p2107
aVcathet
p2108
aVbent
p2109
aVjunction
p2110
aVtight
p2111
asI5667523
(lp2112
Vlayer
p2113
aVwithin
p2114
aVprefer
p2115
aVback
p2116
aVfold
p2117
aVshape
p2118
aVdual
p2119
aVflexibl
p2120
aVtubular
p2121
aVinsepar
p2122
asI5507767
(lp2123
Vstent
p2124
aVzigzag
p2125
aVbend
p2126
aVpattern
p2127
aVpassageway
p2128
aVstraight
p2129
aVwire
p2130
aVhelix
p2131
aVexpand
p2132
aVtubular
p2133
asI5507769
(lp2134
Vgraftstent
p2135
aVcephal
p2136
aVvessel
p2137
aVendolumin
p2138
aVaneurysm
p2139
aVbranch
p2140
aVblood
p2141
aVstent
p2142
aVcomplex
p2143
aVcommon
p2144
asI5810874
(lp2145
Vcathet
p2146
aVbasic
p2147
aVdistal
p2148
aVfilter
p2149
aVstrip
p2150
aVend
p2151
aVbodi
p2152
aVtemporari
p2153
aVconnect
p2154
aVcircumfer
p2155
asI5700286
(lp2156
Vover
p2157
aVfriction
p2158
aVrestenosi
p2159
aVunexpand
p2160
aVstent
p2161
aVmatch
p2162
aVpyrrolidon
p2163
aVaround
p2164
aVinsert
p2165
aVgum
p2166
asI6379381
(lp2167
Vdepot
p2168
aVprosthesi
p2169
aVsubstanc
p2170
aVpore
p2171
aVpreselect
p2172
aVshape
p2173
aVtherapeut
p2174
aVpolymer
p2175
aVradiopaqu
p2176
aVcylindr
p2177
asI5108416
(lp2178
Vand
p2179
aVfrom
p2180
aVinto
p2181
aVsite
p2182
aVone
p2183
aVcathet
p2184
aVhave
p2185
aVlocat
p2186
aVfor
p2187
aVstent
p2188
asI5405377
(lp2189
Vstent
p2190
aVintralumin
p2191
aVapic
p2192
aVzag
p2193
aVzig
p2194
aVcompress
p2195
aVwire
p2196
aVhelix
p2197
aVimplant
p2198
aVconfigur
p2199
asI5108419
(lp2200
Vand
p2201
aVrepair
p2202
aVsmaller
p2203
aVprimarili
p2204
aVwall
p2205
aVporous
p2206
aVdure
p2207
aVwithin
p2208
aVprefer
p2209
aVcontinu
p2210
asI5108420
(lp2211
Vapertur
p2212
aVand
p2213
aVinto
p2214
aVwithin
p2215
aVprefer
p2216
aVdefect
p2217
aVone
p2218
aVcathet
p2219
aVshape
p2220
aVthrough
p2221
asI6096070
(lp2222
Vand
p2223
aVcontrol
p2224
aVlayer
p2225
aVappli
p2226
aVinto
p2227
aVtrachea
p2228
aVprefer
p2229
aVone
p2230
aVurinari
p2231
aVcolon
p2232
asI5776161
(lp2233
Vstent
p2234
aVexpans
p2235
aVexpand
p2236
aVstrain
p2237
aVminim
p2238
aVlongitudin
p2239
aVflexibl
p2240
aVtube
p2241
aVfilm
p2242
aVballoon
p2243
asI5334217
(lp2244
Vdisk
p2245
aVdefect
p2246
aVseptal
p2247
aVmembran
p2248
aVcathet
p2249
aVconjoint
p2250
aVtaut
p2251
aVclosur
p2252
aVocclud
p2253
aVelast
p2254
asI5380299
(lp2255
Vthrombolyt
p2256
aVmedic
p2257
aVagent
p2258
aVintravascular
p2259
aVthrombus
p2260
aVdip
p2261
aVvascular
p2262
aVdevic
p2263
aVantithrombogen
p2264
aVmateri
p2265
asI4966604
(lp2266
Vtorqu
p2267
aVblade
p2268
aVtip
p2269
aVbow
p2270
aVtube
p2271
aVexpand
p2272
aVflexibl
p2273
aVatherectomi
p2274
aVoutward
p2275
aVdesmodrom
p2276
asI5078736
(lp2277
Vdisrupt
p2278
aVpatenc
p2279
aVexcis
p2280
aVpassag
p2281
aVgrowth
p2282
aVradio
p2283
aVmechan
p2284
aVcellular
p2285
aVmesh
p2286
aVfrequenc
p2287
asI5840081
(lp2288
Vapic
p2289
aVvalv
p2290
aVstent
p2291
aVcommissur
p2292
aVimplant
p2293
aVprosthesi
p2294
aVcardiac
p2295
aVcathet
p2296
aVcollaps
p2297
aVexpand
p2298
asI4950227
(lp2299
Vstent
p2300
aVcathet
p2301
aVcontract
p2302
aVmargin
p2303
aVexpans
p2304
aVexpand
p2305
aVstate
p2306
aVcondit
p2307
aVdistal
p2308
aVsleev
p2309
asI5383892
(lp2310
Vstent
p2311
aVaxial
p2312
aVcylindr
p2313
aVpart
p2314
aVrigid
p2315
aVflexibl
p2316
aVtranslumin
p2317
aVexpand
p2318
aVjuxtaposit
p2319
aVradial
p2320
asI5015253
(lp2321
Vendoprosthesi
p2322
aVwoven
p2323
aVstent
p2324
aVnon
p2325
aVstrand
p2326
aVsite
p2327
aVstructur
p2328
aVsomewhat
p2329
aVfrangibl
p2330
aVgeneral
p2331
asI6273913
(lp2332
Vstent
p2333
aVrestenosi
p2334
aVneointim
p2335
aVrapamycin
p2336
aVinhibit
p2337
aVdeliveri
p2338
aVintravascular
p2339
aVmicropor
p2340
aVprolifer
p2341
aVstrut
p2342
asI6024740
(lp2343
sI5366490
(lp2344
Vstylet
p2345
aVtissu
p2346
aVcathet
p2347
aVport
p2348
aVconductor
p2349
aVtarget
p2350
aVprobe
p2351
aVguid
p2352
aVinterven
p2353
aVlumen
p2354
asI6165212
(lp2355
Vgraft
p2356
aVexpand
p2357
aVendolumin
p2358
aVendoprosthesi
p2359
aVliner
p2360
aVdiamet
p2361
aVelastomer
p2362
aVsupport
p2363
aVstenosi
p2364
aVbifurc
p2365
asI6325797
(lp2366
Vcathet
p2367
aVostium
p2368
aVvessel
p2369
aVvein
p2370
aVpulmonari
p2371
aVportion
p2372
aVablat
p2373
aVloop
p2374
aVisol
p2375
aVintermedi
p2376
asI5961440
(lp2377
Vheart
p2378
aVtension
p2379
aVwall
p2380
aVapparatus
p2381
aVfail
p2382
aVdraw
p2383
aVreduct
p2384
aVtreatment
p2385
aVtherein
p2386
aVtoward
p2387
asI5837008
(lp2388
Vand
p2389
aVcontrol
p2390
aVappli
p2391
aVdure
p2392
aVrate
p2393
aVdeliv
p2394
aVfollow
p2395
aVselect
p2396
aVinclus
p2397
aVratio
p2398
asI5843172
(lp2399
Vstent
p2400
aVvasculatur
p2401
aVmedic
p2402
aVpore
p2403
aVmetal
p2404
aVdiseas
p2405
aVdeploy
p2406
aVporous
p2407
aVsite
p2408
aVdeliv
p2409
asI5366504
(lp2410
Vprosthesi
p2411
aVstrand
p2412
aVtubular
p2413
aVknit
p2414
aVlumen
p2415
aVloop
p2416
aVmateri
p2417
aVwall
p2418
aVloos
p2419
aVshape
p2420
asI5147370
(lp2421
Vstent
p2422
aVplacement
p2423
aVmandril
p2424
aVnitinol
p2425
aVmaniupl
p2426
aVshape
p2427
aVradiologist
p2428
aVdevic
p2429
aVhollow
p2430
aVend
p2431
asI5799661
(lp2432
Varteri
p2433
aVgraft
p2434
aVcabg
p2435
aVcoronari
p2436
aVretractor
p2437
aVport
p2438
aVmultivessel
p2439
aVaccess
p2440
aVchest
p2441
aVintercost
p2442
asI6245102
(lp2443
Vstent
p2444
aVstar
p2445
aVgraft
p2446
aVshape
p2447
aVchain
p2448
aVinterconnect
p2449
aVmember
p2450
aVpoint
p2451
aVinward
p2452
aVreplac
p2453
asI5873904
(lp2454
Vand
p2455
aVcontrol
p2456
aVlayer
p2457
aVappli
p2458
aVinto
p2459
aVtrachea
p2460
aVprefer
p2461
aVone
p2462
aVurinari
p2463
aVcolon
p2464
asI6152946
(lp2465
Vvessel
p2466
aVdeploy
p2467
aVcollaps
p2468
aVprofil
p2469
aVdebri
p2470
aVbodi
p2471
aVfilter
p2472
aVtaper
p2473
aVfloat
p2474
aVemboli
p2475
asI5064435
(lp2476
Vdeform
p2477
aVopposit
p2478
aVbraid
p2479
aVreinforc
p2480
aVspite
p2481
aVstent
p2482
aVhelic
p2483
aVnon
p2484
aVpreserv
p2485
aVcoaxial
p2486
asI5609627
(lp2487
Vendolumin
p2488
aVbifurc
p2489
aVprosthesi
p2490
aVdeliv
p2491
aVmethod
p2492
aVfor
p2493
asI6012457
(lp2494
sI5683451
(lp2495
Vand
p2496
aValtern
p2497
aVproxim
p2498
aVcarri
p2499
aVover
p2500
aVwithin
p2501
aVcathet
p2502
aVtubular
p2503
aVoption
p2504
aVsepar
p2505
asI5827324
(lp2506
Vemboli
p2507
aVguidewir
p2508
aVcaptur
p2509
aVexpand
p2510
aVlumen
p2511
aVdistal
p2512
aVvasculatur
p2513
aVmember
p2514
aVcoupl
p2515
aVdeploy
p2516
asI5545214
(lp2517
Vvalv
p2518
aVendovascular
p2519
aVreplac
p2520
aVprosthet
p2521
aVheart
p2522
aVprocedur
p2523
aVintralumin
p2524
aVaortic
p2525
aVmalfunct
p2526
aVcapsul
p2527
asI6027520
(lp2528
Vand
p2529
aVoper
p2530
aVenlarg
p2531
aVaortic
p2532
aVsubstanti
p2533
aVaorta
p2534
aVcaptur
p2535
aVwall
p2536
aVdistal
p2537
aVframe
p2538
asI5674242
(lp2539
Vcarri
p2540
aVwhen
p2541
aVsite
p2542
aVshape
p2543
aVdesign
p2544
aVhave
p2545
aVselect
p2546
aVdescrib
p2547
aVfor
p2548
aVmemori
p2549
asI5632772
(lp2550
Vgraft
p2551
aVendolumin
p2552
aVexpand
p2553
aVendoprosthesi
p2554
aVbranch
p2555
aVsupport
p2556
aVdiamet
p2557
aVvessel
p2558
aVstenosi
p2559
aVcompon
p2560
asI5108407
(lp2561
Vand
p2562
aVcabl
p2563
aVcan
p2564
aVcarri
p2565
aVprobe
p2566
aVsite
p2567
aVcathet
p2568
aVthrough
p2569
aVsuch
p2570
aVenergi
p2571
asI5569295
(lp2572
Vstent
p2573
aVexpand
p2574
aVradial
p2575
aVexpans
p2576
aVcylindr
p2577
aVinterconnect
p2578
aVserpentin
p2579
aVlongitudin
p2580
aVarteri
p2581
aVgeneral
p2582
asI6190353
(lp2583
Vextravascular
p2584
aVvascular
p2585
aVpassageway
p2586
aVrevascular
p2587
aVprocedur
p2588
aVblood
p2589
aVintracorpor
p2590
aVmedic
p2591
aVnon
p2592
aVperform
p2593
asI5104404
(lp2594
Vcurv
p2595
aVamong
p2596
aVdiamet
p2597
aVsmaller
p2598
aVcurvatur
p2599
aVgive
p2600
aVindividu
p2601
aVprefer
p2602
aVnumber
p2603
aVinvent
p2604
asI6042875
(lp2605
Vand
p2606
aVprevent
p2607
aVlayer
p2608
aVconcept
p2609
aVsubstanti
p2610
aVreservoir
p2611
aVactiv
p2612
aVover
p2613
aVdirect
p2614
aVinvent
p2615
asI5234456
(lp2616
Vhollow
p2617
aVstent
p2618
aVwall
p2619
aVhydrophil
p2620
aVplacement
p2621
aVmembran
p2622
aVswell
p2623
aVinflat
p2624
aVsite
p2625
aVcan
p2626
asI5234457
(lp2627
Vand
p2628
aVthen
p2629
aVit
p2630
aVcure
p2631
aVvessel
p2632
aVimpregn
p2633
aVcompact
p2634
aVfor
p2635
aVstent
p2636
aVconfigur
p2637
asI5456667
(lp2638
Vcathet
p2639
aVexpand
p2640
aVarteri
p2641
aVvascular
p2642
aVfluid
p2643
aVprocedur
p2644
aVregion
p2645
aVangioplasti
p2646
aVpiec
p2647
aVintravascular
p2648
asI6558400
(lp2649
Vstomach
p2650
aVgastric
p2651
aVpouch
p2652
aVcalor
p2653
aVtreatment
p2654
aVobes
p2655
aVprocedur
p2656
aVpyloroplasti
p2657
aVdone
p2658
aVmay
p2659
asI5370657
(lp2660
Vthrombosi
p2661
aVvein
p2662
aVfilter
p2663
aVendoven
p2664
aVneointima
p2665
aVimpal
p2666
aVwall
p2667
aVcore
p2668
aVrecover
p2669
aVunit
p2670
asI5807395
(lp2671
Vtissu
p2672
aVneedl
p2673
aVcathet
p2674
aVablat
p2675
aVelectrod
p2676
aVtreat
p2677
aVhypertherm
p2678
aVinfus
p2679
aVhyperthermia
p2680
aVhollow
p2681
asI5800457
(lp2682
Vfilter
p2683
aVintravascular
p2684
aVdownstream
p2685
aVbodi
p2686
aVdebri
p2687
aVtaper
p2688
aVinstrument
p2689
aVbevel
p2690
aVend
p2691
aVport
p2692
asI5679400
(lp2693
Vand
p2694
aVcontrol
p2695
aVappli
p2696
aVdure
p2697
aVrate
p2698
aVdeliv
p2699
aVfollow
p2700
aVselect
p2701
aVinclus
p2702
aVratio
p2703
asI5527337
(lp2704
Vbioabsorb
p2705
aVstent
p2706
aVstenot
p2707
aVencapsul
p2708
aVdisadvantag
p2709
aVchronic
p2710
aVaneur
p2711
aVblood
p2712
aVvessel
p2713
aVimplant
p2714
asI5292331
(lp2715
Vendovascular
p2716
aVvessel
p2717
aVwirelik
p2718
aVaffect
p2719
aVrestenosi
p2720
aVcoronari
p2721
aVsupport
p2722
aVchronic
p2723
aVvascular
p2724
aVdevic
p2725
asI5980972
(lp2726
Vdrug
p2727
aVsolvent
p2728
aVcoat
p2729
aVpolym
p2730
aVcan
p2731
aVsystem
p2732
aVappli
p2733
aVdissolv
p2734
aVspray
p2735
aVsuspend
p2736
asI6458153
(lp2737
Vvenous
p2738
aVprosthet
p2739
aVcardiac
p2740
aVvalvuloplasti
p2741
aVvalv
p2742
aVtranslumin
p2743
aVendolumin
p2744
aVprosthes
p2745
aVpercutan
p2746
aVinvas
p2747
asI5609629
(lp2748
Vdexamethason
p2749
aVbioactiv
p2750
aVheparin
p2751
aVlayer
p2752
aVparylen
p2753
aVmateri
p2754
aVtract
p2755
aVporous
p2756
aVbiliari
p2757
aVmedic
p2758
asI5389106
(lp2759
Vsection
p2760
aVexpand
p2761
aVcircumferenti
p2762
aVstent
p2763
aVimperm
p2764
aVintravascular
p2765
aVradial
p2766
aVframe
p2767
aVmembran
p2768
aVexpans
p2769
asI4830003
(lp2770
Vstent
p2771
aVwire
p2772
aVcathet
p2773
aVweld
p2774
aVrestenosi
p2775
aVcompress
p2776
aVbiocompat
p2777
aVarteri
p2778
aVacut
p2779
aVpair
p2780
asI5413571
(lp2781
Vincis
p2782
aVhemostat
p2783
aVseal
p2784
aVpatient
p2785
aVballoon
p2786
aVmember
p2787
aVbioabsorb
p2788
aVbodi
p2789
aVdevic
p2790
aVcollagen
p2791
asI5354295
(lp2792
Vmicrocathet
p2793
aVtip
p2794
aVcaviti
p2795
aVendovascular
p2796
aVwire
p2797
aVvascular
p2798
aVpack
p2799
aVblood
p2800
aVocclus
p2801
aVarteri
p2802
asI5776184
(lp2803
Vdrug
p2804
aVstent
p2805
aVintravasoular
p2806
aVpolym
p2807
aVbiostabl
p2808
aVbioabsorb
p2809
aVintim
p2810
aVlumen
p2811
aVadministr
p2812
aVtherapeut
p2813
asI5360443
(lp2814
Vaortic
p2815
aVgraft
p2816
aVaorta
p2817
aVaneurysm
p2818
aVabdomin
p2819
aVrepair
p2820
aVtubular
p2821
aVintralumin
p2822
aVexpans
p2823
aVdeform
p2824
asI5370685
(lp2825
Vvalv
p2826
aVendovascular
p2827
aVreplac
p2828
aVprosthet
p2829
aVheart
p2830
aVprocedur
p2831
aVintralumin
p2832
aVaortic
p2833
aVmalfunct
p2834
aVcapsul
p2835
asI5865791
(lp2836
Vand
p2837
aVcarri
p2838
aVinto
p2839
aVaffix
p2840
aVprocedur
p2841
aVone
p2842
aVsecond
p2843
aVthrough
p2844
aVhave
p2845
aVatrium
p2846
asI5605696
(lp2847
Vdrug
p2848
aVstent
p2849
aVtherapeut
p2850
aVpolymer
p2851
aVmateri
p2852
aVload
p2853
aVcoextrus
p2854
aVincorpor
p2855
aVintravascular
p2856
aVlayer
p2857
asI5354308
(lp2858
Vframe
p2859
aVstent
p2860
aVcondit
p2861
aVassum
p2862
aVsubstanti
p2863
aVskelet
p2864
aVdevoid
p2865
aVwire
p2866
aVwall
p2867
aVadapt
p2868
asI5354309
(lp2869
Vwiden
p2870
aVstenosi
p2871
aVtemperatur
p2872
aVcontour
p2873
aVuret
p2874
aVtransit
p2875
aVbile
p2876
aVbodi
p2877
aVcaviti
p2878
aVcylindr
p2879
asI5780807
(lp2880
Vstent
p2881
aVcut
p2882
aVtube
p2883
aVexpand
p2884
aVlaser
p2885
aVelement
p2886
aVcylindr
p2887
aVinterconnect
p2888
aVradial
p2889
aVundul
p2890
asI4907336
(lp2891
Vwire
p2892
aVcylindr
p2893
aVtrough
p2894
aVserpentin
p2895
aVstent
p2896
aVbar
p2897
aVloop
p2898
aVexpos
p2899
aVshape
p2900
aVcathet
p2901
asI5456713
(lp2902
Vgraft
p2903
aVprothesi
p2904
aVprosthesi
p2905
aVtranslumin
p2906
aVlumen
p2907
aVprosthei
p2908
aVtubular
p2909
aVapertur
p2910
aVcarrier
p2911
aVsheath
p2912
asI4820298
(lp2913
Vhelix
p2914
aVstylet
p2915
aVbodi
p2916
aVassum
p2917
aVmedic
p2918
aVingrowth
p2919
aVtubular
p2920
aVaneurysm
p2921
aVclot
p2922
aVdilat
p2923
asI5534007
(lp2924
Vstent
p2925
aVsheath
p2926
aVcathet
p2927
aVdistal
p2928
aVdeliveri
p2929
aVcollaps
p2930
aVretract
p2931
aVpull
p2932
aVproxim
p2933
aVconcentr
p2934
asI5865814
(lp2935
Vand
p2936
aVpolymer
p2937
aVlayer
p2938
aVdeliv
p2939
aVrate
p2940
aVthrough
p2941
aVsolubl
p2942
aVfollow
p2943
aVselect
p2944
aVinclus
p2945
asI5489295
(lp2946
Vbifurc
p2947
aVleg
p2948
aVmain
p2949
aVbodi
p2950
aVgraft
p2951
aVopen
p2952
aVexpand
p2953
aVendovascular
p2954
aVtubular
p2955
aVsaid
p2956
asI5201757
(lp2957
Vstent
p2958
aVsleev
p2959
aVcathet
p2960
aVmedial
p2961
aVradial
p2962
aVaxial
p2963
aVanoth
p2964
aVexpand
p2965
aVself
p2966
aVregion
p2967
asI6153252
(lp2968
Vstent
p2969
aVbiocompat
p2970
aVcoat
p2971
aVpassag
p2972
aVpolym
p2973
aVfilm
p2974
aVblockag
p2975
aVprocess
p2976
aVsaid
p2977
aVbridg
p2978
asI5639008
(lp2979
Vanvil
p2980
aVinstrument
p2981
aVstapler
p2982
aVknife
p2983
aVslope
p2984
aVsurgic
p2985
aVdure
p2986
aVcircular
p2987
aVsever
p2988
aVfasten
p2989
asI6575969
(lp2990
Vcool
p2991
aVablat
p2992
aVradiofrequ
p2993
aVtip
p2994
aVelectrod
p2995
aVwill
p2996
aVfrequenc
p2997
aVpatent
p2998
aVworkstion
p2999
aVmonitor
p3000
asI5972027
(lp3001
Vstent
p3002
aVdrug
p3003
aVcast
p3004
aVporous
p3005
aVpowder
p3006
aVintralumin
p3007
aVpolym
p3008
aVtreatment
p3009
aVporos
p3010
aVpore
p3011
asI6042598
(lp3012
Vstenos
p3013
aVthrough
p3014
aVcarotid
p3015
aVguidewir
p3016
aVstent
p3017
aVactiv
p3018
aVlocal
p3019
aVintroduc
p3020
aVarteri
p3021
aVfluid
p3022
asI5540712
(lp3023
Vframe
p3024
aVstent
p3025
aVcondit
p3026
aVassum
p3027
aVsubstanti
p3028
aVskelet
p3029
aVdevoid
p3030
aVwall
p3031
aVadapt
p3032
aVconfigur
p3033
asI6290674
(lp3034
Vseptal
p3035
aVatrial
p3036
aVtissu
p3037
aVforeman
p3038
aVcathet
p3039
aVdefect
p3040
aVclosur
p3041
aVintracardiac
p3042
aVclose
p3043
aVappendag
p3044
asI5957949
(lp3045
Vartifici
p3046
aVgraft
p3047
aVvalv
p3048
aVballoon
p3049
aVcathet
p3050
aVpassag
p3051
aVmicroembol
p3052
aVtissu
p3053
aVstent
p3054
aVtubular
p3055
asI5725552
(lp3056
Vand
p3057
aVconform
p3058
aVset
p3059
aVdeform
p3060
aVdirect
p3061
aVinvent
p3062
aVone
p3063
aVthis
p3064
aVcathet
p3065
aVshape
p3066
asI5855601
(lp3067
Vand
p3068
aVheart
p3069
aVdiamet
p3070
aVsubstanti
p3071
aVdevic
p3072
aVit
p3073
aVthereof
p3074
aVone
p3075
aVshape
p3076
aVthrough
p3077
asI5037427
(lp3078
Vinstrument
p3079
aVtubular
p3080
aVorgan
p3081
aVcathet
p3082
aVexpand
p3083
aVmount
p3084
aVwithin
p3085
aVshrink
p3086
aVstent
p3087
aVsaid
p3088
asI5628788
(lp3089
Vstent
p3090
aVgraft
p3091
aVelastomer
p3092
aVtubular
p3093
aVadhes
p3094
aVdeform
p3095
aVendolumin
p3096
aVexpand
p3097
aVmateri
p3098
aVself
p3099
asI5697909
(lp3100
sI5634936
(lp3101
Vdefect
p3102
aVseptal
p3103
aVharden
p3104
aVcathet
p3105
aVtissu
p3106
aVprecipit
p3107
aVgrowth
p3108
aVfactor
p3109
aVmitogen
p3110
aVingrowth
p3111
asI6231600
(lp3112
Vcoat
p3113
aVheparin
p3114
aVstent
p3115
aVcrosslink
p3116
aVclot
p3117
aVpolym
p3118
aVagent
p3119
aVrestenosi
p3120
aVpacitaxel
p3121
aVinhibit
p3122
asI5431676
(lp3123
Vdilat
p3124
aVtrocar
p3125
aVbraid
p3126
aVexpans
p3127
aVlumen
p3128
aVabdomen
p3129
aVlaparoscop
p3130
aVpercutan
p3131
aVmember
p3132
aVexpand
p3133
asI5855614
(lp3134
Vand
p3135
aVheart
p3136
aVrepair
p3137
aVwall
p3138
aVdistal
p3139
aVinto
p3140
aVwithin
p3141
aVprefer
p3142
aVit
p3143
aVprocedur
p3144
asI5433727
(lp3145
Vocclud
p3146
aVdefect
p3147
aVbutton
p3148
aVseptal
p3149
aVcenter
p3150
aVatrial
p3151
aVcounter
p3152
aVocclus
p3153
aVlarg
p3154
aVheart
p3155
asI5151105
(lp3156
Vsleev
p3157
aVtack
p3158
aVaorta
p3159
aVcollaps
p3160
aVaneurysm
p3161
aVbarb
p3162
aVarteri
p3163
aVimplant
p3164
aVfemor
p3165
aVthroacic
p3166
asI5755778
(lp3167
Vanastomosi
p3168
aVvessel
p3169
aVbodi
p3170
aVmember
p3171
aVlumin
p3172
aVbio
p3173
aVimpervi
p3174
aVtwo
p3175
aVwall
p3176
aVgraft
p3177
asI5421955
(lp3178
Vstent
p3179
aVtube
p3180
aVexpand
p3181
aVcoat
p3182
aVpattern
p3183
aVremov
p3184
aVcylindr
p3185
aVinterconnect
p3186
aVradial
p3187
aVexpos
p3188
asI5100423
(lp3189
Vmove
p3190
aVshape
p3191
aVthrough
p3192
aVcut
p3193
aVouter
p3194
aVtransduc
p3195
aVproxim
p3196
aVhelic
p3197
aVappli
p3198
aVhas
p3199
asI4998539
(lp3200
Varteri
p3201
aVcuff
p3202
aVendo
p3203
aVrepair
p3204
aVdetach
p3205
aVballoon
p3206
aVwal
p3207
aVwire
p3208
aVcathet
p3209
aVinflat
p3210
asI5571215
(lp3211
Vchest
p3212
aVintercost
p3213
aVpatient
p3214
aVpenetr
p3215
aVheart
p3216
aVpercutan
p3217
aVintern
p3218
aVintervent
p3219
aVvessel
p3220
aVmitral
p3221
asI5160342
(lp3222
Varteri
p3223
aVfilter
p3224
aVstenosi
p3225
aVendovascular
p3226
aVplaqu
p3227
aVblood
p3228
aVelement
p3229
aVstock
p3230
aVmouth
p3231
aVparticl
p3232
asI5855597
(lp3233
Vand
p3234
aVrepair
p3235
aVall
p3236
aVaortic
p3237
aVbent
p3238
aVchain
p3239
aVpoint
p3240
aVonc
p3241
aVsurgeri
p3242
aVani
p3243
asI5250071
(lp3244
Vembol
p3245
aVcoil
p3246
aVcathet
p3247
aVclasp
p3248
aVinterlock
p3249
aVvasculatur
p3250
aVwire
p3251
aVuncoupl
p3252
aVbodi
p3253
aVsurgic
p3254
asI5370675
(lp3255
Vstylet
p3256
aVcathet
p3257
aVtissu
p3258
aVport
p3259
aVguid
p3260
aVconductor
p3261
aVtarget
p3262
aVprobe
p3263
aVinterven
p3264
aVcan
p3265
asI5226911
(lp3266
Vfibrous
p3267
aVcoil
p3268
aVvasoocclus
p3269
aVelement
p3270
aVocclud
p3271
aVsinusoid
p3272
aVattach
p3273
aVhelic
p3274
aVblood
p3275
aVextend
p3276
asI5226913
(lp3277
Vstent
p3278
aVcircumferenti
p3279
aVexpand
p3280
aVradial
p3281
aVendoprosthes
p3282
aVgeneral
p3283
aVprosthesi
p3284
aVsection
p3285
aVimpart
p3286
aVsegment
p3287
asI5944738
(lp3288
Vmedic
p3289
aVcathet
p3290
aVocclud
p3291
aVdevic
p3292
aVparadox
p3293
aVshape
p3294
aVfabric
p3295
aVpfo
p3296
aVcollaps
p3297
aVdesir
p3298
asI4655771
(lp3299
Vtranslumin
p3300
aVprosthesi
p3301
aVaxial
p3302
aVbodi
p3303
aVbut
p3304
aVimplant
p3305
aVwind
p3306
aVcontractil
p3307
aVtubular
p3308
aVdisplac
p3309
asI5133732
(lp3310
Vstent
p3311
aVimplant
p3312
aVbodi
p3313
aVzag
p3314
aVzig
p3315
aVintravascular
p3316
aVballoon
p3317
aVstretch
p3318
aVmean
p3319
aVexpans
p3320
asI6237605
(lp3321
Vtransmur
p3322
aVlesion
p3323
aVepicardi
p3324
aVablat
p3325
aVpericardi
p3326
aVmyocardium
p3327
aVatrial
p3328
aVfibril
p3329
aVvein
p3330
aVpulmonari
p3331
asI5910154
(lp3332
Vcathet
p3333
aVstent
p3334
aVfilter
p3335
aVvessel
p3336
aVguidewir
p3337
aVpercutan
p3338
aVstenos
p3339
aVblood
p3340
aVaortic
p3341
aVframe
p3342
asI5314472
(lp3343
Vfilament
p3344
aVstent
p3345
aVvascular
p3346
aVspiral
p3347
aVhoop
p3348
aVshape
p3349
aVwound
p3350
aVwave
p3351
aVend
p3352
aVslide
p3353
asI5443497
(lp3354
Vstent
p3355
aVdistal
p3356
aVprosthet
p3357
aVpassag
p3358
aVproxim
p3359
aVlumen
p3360
aVflow
p3361
aVcentral
p3362
aVsidewal
p3363
aVmember
p3364
asI5443498
(lp3365
Vstent
p3366
aVcell
p3367
aVoblong
p3368
aVvacsular
p3369
aVbodi
p3370
aVvascular
p3371
aVunexpand
p3372
aVtubular
p3373
aVlongitudin
p3374
aVside
p3375
asI5443500
(lp3376
Vballoon
p3377
aVintravascular
p3378
aVdeflat
p3379
aVvessel
p3380
aVstent
p3381
aVroll
p3382
aVtie
p3383
aVlink
p3384
aVsheet
p3385
aVstenot
p3386
asI6442413
(lp3387
Vglucos
p3388
aVanalyt
p3389
aVblood
p3390
aVimplant
p3391
aVextern
p3392
aVinsulin
p3393
aVsensor
p3394
aVworn
p3395
aVvessel
p3396
aVdisclos
p3397
asI5306286
(lp3398
Vstent
p3399
aVcite
p3400
aVexpand
p3401
aVcathet
p3402
aVarteri
p3403
aVobstruct
p3404
aVstenot
p3405
aVdeliveri
p3406
aVbioabsorb
p3407
aVingrowth
p3408
asI5449373
(lp3409
Vstent
p3410
aVarticul
p3411
aVcurv
p3412
aVsegment
p3413
aVconnector
p3414
aVbodili
p3415
aVcoronari
p3416
aVarteri
p3417
aVrelax
p3418
aVflex
p3419
asI5456712
(lp3420
Vgraft
p3421
aVstent
p3422
aVblood
p3423
aVsidewal
p3424
aVvessel
p3425
aVarteriotomi
p3426
aVorific
p3427
aVposition
p3428
aVassembl
p3429
aVportion
p3430
asI5833650
(lp3431
Vlumen
p3432
aVballoon
p3433
aVdistal
p3434
aVstenosi
p3435
aVextrem
p3436
aVperfus
p3437
aVvessel
p3438
aVtubular
p3439
aVinflat
p3440
aVocclus
p3441
asI5697971
(lp3442
sI5163958
(lp3443
Vand
p3444
aVconform
p3445
aVhelp
p3446
aVporous
p3447
aVdure
p3448
aVwithin
p3449
aVfractur
p3450
aVgeneral
p3451
aVingrowth
p3452
aVdesign
p3453
asI5316023
(lp3454
Vaortic
p3455
aVaorta
p3456
aVbilater
p3457
aVintra
p3458
aVgraft
p3459
aVbypass
p3460
aVdeform
p3461
aVtubular
p3462
aVintralumin
p3463
aVaneurysm
p3464
asI5472441
(lp3465
sI5312415
(lp3466
Vembol
p3467
aVcoil
p3468
aVcathet
p3469
aVplacement
p3470
aVguidewir
p3471
aVlumen
p3472
aVvasculatur
p3473
aVconstrict
p3474
aVpusher
p3475
aVspecif
p3476
asI6395326
(lp3477
Vcoat
p3478
aVpattern
p3479
aVstent
p3480
aVprosthesi
p3481
aVdisclos
p3482
aVdeposit
p3483
aVonto
p3484
aVexampl
p3485
aVapparatus
p3486
aVform
p3487
asI6258115
(lp3488
Vstent
p3489
aVbifurc
p3490
aVbranch
p3491
aVstenot
p3492
aVdistal
p3493
aVscaffold
p3494
aVprotect
p3495
aVporos
p3496
aVallow
p3497
aVstill
p3498
asI6258121
(lp3499
Vstent
p3500
aVreleas
p3501
aVpolymer
p3502
aVtaxol
p3503
aVpla
p3504
aVcoat
p3505
aVslower
p3506
aVagent
p3507
aVfaster
p3508
aValon
p3509
asI5662671
(lp3510
Vand
p3511
aVaorta
p3512
aVelong
p3513
aVdistal
p3514
aVwithin
p3515
aVcathet
p3516
aVare
p3517
aVhave
p3518
aVdevic
p3519
aVplaqu
p3520
asI6152144
(lp3521
Vappendag
p3522
aVatrial
p3523
aVocclud
p3524
aVleft
p3525
aVobliter
p3526
aVintraop
p3527
aVpatient
p3528
aVembol
p3529
aVpercutan
p3530
aVocclus
p3531
asI5019090
(lp3532
Vstent
p3533
aVcircumferenti
p3534
aVexpand
p3535
aVradial
p3536
aVendoprosthes
p3537
aVgeneral
p3538
aVendoprosthesi
p3539
aVsection
p3540
aVimpart
p3541
aVsegment
p3542
asI6299604
(lp3543
Vbioactiv
p3544
aVlayer
p3545
aVcoat
p3546
aVparylen
p3547
aVporous
p3548
aVtract
p3549
aVpolym
p3550
aVmateri
p3551
aVreleas
p3552
aVbiliari
p3553
asI6001118
(lp3554
Vemboli
p3555
aVcaptur
p3556
aVdistal
p3557
aVexpand
p3558
aVradial
p3559
aVelong
p3560
aVlumen
p3561
aVproxim
p3562
aVend
p3563
aVmember
p3564
asI5387235
(lp3565
Vipsilater
p3566
aVcontralater
p3567
aVgraft
p3568
aVtranslumin
p3569
aVprosthesi
p3570
aVbifurc
p3571
aVassembl
p3572
aVlimb
p3573
aViliac
p3574
aVspring
p3575
asI6066149
(lp3576
Vsector
p3577
aVaffix
p3578
aVclot
p3579
aVconcurr
p3580
aVthrough
p3581
aVproxim
p3582
aVtreatment
p3583
aVbypass
p3584
aVhas
p3585
aVthem
p3586
asI5275622
(lp3587
Vcapsul
p3588
aVgraft
p3589
aVdistal
p3590
aVendovascular
p3591
aVtubular
p3592
aVcathet
p3593
aVproxim
p3594
aVunitari
p3595
aVextrem
p3596
aVwrap
p3597
asI5441515
(lp3598
Vstent
p3599
aVoverlapplng
p3600
aVexpand
p3601
aVratchet
p3602
aVinterlock
p3603
aVerod
p3604
aVintravascular
p3605
aVbio
p3606
aVbiocompat
p3607
aVarteri
p3608
asI6110188
(lp3609
sI5443496
(lp3610
Vstent
p3611
aVlumen
p3612
aVbodi
p3613
aVcylindr
p3614
aVconform
p3615
aVexpand
p3616
aVpolymer
p3617
aVangioplasti
p3618
aVintravascular
p3619
aVradial
p3620
asI5716981
(lp3621
Vand
p3622
aVpolymer
p3623
aVcomposit
p3624
aVinvent
p3625
aVrepres
p3626
aVanti
p3627
aVare
p3628
aVvessel
p3629
aVacid
p3630
aVretino
p3631
asI5637113
(lp3632
Vstent
p3633
aVlubrici
p3634
aVexpand
p3635
aVwrap
p3636
aVpolyethylen
p3637
aVstructur
p3638
aVmateri
p3639
aVpolyvinyl
p3640
aVpolymer
p3641
aVmember
p3642
asI5350397
(lp3643
Vembol
p3644
aVcoil
p3645
aVenlarg
p3646
aVpusher
p3647
aVcathet
p3648
aVsurgic
p3649
aVassembl
p3650
aVsocket
p3651
aVsituat
p3652
aVmember
p3653
asI5350398
(lp3654
Vpercutan
p3655
aVfilter
p3656
aVstent
p3657
aVflexibl
p3658
aVpassageway
p3659
aVcava
p3660
aVvena
p3661
aVexpand
p3662
aVinsert
p3663
aVfiltrat
p3664
astp3665
.