((lp0
I4061724
aI4208305
aI4310440
aI4410501
aI4440871
aI4795482
aI4826497
aI5125231
aI5288619
aI6329062
aI4554143
aI4576805
aI4500651
aI4567029
aI4673559
aI4793984
aI5057296
aI5098684
aI5126308
aI5191141
aI5198203
aI7533719
aI7540324
aI7549470
aI7556095
aI7556096
aI7559367
aI7559368
aI7562706
aI7562707
aI7581589
aI7584789
aI7591310
aI7597147
aI7604052
aI7610962
aI7631689
aI7631690
aI7635023
aI7635024
aI7635025
aI7644765
aI7673681
aI7673786
aI7677310
aI7677314
aI7681647
aI7683296
aI7703513
aI7717171
aI7730945
aI7730946
aI7730947
aI7735935
aI7785427
aI7793722
aI7798220
aI7832484
aI7841401
aI7841408
aI7841425
aI7845411
aI7849922
aI7866385
aI7866386
aI7866388
aI7931086
aI7950453
aI4686029
aI4824976
aI4677242
aI4861938
aI5095163
aI5096684
aI5246566
aI5282958
aI5714662
aI6121504
aI6509290
aI6812372
aI4934142
aI5161686
aI5407442
aI5019062
aI5331809
aI5544482
aI6093378
aI6171556
aI6182443
aI7176144
aI4752651
aI5364797
aI5622684
aI5858457
aI6329017
aI6592764
aI5914433
aI6049017
aI6166282
aI5895263
aI6093636
aI7640980
aI7798221
aI7831133
aI7831134
aI7860377
aI7942203
aI5135638
aI4973792
aI6090989
aI6165949
aI7732301
aI5750026
aI6622480
aI5300192
aI5308896
aI5484645
aI5547745
aI5589256
aI5609727
aI5614570
aI5807364
aI5733272
aI5916678
aI5976694
aI6121170
aI6548592
aI5856245
aI5876792
aI5423181
aI5437153
aI5448887
aI5473887
aI6568177
aI5711149
aI6167696
aI6732507
aI6928806
aI4873390
aI5741462
aI5751629
aI5874214
aI6017496
aI6251260
aI6299757
aI6329139
aI6338790
aI6461496
aI6591125
aI6592745
aI6616819
aI6618934
aI6654625
aI6682899
aI6749740
aI6942518
aI6975893
aI7041468
aI7058437
aI7225535
aI6310110
aI6413489
aI6270846
aI6365266
aI6387453
aI6271273
aI6420441
aI6873087
aI6900881
aI6908861
aI6916584
aI6921615
aI6932934
aI7056840
aI7077992
aI6391932
aI6742774
aI7190049
aI6348085
aI6368374
aI6753454
aI5605746
aI6015764
aI6037281
aI6111163
aI6068620
aI6617490
aI6599631
aI6225243
aI5832722
aI5595060
aI5713199
aI5715679
aI5735119
aI5740669
aI5743084
aI5771685
aI6832473
aI5992142
aI5732554
aI5771686
aI5974793
aI6014859
aI6109024
aI5996338
aI7062904
a(lp1
(lp2
I4061724
aa(lp3
I4208305
aI4310440
aI4410501
aI4440871
aI4795482
aI4826497
aI5125231
aI5288619
aI6329062
aa(lp4
I4554143
aI4576805
aI4500651
aI4567029
aI4673559
aI4793984
aI5057296
aI5098684
aI5126308
aI5191141
aI5198203
aI7533719
aI7540324
aI7549470
aI7556095
aI7556096
aI7559367
aI7559368
aI7562706
aI7562707
aI7581589
aI7584789
aI7591310
aI7597147
aI7604052
aI7610962
aI7631689
aI7631690
aI7635023
aI7635024
aI7635025
aI7644765
aI7673681
aI7673786
aI7677310
aI7677314
aI7681647
aI7683296
aI7703513
aI7717171
aI7730945
aI7730946
aI7730947
aI7735935
aI7785427
aI7793722
aI7798220
aI7832484
aI7841401
aI7841408
aI7841425
aI7845411
aI7849922
aI7866385
aI7866386
aI7866388
aI7931086
aI7950453
aI4686029
aI4824976
aI4677242
aI4861938
aI5095163
aI5096684
aI5246566
aI5282958
aI5714662
aI6121504
aI6509290
aI6812372
aI4934142
aI5161686
aI5407442
aI5019062
aI5331809
aI5544482
aI6093378
aI6171556
aI6182443
aI7176144
aa(lp5
I4752651
aI5364797
aI5622684
aI5858457
aI6329017
aI6592764
aI5914433
aI6049017
aI6166282
aI5895263
aI6093636
aI7640980
aI7798221
aI7831133
aI7831134
aI7860377
aI7942203
aI5135638
aI4973792
aI6090989
aI6165949
aI7732301
aI5750026
aI6622480
aI5300192
aI5308896
aI5484645
aI5547745
aI5589256
aI5609727
aI5614570
aI5807364
aI5733272
aI5916678
aI5976694
aI6121170
aI6548592
aI5856245
aI5876792
aI5423181
aI5437153
aI5448887
aI5473887
aI6568177
aI5711149
aI6167696
aI6732507
aI6928806
aa(lp6
I4873390
aI5741462
aI5751629
aI5874214
aI6017496
aI6251260
aI6299757
aI6329139
aI6338790
aI6461496
aI6591125
aI6592745
aI6616819
aI6618934
aI6654625
aI6682899
aI6749740
aI6942518
aI6975893
aI7041468
aI7058437
aI7225535
aI6310110
aI6413489
aI6270846
aI6365266
aI6387453
aI6271273
aI6420441
aI6873087
aI6900881
aI6908861
aI6916584
aI6921615
aI6932934
aI7056840
aI7077992
aI6391932
aI6742774
aI7190049
aI6348085
aI6368374
aI6753454
aI5605746
aI6015764
aI6037281
aI6111163
aI6068620
aI6617490
aI6599631
aI6225243
aI5832722
aI5595060
aI5713199
aI5715679
aI5735119
aI5740669
aI5743084
aI5771685
aI6832473
aI5992142
aI5732554
aI5771686
aI5974793
aI6014859
aI6109024
aI5996338
aI7062904
aa(lp7
(I4061724
I4208305
tp8
a(I4061724
I4310440
tp9
a(I4061724
I4410501
tp10
a(I4061724
I4440871
tp11
a(I4061724
I4795482
tp12
a(I4061724
I4826497
tp13
a(I4061724
I5125231
tp14
a(I4061724
I5288619
tp15
a(I4061724
I6329062
tp16
a(I4208305
I4410501
tp17
a(I4208305
I4554143
tp18
a(I4208305
I4576805
tp19
a(I4310440
I4440871
tp20
a(I4310440
I4500651
tp21
a(I4310440
I4554143
tp22
a(I4310440
I4567029
tp23
a(I4310440
I4673559
tp24
a(I4310440
I4793984
tp25
a(I4310440
I5057296
tp26
a(I4310440
I5098684
tp27
a(I4310440
I5126308
tp28
a(I4310440
I5191141
tp29
a(I4310440
I5198203
tp30
a(I4310440
I7533719
tp31
a(I4310440
I7540324
tp32
a(I4310440
I7549470
tp33
a(I4310440
I7556095
tp34
a(I4310440
I7556096
tp35
a(I4310440
I7559367
tp36
a(I4310440
I7559368
tp37
a(I4310440
I7562706
tp38
a(I4310440
I7562707
tp39
a(I4310440
I7581589
tp40
a(I4310440
I7584789
tp41
a(I4310440
I7591310
tp42
a(I4310440
I7597147
tp43
a(I4310440
I7604052
tp44
a(I4310440
I7610962
tp45
a(I4310440
I7631689
tp46
a(I4310440
I7631690
tp47
a(I4310440
I7635023
tp48
a(I4310440
I7635024
tp49
a(I4310440
I7635025
tp50
a(I4310440
I7644765
tp51
a(I4310440
I7673681
tp52
a(I4310440
I7673786
tp53
a(I4310440
I7677310
tp54
a(I4310440
I7677314
tp55
a(I4310440
I7681647
tp56
a(I4310440
I7683296
tp57
a(I4310440
I7703513
tp58
a(I4310440
I7717171
tp59
a(I4310440
I7730945
tp60
a(I4310440
I7730946
tp61
a(I4310440
I7730947
tp62
a(I4310440
I7735935
tp63
a(I4310440
I7785427
tp64
a(I4310440
I7793722
tp65
a(I4310440
I7798220
tp66
a(I4310440
I7832484
tp67
a(I4310440
I7841401
tp68
a(I4310440
I7841408
tp69
a(I4310440
I7841425
tp70
a(I4310440
I7845411
tp71
a(I4310440
I7849922
tp72
a(I4310440
I7866385
tp73
a(I4310440
I7866386
tp74
a(I4310440
I7866388
tp75
a(I4310440
I7931086
tp76
a(I4310440
I7950453
tp77
a(I4410501
I4686029
tp78
a(I4410501
I4824976
tp79
a(I4440871
I4554143
tp80
a(I4440871
I4567029
tp81
a(I4440871
I4673559
tp82
a(I4440871
I4677242
tp83
a(I4440871
I4686029
tp84
a(I4440871
I4793984
tp85
a(I4440871
I4861938
tp86
a(I4440871
I5057296
tp87
a(I4440871
I5095163
tp88
a(I4440871
I5096684
tp89
a(I4440871
I5098684
tp90
a(I4440871
I5126308
tp91
a(I4440871
I5191141
tp92
a(I4440871
I5198203
tp93
a(I4440871
I5246566
tp94
a(I4440871
I5282958
tp95
a(I4440871
I5714662
tp96
a(I4440871
I6121504
tp97
a(I4440871
I6509290
tp98
a(I4440871
I6812372
tp99
a(I4440871
I7533719
tp100
a(I4440871
I7540324
tp101
a(I4440871
I7549470
tp102
a(I4440871
I7556095
tp103
a(I4440871
I7556096
tp104
a(I4440871
I7559367
tp105
a(I4440871
I7559368
tp106
a(I4440871
I7562706
tp107
a(I4440871
I7562707
tp108
a(I4440871
I7581589
tp109
a(I4440871
I7584789
tp110
a(I4440871
I7591310
tp111
a(I4440871
I7597147
tp112
a(I4440871
I7604052
tp113
a(I4440871
I7610962
tp114
a(I4440871
I7631689
tp115
a(I4440871
I7631690
tp116
a(I4440871
I7635023
tp117
a(I4440871
I7635024
tp118
a(I4440871
I7635025
tp119
a(I4440871
I7644765
tp120
a(I4440871
I7673681
tp121
a(I4440871
I7673786
tp122
a(I4440871
I7677310
tp123
a(I4440871
I7677314
tp124
a(I4440871
I7681647
tp125
a(I4440871
I7683296
tp126
a(I4440871
I7703513
tp127
a(I4440871
I7717171
tp128
a(I4440871
I7730945
tp129
a(I4440871
I7730946
tp130
a(I4440871
I7730947
tp131
a(I4440871
I7735935
tp132
a(I4440871
I7785427
tp133
a(I4440871
I7793722
tp134
a(I4440871
I7798220
tp135
a(I4440871
I7832484
tp136
a(I4440871
I7841401
tp137
a(I4440871
I7841408
tp138
a(I4440871
I7841425
tp139
a(I4440871
I7845411
tp140
a(I4440871
I7849922
tp141
a(I4440871
I7866385
tp142
a(I4440871
I7866386
tp143
a(I4440871
I7866388
tp144
a(I4440871
I7931086
tp145
a(I4440871
I7950453
tp146
a(I4795482
I4826497
tp147
a(I4795482
I4934142
tp148
a(I4795482
I5161686
tp149
a(I4795482
I5407442
tp150
a(I4826497
I5019062
tp151
a(I4826497
I5407442
tp152
a(I5125231
I5331809
tp153
a(I5125231
I5544482
tp154
a(I5125231
I6093378
tp155
a(I5125231
I6171556
tp156
a(I5125231
I6182443
tp157
a(I6329062
I7176144
tp158
a(I4554143
I4752651
tp159
a(I4554143
I4793984
tp160
a(I4554143
I5126308
tp161
a(I4554143
I5191141
tp162
a(I4500651
I4554143
tp163
a(I4500651
I4567029
tp164
a(I4500651
I4793984
tp165
a(I4500651
I7533719
tp166
a(I4500651
I7540324
tp167
a(I4500651
I7549470
tp168
a(I4500651
I7556095
tp169
a(I4500651
I7556096
tp170
a(I4500651
I7559367
tp171
a(I4500651
I7559368
tp172
a(I4500651
I7562706
tp173
a(I4500651
I7562707
tp174
a(I4500651
I7581589
tp175
a(I4500651
I7584789
tp176
a(I4500651
I7591310
tp177
a(I4500651
I7597147
tp178
a(I4500651
I7604052
tp179
a(I4500651
I7610962
tp180
a(I4500651
I7631689
tp181
a(I4500651
I7631690
tp182
a(I4500651
I7635023
tp183
a(I4500651
I7635024
tp184
a(I4500651
I7635025
tp185
a(I4500651
I7644765
tp186
a(I4500651
I7673681
tp187
a(I4500651
I7673786
tp188
a(I4500651
I7677310
tp189
a(I4500651
I7677314
tp190
a(I4500651
I7681647
tp191
a(I4500651
I7683296
tp192
a(I4500651
I7703513
tp193
a(I4500651
I7717171
tp194
a(I4500651
I7730945
tp195
a(I4500651
I7730946
tp196
a(I4500651
I7730947
tp197
a(I4500651
I7735935
tp198
a(I4500651
I7785427
tp199
a(I4500651
I7793722
tp200
a(I4500651
I7798220
tp201
a(I4500651
I7832484
tp202
a(I4500651
I7841401
tp203
a(I4500651
I7841408
tp204
a(I4500651
I7841425
tp205
a(I4500651
I7845411
tp206
a(I4500651
I7849922
tp207
a(I4500651
I7866385
tp208
a(I4500651
I7866386
tp209
a(I4500651
I7866388
tp210
a(I4500651
I7931086
tp211
a(I4500651
I7950453
tp212
a(I4567029
I4752651
tp213
a(I4567029
I4793984
tp214
a(I4567029
I6121504
tp215
a(I4673559
I5057296
tp216
a(I4673559
I5096684
tp217
a(I4673559
I5098684
tp218
a(I4673559
I5198203
tp219
a(I4793984
I5126308
tp220
a(I4793984
I5191141
tp221
a(I5057296
I5198203
tp222
a(I5057296
I5364797
tp223
a(I5057296
I5622684
tp224
a(I5057296
I5858457
tp225
a(I5057296
I6329017
tp226
a(I5057296
I6592764
tp227
a(I5098684
I5364797
tp228
a(I5098684
I5622684
tp229
a(I5098684
I5858457
tp230
a(I5098684
I6329017
tp231
a(I5126308
I5191141
tp232
a(I5126308
I5714662
tp233
a(I5126308
I5914433
tp234
a(I5126308
I6049017
tp235
a(I5126308
I6121504
tp236
a(I5126308
I6166282
tp237
a(I5191141
I5714662
tp238
a(I5191141
I5914433
tp239
a(I5191141
I6049017
tp240
a(I5191141
I6121504
tp241
a(I5191141
I6166282
tp242
a(I5198203
I5895263
tp243
a(I5198203
I6093636
tp244
a(I5198203
I6329017
tp245
a(I5198203
I6592764
tp246
a(I7533719
I7597147
tp247
a(I7533719
I7604052
tp248
a(I7533719
I7610962
tp249
a(I7533719
I7640980
tp250
a(I7533719
I7673681
tp251
a(I7533719
I7673786
tp252
a(I7533719
I7677310
tp253
a(I7533719
I7677314
tp254
a(I7533719
I7681647
tp255
a(I7533719
I7683296
tp256
a(I7533719
I7703513
tp257
a(I7533719
I7717171
tp258
a(I7533719
I7730945
tp259
a(I7533719
I7730946
tp260
a(I7533719
I7730947
tp261
a(I7533719
I7735935
tp262
a(I7533719
I7785427
tp263
a(I7533719
I7798220
tp264
a(I7533719
I7798221
tp265
a(I7533719
I7831133
tp266
a(I7533719
I7831134
tp267
a(I7533719
I7832484
tp268
a(I7533719
I7841401
tp269
a(I7533719
I7841408
tp270
a(I7533719
I7845411
tp271
a(I7533719
I7849922
tp272
a(I7533719
I7860377
tp273
a(I7533719
I7866385
tp274
a(I7533719
I7866386
tp275
a(I7533719
I7866388
tp276
a(I7533719
I7931086
tp277
a(I7533719
I7942203
tp278
a(I7533719
I7950453
tp279
a(I7540324
I7604052
tp280
a(I7540324
I7610962
tp281
a(I7540324
I7640980
tp282
a(I7540324
I7673681
tp283
a(I7540324
I7673786
tp284
a(I7540324
I7677310
tp285
a(I7540324
I7677314
tp286
a(I7540324
I7681647
tp287
a(I7540324
I7683296
tp288
a(I7540324
I7703513
tp289
a(I7540324
I7717171
tp290
a(I7540324
I7730945
tp291
a(I7540324
I7730946
tp292
a(I7540324
I7730947
tp293
a(I7540324
I7735935
tp294
a(I7540324
I7785427
tp295
a(I7540324
I7793722
tp296
a(I7540324
I7798220
tp297
a(I7540324
I7798221
tp298
a(I7540324
I7831133
tp299
a(I7540324
I7831134
tp300
a(I7540324
I7832484
tp301
a(I7540324
I7841401
tp302
a(I7540324
I7841408
tp303
a(I7540324
I7845411
tp304
a(I7540324
I7849922
tp305
a(I7540324
I7860377
tp306
a(I7540324
I7866385
tp307
a(I7540324
I7866386
tp308
a(I7540324
I7866388
tp309
a(I7540324
I7931086
tp310
a(I7540324
I7942203
tp311
a(I7540324
I7950453
tp312
a(I7549470
I7610962
tp313
a(I7549470
I7640980
tp314
a(I7549470
I7673681
tp315
a(I7549470
I7673786
tp316
a(I7549470
I7677310
tp317
a(I7549470
I7677314
tp318
a(I7549470
I7681647
tp319
a(I7549470
I7703513
tp320
a(I7549470
I7717171
tp321
a(I7549470
I7730945
tp322
a(I7549470
I7730946
tp323
a(I7549470
I7730947
tp324
a(I7549470
I7735935
tp325
a(I7549470
I7785427
tp326
a(I7549470
I7793722
tp327
a(I7549470
I7798220
tp328
a(I7549470
I7798221
tp329
a(I7549470
I7831133
tp330
a(I7549470
I7831134
tp331
a(I7549470
I7832484
tp332
a(I7549470
I7841401
tp333
a(I7549470
I7841408
tp334
a(I7549470
I7845411
tp335
a(I7549470
I7849922
tp336
a(I7549470
I7860377
tp337
a(I7549470
I7866385
tp338
a(I7549470
I7866386
tp339
a(I7549470
I7866388
tp340
a(I7549470
I7931086
tp341
a(I7549470
I7942203
tp342
a(I7549470
I7950453
tp343
a(I7556095
I7604052
tp344
a(I7556095
I7610962
tp345
a(I7556095
I7640980
tp346
a(I7556095
I7673681
tp347
a(I7556095
I7673786
tp348
a(I7556095
I7677310
tp349
a(I7556095
I7677314
tp350
a(I7556095
I7681647
tp351
a(I7556095
I7703513
tp352
a(I7556095
I7717171
tp353
a(I7556095
I7730945
tp354
a(I7556095
I7730946
tp355
a(I7556095
I7730947
tp356
a(I7556095
I7735935
tp357
a(I7556095
I7785427
tp358
a(I7556095
I7793722
tp359
a(I7556095
I7798220
tp360
a(I7556095
I7798221
tp361
a(I7556095
I7831133
tp362
a(I7556095
I7831134
tp363
a(I7556095
I7832484
tp364
a(I7556095
I7841401
tp365
a(I7556095
I7841408
tp366
a(I7556095
I7845411
tp367
a(I7556095
I7849922
tp368
a(I7556095
I7860377
tp369
a(I7556095
I7866385
tp370
a(I7556095
I7866386
tp371
a(I7556095
I7866388
tp372
a(I7556095
I7931086
tp373
a(I7556095
I7942203
tp374
a(I7556095
I7950453
tp375
a(I7556096
I7604052
tp376
a(I7556096
I7610962
tp377
a(I7556096
I7640980
tp378
a(I7556096
I7673681
tp379
a(I7556096
I7673786
tp380
a(I7556096
I7677310
tp381
a(I7556096
I7677314
tp382
a(I7556096
I7681647
tp383
a(I7556096
I7703513
tp384
a(I7556096
I7717171
tp385
a(I7556096
I7730945
tp386
a(I7556096
I7730946
tp387
a(I7556096
I7730947
tp388
a(I7556096
I7735935
tp389
a(I7556096
I7785427
tp390
a(I7556096
I7793722
tp391
a(I7556096
I7798220
tp392
a(I7556096
I7798221
tp393
a(I7556096
I7831133
tp394
a(I7556096
I7831134
tp395
a(I7556096
I7832484
tp396
a(I7556096
I7841401
tp397
a(I7556096
I7841408
tp398
a(I7556096
I7845411
tp399
a(I7556096
I7849922
tp400
a(I7556096
I7860377
tp401
a(I7556096
I7866385
tp402
a(I7556096
I7866386
tp403
a(I7556096
I7866388
tp404
a(I7556096
I7931086
tp405
a(I7556096
I7942203
tp406
a(I7556096
I7950453
tp407
a(I7559367
I7673681
tp408
a(I7559367
I7673786
tp409
a(I7559367
I7677310
tp410
a(I7559367
I7677314
tp411
a(I7559367
I7681647
tp412
a(I7559367
I7703513
tp413
a(I7559367
I7717171
tp414
a(I7559367
I7730945
tp415
a(I7559367
I7730946
tp416
a(I7559367
I7730947
tp417
a(I7559367
I7735935
tp418
a(I7559367
I7785427
tp419
a(I7559367
I7793722
tp420
a(I7559367
I7798220
tp421
a(I7559367
I7798221
tp422
a(I7559367
I7831133
tp423
a(I7559367
I7831134
tp424
a(I7559367
I7832484
tp425
a(I7559367
I7841401
tp426
a(I7559367
I7841408
tp427
a(I7559367
I7845411
tp428
a(I7559367
I7849922
tp429
a(I7559367
I7860377
tp430
a(I7559367
I7866385
tp431
a(I7559367
I7866386
tp432
a(I7559367
I7866388
tp433
a(I7559367
I7931086
tp434
a(I7559367
I7942203
tp435
a(I7559367
I7950453
tp436
a(I7559368
I7673681
tp437
a(I7559368
I7673786
tp438
a(I7559368
I7677310
tp439
a(I7559368
I7677314
tp440
a(I7559368
I7681647
tp441
a(I7559368
I7703513
tp442
a(I7559368
I7717171
tp443
a(I7559368
I7730945
tp444
a(I7559368
I7730946
tp445
a(I7559368
I7730947
tp446
a(I7559368
I7735935
tp447
a(I7559368
I7785427
tp448
a(I7559368
I7793722
tp449
a(I7559368
I7798220
tp450
a(I7559368
I7798221
tp451
a(I7559368
I7831133
tp452
a(I7559368
I7831134
tp453
a(I7559368
I7832484
tp454
a(I7559368
I7841401
tp455
a(I7559368
I7841408
tp456
a(I7559368
I7845411
tp457
a(I7559368
I7849922
tp458
a(I7559368
I7860377
tp459
a(I7559368
I7866385
tp460
a(I7559368
I7866386
tp461
a(I7559368
I7866388
tp462
a(I7559368
I7931086
tp463
a(I7559368
I7942203
tp464
a(I7559368
I7950453
tp465
a(I7562706
I7673681
tp466
a(I7562706
I7673786
tp467
a(I7562706
I7677310
tp468
a(I7562706
I7677314
tp469
a(I7562706
I7681647
tp470
a(I7562706
I7703513
tp471
a(I7562706
I7717171
tp472
a(I7562706
I7730945
tp473
a(I7562706
I7730946
tp474
a(I7562706
I7730947
tp475
a(I7562706
I7735935
tp476
a(I7562706
I7785427
tp477
a(I7562706
I7793722
tp478
a(I7562706
I7798220
tp479
a(I7562706
I7798221
tp480
a(I7562706
I7831133
tp481
a(I7562706
I7831134
tp482
a(I7562706
I7832484
tp483
a(I7562706
I7841401
tp484
a(I7562706
I7841408
tp485
a(I7562706
I7845411
tp486
a(I7562706
I7849922
tp487
a(I7562706
I7860377
tp488
a(I7562706
I7866385
tp489
a(I7562706
I7866386
tp490
a(I7562706
I7866388
tp491
a(I7562706
I7931086
tp492
a(I7562706
I7942203
tp493
a(I7562706
I7950453
tp494
a(I7562707
I7673681
tp495
a(I7562707
I7673786
tp496
a(I7562707
I7677310
tp497
a(I7562707
I7677314
tp498
a(I7562707
I7681647
tp499
a(I7562707
I7703513
tp500
a(I7562707
I7717171
tp501
a(I7562707
I7730945
tp502
a(I7562707
I7730946
tp503
a(I7562707
I7730947
tp504
a(I7562707
I7735935
tp505
a(I7562707
I7785427
tp506
a(I7562707
I7793722
tp507
a(I7562707
I7798220
tp508
a(I7562707
I7798221
tp509
a(I7562707
I7831133
tp510
a(I7562707
I7831134
tp511
a(I7562707
I7832484
tp512
a(I7562707
I7841401
tp513
a(I7562707
I7841408
tp514
a(I7562707
I7845411
tp515
a(I7562707
I7849922
tp516
a(I7562707
I7860377
tp517
a(I7562707
I7866385
tp518
a(I7562707
I7866386
tp519
a(I7562707
I7866388
tp520
a(I7562707
I7931086
tp521
a(I7562707
I7942203
tp522
a(I7562707
I7950453
tp523
a(I7581589
I7673681
tp524
a(I7581589
I7673786
tp525
a(I7581589
I7677310
tp526
a(I7581589
I7677314
tp527
a(I7581589
I7681647
tp528
a(I7581589
I7703513
tp529
a(I7581589
I7717171
tp530
a(I7581589
I7730945
tp531
a(I7581589
I7730946
tp532
a(I7581589
I7730947
tp533
a(I7581589
I7735935
tp534
a(I7581589
I7785427
tp535
a(I7581589
I7793722
tp536
a(I7581589
I7798220
tp537
a(I7581589
I7798221
tp538
a(I7581589
I7831133
tp539
a(I7581589
I7831134
tp540
a(I7581589
I7832484
tp541
a(I7581589
I7841401
tp542
a(I7581589
I7841408
tp543
a(I7581589
I7845411
tp544
a(I7581589
I7849922
tp545
a(I7581589
I7860377
tp546
a(I7581589
I7866385
tp547
a(I7581589
I7866386
tp548
a(I7581589
I7866388
tp549
a(I7581589
I7931086
tp550
a(I7581589
I7942203
tp551
a(I7581589
I7950453
tp552
a(I7584789
I7673681
tp553
a(I7584789
I7677310
tp554
a(I7584789
I7677314
tp555
a(I7584789
I7681647
tp556
a(I7584789
I7703513
tp557
a(I7584789
I7717171
tp558
a(I7584789
I7730945
tp559
a(I7584789
I7730946
tp560
a(I7584789
I7730947
tp561
a(I7584789
I7785427
tp562
a(I7584789
I7793722
tp563
a(I7584789
I7798220
tp564
a(I7584789
I7798221
tp565
a(I7584789
I7831133
tp566
a(I7584789
I7831134
tp567
a(I7584789
I7832484
tp568
a(I7584789
I7841401
tp569
a(I7584789
I7841408
tp570
a(I7584789
I7845411
tp571
a(I7584789
I7849922
tp572
a(I7584789
I7866385
tp573
a(I7584789
I7866386
tp574
a(I7584789
I7866388
tp575
a(I7584789
I7931086
tp576
a(I7584789
I7942203
tp577
a(I7584789
I7950453
tp578
a(I7591310
I7673681
tp579
a(I7591310
I7677310
tp580
a(I7591310
I7677314
tp581
a(I7591310
I7681647
tp582
a(I7591310
I7703513
tp583
a(I7591310
I7717171
tp584
a(I7591310
I7730945
tp585
a(I7591310
I7730946
tp586
a(I7591310
I7730947
tp587
a(I7591310
I7785427
tp588
a(I7591310
I7793722
tp589
a(I7591310
I7798220
tp590
a(I7591310
I7798221
tp591
a(I7591310
I7831133
tp592
a(I7591310
I7831134
tp593
a(I7591310
I7832484
tp594
a(I7591310
I7841401
tp595
a(I7591310
I7841408
tp596
a(I7591310
I7845411
tp597
a(I7591310
I7849922
tp598
a(I7591310
I7866385
tp599
a(I7591310
I7866386
tp600
a(I7591310
I7866388
tp601
a(I7591310
I7931086
tp602
a(I7591310
I7942203
tp603
a(I7591310
I7950453
tp604
a(I7597147
I7673681
tp605
a(I7597147
I7677310
tp606
a(I7597147
I7677314
tp607
a(I7597147
I7681647
tp608
a(I7597147
I7703513
tp609
a(I7597147
I7717171
tp610
a(I7597147
I7730946
tp611
a(I7597147
I7730947
tp612
a(I7597147
I7785427
tp613
a(I7597147
I7793722
tp614
a(I7597147
I7798220
tp615
a(I7597147
I7798221
tp616
a(I7597147
I7831133
tp617
a(I7597147
I7831134
tp618
a(I7597147
I7832484
tp619
a(I7597147
I7841401
tp620
a(I7597147
I7841408
tp621
a(I7597147
I7845411
tp622
a(I7597147
I7849922
tp623
a(I7597147
I7866385
tp624
a(I7597147
I7866386
tp625
a(I7597147
I7866388
tp626
a(I7597147
I7931086
tp627
a(I7597147
I7942203
tp628
a(I7597147
I7950453
tp629
a(I7604052
I7677310
tp630
a(I7604052
I7677314
tp631
a(I7604052
I7681647
tp632
a(I7604052
I7703513
tp633
a(I7604052
I7717171
tp634
a(I7604052
I7730945
tp635
a(I7604052
I7730947
tp636
a(I7604052
I7785427
tp637
a(I7604052
I7793722
tp638
a(I7604052
I7798220
tp639
a(I7604052
I7798221
tp640
a(I7604052
I7831133
tp641
a(I7604052
I7831134
tp642
a(I7604052
I7832484
tp643
a(I7604052
I7841401
tp644
a(I7604052
I7841408
tp645
a(I7604052
I7845411
tp646
a(I7604052
I7849922
tp647
a(I7604052
I7866385
tp648
a(I7604052
I7866386
tp649
a(I7604052
I7866388
tp650
a(I7604052
I7931086
tp651
a(I7604052
I7942203
tp652
a(I7604052
I7950453
tp653
a(I7610962
I7785427
tp654
a(I7610962
I7798220
tp655
a(I7610962
I7831134
tp656
a(I7610962
I7832484
tp657
a(I7610962
I7849922
tp658
a(I7610962
I7866385
tp659
a(I7610962
I7866388
tp660
a(I7610962
I7931086
tp661
a(I7610962
I7942203
tp662
a(I7610962
I7950453
tp663
a(I7631689
I7785427
tp664
a(I7631689
I7793722
tp665
a(I7631689
I7798220
tp666
a(I7631689
I7798221
tp667
a(I7631689
I7831133
tp668
a(I7631689
I7831134
tp669
a(I7631689
I7832484
tp670
a(I7631689
I7841401
tp671
a(I7631689
I7841408
tp672
a(I7631689
I7845411
tp673
a(I7631689
I7849922
tp674
a(I7631689
I7866385
tp675
a(I7631689
I7866386
tp676
a(I7631689
I7866388
tp677
a(I7631689
I7931086
tp678
a(I7631689
I7942203
tp679
a(I7631689
I7950453
tp680
a(I7631690
I7785427
tp681
a(I7631690
I7793722
tp682
a(I7631690
I7798220
tp683
a(I7631690
I7798221
tp684
a(I7631690
I7831133
tp685
a(I7631690
I7831134
tp686
a(I7631690
I7832484
tp687
a(I7631690
I7841401
tp688
a(I7631690
I7841408
tp689
a(I7631690
I7845411
tp690
a(I7631690
I7849922
tp691
a(I7631690
I7866385
tp692
a(I7631690
I7866386
tp693
a(I7631690
I7866388
tp694
a(I7631690
I7931086
tp695
a(I7631690
I7942203
tp696
a(I7631690
I7950453
tp697
a(I7635023
I7785427
tp698
a(I7635023
I7793722
tp699
a(I7635023
I7798220
tp700
a(I7635023
I7798221
tp701
a(I7635023
I7831133
tp702
a(I7635023
I7831134
tp703
a(I7635023
I7832484
tp704
a(I7635023
I7841401
tp705
a(I7635023
I7841408
tp706
a(I7635023
I7845411
tp707
a(I7635023
I7849922
tp708
a(I7635023
I7866385
tp709
a(I7635023
I7866386
tp710
a(I7635023
I7866388
tp711
a(I7635023
I7931086
tp712
a(I7635023
I7942203
tp713
a(I7635023
I7950453
tp714
a(I7635024
I7785427
tp715
a(I7635024
I7793722
tp716
a(I7635024
I7798221
tp717
a(I7635024
I7831133
tp718
a(I7635024
I7832484
tp719
a(I7635024
I7841401
tp720
a(I7635024
I7841408
tp721
a(I7635024
I7845411
tp722
a(I7635024
I7849922
tp723
a(I7635024
I7866385
tp724
a(I7635024
I7866386
tp725
a(I7635024
I7866388
tp726
a(I7635024
I7931086
tp727
a(I7635024
I7942203
tp728
a(I7635024
I7950453
tp729
a(I7635025
I7785427
tp730
a(I7635025
I7793722
tp731
a(I7635025
I7798220
tp732
a(I7635025
I7798221
tp733
a(I7635025
I7831133
tp734
a(I7635025
I7831134
tp735
a(I7635025
I7832484
tp736
a(I7635025
I7841401
tp737
a(I7635025
I7841408
tp738
a(I7635025
I7845411
tp739
a(I7635025
I7849922
tp740
a(I7635025
I7866385
tp741
a(I7635025
I7866386
tp742
a(I7635025
I7866388
tp743
a(I7635025
I7931086
tp744
a(I7635025
I7942203
tp745
a(I7635025
I7950453
tp746
a(I7644765
I7798220
tp747
a(I7644765
I7798221
tp748
a(I7644765
I7831133
tp749
a(I7644765
I7831134
tp750
a(I7644765
I7832484
tp751
a(I7644765
I7841408
tp752
a(I7644765
I7845411
tp753
a(I7644765
I7849922
tp754
a(I7644765
I7866385
tp755
a(I7644765
I7866386
tp756
a(I7644765
I7866388
tp757
a(I7644765
I7931086
tp758
a(I7644765
I7942203
tp759
a(I7644765
I7950453
tp760
a(I7673681
I7845411
tp761
a(I7673681
I7849922
tp762
a(I7673681
I7931086
tp763
a(I7673681
I7942203
tp764
a(I7673681
I7950453
tp765
a(I7673786
I7798220
tp766
a(I7673786
I7798221
tp767
a(I7673786
I7831133
tp768
a(I7673786
I7831134
tp769
a(I7673786
I7832484
tp770
a(I7673786
I7841408
tp771
a(I7673786
I7845411
tp772
a(I7673786
I7849922
tp773
a(I7673786
I7860377
tp774
a(I7673786
I7866385
tp775
a(I7673786
I7866386
tp776
a(I7673786
I7866388
tp777
a(I7673786
I7931086
tp778
a(I7673786
I7942203
tp779
a(I7673786
I7950453
tp780
a(I7677310
I7845411
tp781
a(I7677310
I7849922
tp782
a(I7677310
I7931086
tp783
a(I7677310
I7942203
tp784
a(I7677310
I7950453
tp785
a(I7677314
I7931086
tp786
a(I7677314
I7942203
tp787
a(I7677314
I7950453
tp788
a(I7681647
I7798220
tp789
a(I7681647
I7798221
tp790
a(I7681647
I7831133
tp791
a(I7681647
I7831134
tp792
a(I7681647
I7832484
tp793
a(I7681647
I7841408
tp794
a(I7681647
I7845411
tp795
a(I7681647
I7849922
tp796
a(I7681647
I7860377
tp797
a(I7681647
I7866385
tp798
a(I7681647
I7866386
tp799
a(I7681647
I7866388
tp800
a(I7681647
I7931086
tp801
a(I7681647
I7942203
tp802
a(I7681647
I7950453
tp803
a(I7683296
I7798220
tp804
a(I7683296
I7798221
tp805
a(I7683296
I7831133
tp806
a(I7683296
I7831134
tp807
a(I7683296
I7832484
tp808
a(I7683296
I7841408
tp809
a(I7683296
I7845411
tp810
a(I7683296
I7849922
tp811
a(I7683296
I7860377
tp812
a(I7683296
I7866385
tp813
a(I7683296
I7866386
tp814
a(I7683296
I7866388
tp815
a(I7683296
I7931086
tp816
a(I7683296
I7942203
tp817
a(I7683296
I7950453
tp818
a(I7703513
I7798220
tp819
a(I7703513
I7798221
tp820
a(I7703513
I7831133
tp821
a(I7703513
I7831134
tp822
a(I7703513
I7832484
tp823
a(I7703513
I7841408
tp824
a(I7703513
I7849922
tp825
a(I7703513
I7860377
tp826
a(I7703513
I7866385
tp827
a(I7703513
I7866386
tp828
a(I7703513
I7866388
tp829
a(I7703513
I7931086
tp830
a(I7703513
I7942203
tp831
a(I7703513
I7950453
tp832
a(I7717171
I7798221
tp833
a(I7717171
I7831133
tp834
a(I7717171
I7831134
tp835
a(I7717171
I7841408
tp836
a(I7717171
I7845411
tp837
a(I7717171
I7860377
tp838
a(I7717171
I7866385
tp839
a(I7717171
I7866388
tp840
a(I7717171
I7931086
tp841
a(I7717171
I7942203
tp842
a(I7717171
I7950453
tp843
a(I7730945
I7845411
tp844
a(I7730945
I7849922
tp845
a(I7730945
I7866385
tp846
a(I7730945
I7866388
tp847
a(I7730945
I7931086
tp848
a(I7730945
I7942203
tp849
a(I7730945
I7950453
tp850
a(I7730946
I7845411
tp851
a(I7730946
I7849922
tp852
a(I7730946
I7866385
tp853
a(I7730946
I7866388
tp854
a(I7730946
I7931086
tp855
a(I7730946
I7942203
tp856
a(I7730946
I7950453
tp857
a(I7730947
I7845411
tp858
a(I7730947
I7849922
tp859
a(I7730947
I7866385
tp860
a(I7730947
I7866388
tp861
a(I7730947
I7931086
tp862
a(I7730947
I7942203
tp863
a(I7730947
I7950453
tp864
a(I7735935
I7845411
tp865
a(I7735935
I7849922
tp866
a(I7735935
I7931086
tp867
a(I7735935
I7942203
tp868
a(I7735935
I7950453
tp869
a(I7785427
I7942203
tp870
a(I7785427
I7950453
tp871
a(I7798220
I7942203
tp872
a(I7798220
I7950453
tp873
a(I7832484
I7942203
tp874
a(I7832484
I7950453
tp875
a(I7841401
I7942203
tp876
a(I7841401
I7950453
tp877
a(I7841408
I7942203
tp878
a(I7841408
I7950453
tp879
a(I7841425
I7942203
tp880
a(I7841425
I7950453
tp881
a(I7845411
I7950453
tp882
a(I7849922
I7950453
tp883
a(I4686029
I5135638
tp884
a(I4686029
I5246566
tp885
a(I4686029
I7533719
tp886
a(I4686029
I7540324
tp887
a(I4686029
I7549470
tp888
a(I4686029
I7556095
tp889
a(I4686029
I7556096
tp890
a(I4686029
I7559367
tp891
a(I4686029
I7559368
tp892
a(I4686029
I7562706
tp893
a(I4686029
I7562707
tp894
a(I4686029
I7581589
tp895
a(I4686029
I7584789
tp896
a(I4686029
I7591310
tp897
a(I4686029
I7597147
tp898
a(I4686029
I7604052
tp899
a(I4686029
I7610962
tp900
a(I4686029
I7631689
tp901
a(I4686029
I7631690
tp902
a(I4686029
I7635023
tp903
a(I4686029
I7635024
tp904
a(I4686029
I7635025
tp905
a(I4686029
I7644765
tp906
a(I4686029
I7673681
tp907
a(I4686029
I7673786
tp908
a(I4686029
I7677310
tp909
a(I4686029
I7677314
tp910
a(I4686029
I7681647
tp911
a(I4686029
I7683296
tp912
a(I4686029
I7703513
tp913
a(I4686029
I7717171
tp914
a(I4686029
I7730945
tp915
a(I4686029
I7730946
tp916
a(I4686029
I7730947
tp917
a(I4686029
I7735935
tp918
a(I4686029
I7785427
tp919
a(I4686029
I7793722
tp920
a(I4686029
I7798220
tp921
a(I4686029
I7832484
tp922
a(I4686029
I7841401
tp923
a(I4686029
I7841408
tp924
a(I4686029
I7841425
tp925
a(I4686029
I7845411
tp926
a(I4686029
I7849922
tp927
a(I4686029
I7866385
tp928
a(I4686029
I7866386
tp929
a(I4686029
I7866388
tp930
a(I4686029
I7931086
tp931
a(I4686029
I7950453
tp932
a(I4677242
I4752651
tp933
a(I4677242
I4861938
tp934
a(I4677242
I5714662
tp935
a(I4677242
I5914433
tp936
a(I4677242
I6166282
tp937
a(I4861938
I4973792
tp938
a(I4861938
I5714662
tp939
a(I4861938
I5914433
tp940
a(I4861938
I6049017
tp941
a(I4861938
I6121504
tp942
a(I4861938
I6166282
tp943
a(I5095163
I5191141
tp944
a(I5095163
I5714662
tp945
a(I5095163
I5914433
tp946
a(I5095163
I6049017
tp947
a(I5095163
I6121504
tp948
a(I5095163
I6166282
tp949
a(I5246566
I6090989
tp950
a(I5246566
I6165949
tp951
a(I5282958
I6090989
tp952
a(I5714662
I6049017
tp953
a(I5714662
I6121504
tp954
a(I6121504
I7732301
tp955
a(I4934142
I5750026
tp956
a(I4934142
I6093378
tp957
a(I4934142
I6622480
tp958
a(I5161686
I5300192
tp959
a(I5161686
I5308896
tp960
a(I5161686
I5484645
tp961
a(I5161686
I5547745
tp962
a(I5161686
I5589256
tp963
a(I5161686
I5609727
tp964
a(I5161686
I5614570
tp965
a(I5161686
I5807364
tp966
a(I5407442
I5733272
tp967
a(I5407442
I5916678
tp968
a(I5407442
I5976694
tp969
a(I5407442
I6121170
tp970
a(I5407442
I6548592
tp971
a(I5019062
I5856245
tp972
a(I5019062
I5876792
tp973
a(I5331809
I5423181
tp974
a(I5331809
I5437153
tp975
a(I5331809
I5448887
tp976
a(I5331809
I5473887
tp977
a(I5331809
I6568177
tp978
a(I5544482
I5711149
tp979
a(I5544482
I6167696
tp980
a(I5544482
I6568177
tp981
a(I6182443
I6732507
tp982
a(I6182443
I6928806
tp983
a(I4752651
I4873390
tp984
a(I4752651
I5126308
tp985
a(I4752651
I5191141
tp986
a(I5364797
I5741462
tp987
a(I5364797
I5751629
tp988
a(I5364797
I5874214
tp989
a(I5364797
I6017496
tp990
a(I5364797
I6251260
tp991
a(I5364797
I6299757
tp992
a(I5364797
I6329017
tp993
a(I5364797
I6329139
tp994
a(I5364797
I6338790
tp995
a(I5364797
I6461496
tp996
a(I5364797
I6591125
tp997
a(I5364797
I6592745
tp998
a(I5364797
I6616819
tp999
a(I5364797
I6618934
tp1000
a(I5364797
I6654625
tp1001
a(I5364797
I6682899
tp1002
a(I5364797
I6749740
tp1003
a(I5364797
I6942518
tp1004
a(I5364797
I6975893
tp1005
a(I5364797
I7041468
tp1006
a(I5364797
I7058437
tp1007
a(I5364797
I7225535
tp1008
a(I5622684
I6310110
tp1009
a(I5622684
I6329017
tp1010
a(I5622684
I6413489
tp1011
a(I5622684
I6592764
tp1012
a(I5858457
I6270846
tp1013
a(I5858457
I6329017
tp1014
a(I5858457
I6365266
tp1015
a(I5858457
I6387453
tp1016
a(I5858457
I6592764
tp1017
a(I5858457
I7176144
tp1018
a(I6329017
I7176144
tp1019
a(I5914433
I7732301
tp1020
a(I5895263
I6271273
tp1021
a(I5895263
I6420441
tp1022
a(I5895263
I6873087
tp1023
a(I5895263
I6900881
tp1024
a(I5895263
I6908861
tp1025
a(I5895263
I6916584
tp1026
a(I5895263
I6921615
tp1027
a(I5895263
I6932934
tp1028
a(I5895263
I7056840
tp1029
a(I5895263
I7077992
tp1030
a(I6093636
I6271273
tp1031
a(I6093636
I6391932
tp1032
a(I6093636
I6420441
tp1033
a(I6093636
I6742774
tp1034
a(I6093636
I7190049
tp1035
a(I7640980
I7798220
tp1036
a(I7640980
I7798221
tp1037
a(I7640980
I7831133
tp1038
a(I7640980
I7831134
tp1039
a(I7640980
I7832484
tp1040
a(I7640980
I7841408
tp1041
a(I7640980
I7845411
tp1042
a(I7640980
I7849922
tp1043
a(I7640980
I7860377
tp1044
a(I7640980
I7866385
tp1045
a(I7640980
I7866386
tp1046
a(I7640980
I7931086
tp1047
a(I7640980
I7942203
tp1048
a(I7640980
I7950453
tp1049
a(I7798221
I7942203
tp1050
a(I7798221
I7950453
tp1051
a(I7831133
I7942203
tp1052
a(I7831133
I7950453
tp1053
a(I7831134
I7942203
tp1054
a(I7831134
I7950453
tp1055
a(I7860377
I7950453
tp1056
a(I5135638
I5246566
tp1057
a(I5135638
I5282958
tp1058
a(I5135638
I6090989
tp1059
a(I4973792
I5714662
tp1060
a(I4973792
I5914433
tp1061
a(I4973792
I6049017
tp1062
a(I4973792
I6166282
tp1063
a(I5750026
I6348085
tp1064
a(I5750026
I6368374
tp1065
a(I5300192
I5547745
tp1066
a(I5300192
I5589256
tp1067
a(I5300192
I5609727
tp1068
a(I5300192
I5614570
tp1069
a(I5300192
I5807364
tp1070
a(I5300192
I6548592
tp1071
a(I5300192
I6753454
tp1072
a(I5308896
I5614570
tp1073
a(I5308896
I5807364
tp1074
a(I5484645
I5605746
tp1075
a(I5484645
I6015764
tp1076
a(I5484645
I6037281
tp1077
a(I5484645
I6111163
tp1078
a(I5609727
I6068620
tp1079
a(I5609727
I6617490
tp1080
a(I5807364
I6548592
tp1081
a(I5807364
I6599631
tp1082
a(I5916678
I6225243
tp1083
a(I5916678
I6548592
tp1084
a(I5916678
I6617490
tp1085
a(I5976694
I6121170
tp1086
a(I5976694
I6548592
tp1087
a(I6121170
I6548592
tp1088
a(I5423181
I5832722
tp1089
a(I5423181
I6568177
tp1090
a(I5437153
I5595060
tp1091
a(I5437153
I5713199
tp1092
a(I5437153
I5715679
tp1093
a(I5437153
I5735119
tp1094
a(I5437153
I5740669
tp1095
a(I5437153
I5743084
tp1096
a(I5437153
I5771685
tp1097
a(I5437153
I5832722
tp1098
a(I5437153
I6568177
tp1099
a(I5437153
I6832473
tp1100
a(I5448887
I5832722
tp1101
a(I5448887
I5992142
tp1102
a(I5448887
I6568177
tp1103
a(I5473887
I5713199
tp1104
a(I5473887
I5715679
tp1105
a(I5473887
I5732554
tp1106
a(I5473887
I5735119
tp1107
a(I5473887
I5743084
tp1108
a(I5473887
I5771686
tp1109
a(I5473887
I5832722
tp1110
a(I5473887
I5974793
tp1111
a(I5473887
I5992142
tp1112
a(I5473887
I6014859
tp1113
a(I5473887
I6109024
tp1114
a(I5473887
I6182443
tp1115
a(I5473887
I6568177
tp1116
a(I5711149
I5996338
tp1117
a(I5711149
I6622480
tp1118
a(I5711149
I6832473
tp1119
a(I6167696
I6732507
tp1120
a(I6732507
I7062904
tp1121
a(dp1122
I7556096
(lp1123
Vdawsonit
p1124
aVformat
p1125
aVzone
p1126
aVheat
p1127
aVheater
p1128
aVshale
p1129
aVassess
p1130
aVcomposit
p1131
aVdiffer
p1132
aVhydrocarbon
p1133
asI4500651
(lp1134
Vand
p1135
aVuse
p1136
aVcomposit
p1137
aVconvers
p1138
aVdisclos
p1139
aVsiev
p1140
aVtitanium
p1141
aVother
p1142
aVare
p1143
aVhave
p1144
asI7058437
(lp1145
Vskin
p1146
aVfingertip
p1147
aVstimul
p1148
aVglucos
p1149
aVfluid
p1150
aVanalyt
p1151
aVbodi
p1152
aVconcentr
p1153
aVtest
p1154
aVlanc
p1155
asI5916678
(lp1156
Vfiber
p1157
aVmulticompon
p1158
aVnonwoven
p1159
aVcare
p1160
aVdegrad
p1161
aVcompon
p1162
aVwipe
p1163
aVhealth
p1164
aVthemselv
p1165
aVfibrous
p1166
asI5771686
(lp1167
Vexhaust
p1168
aVdiesel
p1169
aVlambda
p1170
aVengin
p1171
aVoper
p1172
aVcatalyst
p1173
aVsub
p1174
aVstorag
p1175
aVfeedback
p1176
aVfunction
p1177
asI7866385
(lp1178
Vformat
p1179
aVkalina
p1180
aVheat
p1181
aVfluid
p1182
aVtreat
p1183
aVsubsurfac
p1184
aVheater
p1185
aVproduc
p1186
aVhydrocarbon
p1187
aVherein
p1188
asI7866386
(lp1189
Vportion
p1190
aVformat
p1191
aVoxid
p1192
aVhydrocarbon
p1193
aVproduc
p1194
aVfirst
p1195
aVheater
p1196
aVwell
p1197
aVfluid
p1198
aVheat
p1199
asI7866388
(lp1200
Vstream
p1201
aVmolecular
p1202
aVoxygen
p1203
aVgas
p1204
aVformat
p1205
aVfluid
p1206
aVcombin
p1207
aVhydrogen
p1208
aVsubsurfac
p1209
aVdownhol
p1210
asI7584789
(lp1211
Vcrude
p1212
aVstream
p1213
aVproduct
p1214
aV343
p1215
aVboil
p1216
aVd5307
p1217
aVproduc
p1218
aVgas
p1219
aVcrack
p1220
aVaddit
p1221
asI4673559
(lp1222
Vsilicophosphoalumin
p1223
aVoxid
p1224
aVsilicoaluminophosph
p1225
aVcrystal
p1226
aVhydrolysi
p1227
aVphosphorus
p1228
aVcatalyt
p1229
aVreadili
p1230
aValuminum
p1231
aVion
p1232
asI4061724
(lp1233
Vsilica
p1234
aVcrystallin
p1235
aValkylonium
p1236
aVsilic
p1237
aVpore
p1238
aVuniform
p1239
aVhydrotherm
p1240
aVangstrom
p1241
aVneither
p1242
aVcalcin
p1243
asI7549470
(lp1244
Vnahcolit
p1245
aVformat
p1246
aVfluid
p1247
aVhydrocarbon
p1248
aVshale
p1249
aVtreat
p1250
aVoxid
p1251
aVmine
p1252
aVportion
p1253
aVdissolv
p1254
asI6121504
(lp1255
Volefin
p1256
aVoxygen
p1257
aVconvert
p1258
aVfeedstock
p1259
aVquench
p1260
aVheat
p1261
aVproduct
p1262
aVcatalyt
p1263
aVrecoveri
p1264
aVdirect
p1265
asI7190049
(lp1266
Vnanocylind
p1267
aVarray
p1268
aVnanopor
p1269
aVnanoscal
p1270
aVnanowir
p1271
aVproduc
p1272
aVfilm
p1273
aVpathway
p1274
aVcopolym
p1275
aVaccomplish
p1276
asI5544482
(lp1277
sI7845411
(lp1278
Vheat
p1279
aVsitu
p1280
aVtreatment
p1281
aVcircul
p1282
aVpipe
p1283
aVformat
p1284
aVwellbor
p1285
aVtransfer
p1286
aVutil
p1287
aVsystem
p1288
asI4576805
(lp1289
sI5874214
(lp1290
Videntifi
p1291
aVproxim
p1292
aVprogram
p1293
aVanalyt
p1294
aVapplic
p1295
aVnon
p1296
aVassay
p1297
aVmolecul
p1298
aVelectron
p1299
aVsynthes
p1300
asI6413489
(lp1301
Vparticl
p1302
aVmicell
p1303
aVrevers
p1304
aVnanomet
p1305
aVoxid
p1306
aVmethan
p1307
aVagglomer
p1308
aVsize
p1309
aVmediat
p1310
aVparticular
p1311
asI6182443
(lp1312
Vcatalyst
p1313
aVexhaust
p1314
aVnitrogen
p1315
aVdiesel
p1316
aVoxid
p1317
aVengin
p1318
aVcompon
p1319
aVgase
p1320
aVreduct
p1321
aVnitrous
p1322
asI6749740
(lp1323
Vanalyt
p1324
aVsensor
p1325
aVdetermin
p1326
aVcharg
p1327
aVcoulometri
p1328
aVpotentiometri
p1329
aVamperometri
p1330
aVamount
p1331
aVlactat
p1332
aVvolum
p1333
asI7831133
(lp1334
Vheater
p1335
aVsubsurfac
p1336
aVwye
p1337
aVelectr
p1338
aVconductor
p1339
aVsheath
p1340
aVthird
p1341
aVcoupl
p1342
aVinsul
p1343
aVheat
p1344
asI5876792
(lp1345
Vweb
p1346
aVpolym
p1347
aVinterstiti
p1348
aVshear
p1349
aVthinnabl
p1350
aVplacement
p1351
aVcomposit
p1352
aVporous
p1353
aVmost
p1354
aVtension
p1355
asI7841408
(lp1356
Vhydrocarbon
p1357
aVformat
p1358
aVlayer
p1359
aVtar
p1360
aVsand
p1361
aVsome
p1362
aVmobil
p1363
aVsecond
p1364
aVheat
p1365
aVsitu
p1366
asI7942203
(lp1367
Vsubsurfac
p1368
aVformat
p1369
aVhydrocarbon
p1370
aVheat
p1371
aVheater
p1372
aVpyrolyz
p1373
aVmay
p1374
aVsome
p1375
aVmore
p1376
aVprocess
p1377
asI5364797
(lp1378
Vcrystallin
p1379
aVm41s
p1380
aVpore
p1381
aVmateri
p1382
aVmesopor
p1383
aVquantifi
p1384
aVsensor
p1385
aVultra
p1386
aVdetect
p1387
aVbiolog
p1388
asI6093378
(lp1389
Vand
p1390
aVzeolit
p1391
aVcomposit
p1392
aVpore
p1393
aVfour
p1394
aVsecond
p1395
aVuse
p1396
aVcatalyt
p1397
aVfor
p1398
aVsupport
p1399
asI7732301
(lp1400
Vgan
p1401
aVcrystal
p1402
aVthin
p1403
aVlayer
p1404
aVsubstrat
p1405
aVsingl
p1406
aVanneal
p1407
aVexfoli
p1408
aVbond
p1409
aVsourc
p1410
asI7635023
(lp1411
Vhydrocarbon
p1412
aVheater
p1413
aVhorizont
p1414
aVinclin
p1415
aVformat
p1416
aVopen
p1417
aVportion
p1418
aVlayer
p1419
aVisol
p1420
aVheat
p1421
asI7635024
(lp1422
Vvisbreak
p1423
aVformat
p1424
aVtar
p1425
aVhydrocarbon
p1426
aVsand
p1427
aVvisbroken
p1428
aVsection
p1429
aVheat
p1430
aVsome
p1431
aV240
p1432
asI7635025
(lp1433
Vcogener
p1434
aVhydrocarbon
p1435
aVsteam
p1436
aVformat
p1437
aVfacil
p1438
aVelectr
p1439
aVwell
p1440
aVportion
p1441
aVproduct
p1442
aVlocat
p1443
asI7610962
(lp1444
Vformat
p1445
aVsubsurfac
p1446
aVlithostat
p1447
aVacid
p1448
aVheater
p1449
aVgase
p1450
aVgas
p1451
aVsour
p1452
aVheat
p1453
aVherein
p1454
asI5308896
(lp1455
Vfiber
p1456
aVbond
p1457
aVbinder
p1458
aVhydrogen
p1459
aVadher
p1460
aVcoval
p1461
aVparticl
p1462
aVdensifi
p1463
aVcoordin
p1464
aVbulk
p1465
asI4795482
(lp1466
Vodor
p1467
aVspeci
p1468
aVtetrahedra
p1469
aVpercent
p1470
aVolfactori
p1471
aVwater
p1472
aVmolecular
p1473
aVtetrahedr
p1474
aVelimin
p1475
aVtorr
p1476
asI7597147
(lp1477
Vheater
p1478
aVferromagnet
p1479
aVconductor
p1480
aVtemperatur
p1481
aVtransform
p1482
aVherein
p1483
aVelectr
p1484
aVsubsurfac
p1485
aVphase
p1486
aVamount
p1487
asI7644765
(lp1488
Vformat
p1489
aVtar
p1490
aVhydrocarbon
p1491
aVpressur
p1492
aVsand
p1493
aVsection
p1494
aVmajor
p1495
aVtemperatur
p1496
aVmay
p1497
aVbelow
p1498
asI7831134
(lp1499
Vheater
p1500
aVformat
p1501
aVgroup
p1502
aVuncas
p1503
aVhydrocarbon
p1504
aVtwo
p1505
aVmore
p1506
aVwellbor
p1507
aVconfigur
p1508
aVelectr
p1509
asI5895263
(lp1510
Vpolysilica
p1511
aVcircuit
p1512
aVdielectr
p1513
aVintegr
p1514
aVline
p1515
aVsubstrat
p1516
aViii
p1517
aVporous
p1518
aVmateri
p1519
aVprocess
p1520
asI6622480
(lp1521
Vpes
p1522
aVregener
p1523
aVparticul
p1524
aVexhaust
p1525
aVfilter
p1526
aVash
p1527
aVres
p1528
aVdiesel
p1529
aVfiler
p1530
aVjudg
p1531
asI7540324
(lp1532
Vsection
p1533
aVhydrocarbon
p1534
aVheat
p1535
aVcheckerboard
p1536
aVheater
p1537
aVformat
p1538
aVfirst
p1539
aVmore
p1540
aVmobil
p1541
aVsecond
p1542
asI5484645
(lp1543
Vnonwoven
p1544
aVmulticonstitu
p1545
aVweb
p1546
aVpolyethylen
p1547
aVfilament
p1548
aVgamma
p1549
aVspunbond
p1550
aVstabl
p1551
aVconstitu
p1552
aVradiat
p1553
asI5246566
(lp1554
Vsapo
p1555
aVang
p1556
aVzsm
p1557
aVisomer
p1558
aVcatalyst
p1559
aVabout
p1560
aVpore
p1561
aVviscos
p1562
aVlube
p1563
aVwaxi
p1564
asI7077992
(lp1565
Vimprint
p1566
aVlithographi
p1567
aVtemplat
p1568
aVliquid
p1569
aVsubstrat
p1570
aVcure
p1571
aVrepeat
p1572
aVprocess
p1573
aVpattern
p1574
aVremaind
p1575
asI6299757
(lp1576
Vleachabl
p1577
aVsensor
p1578
aVbiomolecul
p1579
aVredox
p1580
aVdiffus
p1581
aVmediat
p1582
aVanalyt
p1583
aVcoulometri
p1584
aVpotentiometri
p1585
aVamperometri
p1586
asI7681647
(lp1587
Vformat
p1588
aVvisbroken
p1589
aVtar
p1590
aVsand
p1591
aVpyrolyz
p1592
aVhydrocarbon
p1593
aVsitu
p1594
aVheater
p1595
aVfluid
p1596
aVdrive
p1597
asI6548592
(lp1598
Vdispers
p1599
aVion
p1600
aVsensit
p1601
aVwater
p1602
aVpolym
p1603
aVbinder
p1604
aVtheir
p1605
aVpresent
p1606
aVdirect
p1607
aVapplic
p1608
asI7950453
(lp1609
Vconduit
p1610
aVoxid
p1611
aVsubsurfac
p1612
aVshield
p1613
aVburner
p1614
aVfuel
p1615
aVmix
p1616
aVformat
p1617
aVdownhol
p1618
aVheat
p1619
asI5976694
(lp1620
Vwater
p1621
aVdispers
p1622
aVsensit
p1623
aVproduct
p1624
aVflushabl
p1625
aVfeminin
p1626
aVnapkin
p1627
aVcomposit
p1628
aVfiber
p1629
aVthermoform
p1630
asI7841401
(lp1631
Vtreatment
p1632
aVsitu
p1633
aVformat
p1634
aVsubsurfac
p1635
aVmigrat
p1636
aVinhibit
p1637
aVheat
p1638
aVtreat
p1639
aVfluid
p1640
aVarea
p1641
asI4677242
(lp1642
Volefin
p1643
aVfeedstock
p1644
aVsilicoaluminophosph
p1645
aVlight
p1646
aVhetero
p1647
aVsiev
p1648
aVdiluent
p1649
aValiphat
p1650
aVproduct
p1651
aVaromat
p1652
asI6391932
(lp1653
Vpolyimid
p1654
aVporous
p1655
aVdielectr
p1656
aVmateri
p1657
aVdisclos
p1658
aVconstant
p1659
aVelectron
p1660
aVmanufactur
p1661
aVprepar
p1662
aVlow
p1663
asI5740669
(lp1664
Vsub
p1665
aVabsorb
p1666
aVexhaust
p1667
aVregener
p1668
aVgas
p1669
aVoutflow
p1670
aVrich
p1671
aVfuel
p1672
aVtemperatur
p1673
aVratio
p1674
asI7735935
(lp1675
Vformat
p1676
aVsitu
p1677
aVshale
p1678
aVminer
p1679
aVportion
p1680
aVoil
p1681
aVcarbon
p1682
aVdissoci
p1683
aVfluid
p1684
aVtemperatur
p1685
asI4793984
(lp1686
Vsiev
p1687
aVmolecular
p1688
aVsub
p1689
aVframework
p1690
aVelo
p1691
aValo
p1692
aVempir
p1693
aVmicropor
p1694
aVanhydr
p1695
aVsio
p1696
asI4410501
(lp1697
Vand
p1698
aVoxid
p1699
aVinvent
p1700
aVsynthes
p1701
aVtitanium
p1702
aVsynthet
p1703
aVconstitut
p1704
aVuse
p1705
aVsaid
p1706
aVfor
p1707
asI5282958
(lp1708
Vpsig
p1709
aVhexadecan
p1710
aVisomer
p1711
aVdewax
p1712
aVpore
p1713
aVfeed
p1714
aVang
p1715
aVsiev
p1716
aVmolecular
p1717
aV370
p1718
asI6167696
(lp1719
Vtrap
p1720
aVexhaust
p1721
aVsub
p1722
aVcatalyst
p1723
aVparticul
p1724
aVhydrocarbon
p1725
aVpurif
p1726
aVburn
p1727
aVmatter
p1728
aVcold
p1729
asI7841425
(lp1730
Vdrill
p1731
aVwellbor
p1732
aVtubular
p1733
aVbit
p1734
aVcut
p1735
aVstructur
p1736
aVsubsurfac
p1737
aVcoupl
p1738
aVformat
p1739
aVabov
p1740
asI6171556
(lp1741
Vexhaust
p1742
aVadsorb
p1743
aVstream
p1744
aVzone
p1745
aVpollut
p1746
aVgas
p1747
aVcatalyst
p1748
aVinnocu
p1749
aVdischarg
p1750
aVzeolit
p1751
asI6591125
(lp1752
Vskin
p1753
aVanalyt
p1754
aVfingertip
p1755
aVstimul
p1756
aVfluid
p1757
aVbodi
p1758
aVleachabl
p1759
aVtest
p1760
aVlanc
p1761
aVredox
p1762
asI7533719
(lp1763
Vwellhead
p1764
aVsubsurfac
p1765
aVheater
p1766
aVferromagnet
p1767
aVwellbor
p1768
aVformat
p1769
aVherein
p1770
aVcoupl
p1771
aVdescrib
p1772
aVnon
p1773
asI5858457
(lp1774
Vexhibit
p1775
aVand
p1776
aVrang
p1777
aVconstant
p1778
aVprocess
p1779
aVapproxim
p1780
aVpore
p1781
aVcontinu
p1782
aVinvent
p1783
aVcrystallin
p1784
asI5125231
(lp1785
Vhydrocarbon
p1786
aVconvert
p1787
aVengin
p1788
aVsiev
p1789
aVexhaust
p1790
aVcatalyst
p1791
aVcatalyt
p1792
aVwithheld
p1793
aVchamber
p1794
aVemiss
p1795
asI6654625
(lp1796
Velectrochem
p1797
aVand
p1798
aVlayer
p1799
aVvia
p1800
aVedg
p1801
aVinto
p1802
aVbecaus
p1803
aVrestrict
p1804
aVsmaller
p1805
aVrespons
p1806
asI5126308
(lp1807
Valuminophosph
p1808
aVcatalyst
p1809
aVparticl
p1810
aVmetal
p1811
aVsiev
p1812
aVsub
p1813
aVmethanol
p1814
aVmole
p1815
aVolefin
p1816
aVfraction
p1817
asI5288619
(lp1818
Vstearic
p1819
aVtransesterifi
p1820
aVacid
p1821
aVtransesterif
p1822
aVoil
p1823
aVveget
p1824
aVreaction
p1825
aVrecycl
p1826
aVmargarin
p1827
aVzone
p1828
asI4873390
(lp1829
Vfeedstock
p1830
aVcatalyt
p1831
aVconvers
p1832
aVchemic
p1833
aVprocess
p1834
aVconvert
p1835
aVproduct
p1836
aVinto
p1837
aVcompris
p1838
aVwhich
p1839
asI4208305
(lp1840
Vsub
p1841
aVsilic
p1842
aVegeo
p1843
aVdsio
p1844
aVexhang
p1845
aVcrystallin
p1846
aVagent
p1847
aVcatalyst
p1848
aVbival
p1849
aVhereinaft
p1850
asI5448887
(lp1851
Vexhaust
p1852
aVfuel
p1853
aVratio
p1854
aVsub
p1855
aVgas
p1856
aVair
p1857
aVabsorb
p1858
aVcatalyst
p1859
aVlean
p1860
aVthree
p1861
asI6329017
(lp1862
Vmesopor
p1863
aVfilm
p1864
aVsilica
p1865
aVsurfact
p1866
aVdielectr
p1867
aVconstant
p1868
aVsolut
p1869
aVhydroxyl
p1870
aVdehydroxyl
p1871
aVspin
p1872
asI5098684
(lp1873
Vand
p1874
aVexhibit
p1875
aVcomposit
p1876
aVcrystalin
p1877
aVmaximum
p1878
aVpore
p1879
aVit
p1880
aVinvent
p1881
aVcapac
p1882
aVvalu
p1883
asI7225535
(lp1884
Vsensor
p1885
aVelectrod
p1886
aVelectrochem
p1887
aVcoulometri
p1888
aVpotentiometri
p1889
aVamperometri
p1890
aVlactat
p1891
aVbiomolecul
p1892
aVwork
p1893
aVsampl
p1894
asI6338790
(lp1895
Vleachabl
p1896
aVsensor
p1897
aVbiomolecul
p1898
aVredox
p1899
aVdiffus
p1900
aVmediat
p1901
aVanalyt
p1902
aVcoulometri
p1903
aVpotentiometri
p1904
aVamperometri
p1905
asI6368374
(lp1906
Vfilter
p1907
aVflute
p1908
aVassembl
p1909
aVend
p1910
aVseal
p1911
aVmoistur
p1912
aVcircumscrib
p1913
aVhous
p1914
aVportion
p1915
aVfirst
p1916
asI7559367
(lp1917
Vconduit
p1918
aVelectr
p1919
aVconductor
p1920
aVcurrent
p1921
aVformat
p1922
aVflow
p1923
aVsubstanti
p1924
aVheat
p1925
aVnear
p1926
aVinsid
p1927
asI7559368
(lp1928
Vinject
p1929
aVfluid
p1930
aVnahcolit
p1931
aVformat
p1932
aVwell
p1933
aVinterconnect
p1934
aVhydrocarbon
p1935
aVleast
p1936
aVshale
p1937
aVproduc
p1938
asI5732554
(lp1939
Vcontrol
p1940
aVand
p1941
aVregener
p1942
aVdevic
p1943
aVthus
p1944
aVinvent
p1945
aVmode
p1946
aVintern
p1947
aVstoichiometr
p1948
aVdispos
p1949
asI4686029
(lp1950
Vtitanoaluminosil
p1951
aVdewax
p1952
aVfeedstock
p1953
aVhydrocarbon
p1954
aVcatalyst
p1955
aVpour
p1956
aVinstant
p1957
aVprocess
p1958
aVcharacter
p1959
aVnovel
p1960
asI7931086
(lp1961
Vheat
p1962
aVconduit
p1963
aVsubsurfac
p1964
aVformat
p1965
aVseal
p1966
aVtransfer
p1967
aVvapor
p1968
aVfluid
p1969
aVliquid
p1970
aVsourc
p1971
asI6753454
(lp1972
Velectrospin
p1973
aVfiber
p1974
aVhomogen
p1975
aVpolym
p1976
aVdress
p1977
aVdiscos
p1978
aVelectrospun
p1979
aVwound
p1980
aVsubstanti
p1981
aVsolut
p1982
asI5407442
(lp1983
Vcarbon
p1984
aVparticl
p1985
aVodor
p1986
aVlighter
p1987
aVcatameni
p1988
aVmalodor
p1989
aVbandag
p1990
aVcomposit
p1991
aVcolor
p1992
aVdiaper
p1993
asI6812372
(lp1994
Vsilicoaluminophosph
p1995
aVsiev
p1996
aVintergrown
p1997
aVaei
p1998
aVcha
p1999
aVmolecular
p2000
aVdiffax
p2001
aVphase
p2002
aVmethanol
p2003
aVcalcin
p2004
asI5992142
(lp2005
Vzone
p2006
aVexhaust
p2007
aVlayer
p2008
aVengin
p2009
aVnobl
p2010
aVsub
p2011
aVlean
p2012
aVdiesel
p2013
aVstorag
p2014
aVgamma
p2015
asI5161686
(lp2016
Vodor
p2017
aVweb
p2018
aVabsorb
p2019
aVparticul
p2020
aValkalin
p2021
aVmateri
p2022
aVbind
p2023
aVslurri
p2024
aVporous
p2025
aVpackag
p2026
asI6732507
(lp2027
Vadsorb
p2028
aVsub
p2029
aVlean
p2030
aVaftertreat
p2031
aVengin
p2032
aVcombust
p2033
aVburn
p2034
aVnox
p2035
aVmode
p2036
aVsynergist
p2037
asI6310110
(lp2038
Vimprint
p2039
aVsupramolecular
p2040
aVsurfact
p2041
aVmonom
p2042
aVstructur
p2043
aVmolecular
p2044
aVgroup
p2045
aVtemplat
p2046
aVheadgroup
p2047
aVparticl
p2048
asI5715679
(lp2049
Vset
p2050
aVcarri
p2051
aVdevic
p2052
aVrepres
p2053
aVabsorpt
p2054
aVgenerat
p2055
aVproport
p2056
aVout
p2057
aVfrom
p2058
aVsub
p2059
asI7683296
(lp2060
Vheater
p2061
aVcuri
p2062
aVtemperatur
p2063
aVsection
p2064
aV740
p2065
aVherein
p2066
aVsubsurfac
p2067
aVdescrib
p2068
aVcobalt
p2069
aViron
p2070
asI5547745
(lp2071
Vbinder
p2072
aVbond
p2073
aVfiber
p2074
aVhydrogen
p2075
aVparticl
p2076
aVcoval
p2077
aVcoordin
p2078
aVadher
p2079
aVgroup
p2080
aVfunction
p2081
asI5714662
(lp2082
Vand
p2083
aVsynergi
p2084
aVsynga
p2085
aVstream
p2086
aVprocess
p2087
aVcompris
p2088
aVdirect
p2089
aVhigh
p2090
aVcost
p2091
aVare
p2092
asI6592745
(lp2093
Vsensor
p2094
aVleachabl
p2095
aVbiomolecul
p2096
aVdiffus
p2097
aVmediat
p2098
aVanalyt
p2099
aVcoulometri
p2100
aVpotentiometri
p2101
aVamperometri
p2102
aVelectrooxid
p2103
asI6509290
(lp2104
Vattrit
p2105
aVcatalyst
p2106
aVsiev
p2107
aVparticl
p2108
aVmolecular
p2109
aVvirgin
p2110
aVreaction
p2111
aVfeedstock
p2112
aVbenefici
p2113
aVconstraint
p2114
asI5832722
(lp2115
Vsub
p2116
aVpurg
p2117
aVestim
p2118
aVtrap
p2119
aVmode
p2120
aVengin
p2121
aVcumul
p2122
aVstorag
p2123
aVlevel
p2124
aVaccumul
p2125
asI5096684
(lp2126
Vand
p2127
aVprocess
p2128
aVinto
p2129
aVadsorb
p2130
aVobtain
p2131
aVagent
p2132
aVpressur
p2133
aVacid
p2134
aVhydrocarbon
p2135
aVgtoreq
p2136
asI6090989
(lp2137
Vand
p2138
aVcomposit
p2139
aVfrom
p2140
aVpercentag
p2141
aVfour
p2142
aVare
p2143
aVcarbon
p2144
aVhydrogen
p2145
aVhydrocarbon
p2146
aVend
p2147
asI6568177
(lp2148
Vfuel
p2149
aVpurg
p2150
aVcontrol
p2151
aVengin
p2152
aVlean
p2153
aVair
p2154
aVcatalyst
p2155
aVcylind
p2156
aVemiss
p2157
aVvapor
p2158
asI7785427
(lp2159
Valloy
p2160
aVmetal
p2161
aVstrength
p2162
aVleast
p2163
aVheater
p2164
aVherein
p2165
aVpartial
p2166
aVniobium
p2167
aVhigh
p2168
aVcanist
p2169
asI6270846
(lp2170
Vinterstiti
p2171
aVporos
p2172
aVfilm
p2173
aVthin
p2174
aVsurfact
p2175
aVdielectr
p2176
aVconstant
p2177
aVtemplat
p2178
aVevapor
p2179
aVcompound
p2180
asI6742774
(lp2181
Vgas
p2182
aVliquid
p2183
aVemuls
p2184
aVreaction
p2185
aVreactor
p2186
aVcylindr
p2187
aVoppos
p2188
aVpassag
p2189
aVprocess
p2190
aVinterfaci
p2191
asI6049017
(lp2192
sI5095163
(lp2193
Vand
p2194
aVhydrotherm
p2195
aVcomposit
p2196
aVprocess
p2197
aVparaffin
p2198
aV700
p2199
aVperiod
p2200
aVdecreas
p2201
aVresult
p2202
aVhave
p2203
asI6592764
(lp2204
Vcopolym
p2205
aVmesoscop
p2206
aVmesostructur
p2207
aVoxid
p2208
aVblock
p2209
aVmesopor
p2210
aVhydrotherm
p2211
aVamphiphil
p2212
aVmetal
p2213
aVinorgan
p2214
asI6387453
(lp2215
Vinterstiti
p2216
aVsurfact
p2217
aVmesostructur
p2218
aVfilm
p2219
aVthin
p2220
aVtemplat
p2221
aVframework
p2222
aVevapor
p2223
aVdisord
p2224
aVmesophas
p2225
asI5609727
(lp2226
Vbinder
p2227
aVfiber
p2228
aVparticl
p2229
aVfunction
p2230
aVbond
p2231
aVfibrous
p2232
aVpolymer
p2233
aVbound
p2234
aVcoval
p2235
aVhydrogen
p2236
asI7730945
(lp2237
Vgeotherm
p2238
aVsubsurfac
p2239
aVheat
p2240
aVtreatment
p2241
aVformat
p2242
aVenergi
p2243
aVhydrocarbon
p2244
aVfluid
p2245
aVarea
p2246
aVtreat
p2247
asI7730946
(lp2248
Vdolomit
p2249
aVtar
p2250
aVformat
p2251
aVsand
p2252
aVhydrocarbon
p2253
aVsome
p2254
aVtreat
p2255
aVdecomposit
p2256
aVfluid
p2257
aVmay
p2258
asI7730947
(lp2259
Vtar
p2260
aVinject
p2261
aVsand
p2262
aVzone
p2263
aVfluid
p2264
aVformat
p2265
aVpermeabl
p2266
aVportion
p2267
aVhydrocarbon
p2268
aVtreat
p2269
asI5807364
(lp2270
Vionic
p2271
aVbond
p2272
aVhybrid
p2273
aVbinder
p2274
aVfiber
p2275
aVparticl
p2276
aVsalt
p2277
aVbind
p2278
aVcapabl
p2279
aVcholin
p2280
asI5589256
(lp2281
Vfiber
p2282
aVbond
p2283
aVbinder
p2284
aVhydrogen
p2285
aVadher
p2286
aVcoval
p2287
aVparticl
p2288
aVdensifi
p2289
aVcoordin
p2290
aVbulk
p2291
asI5974793
(lp2292
Vexhaust
p2293
aVgas
p2294
aVlean
p2295
aVsub
p2296
aVcylind
p2297
aVcatalyst
p2298
aVfuel
p2299
aVratio
p2300
aVrich
p2301
aVair
p2302
asI6166282
(lp2303
Vzone
p2304
aVdisengag
p2305
aVdens
p2306
aVreaction
p2307
aVcatalyst
p2308
aVtransit
p2309
aVconvers
p2310
aVreactor
p2311
aVbed
p2312
aVphase
p2313
asI4752651
(lp2314
Volefin
p2315
aVfeedstock
p2316
aVlight
p2317
aVhetero
p2318
aVsiev
p2319
aVdiluent
p2320
aVzeolit
p2321
aValiphat
p2322
aVproduct
p2323
aVaromat
p2324
asI5057296
(lp2325
Vcrystallin
p2326
aVbenzen
p2327
aVgram
p2328
aVpore
p2329
aVsynthes
p2330
aVcapac
p2331
aVmesopor
p2332
aVsorption
p2333
aVtorr
p2334
aVlarg
p2335
asI6017496
(lp2336
sI6682899
(lp2337
Vbioluminesc
p2338
aVbiominer
p2339
aVsynaps
p2340
aVinfecti
p2341
aValso
p2342
aVanalyt
p2343
aVdetect
p2344
aVbiolog
p2345
aVsynthet
p2346
aVidentif
p2347
asI6015764
(lp2348
sI5135638
(lp2349
Vsapo
p2350
aVang
p2351
aVzsm
p2352
aVisomer
p2353
aVcatalyst
p2354
aVabout
p2355
aVpore
p2356
aVviscos
p2357
aVlube
p2358
aVwaxi
p2359
asI6420441
(lp2360
Vporous
p2361
aVdielectr
p2362
aVmateri
p2363
aVdisclos
p2364
aVconstant
p2365
aVelectron
p2366
aVmanufactur
p2367
aVprepar
p2368
aVlow
p2369
aVintegr
p2370
asI5750026
(lp2371
Vworkstream
p2372
aVcontamin
p2373
aVinlet
p2374
aVoutlet
p2375
aVdevic
p2376
aVfilter
p2377
aVporous
p2378
aVmulticellular
p2379
aVface
p2380
aVcell
p2381
asI6037281
(lp2382
sI6329139
(lp2383
Vautom
p2384
aVmemori
p2385
aVmicrovessel
p2386
aVmatric
p2387
aVencodabi
p2388
aVprotocol
p2389
aVmanual
p2390
aVdiscoveri
p2391
aVsort
p2392
aVcleaver
p2393
asI4440871
(lp2394
Vexhibit
p2395
aVhydrotherm
p2396
aVzeolit
p2397
aVcomposit
p2398
aVrender
p2399
aVspeci
p2400
aVadsorb
p2401
aVnumber
p2402
aVtemplat
p2403
aVcrystallin
p2404
asI6271273
(lp2405
Vpolysilica
p2406
aVorgano
p2407
aVporous
p2408
aVdielectr
p2409
aVmateri
p2410
aVdisclos
p2411
aVconstant
p2412
aVelectron
p2413
aVmanufactur
p2414
aVprepar
p2415
asI5711149
(lp2416
Vand
p2417
aVheater
p2418
aVoxid
p2419
aVexhaust
p2420
aVdevic
p2421
aVpredetermin
p2422
aVsuppli
p2423
aVunit
p2424
aVonli
p2425
aVengin
p2426
asI5713199
(lp2427
Vand
p2428
aVfrom
p2429
aValmost
p2430
aVwhen
p2431
aVzero
p2432
aVgenerat
p2433
aVfurther
p2434
aVproport
p2435
aVuse
p2436
aVdetect
p2437
asI5996338
(lp2438
Vexhaust
p2439
aVpurifi
p2440
aVcatalyst
p2441
aVadsorb
p2442
aVgas
p2443
aVtemperatur
p2444
aVsub
p2445
aVcapac
p2446
aVinflow
p2447
aVheater
p2448
asI7717171
(lp2449
Vhydrocarbon
p2450
aVportion
p2451
aVthird
p2452
aVformat
p2453
aVtar
p2454
aVfluid
p2455
aVsand
p2456
aVheater
p2457
aVfirst
p2458
aVheat
p2459
asI6348085
(lp2460
Vfilter
p2461
aVflute
p2462
aVend
p2463
aVfirst
p2464
aVelement
p2465
aVcircumscrib
p2466
aVsleev
p2467
aVportion
p2468
aVsecond
p2469
aVarrang
p2470
asI6618934
(lp2471
Vsensor
p2472
aVleachabl
p2473
aVbiomolecul
p2474
aVmediat
p2475
aVanalyt
p2476
aVcoulometri
p2477
aVpotentiometri
p2478
aVamperometri
p2479
aVelectrooxid
p2480
aVelectroreduct
p2481
asI5914433
(lp2482
Volefin
p2483
aVcrack
p2484
aValuminophosph
p2485
aVpropylen
p2486
aVoxygen
p2487
aVzone
p2488
aVbutylen
p2489
aVcatalyst
p2490
aVfeedstock
p2491
aVstream
p2492
asI6093636
(lp2493
Vand
p2494
aVprocess
p2495
aVmetal
p2496
aVinvent
p2497
aVether
p2498
aVuse
p2499
aVmatrix
p2500
aVfor
p2501
aVdevic
p2502
aVmanufactur
p2503
asI6942518
(lp2504
Vanalyt
p2505
aVsensor
p2506
aVdetermin
p2507
aVcharg
p2508
aVcoulometri
p2509
aVpotentiometri
p2510
aVamperometri
p2511
aVamount
p2512
aVlactat
p2513
aVvolum
p2514
asI5437153
(lp2515
Vabsorb
p2516
aVsub
p2517
aVexhaust
p2518
aVengin
p2519
aVrich
p2520
aVfuel
p2521
aVratio
p2522
aVgas
p2523
aVair
p2524
aVestim
p2525
asI7631689
(lp2526
Vsulfur
p2527
aVformat
p2528
aVbarrier
p2529
aVdarci
p2530
aVsubsurfac
p2531
aVtreatment
p2532
aVwellbor
p2533
aVcooler
p2534
aVsolidifi
p2535
aVarea
p2536
asI7631690
(lp2537
Vzone
p2538
aVtreatment
p2539
aVtreat
p2540
aVspiral
p2541
aVbegin
p2542
aVformat
p2543
aVsuccess
p2544
aVmay
p2545
aVhydrocarbon
p2546
aVprevious
p2547
asI5751629
(lp2548
Vmatrix
p2549
aVmacromolecul
p2550
aVmemori
p2551
aVbiolog
p2552
aVcombin
p2553
aVimmunoassay
p2554
aVmolecul
p2555
aVelectroniclli
p2556
aVmatric
p2557
aVremot
p2558
asI7673681
(lp2559
Vkarst
p2560
aVtar
p2561
aVsand
p2562
aVformat
p2563
aVzone
p2564
aVmobil
p2565
aVtreat
p2566
aVmore
p2567
aVfluid
p2568
aVmay
p2569
asI7604052
(lp2570
Vsubsurfac
p2571
aVformat
p2572
aVparticl
p2573
aVcenospher
p2574
aVheat
p2575
aVsitu
p2576
aVproduc
p2577
aVhydrocarbon
p2578
aVmicromet
p2579
aVtreatment
p2580
asI6461496
(lp2581
Vleachabl
p2582
aVsensor
p2583
aVbiomolecul
p2584
aVredox
p2585
aVdiffus
p2586
aVmediat
p2587
aVanalyt
p2588
aVcoulometri
p2589
aVpotentiometri
p2590
aVamperometri
p2591
asI6832473
(lp2592
Vadsorb
p2593
aVvalv
p2594
aVparticul
p2595
aVreform
p2596
aVfilter
p2597
aVsub
p2598
aVcatalyst
p2599
aVregener
p2600
aVoxid
p2601
aVdownstream
p2602
asI5473887
(lp2603
sI6225243
(lp2604
Vcompon
p2605
aVpolymer
p2606
aVstrand
p2607
aVnonwoven
p2608
aVweb
p2609
aVelast
p2610
aVzone
p2611
aVsticki
p2612
aVsecond
p2613
aVovercom
p2614
asI7793722
(lp2615
Voverburden
p2616
aVheater
p2617
aVwellbor
p2618
aVferromagnet
p2619
aVsubsurfac
p2620
aVcase
p2621
aVformat
p2622
aVinsul
p2623
aVdescrib
p2624
aVnon
p2625
asI6109024
(lp2626
sI5331809
(lp2627
Vcours
p2628
aVrise
p2629
aVcatalyst
p2630
aVexhaust
p2631
aVpurif
p2632
aVtemperatur
p2633
aVengin
p2634
aVgas
p2635
aVoxid
p2636
aVnitrogen
p2637
asI6329062
(lp2638
Vsilicalit
p2639
aVbinder
p2640
aVporous
p2641
aVnanocryst
p2642
aVslurri
p2643
aVprecursor
p2644
aVmateri
p2645
aVspincoat
p2646
aVdielectr
p2647
aVpolymer
p2648
asI6900881
(lp2649
Vimprint
p2650
aVlithographi
p2651
aVtemplat
p2652
aVcurabl
p2653
aVlight
p2654
aVactiv
p2655
aVsubstrat
p2656
aVsystem
p2657
aVliquid
p2658
aVconfigur
p2659
asI4973792
(lp2660
Vfeedstock
p2661
aVcatalyt
p2662
aVconvers
p2663
aVchemic
p2664
aVprocess
p2665
aVconvert
p2666
aVproduct
p2667
aVinto
p2668
aVcompris
p2669
aVwhich
p2670
asI5605746
(lp2671
Vparticul
p2672
aVfibrous
p2673
aVmicrofib
p2674
aVstructur
p2675
aVfiber
p2676
aVweb
p2677
aVmatrix
p2678
aVtortuous
p2679
aVcomposit
p2680
aVnylon
p2681
asI7062904
(lp2682
Vparticul
p2683
aVnox
p2684
aVexhaust
p2685
aVadsorb
p2686
aVfilter
p2687
aVammonia
p2688
aVscr
p2689
aVnofor
p2690
aVcatalyst
p2691
aVregener
p2692
asI5198203
(lp2693
Vcrystallin
p2694
aVbenzen
p2695
aVgram
p2696
aVsynthet
p2697
aVcapac
p2698
aVmesopor
p2699
aVsorption
p2700
aVnew
p2701
aVtorr
p2702
aVsorbent
p2703
asI7677310
(lp2704
Vformat
p2705
aVtar
p2706
aVsand
p2707
aVhydrocarbon
p2708
aVcap
p2709
aVtreat
p2710
aVgas
p2711
aVupper
p2712
aVportion
p2713
aVheater
p2714
asI6975893
(lp2715
Vanalyt
p2716
aVsensor
p2717
aVsens
p2718
aVmass
p2719
aVvivo
p2720
aVmammal
p2721
aVtransport
p2722
aVlayer
p2723
aVedg
p2724
aVwork
p2725
asI4826497
(lp2726
Vdeodor
p2727
aVabsorb
p2728
aVfibrous
p2729
aVunderwear
p2730
aVcatameni
p2731
aVarticl
p2732
aVbandag
p2733
aVproperti
p2734
aVangstrom
p2735
aVincontin
p2736
asI7677314
(lp2737
Vformat
p2738
aVtar
p2739
aVheater
p2740
aVsand
p2741
aVcondens
p2742
aVvapor
p2743
aVmay
p2744
aVtreat
p2745
aVwater
p2746
aVportion
p2747
asI6908861
(lp2748
Vtemplat
p2749
aVcurabl
p2750
aVliquid
p2751
aVactiv
p2752
aVlight
p2753
aVfield
p2754
aVlithographi
p2755
aVelectr
p2756
aVsubstrat
p2757
aVappli
p2758
asI6014859
(lp2759
sI6068620
(lp2760
Vand
p2761
aVupper
p2762
aVlayer
p2763
aVweight
p2764
aVfibrous
p2765
aVgarment
p2766
aVdure
p2767
aVwithin
p2768
aVprefer
p2769
aVone
p2770
asI7591310
(lp2771
Vhydrotr
p2772
aVstream
p2773
aVclog
p2774
aVliquid
p2775
aVsitu
p2776
aVtreatment
p2777
aVheat
p2778
aVremov
p2779
aVformat
p2780
aVproduc
p2781
asI6921615
(lp2782
Vimprint
p2783
aValign
p2784
aVlithographi
p2785
aVtemplat
p2786
aVcorrect
p2787
aVlithograph
p2788
aVoverlay
p2789
aVprocess
p2790
aVsubstrat
p2791
aVdure
p2792
asI4824976
(lp2793
Vepoxid
p2794
aVolefin
p2795
aVcompound
p2796
aVzeolit
p2797
aVperoxid
p2798
aVtitanium
p2799
aVsynthet
p2800
aVsubstanc
p2801
aVreact
p2802
aVatom
p2803
asI6617490
(lp2804
Vmold
p2805
aVweb
p2806
aVairlaid
p2807
aVhump
p2808
aVarticl
p2809
aVenergi
p2810
aVabsorb
p2811
aVimprov
p2812
aVfit
p2813
aVcentral
p2814
asI7640980
(lp2815
Vsubsurfac
p2816
aVformat
p2817
aVhydrocarbon
p2818
aVheat
p2819
aVheater
p2820
aVpyrolyz
p2821
aVmay
p2822
aVsome
p2823
aVmore
p2824
aVprocess
p2825
asI7581589
(lp2826
Vstream
p2827
aValkyl
p2828
aVgas
p2829
aVhydrocarbon
p2830
aVproduc
p2831
aVsitu
p2832
aVolefin
p2833
aVliquid
p2834
aVformat
p2835
aVsubsurfac
p2836
asI5741462
(lp2837
Vmatrix
p2838
aVmacromolecul
p2839
aVmemori
p2840
aVcombin
p2841
aVmatric
p2842
aVremot
p2843
aVbiolog
p2844
aVprogramm
p2845
aVmolecul
p2846
aVphage
p2847
asI7860377
(lp2848
Vheater
p2849
aVsubsurfac
p2850
aVexpos
p2851
aVformat
p2852
aVelong
p2853
aVopen
p2854
aVfirst
p2855
aVportion
p2856
aVsection
p2857
aVbelow
p2858
asI5733272
(lp2859
Vcontrol
p2860
aVand
p2861
aVassur
p2862
aVcomposit
p2863
aVshield
p2864
aVpantilin
p2865
aVgarment
p2866
aVinvent
p2867
aVscent
p2868
aVunderarm
p2869
asI5622684
(lp2870
Vmesostructur
p2871
aVpore
p2872
aVsurfact
p2873
aVinorgan
p2874
aVlarg
p2875
aVoxid
p2876
aVsunburst
p2877
aVtemplat
p2878
aVdegre
p2879
aVambient
p2880
asI4554143
(lp2881
Vferroaluminophosph
p2882
aVcrystallin
p2883
aVtetrahedr
p2884
aVhydrotherm
p2885
aValo
p2886
aVferric
p2887
aVmicropor
p2888
aVferrous
p2889
aVsub
p2890
aVlattic
p2891
asI7832484
(lp2892
Vsubsurfac
p2893
aVconduit
p2894
aVformat
p2895
aVheat
p2896
aVconductor
p2897
aVfluid
p2898
aVinsul
p2899
aVsalt
p2900
aVmateri
p2901
aVtransfer
p2902
asI5771685
(lp2903
Vtrap
p2904
aVsub
p2905
aVlean
p2906
aVpurg
p2907
aVhego
p2908
aVcruis
p2909
aVrich
p2910
aVtime
p2911
aVperform
p2912
aVsulfur
p2913
asI6928806
(lp2914
Vscr
p2915
aVcatalyst
p2916
aVparticul
p2917
aVnox
p2918
aVfilter
p2919
aVtailpip
p2920
aVaftertreat
p2921
aVdue
p2922
aVsystem
p2923
aVlean
p2924
asI4310440
(lp2925
Valuminophosph
p2926
aVcrystallin
p2927
aVmicropor
p2928
aVmolecular
p2929
aVsiev
p2930
aVfamili
p2931
aVmetallophosph
p2932
aVintracrystallin
p2933
aVadsorb
p2934
aVspeci
p2935
asI6616819
(lp2936
Vanalyt
p2937
aVsensor
p2938
aVdetermin
p2939
aVcharg
p2940
aVcoulometri
p2941
aVpotentiometri
p2942
aVamperometri
p2943
aVamount
p2944
aVlactat
p2945
aVvolum
p2946
asI5595060
(lp2947
Vnitrogen
p2948
aVengin
p2949
aVcatalyt
p2950
aVoxid
p2951
aVcombust
p2952
aVadsorb
p2953
aVdeterior
p2954
aVexhaust
p2955
aVlean
p2956
aVpurifi
p2957
asI5019062
(lp2958
Vbicompon
p2959
aVgase
p2960
aVpass
p2961
aVliquid
p2962
aVmateri
p2963
aVlamina
p2964
aVbodili
p2965
aVdeal
p2966
aVodor
p2967
aVopposit
p2968
asI5735119
(lp2969
Vand
p2970
aVfrom
p2971
aVdevic
p2972
aVare
p2973
aVengin
p2974
aVdetect
p2975
aVratio
p2976
aVsub
p2977
aVfor
p2978
aVpassag
p2979
asI7673786
(lp2980
Vshield
p2981
aVinert
p2982
aVportion
p2983
aVheater
p2984
aVweld
p2985
aVconfigur
p2986
aVend
p2987
aVgas
p2988
aVdoor
p2989
aVhing
p2990
asI6111163
(lp2991
sI7041468
(lp2992
Vglucos
p2993
aVtest
p2994
aVstrip
p2995
aVhous
p2996
aVreceptacl
p2997
aVhand
p2998
aVheld
p2999
aVconnector
p3000
aVmodul
p3001
aVamount
p3002
asI6165949
(lp3003
Vdialkyldithiophosph
p3004
aVantiwear
p3005
aVstock
p3006
aVmetal
p3007
aVpremium
p3008
aVtropsch
p3009
aVfischer
p3010
aVethoxyl
p3011
aVlubric
p3012
aVsynthet
p3013
asI5856245
(lp3014
Vand
p3015
aVall
p3016
aVcomposit
p3017
aVbe
p3018
aVcertain
p3019
aVinto
p3020
aVinvent
p3021
aVare
p3022
aVsubstanti
p3023
aVpartner
p3024
asI7849922
(lp3025
Vsection
p3026
aVformat
p3027
aVhydrocarbon
p3028
aVheat
p3029
aVheater
p3030
aVresidu
p3031
aVfirst
p3032
aVtar
p3033
aVsolvat
p3034
aVtransfer
p3035
asI6932934
(lp3036
Vcurabl
p3037
aVtemplat
p3038
aVimprint
p3039
aVlithographi
p3040
aVliquid
p3041
aVsubstrat
p3042
aVpattern
p3043
aVshallow
p3044
aVgather
p3045
aVdiscontinu
p3046
asI7056840
(lp3047
Vorganosil
p3048
aVnanopor
p3049
aVporogen
p3050
aVlayer
p3051
aVmateri
p3052
aVpattern
p3053
aVsolubl
p3054
aVsolvent
p3055
aVenergi
p3056
aVdecompos
p3057
asI7798220
(lp3058
Vhydrocarbon
p3059
aVtar
p3060
aVformat
p3061
aVsand
p3062
aVsome
p3063
aVlayer
p3064
aVdrive
p3065
aVproduc
p3066
aVtreatment
p3067
aVupgrad
p3068
asI7798221
(lp3069
Vformat
p3070
aVhydrocarbon
p3071
aVpyrolysi
p3072
aVcondens
p3073
aVmay
p3074
aVsitu
p3075
aVrais
p3076
aVtemperatur
p3077
aVoil
p3078
aVshale
p3079
asI5423181
(lp3080
Vfuel
p3081
aVair
p3082
aVratio
p3083
aVstoichiometr
p3084
aVabsorb
p3085
aVexhaust
p3086
aVsub
p3087
aVlean
p3088
aVrich
p3089
aVgas
p3090
asI7176144
(lp3091
Vsilanol
p3092
aVporogen
p3093
aVdielectr
p3094
aVcap
p3095
aVmatrix
p3096
aVdetempl
p3097
aVplasma
p3098
aVsequenti
p3099
aVlow
p3100
aVconcurr
p3101
asI7562706
(lp3102
Vhydrocarbon
p3103
aVdrainag
p3104
aVtar
p3105
aVheater
p3106
aVformat
p3107
aVsand
p3108
aVheat
p3109
aVpartial
p3110
aVconverg
p3111
aVpath
p3112
asI7562707
(lp3113
Vsection
p3114
aVhydrocarbon
p3115
aVheat
p3116
aVfirst
p3117
aVheater
p3118
aVformat
p3119
aVmobil
p3120
aVsecond
p3121
aVmay
p3122
aVsome
p3123
asI6121170
(lp3124
Vwater
p3125
aVdispers
p3126
aVsensit
p3127
aVproduct
p3128
aVflushabl
p3129
aVfeminin
p3130
aVnapkin
p3131
aVcomposit
p3132
aVfiber
p3133
aVthermoform
p3134
asI7703513
(lp3135
Vbarrier
p3136
aVwax
p3137
aVformat
p3138
aVcongeal
p3139
aVintroduc
p3140
aVsubsurfac
p3141
aVwellbor
p3142
aVsitu
p3143
aVmore
p3144
aVmateri
p3145
asI5300192
(lp3146
Vbinder
p3147
aVfiber
p3148
aVfunction
p3149
aVbond
p3150
aVparticl
p3151
aVpolymer
p3152
aVbound
p3153
aVcoval
p3154
aVlaid
p3155
aVhydrogen
p3156
asI5191141
(lp3157
Vand
p3158
aVempir
p3159
aVless
p3160
aVprocess
p3161
aVprefer
p3162
aVinvent
p3163
aVcobalt
p3164
aVare
p3165
aVhave
p3166
aVrespect
p3167
asI6599631
(lp3168
Vcomposit
p3169
aVinorgan
p3170
aVparticl
p3171
aVchemic
p3172
aVbond
p3173
aVpolym
p3174
aVoptic
p3175
aVelectro
p3176
aVfurthermor
p3177
aVcopolym
p3178
asI6916584
(lp3179
Vtemplat
p3180
aVimprint
p3181
aVlithographi
p3182
aVliquid
p3183
aVcure
p3184
aValign
p3185
aVsubstrat
p3186
aVpattern
p3187
aVbrought
p3188
aVdispens
p3189
asI6251260
(lp3190
Vpotentiometr
p3191
aVanalyt
p3192
aVsampl
p3193
aVelectrod
p3194
aVcorrel
p3195
aVdetermin
p3196
aVpotenti
p3197
aVlinear
p3198
aVconcentr
p3199
aVsensor
p3200
asI5614570
(lp3201
Vfiber
p3202
aVbond
p3203
aVbinder
p3204
aVhydrogen
p3205
aVadher
p3206
aVcoval
p3207
aVdensifi
p3208
aVparticl
p3209
aVcoordin
p3210
aVbulk
p3211
asI5743084
(lp3212
Vtrap
p3213
aVsub
p3214
aVlean
p3215
aVpurg
p3216
aVhego
p3217
aVcruis
p3218
aVrich
p3219
aVtime
p3220
aVperform
p3221
aVsulfur
p3222
asI6365266
(lp3223
Vfilm
p3224
aVceram
p3225
aVmesopor
p3226
aVppm
p3227
aVsubstrat
p3228
aVfluid
p3229
aVsolvent
p3230
aVdielectr
p3231
aVconstant
p3232
aVcontent
p3233
asI4861938
(lp3234
Vsolid
p3235
aVregener
p3236
aVfeedstock
p3237
aVcomposit
p3238
aVdeactiv
p3239
aVcondit
p3240
aVstep
p3241
aVconvers
p3242
aVcontact
p3243
aVpartial
p3244
asI4567029
(lp3245
Vand
p3246
aValo
p3247
aVhydrotherm
p3248
aVconstitu
p3249
aVcomposit
p3250
aVadsorb
p3251
aVtemplat
p3252
aVone
p3253
aVare
p3254
aVunit
p3255
asI6873087
(lp3256
Vimprint
p3257
aVflexur
p3258
aVtemplat
p3259
aVstage
p3260
aVorient
p3261
aVlithographi
p3262
aVcalibr
p3263
aVfine
p3264
aVprecis
p3265
aVgap
p3266
asI4934142
(lp3267
Vexhaust
p3268
aVfilter
p3269
aVcopper
p3270
aVemiss
p3271
aVgas
p3272
aVcordierit
p3273
aVoffens
p3274
aVion
p3275
aVtau
p3276
aVhoneycomb
p3277
asI7556095
(lp3278
Vdawsonit
p3279
aVformat
p3280
aVchelat
p3281
aVdecomposit
p3282
aVdissolv
p3283
aVhydrocarbon
p3284
aVheat
p3285
aVshale
p3286
aVsome
p3287
aVagent
p3288
astp3289
.